   1              		.cpu cortex-m7
   2              		.arch armv7e-m
   3              		.fpu fpv5-d16
   4              		.eabi_attribute 28, 1
   5              		.eabi_attribute 20, 1
   6              		.eabi_attribute 21, 1
   7              		.eabi_attribute 23, 3
   8              		.eabi_attribute 24, 1
   9              		.eabi_attribute 25, 1
  10              		.eabi_attribute 26, 1
  11              		.eabi_attribute 30, 6
  12              		.eabi_attribute 34, 1
  13              		.eabi_attribute 18, 4
  14              		.file	"zf_driver_exti.c"
  15              		.text
  16              	.Ltext0:
  17              		.cfi_sections	.debug_frame
  18              		.section	.rodata.exti_irq_index_list,"a"
  19              		.align	2
  22              	exti_irq_index_list:
  23 0000 06       		.byte	6
  24 0001 07       		.byte	7
  25 0002 08       		.byte	8
  26 0003 09       		.byte	9
  27 0004 0A       		.byte	10
  28 0005 28       		.byte	40
  29 0006 28       		.byte	40
  30 0007 28       		.byte	40
  31 0008 28       		.byte	40
  32 0009 28       		.byte	40
  33 000a 29       		.byte	41
  34 000b 29       		.byte	41
  35 000c 29       		.byte	41
  36 000d 29       		.byte	41
  37 000e 29       		.byte	41
  38 000f 29       		.byte	41
  39              		.global	exti_callback
  40              		.section	.data.exti_callback,"aw"
  41              		.align	2
  44              	exti_callback:
  45 0000 00000000 		.word	zf_exti_callbakc_defalut
  46 0004 00000000 		.word	0
  47 0008 00000000 		.word	zf_exti_callbakc_defalut
  48 000c 00000000 		.word	0
  49 0010 00000000 		.word	zf_exti_callbakc_defalut
  50 0014 00000000 		.word	0
  51 0018 00000000 		.word	zf_exti_callbakc_defalut
  52 001c 00000000 		.word	0
  53 0020 00000000 		.word	zf_exti_callbakc_defalut
  54 0024 00000000 		.word	0
  55 0028 00000000 		.word	zf_exti_callbakc_defalut
  56 002c 00000000 		.word	0
  57 0030 00000000 		.word	zf_exti_callbakc_defalut
  58 0034 00000000 		.word	0
  59 0038 00000000 		.word	zf_exti_callbakc_defalut
  60 003c 00000000 		.word	0
  61 0040 00000000 		.word	zf_exti_callbakc_defalut
  62 0044 00000000 		.word	0
  63 0048 00000000 		.word	zf_exti_callbakc_defalut
  64 004c 00000000 		.word	0
  65 0050 00000000 		.word	zf_exti_callbakc_defalut
  66 0054 00000000 		.word	0
  67 0058 00000000 		.word	zf_exti_callbakc_defalut
  68 005c 00000000 		.word	0
  69 0060 00000000 		.word	zf_exti_callbakc_defalut
  70 0064 00000000 		.word	0
  71 0068 00000000 		.word	zf_exti_callbakc_defalut
  72 006c 00000000 		.word	0
  73 0070 00000000 		.word	zf_exti_callbakc_defalut
  74 0074 00000000 		.word	0
  75 0078 00000000 		.word	zf_exti_callbakc_defalut
  76 007c 00000000 		.word	0
  77              		.global	exti_obj_list
  78              		.section	.data.exti_obj_list,"aw"
  79              		.align	2
  82              	exti_obj_list:
  83 0000 00040042 		.word	1107297280
  84 0004 FF0F     		.short	4095
  85 0006 FF0F     		.short	4095
  86 0008 FF0F     		.short	4095
  87 000a FF0F     		.short	4095
  88 000c FF0F     		.short	4095
  89 000e FF0F     		.short	4095
  90 0010 FF0F     		.short	4095
  91 0012 FF0F     		.short	4095
  92 0014 FF0F     		.short	4095
  93 0016 FF0F     		.short	4095
  94 0018 FF0F     		.short	4095
  95 001a FF0F     		.short	4095
  96 001c FF0F     		.short	4095
  97 001e FF0F     		.short	4095
  98 0020 FF0F     		.short	4095
  99 0022 FF0F     		.short	4095
 100 0024 00000000 		.word	0
 101              		.section	.text.zf_exti_callbakc_defalut,"ax",%progbits
 102              		.align	1
 103              		.p2align 4,,15
 104              		.syntax unified
 105              		.thumb
 106              		.thumb_func
 108              	zf_exti_callbakc_defalut:
 109              	.LFB180:
 110              		.file 1 "libraries/zf_driver/zf_driver_exti.c"
   1:libraries/zf_driver/zf_driver_exti.c **** /**************************************************************************************************
   2:libraries/zf_driver/zf_driver_exti.c **** * Stellar-SR5E1E3 Opensource Library Âç≥ÔºàStellar-SR5E1E3 ÂºÄÊ∫êÂ∫ìÔºâÊòØ‰∏Ä‰∏™Âü∫‰∫éÂÆòÊñπ SDK Êé
   3:libraries/zf_driver/zf_driver_exti.c **** * Copyright (c) 2022 SEEKFREE ÈÄêÈ£ûÁßëÊäÄ
   4:libraries/zf_driver/zf_driver_exti.c **** *
   5:libraries/zf_driver/zf_driver_exti.c **** * Êú¨Êñá‰ª∂ÊòØ Stellar-SR5E1E3 ÂºÄÊ∫êÂ∫ìÁöÑ‰∏ÄÈÉ®ÂàÜ
   6:libraries/zf_driver/zf_driver_exti.c **** *
   7:libraries/zf_driver/zf_driver_exti.c **** * Stellar-SR5E1E3 ÂºÄÊ∫êÂ∫ì ÊòØÂÖçË¥πËΩØ‰ª∂
   8:libraries/zf_driver/zf_driver_exti.c **** * ÊÇ®ÂèØ‰ª•Ê†πÊçÆËá™Áî±ËΩØ‰ª∂Âü∫Èáë‰ºöÂèëÂ∏ÉÁöÑ GPLÔºàGNU General Public LicenseÔºåÂç≥ GNUÈÄöÁî®ÂÖ¨
   9:libraries/zf_driver/zf_driver_exti.c **** * Âç≥ GPL ÁöÑÁ¨¨3ÁâàÔºàÂç≥ GPL3.0ÔºâÊàñÔºàÊÇ®ÈÄâÊã©ÁöÑÔºâ‰ªª‰ΩïÂêéÊù•ÁöÑÁâàÊú¨ÔºåÈáçÊñ∞ÂèëÂ∏ÉÂíå/Êà
  10:libraries/zf_driver/zf_driver_exti.c **** *
  11:libraries/zf_driver/zf_driver_exti.c **** * Êú¨ÂºÄÊ∫êÂ∫ìÁöÑÂèëÂ∏ÉÊòØÂ∏åÊúõÂÆÉËÉΩÂèëÊå•‰ΩúÁî®Ôºå‰ΩÜÂπ∂Êú™ÂØπÂÖ∂‰Ωú‰ªª‰ΩïÁöÑ‰øùËØÅ
  12:libraries/zf_driver/zf_driver_exti.c **** * ÁîöËá≥Ê≤°ÊúâÈöêÂê´ÁöÑÈÄÇÈîÄÊÄßÊàñÈÄÇÂêàÁâπÂÆöÁî®ÈÄîÁöÑ‰øùËØÅ
  13:libraries/zf_driver/zf_driver_exti.c **** * Êõ¥Â§öÁªÜËäÇËØ∑ÂèÇËßÅ GPL
  14:libraries/zf_driver/zf_driver_exti.c **** *
  15:libraries/zf_driver/zf_driver_exti.c **** * ÊÇ®Â∫îËØ•Âú®Êî∂Âà∞Êú¨ÂºÄÊ∫êÂ∫ìÁöÑÂêåÊó∂Êî∂Âà∞‰∏Ä‰ªΩ GPL ÁöÑÂâØÊú¨
  16:libraries/zf_driver/zf_driver_exti.c **** * Â¶ÇÊûúÊ≤°ÊúâÔºåËØ∑ÂèÇÈòÖ<https://www.gnu.org/licenses/>
  17:libraries/zf_driver/zf_driver_exti.c **** *
  18:libraries/zf_driver/zf_driver_exti.c **** * È¢ùÂ§ñÊ≥®ÊòéÔºö
  19:libraries/zf_driver/zf_driver_exti.c **** * Êú¨ÂºÄÊ∫êÂ∫ì‰ΩøÁî® GPL3.0 ÂºÄÊ∫êËÆ∏ÂèØËØÅÂçèËÆÆ ‰ª•‰∏äËÆ∏ÂèØÁî≥Êòé‰∏∫ËØëÊñáÁâàÊú¨
  20:libraries/zf_driver/zf_driver_exti.c **** * ËÆ∏ÂèØÁî≥ÊòéËã±ÊñáÁâàÂú® libraries/doc Êñá‰ª∂Â§π‰∏ãÁöÑ GPL3_permission_statement.txt Êñá‰ª∂‰∏≠
  21:libraries/zf_driver/zf_driver_exti.c **** * ËÆ∏ÂèØËØÅÂâØÊú¨Âú® libraries Êñá‰ª∂Â§π‰∏ã Âç≥ËØ•Êñá‰ª∂Â§π‰∏ãÁöÑ LICENSE Êñá‰ª∂
  22:libraries/zf_driver/zf_driver_exti.c **** * Ê¨¢ËøéÂêÑ‰Ωç‰ΩøÁî®Âπ∂‰º†Êí≠Êú¨Á®ãÂ∫è ‰ΩÜ‰øÆÊîπÂÜÖÂÆπÊó∂ÂøÖÈ°ª‰øùÁïôÈÄêÈ£ûÁßëÊäÄÁöÑÁâàÊùÉÂ£∞ÊòéÔºà
  23:libraries/zf_driver/zf_driver_exti.c **** *
  24:libraries/zf_driver/zf_driver_exti.c **** * Êñá‰ª∂ÂêçÁß∞          zf_driver_exti
  25:libraries/zf_driver/zf_driver_exti.c **** * ÂÖ¨Âè∏ÂêçÁß∞          ÊàêÈÉΩÈÄêÈ£ûÁßëÊäÄÊúâÈôêÂÖ¨Âè∏
  26:libraries/zf_driver/zf_driver_exti.c **** * ÁâàÊú¨‰ø°ÊÅØ          Êü•Áúã libraries/doc Êñá‰ª∂Â§πÂÜÖ version Êñá‰ª∂ ÁâàÊú¨ËØ¥Êòé
  27:libraries/zf_driver/zf_driver_exti.c **** * ÂºÄÂèëÁéØÂ¢É          StellarStudio 7.0.0
  28:libraries/zf_driver/zf_driver_exti.c **** * ÈÄÇÁî®Âπ≥Âè∞          Stellar-SR5E1E3
  29:libraries/zf_driver/zf_driver_exti.c **** * Â∫óÈì∫ÈìæÊé•          https://www.seekfree.cn/
  30:libraries/zf_driver/zf_driver_exti.c **** ***************************************************************************************************
  31:libraries/zf_driver/zf_driver_exti.c **** 
  32:libraries/zf_driver/zf_driver_exti.c **** // zf_common Â±ÇÂºïÁî®
  33:libraries/zf_driver/zf_driver_exti.c **** #include "zf_common_debug.h"
  34:libraries/zf_driver/zf_driver_exti.c **** #include "zf_common_memory.h"
  35:libraries/zf_driver/zf_driver_exti.c **** 
  36:libraries/zf_driver/zf_driver_exti.c **** // zf_driver Â±ÇÂºïÁî®
  37:libraries/zf_driver/zf_driver_exti.c **** #include "zf_driver_interrupt.h"
  38:libraries/zf_driver/zf_driver_exti.c **** #include "zf_driver_rcc.h"
  39:libraries/zf_driver/zf_driver_exti.c **** #include "zf_driver_system.h"
  40:libraries/zf_driver/zf_driver_exti.c **** 
  41:libraries/zf_driver/zf_driver_exti.c **** // Ëá™Ë∫´Â§¥Êñá‰ª∂
  42:libraries/zf_driver/zf_driver_exti.c **** #include "zf_driver_exti.h"
  43:libraries/zf_driver/zf_driver_exti.c **** 
  44:libraries/zf_driver/zf_driver_exti.c **** // Ê≠§Â§ÑÂÆö‰πâ Êú¨Êñá‰ª∂Áî®‰ΩøÁî®ÁöÑÂèòÈáè‰∏éÂØπË±°Á≠â ËøôÈáå‰∏çÂÖÅËÆ∏Áî®Êà∑‰øÆÊîπ
  45:libraries/zf_driver/zf_driver_exti.c **** // >>>>>>>>>>>>>>>>>>>>>>>>>>>>>>>>>>>>>>>>> Part Start >>>>>>>>>>>>>>>>>>>>>>>>>>>>>>>>>>>>>>>>>
  46:libraries/zf_driver/zf_driver_exti.c **** // Áî®‰∫éÂõ∫ÂÆöÂÄºÊàñÊåáÂêëÁöÑÂÜÖÂÆπ ‰∏ªË¶ÅÊòØÁî®Â∞ëÈáèÂ≠òÂÇ®Âç†Áî®Êù•ÂáèÂ∞ëÊ†àÂºÄÈîÄ
  47:libraries/zf_driver/zf_driver_exti.c **** static const zf_interrupt_index_enum exti_irq_index_list[EXTI_MODULE_NUM_MAX][EXTI_CHANNEL_NUM_MAX]
  48:libraries/zf_driver/zf_driver_exti.c **** {
  49:libraries/zf_driver/zf_driver_exti.c ****     {
  50:libraries/zf_driver/zf_driver_exti.c ****         INTERRUPT_INDEX_EXTI0       ,   INTERRUPT_INDEX_EXTI1       ,   INTERRUPT_INDEX_EXTI2      
  51:libraries/zf_driver/zf_driver_exti.c ****         INTERRUPT_INDEX_EXTI4       ,   INTERRUPT_INDEX_EXTI9_5     ,   INTERRUPT_INDEX_EXTI9_5    
  52:libraries/zf_driver/zf_driver_exti.c ****         INTERRUPT_INDEX_EXTI9_5     ,   INTERRUPT_INDEX_EXTI9_5     ,   INTERRUPT_INDEX_EXTI15_10  
  53:libraries/zf_driver/zf_driver_exti.c ****         INTERRUPT_INDEX_EXTI15_10   ,   INTERRUPT_INDEX_EXTI15_10   ,   INTERRUPT_INDEX_EXTI15_10  
  54:libraries/zf_driver/zf_driver_exti.c ****     }
  55:libraries/zf_driver/zf_driver_exti.c **** };
  56:libraries/zf_driver/zf_driver_exti.c **** 
  57:libraries/zf_driver/zf_driver_exti.c **** static void zf_exti_callbakc_defalut (uint32 event, void *ptr);
  58:libraries/zf_driver/zf_driver_exti.c **** 
  59:libraries/zf_driver/zf_driver_exti.c **** // Â≠òÂÇ®‰∫éÈ¢ÑÂºÄËæüÁöÑÂÜÖÂ≠òÊ±†‰∏≠ÁöÑÁÆ°ÁêÜ‰ø°ÊÅØ Êú¨ÈÉ®ÂàÜÂØπ‰∫éÁî®Êà∑Êù•ËØ¥ÊòØ‰∏çÂºÄÊîæÁöÑ
  60:libraries/zf_driver/zf_driver_exti.c **** AT_ZF_LIB_SECTION_START
  61:libraries/zf_driver/zf_driver_exti.c **** // Â§ñÈÉ®‰∏≠Êñ≠ ÂõûË∞ÉÂáΩÊï∞Á¨¨‰∏Ä‰∏™ÂèÇÊï∞Âõ∫ÂÆö‰∏∫ 0 Á¨¨‰∫å‰∏™ÂèÇÊï∞ÊòØÁî®Êà∑ÊåáÈíà
  62:libraries/zf_driver/zf_driver_exti.c **** AT_ZF_LIB_SECTION zf_interrupt_callback_struct exti_callback[EXTI_MODULE_NUM_MAX][EXTI_CHANNEL_NUM_
  63:libraries/zf_driver/zf_driver_exti.c **** {
  64:libraries/zf_driver/zf_driver_exti.c ****     {
  65:libraries/zf_driver/zf_driver_exti.c ****         {zf_exti_callbakc_defalut, NULL},   {zf_exti_callbakc_defalut, NULL},
  66:libraries/zf_driver/zf_driver_exti.c ****         {zf_exti_callbakc_defalut, NULL},   {zf_exti_callbakc_defalut, NULL},
  67:libraries/zf_driver/zf_driver_exti.c ****         {zf_exti_callbakc_defalut, NULL},   {zf_exti_callbakc_defalut, NULL},
  68:libraries/zf_driver/zf_driver_exti.c ****         {zf_exti_callbakc_defalut, NULL},   {zf_exti_callbakc_defalut, NULL},
  69:libraries/zf_driver/zf_driver_exti.c ****         {zf_exti_callbakc_defalut, NULL},   {zf_exti_callbakc_defalut, NULL},
  70:libraries/zf_driver/zf_driver_exti.c ****         {zf_exti_callbakc_defalut, NULL},   {zf_exti_callbakc_defalut, NULL},
  71:libraries/zf_driver/zf_driver_exti.c ****         {zf_exti_callbakc_defalut, NULL},   {zf_exti_callbakc_defalut, NULL},
  72:libraries/zf_driver/zf_driver_exti.c ****         {zf_exti_callbakc_defalut, NULL},   {zf_exti_callbakc_defalut, NULL}
  73:libraries/zf_driver/zf_driver_exti.c ****     }
  74:libraries/zf_driver/zf_driver_exti.c **** };
  75:libraries/zf_driver/zf_driver_exti.c **** 
  76:libraries/zf_driver/zf_driver_exti.c **** AT_ZF_LIB_SECTION zf_exti_obj_struct exti_obj_list[EXTI_MODULE_NUM_MAX] =
  77:libraries/zf_driver/zf_driver_exti.c **** {
  78:libraries/zf_driver/zf_driver_exti.c ****     {
  79:libraries/zf_driver/zf_driver_exti.c ****         .exti_ptr = EXTI,
  80:libraries/zf_driver/zf_driver_exti.c ****         .pin_list =
  81:libraries/zf_driver/zf_driver_exti.c ****         {
  82:libraries/zf_driver/zf_driver_exti.c ****             PIN_NULL,   PIN_NULL,   PIN_NULL,   PIN_NULL,
  83:libraries/zf_driver/zf_driver_exti.c ****             PIN_NULL,   PIN_NULL,   PIN_NULL,   PIN_NULL,
  84:libraries/zf_driver/zf_driver_exti.c ****             PIN_NULL,   PIN_NULL,   PIN_NULL,   PIN_NULL,
  85:libraries/zf_driver/zf_driver_exti.c ****             PIN_NULL,   PIN_NULL,   PIN_NULL,   PIN_NULL
  86:libraries/zf_driver/zf_driver_exti.c ****         },
  87:libraries/zf_driver/zf_driver_exti.c ****         .config_info = 0
  88:libraries/zf_driver/zf_driver_exti.c ****     },
  89:libraries/zf_driver/zf_driver_exti.c **** };
  90:libraries/zf_driver/zf_driver_exti.c **** AT_ZF_LIB_SECTION_END
  91:libraries/zf_driver/zf_driver_exti.c **** // <<<<<<<<<<<<<<<<<<<<<<<<<<<<<<<<<<<<<<<<< Part   End <<<<<<<<<<<<<<<<<<<<<<<<<<<<<<<<<<<<<<<<<
  92:libraries/zf_driver/zf_driver_exti.c **** 
  93:libraries/zf_driver/zf_driver_exti.c **** // Ê≠§Â§ÑÂÆö‰πâ Êú¨Êñá‰ª∂ÁöÑÂ§ñÈÉ®ÈáçËΩΩÂáΩÊï∞ ËøôÈáå‰∏çÂÖÅËÆ∏Áî®Êà∑‰øÆÊîπ
  94:libraries/zf_driver/zf_driver_exti.c **** // >>>>>>>>>>>>>>>>>>>>>>>>>>>>>>>>>>>>>>>>> Part Start >>>>>>>>>>>>>>>>>>>>>>>>>>>>>>>>>>>>>>>>>
  95:libraries/zf_driver/zf_driver_exti.c **** //-------------------------------------------------------------------------------------------------
  96:libraries/zf_driver/zf_driver_exti.c **** // ÂáΩÊï∞ÁÆÄ‰ªã     EXTI ‰∏≠Êñ≠ÈªòËÆ§ÂõûË∞ÉÂáΩÊï∞
  97:libraries/zf_driver/zf_driver_exti.c **** // ÂèÇÊï∞ËØ¥Êòé     event               Ëß¶Âèë‰∏≠Êñ≠ÁöÑ‰∫ã‰ª∂ Ê≠§Â§ÑÈªòËÆ§‰∏∫ 0
  98:libraries/zf_driver/zf_driver_exti.c **** // ÂèÇÊï∞ËØ¥Êòé     *ptr                ÂõûË∞ÉÂèÇÊï∞ Áî®Êà∑Ëá™ÊãüÂÆöÁöÑÂèÇÊï∞ÊåáÈíà ‰∏çÈúÄË¶ÅÁöÑËØù
  99:libraries/zf_driver/zf_driver_exti.c **** // ËøîÂõûÂèÇÊï∞     void
 100:libraries/zf_driver/zf_driver_exti.c **** // ‰ΩøÁî®Á§∫‰æã     
 101:libraries/zf_driver/zf_driver_exti.c **** // Â§áÊ≥®‰ø°ÊÅØ     
 102:libraries/zf_driver/zf_driver_exti.c **** //-------------------------------------------------------------------------------------------------
 103:libraries/zf_driver/zf_driver_exti.c **** static void zf_exti_callbakc_defalut (uint32 event, void *ptr)
 104:libraries/zf_driver/zf_driver_exti.c **** {
 111              		.loc 1 104 1
 112              		.cfi_startproc
 113              		@ args = 0, pretend = 0, frame = 8
 114              		@ frame_needed = 0, uses_anonymous_args = 0
 115              		@ link register save eliminated.
 116 0000 82B0     		sub	sp, sp, #8
 117              		.cfi_def_cfa_offset 8
 118 0002 0190     		str	r0, [sp, #4]
 119 0004 0091     		str	r1, [sp]
 105:libraries/zf_driver/zf_driver_exti.c ****     (void)event;
 106:libraries/zf_driver/zf_driver_exti.c ****     (void)ptr;
 107:libraries/zf_driver/zf_driver_exti.c **** }
 120              		.loc 1 107 1
 121 0006 00BF     		nop
 122 0008 02B0     		add	sp, sp, #8
 123              		.cfi_def_cfa_offset 0
 124              		@ sp needed
 125 000a 7047     		bx	lr
 126              		.cfi_endproc
 127              	.LFE180:
 129              		.section	.text.Vector58,"ax",%progbits
 130              		.align	1
 131              		.p2align 4,,15
 132              		.global	Vector58
 133              		.syntax unified
 134              		.thumb
 135              		.thumb_func
 137              	Vector58:
 138              	.LFB181:
 108:libraries/zf_driver/zf_driver_exti.c **** 
 109:libraries/zf_driver/zf_driver_exti.c **** #define EXTI_CALC_INDEX     ( (TEMP_EXTI_INDEX >> EXTI_INDEX_OFFSET     ) & EXTI_INDEX_MASK     )
 110:libraries/zf_driver/zf_driver_exti.c **** #define EXTI_CALC_CHANNEL   ( (TEMP_EXTI_INDEX >> EXTI_CHANNEL_OFFSET   ) & EXTI_CHANNEL_MASK   )
 111:libraries/zf_driver/zf_driver_exti.c **** 
 112:libraries/zf_driver/zf_driver_exti.c **** //-------------------------------------------------------------------------------------------------
 113:libraries/zf_driver/zf_driver_exti.c **** // ÂáΩÊï∞ÁÆÄ‰ªã     EXTI0 Á∫ø ÁöÑ‰∏≤Âè£‰∏≠Êñ≠ÊúçÂä°ÂáΩÊï∞
 114:libraries/zf_driver/zf_driver_exti.c **** // ÂèÇÊï∞ËØ¥Êòé     void
 115:libraries/zf_driver/zf_driver_exti.c **** // ËøîÂõûÂèÇÊï∞     void
 116:libraries/zf_driver/zf_driver_exti.c **** // ‰ΩøÁî®Á§∫‰æã     
 117:libraries/zf_driver/zf_driver_exti.c **** // Â§áÊ≥®‰ø°ÊÅØ     ÂêØÂä® .s Êñá‰ª∂ÂÆö‰πâ ‰∏çÂÖÅËÆ∏‰øÆÊîπÂáΩÊï∞ÂêçÁß∞
 118:libraries/zf_driver/zf_driver_exti.c **** //              zf_exti_set_interrupt_priority(pin, priority);
 119:libraries/zf_driver/zf_driver_exti.c **** //-------------------------------------------------------------------------------------------------
 120:libraries/zf_driver/zf_driver_exti.c **** void IRQ_EXTI0_HANDLER (void)
 121:libraries/zf_driver/zf_driver_exti.c **** {
 139              		.loc 1 121 1
 140              		.cfi_startproc
 141              		@ args = 0, pretend = 0, frame = 8
 142              		@ frame_needed = 0, uses_anonymous_args = 0
 143 0000 00B5     		push	{lr}
 144              		.cfi_def_cfa_offset 4
 145              		.cfi_offset 14, -4
 146 0002 83B0     		sub	sp, sp, #12
 147              		.cfi_def_cfa_offset 16
 122:libraries/zf_driver/zf_driver_exti.c ****     #define TEMP_EXTI_INDEX     ( EXTI1_CH0_A0 )
 123:libraries/zf_driver/zf_driver_exti.c ****     exti_obj_list[EXTI_CALC_INDEX].exti_ptr->C1PR1 |= (0x00000001 << EXTI_CALC_CHANNEL);
 148              		.loc 1 123 35
 149 0004 1C4B     		ldr	r3, .L9
 150 0006 1B68     		ldr	r3, [r3]
 151              		.loc 1 123 52
 152 0008 D3F88820 		ldr	r2, [r3, #136]
 153              		.loc 1 123 35
 154 000c 1A4B     		ldr	r3, .L9
 155 000e 1B68     		ldr	r3, [r3]
 156              		.loc 1 123 52
 157 0010 42F00102 		orr	r2, r2, #1
 158 0014 C3F88820 		str	r2, [r3, #136]
 124:libraries/zf_driver/zf_driver_exti.c ****     if(PIN_NULL != exti_obj_list[EXTI_CALC_INDEX].pin_list[EXTI_CALC_CHANNEL])
 159              		.loc 1 124 59
 160 0018 174B     		ldr	r3, .L9
 161 001a 9B88     		ldrh	r3, [r3, #4]
 162              		.loc 1 124 7
 163 001c 40F6FF72 		movw	r2, #4095
 164 0020 9342     		cmp	r3, r2
 165 0022 1FD0     		beq	.L3
 166              	.LBB54:
 125:libraries/zf_driver/zf_driver_exti.c ****     {
 126:libraries/zf_driver/zf_driver_exti.c ****         uint32 event_temp = EXTI_INTERRUPT_STATE_NONE;
 167              		.loc 1 126 16
 168 0024 0023     		movs	r3, #0
 169 0026 0193     		str	r3, [sp, #4]
 127:libraries/zf_driver/zf_driver_exti.c ****         switch((exti_obj_list[EXTI_CALC_INDEX].config_info >> (EXTI_CALC_CHANNEL * 2)) & 0x03)
 170              		.loc 1 127 60
 171 0028 134B     		ldr	r3, .L9
 172 002a 5B6A     		ldr	r3, [r3, #36]
 173              		.loc 1 127 88
 174 002c 03F00303 		and	r3, r3, #3
 175              		.loc 1 127 9
 176 0030 032B     		cmp	r3, #3
 177 0032 0CD0     		beq	.L4
 178 0034 032B     		cmp	r3, #3
 179 0036 0DD8     		bhi	.L5
 180 0038 012B     		cmp	r3, #1
 181 003a 02D0     		beq	.L6
 182 003c 022B     		cmp	r3, #2
 183 003e 03D0     		beq	.L7
 184 0040 08E0     		b	.L5
 185              	.L6:
 128:libraries/zf_driver/zf_driver_exti.c ****         {
 129:libraries/zf_driver/zf_driver_exti.c ****             case EXTI_TRIGGER_TYPE_RISING   :   event_temp = EXTI_INTERRUPT_STATE_RISING    ;   bre
 186              		.loc 1 129 60
 187 0042 0123     		movs	r3, #1
 188 0044 0193     		str	r3, [sp, #4]
 189              		.loc 1 129 13
 190 0046 05E0     		b	.L5
 191              	.L7:
 130:libraries/zf_driver/zf_driver_exti.c ****             case EXTI_TRIGGER_TYPE_FALLING  :   event_temp = EXTI_INTERRUPT_STATE_FALLING   ;   bre
 192              		.loc 1 130 60
 193 0048 0223     		movs	r3, #2
 194 004a 0193     		str	r3, [sp, #4]
 195              		.loc 1 130 13
 196 004c 02E0     		b	.L5
 197              	.L4:
 131:libraries/zf_driver/zf_driver_exti.c ****             case EXTI_TRIGGER_TYPE_BOTH     :   event_temp = EXTI_INTERRUPT_STATE_BOTH      ;   bre
 198              		.loc 1 131 60
 199 004e 0323     		movs	r3, #3
 200 0050 0193     		str	r3, [sp, #4]
 201              		.loc 1 131 13
 202 0052 00BF     		nop
 203              	.L5:
 132:libraries/zf_driver/zf_driver_exti.c ****         }
 133:libraries/zf_driver/zf_driver_exti.c ****         exti_callback[EXTI_CALC_INDEX][EXTI_CALC_CHANNEL].callback(event_temp, exti_callback[EXTI_C
 204              		.loc 1 133 58
 205 0054 094B     		ldr	r3, .L9+4
 206 0056 1B68     		ldr	r3, [r3]
 207              		.loc 1 133 9
 208 0058 084A     		ldr	r2, .L9+4
 209 005a 5268     		ldr	r2, [r2, #4]
 210 005c 1146     		mov	r1, r2
 211 005e 0198     		ldr	r0, [sp, #4]
 212 0060 9847     		blx	r3
 213              	.LVL0:
 214              	.LBE54:
 215 0062 02E0     		b	.L8
 216              	.L3:
 134:libraries/zf_driver/zf_driver_exti.c ****     }
 135:libraries/zf_driver/zf_driver_exti.c ****     else
 136:libraries/zf_driver/zf_driver_exti.c ****     {
 137:libraries/zf_driver/zf_driver_exti.c ****         IRQ_PROLOGUE();
 138:libraries/zf_driver/zf_driver_exti.c ****         __exti_serve_interrupt(EXTI_IRQ_LINE0);
 217              		.loc 1 138 9
 218 0064 0020     		movs	r0, #0
 219 0066 FFF7FEFF 		bl	__exti_serve_interrupt
 220              	.L8:
 221              	.LBB55:
 222              	.LBB56:
 223              		.file 2 "C:/StellarStudio-7.0/SDKS/StellarESDK-1.7.0/Modules/Platform/CMSIS/Core/Include/cmsis_gcc
   1:C:/StellarStudio-7.0/SDKS/StellarESDK-1.7.0/Modules/Platform/CMSIS/Core/Include\cmsis_gcc.h **** /**************************************************************************//**
   2:C:/StellarStudio-7.0/SDKS/StellarESDK-1.7.0/Modules/Platform/CMSIS/Core/Include\cmsis_gcc.h ****  * @file     cmsis_gcc.h
   3:C:/StellarStudio-7.0/SDKS/StellarESDK-1.7.0/Modules/Platform/CMSIS/Core/Include\cmsis_gcc.h ****  * @brief    CMSIS compiler GCC header file
   4:C:/StellarStudio-7.0/SDKS/StellarESDK-1.7.0/Modules/Platform/CMSIS/Core/Include\cmsis_gcc.h ****  * @version  V5.4.1
   5:C:/StellarStudio-7.0/SDKS/StellarESDK-1.7.0/Modules/Platform/CMSIS/Core/Include\cmsis_gcc.h ****  * @date     27. May 2021
   6:C:/StellarStudio-7.0/SDKS/StellarESDK-1.7.0/Modules/Platform/CMSIS/Core/Include\cmsis_gcc.h ****  ******************************************************************************/
   7:C:/StellarStudio-7.0/SDKS/StellarESDK-1.7.0/Modules/Platform/CMSIS/Core/Include\cmsis_gcc.h **** /*
   8:C:/StellarStudio-7.0/SDKS/StellarESDK-1.7.0/Modules/Platform/CMSIS/Core/Include\cmsis_gcc.h ****  * Copyright (c) 2009-2021 Arm Limited. All rights reserved.
   9:C:/StellarStudio-7.0/SDKS/StellarESDK-1.7.0/Modules/Platform/CMSIS/Core/Include\cmsis_gcc.h ****  *
  10:C:/StellarStudio-7.0/SDKS/StellarESDK-1.7.0/Modules/Platform/CMSIS/Core/Include\cmsis_gcc.h ****  * SPDX-License-Identifier: Apache-2.0
  11:C:/StellarStudio-7.0/SDKS/StellarESDK-1.7.0/Modules/Platform/CMSIS/Core/Include\cmsis_gcc.h ****  *
  12:C:/StellarStudio-7.0/SDKS/StellarESDK-1.7.0/Modules/Platform/CMSIS/Core/Include\cmsis_gcc.h ****  * Licensed under the Apache License, Version 2.0 (the License); you may
  13:C:/StellarStudio-7.0/SDKS/StellarESDK-1.7.0/Modules/Platform/CMSIS/Core/Include\cmsis_gcc.h ****  * not use this file except in compliance with the License.
  14:C:/StellarStudio-7.0/SDKS/StellarESDK-1.7.0/Modules/Platform/CMSIS/Core/Include\cmsis_gcc.h ****  * You may obtain a copy of the License at
  15:C:/StellarStudio-7.0/SDKS/StellarESDK-1.7.0/Modules/Platform/CMSIS/Core/Include\cmsis_gcc.h ****  *
  16:C:/StellarStudio-7.0/SDKS/StellarESDK-1.7.0/Modules/Platform/CMSIS/Core/Include\cmsis_gcc.h ****  * www.apache.org/licenses/LICENSE-2.0
  17:C:/StellarStudio-7.0/SDKS/StellarESDK-1.7.0/Modules/Platform/CMSIS/Core/Include\cmsis_gcc.h ****  *
  18:C:/StellarStudio-7.0/SDKS/StellarESDK-1.7.0/Modules/Platform/CMSIS/Core/Include\cmsis_gcc.h ****  * Unless required by applicable law or agreed to in writing, software
  19:C:/StellarStudio-7.0/SDKS/StellarESDK-1.7.0/Modules/Platform/CMSIS/Core/Include\cmsis_gcc.h ****  * distributed under the License is distributed on an AS IS BASIS, WITHOUT
  20:C:/StellarStudio-7.0/SDKS/StellarESDK-1.7.0/Modules/Platform/CMSIS/Core/Include\cmsis_gcc.h ****  * WARRANTIES OR CONDITIONS OF ANY KIND, either express or implied.
  21:C:/StellarStudio-7.0/SDKS/StellarESDK-1.7.0/Modules/Platform/CMSIS/Core/Include\cmsis_gcc.h ****  * See the License for the specific language governing permissions and
  22:C:/StellarStudio-7.0/SDKS/StellarESDK-1.7.0/Modules/Platform/CMSIS/Core/Include\cmsis_gcc.h ****  * limitations under the License.
  23:C:/StellarStudio-7.0/SDKS/StellarESDK-1.7.0/Modules/Platform/CMSIS/Core/Include\cmsis_gcc.h ****  */
  24:C:/StellarStudio-7.0/SDKS/StellarESDK-1.7.0/Modules/Platform/CMSIS/Core/Include\cmsis_gcc.h **** 
  25:C:/StellarStudio-7.0/SDKS/StellarESDK-1.7.0/Modules/Platform/CMSIS/Core/Include\cmsis_gcc.h **** #ifndef __CMSIS_GCC_H
  26:C:/StellarStudio-7.0/SDKS/StellarESDK-1.7.0/Modules/Platform/CMSIS/Core/Include\cmsis_gcc.h **** #define __CMSIS_GCC_H
  27:C:/StellarStudio-7.0/SDKS/StellarESDK-1.7.0/Modules/Platform/CMSIS/Core/Include\cmsis_gcc.h **** 
  28:C:/StellarStudio-7.0/SDKS/StellarESDK-1.7.0/Modules/Platform/CMSIS/Core/Include\cmsis_gcc.h **** /* ignore some GCC warnings */
  29:C:/StellarStudio-7.0/SDKS/StellarESDK-1.7.0/Modules/Platform/CMSIS/Core/Include\cmsis_gcc.h **** #pragma GCC diagnostic push
  30:C:/StellarStudio-7.0/SDKS/StellarESDK-1.7.0/Modules/Platform/CMSIS/Core/Include\cmsis_gcc.h **** #pragma GCC diagnostic ignored "-Wsign-conversion"
  31:C:/StellarStudio-7.0/SDKS/StellarESDK-1.7.0/Modules/Platform/CMSIS/Core/Include\cmsis_gcc.h **** #pragma GCC diagnostic ignored "-Wconversion"
  32:C:/StellarStudio-7.0/SDKS/StellarESDK-1.7.0/Modules/Platform/CMSIS/Core/Include\cmsis_gcc.h **** #pragma GCC diagnostic ignored "-Wunused-parameter"
  33:C:/StellarStudio-7.0/SDKS/StellarESDK-1.7.0/Modules/Platform/CMSIS/Core/Include\cmsis_gcc.h **** 
  34:C:/StellarStudio-7.0/SDKS/StellarESDK-1.7.0/Modules/Platform/CMSIS/Core/Include\cmsis_gcc.h **** /* Fallback for __has_builtin */
  35:C:/StellarStudio-7.0/SDKS/StellarESDK-1.7.0/Modules/Platform/CMSIS/Core/Include\cmsis_gcc.h **** #ifndef __has_builtin
  36:C:/StellarStudio-7.0/SDKS/StellarESDK-1.7.0/Modules/Platform/CMSIS/Core/Include\cmsis_gcc.h ****   #define __has_builtin(x) (0)
  37:C:/StellarStudio-7.0/SDKS/StellarESDK-1.7.0/Modules/Platform/CMSIS/Core/Include\cmsis_gcc.h **** #endif
  38:C:/StellarStudio-7.0/SDKS/StellarESDK-1.7.0/Modules/Platform/CMSIS/Core/Include\cmsis_gcc.h **** 
  39:C:/StellarStudio-7.0/SDKS/StellarESDK-1.7.0/Modules/Platform/CMSIS/Core/Include\cmsis_gcc.h **** /* CMSIS compiler specific defines */
  40:C:/StellarStudio-7.0/SDKS/StellarESDK-1.7.0/Modules/Platform/CMSIS/Core/Include\cmsis_gcc.h **** #ifndef   __ASM
  41:C:/StellarStudio-7.0/SDKS/StellarESDK-1.7.0/Modules/Platform/CMSIS/Core/Include\cmsis_gcc.h ****   #define __ASM                                  __asm
  42:C:/StellarStudio-7.0/SDKS/StellarESDK-1.7.0/Modules/Platform/CMSIS/Core/Include\cmsis_gcc.h **** #endif
  43:C:/StellarStudio-7.0/SDKS/StellarESDK-1.7.0/Modules/Platform/CMSIS/Core/Include\cmsis_gcc.h **** #ifndef   __INLINE
  44:C:/StellarStudio-7.0/SDKS/StellarESDK-1.7.0/Modules/Platform/CMSIS/Core/Include\cmsis_gcc.h ****   #define __INLINE                               inline
  45:C:/StellarStudio-7.0/SDKS/StellarESDK-1.7.0/Modules/Platform/CMSIS/Core/Include\cmsis_gcc.h **** #endif
  46:C:/StellarStudio-7.0/SDKS/StellarESDK-1.7.0/Modules/Platform/CMSIS/Core/Include\cmsis_gcc.h **** #ifndef   __STATIC_INLINE
  47:C:/StellarStudio-7.0/SDKS/StellarESDK-1.7.0/Modules/Platform/CMSIS/Core/Include\cmsis_gcc.h ****   #define __STATIC_INLINE                        static inline
  48:C:/StellarStudio-7.0/SDKS/StellarESDK-1.7.0/Modules/Platform/CMSIS/Core/Include\cmsis_gcc.h **** #endif
  49:C:/StellarStudio-7.0/SDKS/StellarESDK-1.7.0/Modules/Platform/CMSIS/Core/Include\cmsis_gcc.h **** #ifndef   __STATIC_FORCEINLINE
  50:C:/StellarStudio-7.0/SDKS/StellarESDK-1.7.0/Modules/Platform/CMSIS/Core/Include\cmsis_gcc.h ****   #define __STATIC_FORCEINLINE                   __attribute__((always_inline)) static inline
  51:C:/StellarStudio-7.0/SDKS/StellarESDK-1.7.0/Modules/Platform/CMSIS/Core/Include\cmsis_gcc.h **** #endif
  52:C:/StellarStudio-7.0/SDKS/StellarESDK-1.7.0/Modules/Platform/CMSIS/Core/Include\cmsis_gcc.h **** #ifndef   __NO_RETURN
  53:C:/StellarStudio-7.0/SDKS/StellarESDK-1.7.0/Modules/Platform/CMSIS/Core/Include\cmsis_gcc.h ****   #define __NO_RETURN                            __attribute__((__noreturn__))
  54:C:/StellarStudio-7.0/SDKS/StellarESDK-1.7.0/Modules/Platform/CMSIS/Core/Include\cmsis_gcc.h **** #endif
  55:C:/StellarStudio-7.0/SDKS/StellarESDK-1.7.0/Modules/Platform/CMSIS/Core/Include\cmsis_gcc.h **** #ifndef   __USED
  56:C:/StellarStudio-7.0/SDKS/StellarESDK-1.7.0/Modules/Platform/CMSIS/Core/Include\cmsis_gcc.h ****   #define __USED                                 __attribute__((used))
  57:C:/StellarStudio-7.0/SDKS/StellarESDK-1.7.0/Modules/Platform/CMSIS/Core/Include\cmsis_gcc.h **** #endif
  58:C:/StellarStudio-7.0/SDKS/StellarESDK-1.7.0/Modules/Platform/CMSIS/Core/Include\cmsis_gcc.h **** #ifndef   __WEAK
  59:C:/StellarStudio-7.0/SDKS/StellarESDK-1.7.0/Modules/Platform/CMSIS/Core/Include\cmsis_gcc.h ****   #define __WEAK                                 __attribute__((weak))
  60:C:/StellarStudio-7.0/SDKS/StellarESDK-1.7.0/Modules/Platform/CMSIS/Core/Include\cmsis_gcc.h **** #endif
  61:C:/StellarStudio-7.0/SDKS/StellarESDK-1.7.0/Modules/Platform/CMSIS/Core/Include\cmsis_gcc.h **** #ifndef   __PACKED
  62:C:/StellarStudio-7.0/SDKS/StellarESDK-1.7.0/Modules/Platform/CMSIS/Core/Include\cmsis_gcc.h ****   #define __PACKED                               __attribute__((packed, aligned(1)))
  63:C:/StellarStudio-7.0/SDKS/StellarESDK-1.7.0/Modules/Platform/CMSIS/Core/Include\cmsis_gcc.h **** #endif
  64:C:/StellarStudio-7.0/SDKS/StellarESDK-1.7.0/Modules/Platform/CMSIS/Core/Include\cmsis_gcc.h **** #ifndef   __PACKED_STRUCT
  65:C:/StellarStudio-7.0/SDKS/StellarESDK-1.7.0/Modules/Platform/CMSIS/Core/Include\cmsis_gcc.h ****   #define __PACKED_STRUCT                        struct __attribute__((packed, aligned(1)))
  66:C:/StellarStudio-7.0/SDKS/StellarESDK-1.7.0/Modules/Platform/CMSIS/Core/Include\cmsis_gcc.h **** #endif
  67:C:/StellarStudio-7.0/SDKS/StellarESDK-1.7.0/Modules/Platform/CMSIS/Core/Include\cmsis_gcc.h **** #ifndef   __PACKED_UNION
  68:C:/StellarStudio-7.0/SDKS/StellarESDK-1.7.0/Modules/Platform/CMSIS/Core/Include\cmsis_gcc.h ****   #define __PACKED_UNION                         union __attribute__((packed, aligned(1)))
  69:C:/StellarStudio-7.0/SDKS/StellarESDK-1.7.0/Modules/Platform/CMSIS/Core/Include\cmsis_gcc.h **** #endif
  70:C:/StellarStudio-7.0/SDKS/StellarESDK-1.7.0/Modules/Platform/CMSIS/Core/Include\cmsis_gcc.h **** #ifndef   __UNALIGNED_UINT32        /* deprecated */
  71:C:/StellarStudio-7.0/SDKS/StellarESDK-1.7.0/Modules/Platform/CMSIS/Core/Include\cmsis_gcc.h ****   #pragma GCC diagnostic push
  72:C:/StellarStudio-7.0/SDKS/StellarESDK-1.7.0/Modules/Platform/CMSIS/Core/Include\cmsis_gcc.h ****   #pragma GCC diagnostic ignored "-Wpacked"
  73:C:/StellarStudio-7.0/SDKS/StellarESDK-1.7.0/Modules/Platform/CMSIS/Core/Include\cmsis_gcc.h ****   #pragma GCC diagnostic ignored "-Wattributes"
  74:C:/StellarStudio-7.0/SDKS/StellarESDK-1.7.0/Modules/Platform/CMSIS/Core/Include\cmsis_gcc.h ****   struct __attribute__((packed)) T_UINT32 { uint32_t v; };
  75:C:/StellarStudio-7.0/SDKS/StellarESDK-1.7.0/Modules/Platform/CMSIS/Core/Include\cmsis_gcc.h ****   #pragma GCC diagnostic pop
  76:C:/StellarStudio-7.0/SDKS/StellarESDK-1.7.0/Modules/Platform/CMSIS/Core/Include\cmsis_gcc.h ****   #define __UNALIGNED_UINT32(x)                  (((struct T_UINT32 *)(x))->v)
  77:C:/StellarStudio-7.0/SDKS/StellarESDK-1.7.0/Modules/Platform/CMSIS/Core/Include\cmsis_gcc.h **** #endif
  78:C:/StellarStudio-7.0/SDKS/StellarESDK-1.7.0/Modules/Platform/CMSIS/Core/Include\cmsis_gcc.h **** #ifndef   __UNALIGNED_UINT16_WRITE
  79:C:/StellarStudio-7.0/SDKS/StellarESDK-1.7.0/Modules/Platform/CMSIS/Core/Include\cmsis_gcc.h ****   #pragma GCC diagnostic push
  80:C:/StellarStudio-7.0/SDKS/StellarESDK-1.7.0/Modules/Platform/CMSIS/Core/Include\cmsis_gcc.h ****   #pragma GCC diagnostic ignored "-Wpacked"
  81:C:/StellarStudio-7.0/SDKS/StellarESDK-1.7.0/Modules/Platform/CMSIS/Core/Include\cmsis_gcc.h ****   #pragma GCC diagnostic ignored "-Wattributes"
  82:C:/StellarStudio-7.0/SDKS/StellarESDK-1.7.0/Modules/Platform/CMSIS/Core/Include\cmsis_gcc.h ****   __PACKED_STRUCT T_UINT16_WRITE { uint16_t v; };
  83:C:/StellarStudio-7.0/SDKS/StellarESDK-1.7.0/Modules/Platform/CMSIS/Core/Include\cmsis_gcc.h ****   #pragma GCC diagnostic pop
  84:C:/StellarStudio-7.0/SDKS/StellarESDK-1.7.0/Modules/Platform/CMSIS/Core/Include\cmsis_gcc.h ****   #define __UNALIGNED_UINT16_WRITE(addr, val)    (void)((((struct T_UINT16_WRITE *)(void *)(addr))-
  85:C:/StellarStudio-7.0/SDKS/StellarESDK-1.7.0/Modules/Platform/CMSIS/Core/Include\cmsis_gcc.h **** #endif
  86:C:/StellarStudio-7.0/SDKS/StellarESDK-1.7.0/Modules/Platform/CMSIS/Core/Include\cmsis_gcc.h **** #ifndef   __UNALIGNED_UINT16_READ
  87:C:/StellarStudio-7.0/SDKS/StellarESDK-1.7.0/Modules/Platform/CMSIS/Core/Include\cmsis_gcc.h ****   #pragma GCC diagnostic push
  88:C:/StellarStudio-7.0/SDKS/StellarESDK-1.7.0/Modules/Platform/CMSIS/Core/Include\cmsis_gcc.h ****   #pragma GCC diagnostic ignored "-Wpacked"
  89:C:/StellarStudio-7.0/SDKS/StellarESDK-1.7.0/Modules/Platform/CMSIS/Core/Include\cmsis_gcc.h ****   #pragma GCC diagnostic ignored "-Wattributes"
  90:C:/StellarStudio-7.0/SDKS/StellarESDK-1.7.0/Modules/Platform/CMSIS/Core/Include\cmsis_gcc.h ****   __PACKED_STRUCT T_UINT16_READ { uint16_t v; };
  91:C:/StellarStudio-7.0/SDKS/StellarESDK-1.7.0/Modules/Platform/CMSIS/Core/Include\cmsis_gcc.h ****   #pragma GCC diagnostic pop
  92:C:/StellarStudio-7.0/SDKS/StellarESDK-1.7.0/Modules/Platform/CMSIS/Core/Include\cmsis_gcc.h ****   #define __UNALIGNED_UINT16_READ(addr)          (((const struct T_UINT16_READ *)(const void *)(add
  93:C:/StellarStudio-7.0/SDKS/StellarESDK-1.7.0/Modules/Platform/CMSIS/Core/Include\cmsis_gcc.h **** #endif
  94:C:/StellarStudio-7.0/SDKS/StellarESDK-1.7.0/Modules/Platform/CMSIS/Core/Include\cmsis_gcc.h **** #ifndef   __UNALIGNED_UINT32_WRITE
  95:C:/StellarStudio-7.0/SDKS/StellarESDK-1.7.0/Modules/Platform/CMSIS/Core/Include\cmsis_gcc.h ****   #pragma GCC diagnostic push
  96:C:/StellarStudio-7.0/SDKS/StellarESDK-1.7.0/Modules/Platform/CMSIS/Core/Include\cmsis_gcc.h ****   #pragma GCC diagnostic ignored "-Wpacked"
  97:C:/StellarStudio-7.0/SDKS/StellarESDK-1.7.0/Modules/Platform/CMSIS/Core/Include\cmsis_gcc.h ****   #pragma GCC diagnostic ignored "-Wattributes"
  98:C:/StellarStudio-7.0/SDKS/StellarESDK-1.7.0/Modules/Platform/CMSIS/Core/Include\cmsis_gcc.h ****   __PACKED_STRUCT T_UINT32_WRITE { uint32_t v; };
  99:C:/StellarStudio-7.0/SDKS/StellarESDK-1.7.0/Modules/Platform/CMSIS/Core/Include\cmsis_gcc.h ****   #pragma GCC diagnostic pop
 100:C:/StellarStudio-7.0/SDKS/StellarESDK-1.7.0/Modules/Platform/CMSIS/Core/Include\cmsis_gcc.h ****   #define __UNALIGNED_UINT32_WRITE(addr, val)    (void)((((struct T_UINT32_WRITE *)(void *)(addr))-
 101:C:/StellarStudio-7.0/SDKS/StellarESDK-1.7.0/Modules/Platform/CMSIS/Core/Include\cmsis_gcc.h **** #endif
 102:C:/StellarStudio-7.0/SDKS/StellarESDK-1.7.0/Modules/Platform/CMSIS/Core/Include\cmsis_gcc.h **** #ifndef   __UNALIGNED_UINT32_READ
 103:C:/StellarStudio-7.0/SDKS/StellarESDK-1.7.0/Modules/Platform/CMSIS/Core/Include\cmsis_gcc.h ****   #pragma GCC diagnostic push
 104:C:/StellarStudio-7.0/SDKS/StellarESDK-1.7.0/Modules/Platform/CMSIS/Core/Include\cmsis_gcc.h ****   #pragma GCC diagnostic ignored "-Wpacked"
 105:C:/StellarStudio-7.0/SDKS/StellarESDK-1.7.0/Modules/Platform/CMSIS/Core/Include\cmsis_gcc.h ****   #pragma GCC diagnostic ignored "-Wattributes"
 106:C:/StellarStudio-7.0/SDKS/StellarESDK-1.7.0/Modules/Platform/CMSIS/Core/Include\cmsis_gcc.h ****   __PACKED_STRUCT T_UINT32_READ { uint32_t v; };
 107:C:/StellarStudio-7.0/SDKS/StellarESDK-1.7.0/Modules/Platform/CMSIS/Core/Include\cmsis_gcc.h ****   #pragma GCC diagnostic pop
 108:C:/StellarStudio-7.0/SDKS/StellarESDK-1.7.0/Modules/Platform/CMSIS/Core/Include\cmsis_gcc.h ****   #define __UNALIGNED_UINT32_READ(addr)          (((const struct T_UINT32_READ *)(const void *)(add
 109:C:/StellarStudio-7.0/SDKS/StellarESDK-1.7.0/Modules/Platform/CMSIS/Core/Include\cmsis_gcc.h **** #endif
 110:C:/StellarStudio-7.0/SDKS/StellarESDK-1.7.0/Modules/Platform/CMSIS/Core/Include\cmsis_gcc.h **** #ifndef   __ALIGNED
 111:C:/StellarStudio-7.0/SDKS/StellarESDK-1.7.0/Modules/Platform/CMSIS/Core/Include\cmsis_gcc.h ****   #define __ALIGNED(x)                           __attribute__((aligned(x)))
 112:C:/StellarStudio-7.0/SDKS/StellarESDK-1.7.0/Modules/Platform/CMSIS/Core/Include\cmsis_gcc.h **** #endif
 113:C:/StellarStudio-7.0/SDKS/StellarESDK-1.7.0/Modules/Platform/CMSIS/Core/Include\cmsis_gcc.h **** #ifndef   __RESTRICT
 114:C:/StellarStudio-7.0/SDKS/StellarESDK-1.7.0/Modules/Platform/CMSIS/Core/Include\cmsis_gcc.h ****   #define __RESTRICT                             __restrict
 115:C:/StellarStudio-7.0/SDKS/StellarESDK-1.7.0/Modules/Platform/CMSIS/Core/Include\cmsis_gcc.h **** #endif
 116:C:/StellarStudio-7.0/SDKS/StellarESDK-1.7.0/Modules/Platform/CMSIS/Core/Include\cmsis_gcc.h **** #ifndef   __COMPILER_BARRIER
 117:C:/StellarStudio-7.0/SDKS/StellarESDK-1.7.0/Modules/Platform/CMSIS/Core/Include\cmsis_gcc.h ****   #define __COMPILER_BARRIER()                   __ASM volatile("":::"memory")
 118:C:/StellarStudio-7.0/SDKS/StellarESDK-1.7.0/Modules/Platform/CMSIS/Core/Include\cmsis_gcc.h **** #endif
 119:C:/StellarStudio-7.0/SDKS/StellarESDK-1.7.0/Modules/Platform/CMSIS/Core/Include\cmsis_gcc.h **** 
 120:C:/StellarStudio-7.0/SDKS/StellarESDK-1.7.0/Modules/Platform/CMSIS/Core/Include\cmsis_gcc.h **** /* #########################  Startup and Lowlevel Init  ######################## */
 121:C:/StellarStudio-7.0/SDKS/StellarESDK-1.7.0/Modules/Platform/CMSIS/Core/Include\cmsis_gcc.h **** 
 122:C:/StellarStudio-7.0/SDKS/StellarESDK-1.7.0/Modules/Platform/CMSIS/Core/Include\cmsis_gcc.h **** #ifndef __PROGRAM_START
 123:C:/StellarStudio-7.0/SDKS/StellarESDK-1.7.0/Modules/Platform/CMSIS/Core/Include\cmsis_gcc.h **** 
 124:C:/StellarStudio-7.0/SDKS/StellarESDK-1.7.0/Modules/Platform/CMSIS/Core/Include\cmsis_gcc.h **** /**
 125:C:/StellarStudio-7.0/SDKS/StellarESDK-1.7.0/Modules/Platform/CMSIS/Core/Include\cmsis_gcc.h ****   \brief   Initializes data and bss sections
 126:C:/StellarStudio-7.0/SDKS/StellarESDK-1.7.0/Modules/Platform/CMSIS/Core/Include\cmsis_gcc.h ****   \details This default implementations initialized all data and additional bss
 127:C:/StellarStudio-7.0/SDKS/StellarESDK-1.7.0/Modules/Platform/CMSIS/Core/Include\cmsis_gcc.h ****            sections relying on .copy.table and .zero.table specified properly
 128:C:/StellarStudio-7.0/SDKS/StellarESDK-1.7.0/Modules/Platform/CMSIS/Core/Include\cmsis_gcc.h ****            in the used linker script.
 129:C:/StellarStudio-7.0/SDKS/StellarESDK-1.7.0/Modules/Platform/CMSIS/Core/Include\cmsis_gcc.h **** 
 130:C:/StellarStudio-7.0/SDKS/StellarESDK-1.7.0/Modules/Platform/CMSIS/Core/Include\cmsis_gcc.h ****  */
 131:C:/StellarStudio-7.0/SDKS/StellarESDK-1.7.0/Modules/Platform/CMSIS/Core/Include\cmsis_gcc.h **** __STATIC_FORCEINLINE __NO_RETURN void __cmsis_start(void)
 132:C:/StellarStudio-7.0/SDKS/StellarESDK-1.7.0/Modules/Platform/CMSIS/Core/Include\cmsis_gcc.h **** {
 133:C:/StellarStudio-7.0/SDKS/StellarESDK-1.7.0/Modules/Platform/CMSIS/Core/Include\cmsis_gcc.h ****   extern void _start(void) __NO_RETURN;
 134:C:/StellarStudio-7.0/SDKS/StellarESDK-1.7.0/Modules/Platform/CMSIS/Core/Include\cmsis_gcc.h **** 
 135:C:/StellarStudio-7.0/SDKS/StellarESDK-1.7.0/Modules/Platform/CMSIS/Core/Include\cmsis_gcc.h ****   typedef struct {
 136:C:/StellarStudio-7.0/SDKS/StellarESDK-1.7.0/Modules/Platform/CMSIS/Core/Include\cmsis_gcc.h ****     uint32_t const* src;
 137:C:/StellarStudio-7.0/SDKS/StellarESDK-1.7.0/Modules/Platform/CMSIS/Core/Include\cmsis_gcc.h ****     uint32_t* dest;
 138:C:/StellarStudio-7.0/SDKS/StellarESDK-1.7.0/Modules/Platform/CMSIS/Core/Include\cmsis_gcc.h ****     uint32_t  wlen;
 139:C:/StellarStudio-7.0/SDKS/StellarESDK-1.7.0/Modules/Platform/CMSIS/Core/Include\cmsis_gcc.h ****   } __copy_table_t;
 140:C:/StellarStudio-7.0/SDKS/StellarESDK-1.7.0/Modules/Platform/CMSIS/Core/Include\cmsis_gcc.h **** 
 141:C:/StellarStudio-7.0/SDKS/StellarESDK-1.7.0/Modules/Platform/CMSIS/Core/Include\cmsis_gcc.h ****   typedef struct {
 142:C:/StellarStudio-7.0/SDKS/StellarESDK-1.7.0/Modules/Platform/CMSIS/Core/Include\cmsis_gcc.h ****     uint32_t* dest;
 143:C:/StellarStudio-7.0/SDKS/StellarESDK-1.7.0/Modules/Platform/CMSIS/Core/Include\cmsis_gcc.h ****     uint32_t  wlen;
 144:C:/StellarStudio-7.0/SDKS/StellarESDK-1.7.0/Modules/Platform/CMSIS/Core/Include\cmsis_gcc.h ****   } __zero_table_t;
 145:C:/StellarStudio-7.0/SDKS/StellarESDK-1.7.0/Modules/Platform/CMSIS/Core/Include\cmsis_gcc.h **** 
 146:C:/StellarStudio-7.0/SDKS/StellarESDK-1.7.0/Modules/Platform/CMSIS/Core/Include\cmsis_gcc.h ****   extern const __copy_table_t __copy_table_start__;
 147:C:/StellarStudio-7.0/SDKS/StellarESDK-1.7.0/Modules/Platform/CMSIS/Core/Include\cmsis_gcc.h ****   extern const __copy_table_t __copy_table_end__;
 148:C:/StellarStudio-7.0/SDKS/StellarESDK-1.7.0/Modules/Platform/CMSIS/Core/Include\cmsis_gcc.h ****   extern const __zero_table_t __zero_table_start__;
 149:C:/StellarStudio-7.0/SDKS/StellarESDK-1.7.0/Modules/Platform/CMSIS/Core/Include\cmsis_gcc.h ****   extern const __zero_table_t __zero_table_end__;
 150:C:/StellarStudio-7.0/SDKS/StellarESDK-1.7.0/Modules/Platform/CMSIS/Core/Include\cmsis_gcc.h **** 
 151:C:/StellarStudio-7.0/SDKS/StellarESDK-1.7.0/Modules/Platform/CMSIS/Core/Include\cmsis_gcc.h ****   for (__copy_table_t const* pTable = &__copy_table_start__; pTable < &__copy_table_end__; ++pTable
 152:C:/StellarStudio-7.0/SDKS/StellarESDK-1.7.0/Modules/Platform/CMSIS/Core/Include\cmsis_gcc.h ****     for(uint32_t i=0u; i<pTable->wlen; ++i) {
 153:C:/StellarStudio-7.0/SDKS/StellarESDK-1.7.0/Modules/Platform/CMSIS/Core/Include\cmsis_gcc.h ****       pTable->dest[i] = pTable->src[i];
 154:C:/StellarStudio-7.0/SDKS/StellarESDK-1.7.0/Modules/Platform/CMSIS/Core/Include\cmsis_gcc.h ****     }
 155:C:/StellarStudio-7.0/SDKS/StellarESDK-1.7.0/Modules/Platform/CMSIS/Core/Include\cmsis_gcc.h ****   }
 156:C:/StellarStudio-7.0/SDKS/StellarESDK-1.7.0/Modules/Platform/CMSIS/Core/Include\cmsis_gcc.h **** 
 157:C:/StellarStudio-7.0/SDKS/StellarESDK-1.7.0/Modules/Platform/CMSIS/Core/Include\cmsis_gcc.h ****   for (__zero_table_t const* pTable = &__zero_table_start__; pTable < &__zero_table_end__; ++pTable
 158:C:/StellarStudio-7.0/SDKS/StellarESDK-1.7.0/Modules/Platform/CMSIS/Core/Include\cmsis_gcc.h ****     for(uint32_t i=0u; i<pTable->wlen; ++i) {
 159:C:/StellarStudio-7.0/SDKS/StellarESDK-1.7.0/Modules/Platform/CMSIS/Core/Include\cmsis_gcc.h ****       pTable->dest[i] = 0u;
 160:C:/StellarStudio-7.0/SDKS/StellarESDK-1.7.0/Modules/Platform/CMSIS/Core/Include\cmsis_gcc.h ****     }
 161:C:/StellarStudio-7.0/SDKS/StellarESDK-1.7.0/Modules/Platform/CMSIS/Core/Include\cmsis_gcc.h ****   }
 162:C:/StellarStudio-7.0/SDKS/StellarESDK-1.7.0/Modules/Platform/CMSIS/Core/Include\cmsis_gcc.h **** 
 163:C:/StellarStudio-7.0/SDKS/StellarESDK-1.7.0/Modules/Platform/CMSIS/Core/Include\cmsis_gcc.h ****   _start();
 164:C:/StellarStudio-7.0/SDKS/StellarESDK-1.7.0/Modules/Platform/CMSIS/Core/Include\cmsis_gcc.h **** }
 165:C:/StellarStudio-7.0/SDKS/StellarESDK-1.7.0/Modules/Platform/CMSIS/Core/Include\cmsis_gcc.h **** 
 166:C:/StellarStudio-7.0/SDKS/StellarESDK-1.7.0/Modules/Platform/CMSIS/Core/Include\cmsis_gcc.h **** #define __PROGRAM_START           __cmsis_start
 167:C:/StellarStudio-7.0/SDKS/StellarESDK-1.7.0/Modules/Platform/CMSIS/Core/Include\cmsis_gcc.h **** #endif
 168:C:/StellarStudio-7.0/SDKS/StellarESDK-1.7.0/Modules/Platform/CMSIS/Core/Include\cmsis_gcc.h **** 
 169:C:/StellarStudio-7.0/SDKS/StellarESDK-1.7.0/Modules/Platform/CMSIS/Core/Include\cmsis_gcc.h **** #ifndef __INITIAL_SP
 170:C:/StellarStudio-7.0/SDKS/StellarESDK-1.7.0/Modules/Platform/CMSIS/Core/Include\cmsis_gcc.h **** #define __INITIAL_SP              __StackTop
 171:C:/StellarStudio-7.0/SDKS/StellarESDK-1.7.0/Modules/Platform/CMSIS/Core/Include\cmsis_gcc.h **** #endif
 172:C:/StellarStudio-7.0/SDKS/StellarESDK-1.7.0/Modules/Platform/CMSIS/Core/Include\cmsis_gcc.h **** 
 173:C:/StellarStudio-7.0/SDKS/StellarESDK-1.7.0/Modules/Platform/CMSIS/Core/Include\cmsis_gcc.h **** #ifndef __STACK_LIMIT
 174:C:/StellarStudio-7.0/SDKS/StellarESDK-1.7.0/Modules/Platform/CMSIS/Core/Include\cmsis_gcc.h **** #define __STACK_LIMIT             __StackLimit
 175:C:/StellarStudio-7.0/SDKS/StellarESDK-1.7.0/Modules/Platform/CMSIS/Core/Include\cmsis_gcc.h **** #endif
 176:C:/StellarStudio-7.0/SDKS/StellarESDK-1.7.0/Modules/Platform/CMSIS/Core/Include\cmsis_gcc.h **** 
 177:C:/StellarStudio-7.0/SDKS/StellarESDK-1.7.0/Modules/Platform/CMSIS/Core/Include\cmsis_gcc.h **** #ifndef __VECTOR_TABLE
 178:C:/StellarStudio-7.0/SDKS/StellarESDK-1.7.0/Modules/Platform/CMSIS/Core/Include\cmsis_gcc.h **** #define __VECTOR_TABLE            __Vectors
 179:C:/StellarStudio-7.0/SDKS/StellarESDK-1.7.0/Modules/Platform/CMSIS/Core/Include\cmsis_gcc.h **** #endif
 180:C:/StellarStudio-7.0/SDKS/StellarESDK-1.7.0/Modules/Platform/CMSIS/Core/Include\cmsis_gcc.h **** 
 181:C:/StellarStudio-7.0/SDKS/StellarESDK-1.7.0/Modules/Platform/CMSIS/Core/Include\cmsis_gcc.h **** #ifndef __VECTOR_TABLE_ATTRIBUTE
 182:C:/StellarStudio-7.0/SDKS/StellarESDK-1.7.0/Modules/Platform/CMSIS/Core/Include\cmsis_gcc.h **** #define __VECTOR_TABLE_ATTRIBUTE  __attribute__((used, section(".vectors")))
 183:C:/StellarStudio-7.0/SDKS/StellarESDK-1.7.0/Modules/Platform/CMSIS/Core/Include\cmsis_gcc.h **** #endif
 184:C:/StellarStudio-7.0/SDKS/StellarESDK-1.7.0/Modules/Platform/CMSIS/Core/Include\cmsis_gcc.h **** 
 185:C:/StellarStudio-7.0/SDKS/StellarESDK-1.7.0/Modules/Platform/CMSIS/Core/Include\cmsis_gcc.h **** #if defined (__ARM_FEATURE_CMSE) && (__ARM_FEATURE_CMSE == 3U)
 186:C:/StellarStudio-7.0/SDKS/StellarESDK-1.7.0/Modules/Platform/CMSIS/Core/Include\cmsis_gcc.h **** #ifndef __STACK_SEAL
 187:C:/StellarStudio-7.0/SDKS/StellarESDK-1.7.0/Modules/Platform/CMSIS/Core/Include\cmsis_gcc.h **** #define __STACK_SEAL              __StackSeal
 188:C:/StellarStudio-7.0/SDKS/StellarESDK-1.7.0/Modules/Platform/CMSIS/Core/Include\cmsis_gcc.h **** #endif
 189:C:/StellarStudio-7.0/SDKS/StellarESDK-1.7.0/Modules/Platform/CMSIS/Core/Include\cmsis_gcc.h **** 
 190:C:/StellarStudio-7.0/SDKS/StellarESDK-1.7.0/Modules/Platform/CMSIS/Core/Include\cmsis_gcc.h **** #ifndef __TZ_STACK_SEAL_SIZE
 191:C:/StellarStudio-7.0/SDKS/StellarESDK-1.7.0/Modules/Platform/CMSIS/Core/Include\cmsis_gcc.h **** #define __TZ_STACK_SEAL_SIZE      8U
 192:C:/StellarStudio-7.0/SDKS/StellarESDK-1.7.0/Modules/Platform/CMSIS/Core/Include\cmsis_gcc.h **** #endif
 193:C:/StellarStudio-7.0/SDKS/StellarESDK-1.7.0/Modules/Platform/CMSIS/Core/Include\cmsis_gcc.h **** 
 194:C:/StellarStudio-7.0/SDKS/StellarESDK-1.7.0/Modules/Platform/CMSIS/Core/Include\cmsis_gcc.h **** #ifndef __TZ_STACK_SEAL_VALUE
 195:C:/StellarStudio-7.0/SDKS/StellarESDK-1.7.0/Modules/Platform/CMSIS/Core/Include\cmsis_gcc.h **** #define __TZ_STACK_SEAL_VALUE     0xFEF5EDA5FEF5EDA5ULL
 196:C:/StellarStudio-7.0/SDKS/StellarESDK-1.7.0/Modules/Platform/CMSIS/Core/Include\cmsis_gcc.h **** #endif
 197:C:/StellarStudio-7.0/SDKS/StellarESDK-1.7.0/Modules/Platform/CMSIS/Core/Include\cmsis_gcc.h **** 
 198:C:/StellarStudio-7.0/SDKS/StellarESDK-1.7.0/Modules/Platform/CMSIS/Core/Include\cmsis_gcc.h **** 
 199:C:/StellarStudio-7.0/SDKS/StellarESDK-1.7.0/Modules/Platform/CMSIS/Core/Include\cmsis_gcc.h **** __STATIC_FORCEINLINE void __TZ_set_STACKSEAL_S (uint32_t* stackTop) {
 200:C:/StellarStudio-7.0/SDKS/StellarESDK-1.7.0/Modules/Platform/CMSIS/Core/Include\cmsis_gcc.h ****   *((uint64_t *)stackTop) = __TZ_STACK_SEAL_VALUE;
 201:C:/StellarStudio-7.0/SDKS/StellarESDK-1.7.0/Modules/Platform/CMSIS/Core/Include\cmsis_gcc.h **** }
 202:C:/StellarStudio-7.0/SDKS/StellarESDK-1.7.0/Modules/Platform/CMSIS/Core/Include\cmsis_gcc.h **** #endif
 203:C:/StellarStudio-7.0/SDKS/StellarESDK-1.7.0/Modules/Platform/CMSIS/Core/Include\cmsis_gcc.h **** 
 204:C:/StellarStudio-7.0/SDKS/StellarESDK-1.7.0/Modules/Platform/CMSIS/Core/Include\cmsis_gcc.h **** 
 205:C:/StellarStudio-7.0/SDKS/StellarESDK-1.7.0/Modules/Platform/CMSIS/Core/Include\cmsis_gcc.h **** /* ##########################  Core Instruction Access  ######################### */
 206:C:/StellarStudio-7.0/SDKS/StellarESDK-1.7.0/Modules/Platform/CMSIS/Core/Include\cmsis_gcc.h **** /** \defgroup CMSIS_Core_InstructionInterface CMSIS Core Instruction Interface
 207:C:/StellarStudio-7.0/SDKS/StellarESDK-1.7.0/Modules/Platform/CMSIS/Core/Include\cmsis_gcc.h ****   Access to dedicated instructions
 208:C:/StellarStudio-7.0/SDKS/StellarESDK-1.7.0/Modules/Platform/CMSIS/Core/Include\cmsis_gcc.h ****   @{
 209:C:/StellarStudio-7.0/SDKS/StellarESDK-1.7.0/Modules/Platform/CMSIS/Core/Include\cmsis_gcc.h **** */
 210:C:/StellarStudio-7.0/SDKS/StellarESDK-1.7.0/Modules/Platform/CMSIS/Core/Include\cmsis_gcc.h **** 
 211:C:/StellarStudio-7.0/SDKS/StellarESDK-1.7.0/Modules/Platform/CMSIS/Core/Include\cmsis_gcc.h **** /* Define macros for porting to both thumb1 and thumb2.
 212:C:/StellarStudio-7.0/SDKS/StellarESDK-1.7.0/Modules/Platform/CMSIS/Core/Include\cmsis_gcc.h ****  * For thumb1, use low register (r0-r7), specified by constraint "l"
 213:C:/StellarStudio-7.0/SDKS/StellarESDK-1.7.0/Modules/Platform/CMSIS/Core/Include\cmsis_gcc.h ****  * Otherwise, use general registers, specified by constraint "r" */
 214:C:/StellarStudio-7.0/SDKS/StellarESDK-1.7.0/Modules/Platform/CMSIS/Core/Include\cmsis_gcc.h **** #if defined (__thumb__) && !defined (__thumb2__)
 215:C:/StellarStudio-7.0/SDKS/StellarESDK-1.7.0/Modules/Platform/CMSIS/Core/Include\cmsis_gcc.h **** #define __CMSIS_GCC_OUT_REG(r) "=l" (r)
 216:C:/StellarStudio-7.0/SDKS/StellarESDK-1.7.0/Modules/Platform/CMSIS/Core/Include\cmsis_gcc.h **** #define __CMSIS_GCC_RW_REG(r) "+l" (r)
 217:C:/StellarStudio-7.0/SDKS/StellarESDK-1.7.0/Modules/Platform/CMSIS/Core/Include\cmsis_gcc.h **** #define __CMSIS_GCC_USE_REG(r) "l" (r)
 218:C:/StellarStudio-7.0/SDKS/StellarESDK-1.7.0/Modules/Platform/CMSIS/Core/Include\cmsis_gcc.h **** #else
 219:C:/StellarStudio-7.0/SDKS/StellarESDK-1.7.0/Modules/Platform/CMSIS/Core/Include\cmsis_gcc.h **** #define __CMSIS_GCC_OUT_REG(r) "=r" (r)
 220:C:/StellarStudio-7.0/SDKS/StellarESDK-1.7.0/Modules/Platform/CMSIS/Core/Include\cmsis_gcc.h **** #define __CMSIS_GCC_RW_REG(r) "+r" (r)
 221:C:/StellarStudio-7.0/SDKS/StellarESDK-1.7.0/Modules/Platform/CMSIS/Core/Include\cmsis_gcc.h **** #define __CMSIS_GCC_USE_REG(r) "r" (r)
 222:C:/StellarStudio-7.0/SDKS/StellarESDK-1.7.0/Modules/Platform/CMSIS/Core/Include\cmsis_gcc.h **** #endif
 223:C:/StellarStudio-7.0/SDKS/StellarESDK-1.7.0/Modules/Platform/CMSIS/Core/Include\cmsis_gcc.h **** 
 224:C:/StellarStudio-7.0/SDKS/StellarESDK-1.7.0/Modules/Platform/CMSIS/Core/Include\cmsis_gcc.h **** /**
 225:C:/StellarStudio-7.0/SDKS/StellarESDK-1.7.0/Modules/Platform/CMSIS/Core/Include\cmsis_gcc.h ****   \brief   No Operation
 226:C:/StellarStudio-7.0/SDKS/StellarESDK-1.7.0/Modules/Platform/CMSIS/Core/Include\cmsis_gcc.h ****   \details No Operation does nothing. This instruction can be used for code alignment purposes.
 227:C:/StellarStudio-7.0/SDKS/StellarESDK-1.7.0/Modules/Platform/CMSIS/Core/Include\cmsis_gcc.h ****  */
 228:C:/StellarStudio-7.0/SDKS/StellarESDK-1.7.0/Modules/Platform/CMSIS/Core/Include\cmsis_gcc.h **** #define __NOP()                             __ASM volatile ("nop")
 229:C:/StellarStudio-7.0/SDKS/StellarESDK-1.7.0/Modules/Platform/CMSIS/Core/Include\cmsis_gcc.h **** 
 230:C:/StellarStudio-7.0/SDKS/StellarESDK-1.7.0/Modules/Platform/CMSIS/Core/Include\cmsis_gcc.h **** /**
 231:C:/StellarStudio-7.0/SDKS/StellarESDK-1.7.0/Modules/Platform/CMSIS/Core/Include\cmsis_gcc.h ****   \brief   Wait For Interrupt
 232:C:/StellarStudio-7.0/SDKS/StellarESDK-1.7.0/Modules/Platform/CMSIS/Core/Include\cmsis_gcc.h ****   \details Wait For Interrupt is a hint instruction that suspends execution until one of a number o
 233:C:/StellarStudio-7.0/SDKS/StellarESDK-1.7.0/Modules/Platform/CMSIS/Core/Include\cmsis_gcc.h ****  */
 234:C:/StellarStudio-7.0/SDKS/StellarESDK-1.7.0/Modules/Platform/CMSIS/Core/Include\cmsis_gcc.h **** #define __WFI()                             __ASM volatile ("wfi":::"memory")
 235:C:/StellarStudio-7.0/SDKS/StellarESDK-1.7.0/Modules/Platform/CMSIS/Core/Include\cmsis_gcc.h **** 
 236:C:/StellarStudio-7.0/SDKS/StellarESDK-1.7.0/Modules/Platform/CMSIS/Core/Include\cmsis_gcc.h **** 
 237:C:/StellarStudio-7.0/SDKS/StellarESDK-1.7.0/Modules/Platform/CMSIS/Core/Include\cmsis_gcc.h **** /**
 238:C:/StellarStudio-7.0/SDKS/StellarESDK-1.7.0/Modules/Platform/CMSIS/Core/Include\cmsis_gcc.h ****   \brief   Wait For Event
 239:C:/StellarStudio-7.0/SDKS/StellarESDK-1.7.0/Modules/Platform/CMSIS/Core/Include\cmsis_gcc.h ****   \details Wait For Event is a hint instruction that permits the processor to enter
 240:C:/StellarStudio-7.0/SDKS/StellarESDK-1.7.0/Modules/Platform/CMSIS/Core/Include\cmsis_gcc.h ****            a low-power state until one of a number of events occurs.
 241:C:/StellarStudio-7.0/SDKS/StellarESDK-1.7.0/Modules/Platform/CMSIS/Core/Include\cmsis_gcc.h ****  */
 242:C:/StellarStudio-7.0/SDKS/StellarESDK-1.7.0/Modules/Platform/CMSIS/Core/Include\cmsis_gcc.h **** #define __WFE()                             __ASM volatile ("wfe":::"memory")
 243:C:/StellarStudio-7.0/SDKS/StellarESDK-1.7.0/Modules/Platform/CMSIS/Core/Include\cmsis_gcc.h **** 
 244:C:/StellarStudio-7.0/SDKS/StellarESDK-1.7.0/Modules/Platform/CMSIS/Core/Include\cmsis_gcc.h **** 
 245:C:/StellarStudio-7.0/SDKS/StellarESDK-1.7.0/Modules/Platform/CMSIS/Core/Include\cmsis_gcc.h **** /**
 246:C:/StellarStudio-7.0/SDKS/StellarESDK-1.7.0/Modules/Platform/CMSIS/Core/Include\cmsis_gcc.h ****   \brief   Send Event
 247:C:/StellarStudio-7.0/SDKS/StellarESDK-1.7.0/Modules/Platform/CMSIS/Core/Include\cmsis_gcc.h ****   \details Send Event is a hint instruction. It causes an event to be signaled to the CPU.
 248:C:/StellarStudio-7.0/SDKS/StellarESDK-1.7.0/Modules/Platform/CMSIS/Core/Include\cmsis_gcc.h ****  */
 249:C:/StellarStudio-7.0/SDKS/StellarESDK-1.7.0/Modules/Platform/CMSIS/Core/Include\cmsis_gcc.h **** #define __SEV()                             __ASM volatile ("sev")
 250:C:/StellarStudio-7.0/SDKS/StellarESDK-1.7.0/Modules/Platform/CMSIS/Core/Include\cmsis_gcc.h **** 
 251:C:/StellarStudio-7.0/SDKS/StellarESDK-1.7.0/Modules/Platform/CMSIS/Core/Include\cmsis_gcc.h **** 
 252:C:/StellarStudio-7.0/SDKS/StellarESDK-1.7.0/Modules/Platform/CMSIS/Core/Include\cmsis_gcc.h **** /**
 253:C:/StellarStudio-7.0/SDKS/StellarESDK-1.7.0/Modules/Platform/CMSIS/Core/Include\cmsis_gcc.h ****   \brief   Instruction Synchronization Barrier
 254:C:/StellarStudio-7.0/SDKS/StellarESDK-1.7.0/Modules/Platform/CMSIS/Core/Include\cmsis_gcc.h ****   \details Instruction Synchronization Barrier flushes the pipeline in the processor,
 255:C:/StellarStudio-7.0/SDKS/StellarESDK-1.7.0/Modules/Platform/CMSIS/Core/Include\cmsis_gcc.h ****            so that all instructions following the ISB are fetched from cache or memory,
 256:C:/StellarStudio-7.0/SDKS/StellarESDK-1.7.0/Modules/Platform/CMSIS/Core/Include\cmsis_gcc.h ****            after the instruction has been completed.
 257:C:/StellarStudio-7.0/SDKS/StellarESDK-1.7.0/Modules/Platform/CMSIS/Core/Include\cmsis_gcc.h ****  */
 258:C:/StellarStudio-7.0/SDKS/StellarESDK-1.7.0/Modules/Platform/CMSIS/Core/Include\cmsis_gcc.h **** __STATIC_FORCEINLINE void __ISB(void)
 259:C:/StellarStudio-7.0/SDKS/StellarESDK-1.7.0/Modules/Platform/CMSIS/Core/Include\cmsis_gcc.h **** {
 260:C:/StellarStudio-7.0/SDKS/StellarESDK-1.7.0/Modules/Platform/CMSIS/Core/Include\cmsis_gcc.h ****   __ASM volatile ("isb 0xF":::"memory");
 261:C:/StellarStudio-7.0/SDKS/StellarESDK-1.7.0/Modules/Platform/CMSIS/Core/Include\cmsis_gcc.h **** }
 262:C:/StellarStudio-7.0/SDKS/StellarESDK-1.7.0/Modules/Platform/CMSIS/Core/Include\cmsis_gcc.h **** 
 263:C:/StellarStudio-7.0/SDKS/StellarESDK-1.7.0/Modules/Platform/CMSIS/Core/Include\cmsis_gcc.h **** 
 264:C:/StellarStudio-7.0/SDKS/StellarESDK-1.7.0/Modules/Platform/CMSIS/Core/Include\cmsis_gcc.h **** /**
 265:C:/StellarStudio-7.0/SDKS/StellarESDK-1.7.0/Modules/Platform/CMSIS/Core/Include\cmsis_gcc.h ****   \brief   Data Synchronization Barrier
 266:C:/StellarStudio-7.0/SDKS/StellarESDK-1.7.0/Modules/Platform/CMSIS/Core/Include\cmsis_gcc.h ****   \details Acts as a special kind of Data Memory Barrier.
 267:C:/StellarStudio-7.0/SDKS/StellarESDK-1.7.0/Modules/Platform/CMSIS/Core/Include\cmsis_gcc.h ****            It completes when all explicit memory accesses before this instruction complete.
 268:C:/StellarStudio-7.0/SDKS/StellarESDK-1.7.0/Modules/Platform/CMSIS/Core/Include\cmsis_gcc.h ****  */
 269:C:/StellarStudio-7.0/SDKS/StellarESDK-1.7.0/Modules/Platform/CMSIS/Core/Include\cmsis_gcc.h **** __STATIC_FORCEINLINE void __DSB(void)
 270:C:/StellarStudio-7.0/SDKS/StellarESDK-1.7.0/Modules/Platform/CMSIS/Core/Include\cmsis_gcc.h **** {
 271:C:/StellarStudio-7.0/SDKS/StellarESDK-1.7.0/Modules/Platform/CMSIS/Core/Include\cmsis_gcc.h ****   __ASM volatile ("dsb 0xF":::"memory");
 224              		.loc 2 271 3
 225              		.syntax unified
 226              	@ 271 "C:/StellarStudio-7.0/SDKS/StellarESDK-1.7.0/Modules/Platform/CMSIS/Core/Include/cmsis_gcc.h"
 227 006a BFF34F8F 		dsb 0xF
 228              	@ 0 "" 2
 272:C:/StellarStudio-7.0/SDKS/StellarESDK-1.7.0/Modules/Platform/CMSIS/Core/Include\cmsis_gcc.h **** }
 229              		.loc 2 272 1
 230              		.thumb
 231              		.syntax unified
 232 006e 00BF     		nop
 233              	.LBE56:
 234              	.LBE55:
 139:libraries/zf_driver/zf_driver_exti.c ****         IRQ_EPILOGUE();
 140:libraries/zf_driver/zf_driver_exti.c ****     }
 141:libraries/zf_driver/zf_driver_exti.c ****     #undef  TEMP_EXTI_INDEX
 142:libraries/zf_driver/zf_driver_exti.c ****     ZF_DSB();
 143:libraries/zf_driver/zf_driver_exti.c **** }
 235              		.loc 1 143 1
 236 0070 00BF     		nop
 237 0072 03B0     		add	sp, sp, #12
 238              		.cfi_def_cfa_offset 4
 239              		@ sp needed
 240 0074 5DF804FB 		ldr	pc, [sp], #4
 241              	.L10:
 242              		.align	2
 243              	.L9:
 244 0078 00000000 		.word	exti_obj_list
 245 007c 00000000 		.word	exti_callback
 246              		.cfi_endproc
 247              	.LFE181:
 249              		.section	.text.Vector5C,"ax",%progbits
 250              		.align	1
 251              		.p2align 4,,15
 252              		.global	Vector5C
 253              		.syntax unified
 254              		.thumb
 255              		.thumb_func
 257              	Vector5C:
 258              	.LFB182:
 144:libraries/zf_driver/zf_driver_exti.c **** 
 145:libraries/zf_driver/zf_driver_exti.c **** //-------------------------------------------------------------------------------------------------
 146:libraries/zf_driver/zf_driver_exti.c **** // ÂáΩÊï∞ÁÆÄ‰ªã     EXTI1 Á∫ø ÁöÑ‰∏≤Âè£‰∏≠Êñ≠ÊúçÂä°ÂáΩÊï∞
 147:libraries/zf_driver/zf_driver_exti.c **** // ÂèÇÊï∞ËØ¥Êòé     void
 148:libraries/zf_driver/zf_driver_exti.c **** // ËøîÂõûÂèÇÊï∞     void
 149:libraries/zf_driver/zf_driver_exti.c **** // ‰ΩøÁî®Á§∫‰æã     
 150:libraries/zf_driver/zf_driver_exti.c **** // Â§áÊ≥®‰ø°ÊÅØ     ÂêØÂä® .s Êñá‰ª∂ÂÆö‰πâ ‰∏çÂÖÅËÆ∏‰øÆÊîπÂáΩÊï∞ÂêçÁß∞
 151:libraries/zf_driver/zf_driver_exti.c **** //              zf_exti_set_interrupt_priority(pin, priority);
 152:libraries/zf_driver/zf_driver_exti.c **** //-------------------------------------------------------------------------------------------------
 153:libraries/zf_driver/zf_driver_exti.c **** void IRQ_EXTI1_HANDLER (void)
 154:libraries/zf_driver/zf_driver_exti.c **** {
 259              		.loc 1 154 1
 260              		.cfi_startproc
 261              		@ args = 0, pretend = 0, frame = 8
 262              		@ frame_needed = 0, uses_anonymous_args = 0
 263 0000 00B5     		push	{lr}
 264              		.cfi_def_cfa_offset 4
 265              		.cfi_offset 14, -4
 266 0002 83B0     		sub	sp, sp, #12
 267              		.cfi_def_cfa_offset 16
 155:libraries/zf_driver/zf_driver_exti.c ****     #define TEMP_EXTI_INDEX     ( EXTI1_CH1_A1 )
 156:libraries/zf_driver/zf_driver_exti.c ****     exti_obj_list[EXTI_CALC_INDEX].exti_ptr->C1PR1 |= (0x00000001 << EXTI_CALC_CHANNEL);
 268              		.loc 1 156 35
 269 0004 1D4B     		ldr	r3, .L18
 270 0006 1B68     		ldr	r3, [r3]
 271              		.loc 1 156 52
 272 0008 D3F88820 		ldr	r2, [r3, #136]
 273              		.loc 1 156 35
 274 000c 1B4B     		ldr	r3, .L18
 275 000e 1B68     		ldr	r3, [r3]
 276              		.loc 1 156 52
 277 0010 42F00202 		orr	r2, r2, #2
 278 0014 C3F88820 		str	r2, [r3, #136]
 157:libraries/zf_driver/zf_driver_exti.c ****     if(PIN_NULL != exti_obj_list[EXTI_CALC_INDEX].pin_list[EXTI_CALC_CHANNEL])
 279              		.loc 1 157 59
 280 0018 184B     		ldr	r3, .L18
 281 001a DB88     		ldrh	r3, [r3, #6]
 282              		.loc 1 157 7
 283 001c 40F6FF72 		movw	r2, #4095
 284 0020 9342     		cmp	r3, r2
 285 0022 20D0     		beq	.L12
 286              	.LBB57:
 158:libraries/zf_driver/zf_driver_exti.c ****     {
 159:libraries/zf_driver/zf_driver_exti.c ****         uint32 event_temp = EXTI_INTERRUPT_STATE_NONE;
 287              		.loc 1 159 16
 288 0024 0023     		movs	r3, #0
 289 0026 0193     		str	r3, [sp, #4]
 160:libraries/zf_driver/zf_driver_exti.c ****         switch((exti_obj_list[EXTI_CALC_INDEX].config_info >> (EXTI_CALC_CHANNEL * 2)) & 0x03)
 290              		.loc 1 160 47
 291 0028 144B     		ldr	r3, .L18
 292 002a 5B6A     		ldr	r3, [r3, #36]
 293              		.loc 1 160 60
 294 002c 9B08     		lsrs	r3, r3, #2
 295              		.loc 1 160 88
 296 002e 03F00303 		and	r3, r3, #3
 297              		.loc 1 160 9
 298 0032 032B     		cmp	r3, #3
 299 0034 0CD0     		beq	.L13
 300 0036 032B     		cmp	r3, #3
 301 0038 0DD8     		bhi	.L14
 302 003a 012B     		cmp	r3, #1
 303 003c 02D0     		beq	.L15
 304 003e 022B     		cmp	r3, #2
 305 0040 03D0     		beq	.L16
 306 0042 08E0     		b	.L14
 307              	.L15:
 161:libraries/zf_driver/zf_driver_exti.c ****         {
 162:libraries/zf_driver/zf_driver_exti.c ****             case EXTI_TRIGGER_TYPE_RISING   :   event_temp = EXTI_INTERRUPT_STATE_RISING    ;   bre
 308              		.loc 1 162 60
 309 0044 0123     		movs	r3, #1
 310 0046 0193     		str	r3, [sp, #4]
 311              		.loc 1 162 13
 312 0048 05E0     		b	.L14
 313              	.L16:
 163:libraries/zf_driver/zf_driver_exti.c ****             case EXTI_TRIGGER_TYPE_FALLING  :   event_temp = EXTI_INTERRUPT_STATE_FALLING   ;   bre
 314              		.loc 1 163 60
 315 004a 0223     		movs	r3, #2
 316 004c 0193     		str	r3, [sp, #4]
 317              		.loc 1 163 13
 318 004e 02E0     		b	.L14
 319              	.L13:
 164:libraries/zf_driver/zf_driver_exti.c ****             case EXTI_TRIGGER_TYPE_BOTH     :   event_temp = EXTI_INTERRUPT_STATE_BOTH      ;   bre
 320              		.loc 1 164 60
 321 0050 0323     		movs	r3, #3
 322 0052 0193     		str	r3, [sp, #4]
 323              		.loc 1 164 13
 324 0054 00BF     		nop
 325              	.L14:
 165:libraries/zf_driver/zf_driver_exti.c ****         }
 166:libraries/zf_driver/zf_driver_exti.c ****         exti_callback[EXTI_CALC_INDEX][EXTI_CALC_CHANNEL].callback(event_temp, exti_callback[EXTI_C
 326              		.loc 1 166 58
 327 0056 0A4B     		ldr	r3, .L18+4
 328 0058 9B68     		ldr	r3, [r3, #8]
 329              		.loc 1 166 9
 330 005a 094A     		ldr	r2, .L18+4
 331 005c D268     		ldr	r2, [r2, #12]
 332 005e 1146     		mov	r1, r2
 333 0060 0198     		ldr	r0, [sp, #4]
 334 0062 9847     		blx	r3
 335              	.LVL1:
 336              	.LBE57:
 337 0064 02E0     		b	.L17
 338              	.L12:
 167:libraries/zf_driver/zf_driver_exti.c ****     }
 168:libraries/zf_driver/zf_driver_exti.c ****     else
 169:libraries/zf_driver/zf_driver_exti.c ****     {
 170:libraries/zf_driver/zf_driver_exti.c ****         IRQ_PROLOGUE();
 171:libraries/zf_driver/zf_driver_exti.c ****         __exti_serve_interrupt(EXTI_IRQ_LINE1);
 339              		.loc 1 171 9
 340 0066 0120     		movs	r0, #1
 341 0068 FFF7FEFF 		bl	__exti_serve_interrupt
 342              	.L17:
 343              	.LBB58:
 344              	.LBB59:
 271:C:/StellarStudio-7.0/SDKS/StellarESDK-1.7.0/Modules/Platform/CMSIS/Core/Include\cmsis_gcc.h **** }
 345              		.loc 2 271 3
 346              		.syntax unified
 347              	@ 271 "C:/StellarStudio-7.0/SDKS/StellarESDK-1.7.0/Modules/Platform/CMSIS/Core/Include/cmsis_gcc.h"
 348 006c BFF34F8F 		dsb 0xF
 349              	@ 0 "" 2
 350              		.loc 2 272 1
 351              		.thumb
 352              		.syntax unified
 353 0070 00BF     		nop
 354              	.LBE59:
 355              	.LBE58:
 172:libraries/zf_driver/zf_driver_exti.c ****         IRQ_EPILOGUE();
 173:libraries/zf_driver/zf_driver_exti.c ****     }
 174:libraries/zf_driver/zf_driver_exti.c ****     #undef  TEMP_EXTI_INDEX
 175:libraries/zf_driver/zf_driver_exti.c ****     ZF_DSB();
 176:libraries/zf_driver/zf_driver_exti.c **** }
 356              		.loc 1 176 1
 357 0072 00BF     		nop
 358 0074 03B0     		add	sp, sp, #12
 359              		.cfi_def_cfa_offset 4
 360              		@ sp needed
 361 0076 5DF804FB 		ldr	pc, [sp], #4
 362              	.L19:
 363 007a 00BF     		.align	2
 364              	.L18:
 365 007c 00000000 		.word	exti_obj_list
 366 0080 00000000 		.word	exti_callback
 367              		.cfi_endproc
 368              	.LFE182:
 370              		.section	.text.Vector60,"ax",%progbits
 371              		.align	1
 372              		.p2align 4,,15
 373              		.global	Vector60
 374              		.syntax unified
 375              		.thumb
 376              		.thumb_func
 378              	Vector60:
 379              	.LFB183:
 177:libraries/zf_driver/zf_driver_exti.c **** 
 178:libraries/zf_driver/zf_driver_exti.c **** //-------------------------------------------------------------------------------------------------
 179:libraries/zf_driver/zf_driver_exti.c **** // ÂáΩÊï∞ÁÆÄ‰ªã     EXTI2 Á∫ø ÁöÑ‰∏≤Âè£‰∏≠Êñ≠ÊúçÂä°ÂáΩÊï∞
 180:libraries/zf_driver/zf_driver_exti.c **** // ÂèÇÊï∞ËØ¥Êòé     void
 181:libraries/zf_driver/zf_driver_exti.c **** // ËøîÂõûÂèÇÊï∞     void
 182:libraries/zf_driver/zf_driver_exti.c **** // ‰ΩøÁî®Á§∫‰æã     
 183:libraries/zf_driver/zf_driver_exti.c **** // Â§áÊ≥®‰ø°ÊÅØ     ÂêØÂä® .s Êñá‰ª∂ÂÆö‰πâ ‰∏çÂÖÅËÆ∏‰øÆÊîπÂáΩÊï∞ÂêçÁß∞
 184:libraries/zf_driver/zf_driver_exti.c **** //              zf_exti_set_interrupt_priority(pin, priority);
 185:libraries/zf_driver/zf_driver_exti.c **** //-------------------------------------------------------------------------------------------------
 186:libraries/zf_driver/zf_driver_exti.c **** void IRQ_EXTI2_HANDLER (void)
 187:libraries/zf_driver/zf_driver_exti.c **** {
 380              		.loc 1 187 1
 381              		.cfi_startproc
 382              		@ args = 0, pretend = 0, frame = 8
 383              		@ frame_needed = 0, uses_anonymous_args = 0
 384 0000 00B5     		push	{lr}
 385              		.cfi_def_cfa_offset 4
 386              		.cfi_offset 14, -4
 387 0002 83B0     		sub	sp, sp, #12
 388              		.cfi_def_cfa_offset 16
 188:libraries/zf_driver/zf_driver_exti.c ****     #define TEMP_EXTI_INDEX     ( EXTI1_CH2_A2 )
 189:libraries/zf_driver/zf_driver_exti.c ****     exti_obj_list[EXTI_CALC_INDEX].exti_ptr->C1PR1 |= (0x00000001 << EXTI_CALC_CHANNEL);
 389              		.loc 1 189 35
 390 0004 1D4B     		ldr	r3, .L27
 391 0006 1B68     		ldr	r3, [r3]
 392              		.loc 1 189 52
 393 0008 D3F88820 		ldr	r2, [r3, #136]
 394              		.loc 1 189 35
 395 000c 1B4B     		ldr	r3, .L27
 396 000e 1B68     		ldr	r3, [r3]
 397              		.loc 1 189 52
 398 0010 42F00402 		orr	r2, r2, #4
 399 0014 C3F88820 		str	r2, [r3, #136]
 190:libraries/zf_driver/zf_driver_exti.c ****     if(PIN_NULL != exti_obj_list[EXTI_CALC_INDEX].pin_list[EXTI_CALC_CHANNEL])
 400              		.loc 1 190 59
 401 0018 184B     		ldr	r3, .L27
 402 001a 1B89     		ldrh	r3, [r3, #8]
 403              		.loc 1 190 7
 404 001c 40F6FF72 		movw	r2, #4095
 405 0020 9342     		cmp	r3, r2
 406 0022 20D0     		beq	.L21
 407              	.LBB60:
 191:libraries/zf_driver/zf_driver_exti.c ****     {
 192:libraries/zf_driver/zf_driver_exti.c ****         uint32 event_temp = EXTI_INTERRUPT_STATE_NONE;
 408              		.loc 1 192 16
 409 0024 0023     		movs	r3, #0
 410 0026 0193     		str	r3, [sp, #4]
 193:libraries/zf_driver/zf_driver_exti.c ****         switch((exti_obj_list[EXTI_CALC_INDEX].config_info >> (EXTI_CALC_CHANNEL * 2)) & 0x03)
 411              		.loc 1 193 47
 412 0028 144B     		ldr	r3, .L27
 413 002a 5B6A     		ldr	r3, [r3, #36]
 414              		.loc 1 193 60
 415 002c 1B09     		lsrs	r3, r3, #4
 416              		.loc 1 193 88
 417 002e 03F00303 		and	r3, r3, #3
 418              		.loc 1 193 9
 419 0032 032B     		cmp	r3, #3
 420 0034 0CD0     		beq	.L22
 421 0036 032B     		cmp	r3, #3
 422 0038 0DD8     		bhi	.L23
 423 003a 012B     		cmp	r3, #1
 424 003c 02D0     		beq	.L24
 425 003e 022B     		cmp	r3, #2
 426 0040 03D0     		beq	.L25
 427 0042 08E0     		b	.L23
 428              	.L24:
 194:libraries/zf_driver/zf_driver_exti.c ****         {
 195:libraries/zf_driver/zf_driver_exti.c ****             case EXTI_TRIGGER_TYPE_RISING   :   event_temp = EXTI_INTERRUPT_STATE_RISING    ;   bre
 429              		.loc 1 195 60
 430 0044 0123     		movs	r3, #1
 431 0046 0193     		str	r3, [sp, #4]
 432              		.loc 1 195 13
 433 0048 05E0     		b	.L23
 434              	.L25:
 196:libraries/zf_driver/zf_driver_exti.c ****             case EXTI_TRIGGER_TYPE_FALLING  :   event_temp = EXTI_INTERRUPT_STATE_FALLING   ;   bre
 435              		.loc 1 196 60
 436 004a 0223     		movs	r3, #2
 437 004c 0193     		str	r3, [sp, #4]
 438              		.loc 1 196 13
 439 004e 02E0     		b	.L23
 440              	.L22:
 197:libraries/zf_driver/zf_driver_exti.c ****             case EXTI_TRIGGER_TYPE_BOTH     :   event_temp = EXTI_INTERRUPT_STATE_BOTH      ;   bre
 441              		.loc 1 197 60
 442 0050 0323     		movs	r3, #3
 443 0052 0193     		str	r3, [sp, #4]
 444              		.loc 1 197 13
 445 0054 00BF     		nop
 446              	.L23:
 198:libraries/zf_driver/zf_driver_exti.c ****         }
 199:libraries/zf_driver/zf_driver_exti.c ****         exti_callback[EXTI_CALC_INDEX][EXTI_CALC_CHANNEL].callback(event_temp, exti_callback[EXTI_C
 447              		.loc 1 199 58
 448 0056 0A4B     		ldr	r3, .L27+4
 449 0058 1B69     		ldr	r3, [r3, #16]
 450              		.loc 1 199 9
 451 005a 094A     		ldr	r2, .L27+4
 452 005c 5269     		ldr	r2, [r2, #20]
 453 005e 1146     		mov	r1, r2
 454 0060 0198     		ldr	r0, [sp, #4]
 455 0062 9847     		blx	r3
 456              	.LVL2:
 457              	.LBE60:
 458 0064 02E0     		b	.L26
 459              	.L21:
 200:libraries/zf_driver/zf_driver_exti.c ****     }
 201:libraries/zf_driver/zf_driver_exti.c ****     else
 202:libraries/zf_driver/zf_driver_exti.c ****     {
 203:libraries/zf_driver/zf_driver_exti.c ****         IRQ_PROLOGUE();
 204:libraries/zf_driver/zf_driver_exti.c ****         __exti_serve_interrupt(EXTI_IRQ_LINE2);
 460              		.loc 1 204 9
 461 0066 0220     		movs	r0, #2
 462 0068 FFF7FEFF 		bl	__exti_serve_interrupt
 463              	.L26:
 464              	.LBB61:
 465              	.LBB62:
 271:C:/StellarStudio-7.0/SDKS/StellarESDK-1.7.0/Modules/Platform/CMSIS/Core/Include\cmsis_gcc.h **** }
 466              		.loc 2 271 3
 467              		.syntax unified
 468              	@ 271 "C:/StellarStudio-7.0/SDKS/StellarESDK-1.7.0/Modules/Platform/CMSIS/Core/Include/cmsis_gcc.h"
 469 006c BFF34F8F 		dsb 0xF
 470              	@ 0 "" 2
 471              		.loc 2 272 1
 472              		.thumb
 473              		.syntax unified
 474 0070 00BF     		nop
 475              	.LBE62:
 476              	.LBE61:
 205:libraries/zf_driver/zf_driver_exti.c ****         IRQ_EPILOGUE();
 206:libraries/zf_driver/zf_driver_exti.c ****     }
 207:libraries/zf_driver/zf_driver_exti.c ****     #undef  TEMP_EXTI_INDEX
 208:libraries/zf_driver/zf_driver_exti.c ****     ZF_DSB();
 209:libraries/zf_driver/zf_driver_exti.c **** }
 477              		.loc 1 209 1
 478 0072 00BF     		nop
 479 0074 03B0     		add	sp, sp, #12
 480              		.cfi_def_cfa_offset 4
 481              		@ sp needed
 482 0076 5DF804FB 		ldr	pc, [sp], #4
 483              	.L28:
 484 007a 00BF     		.align	2
 485              	.L27:
 486 007c 00000000 		.word	exti_obj_list
 487 0080 00000000 		.word	exti_callback
 488              		.cfi_endproc
 489              	.LFE183:
 491              		.section	.text.Vector64,"ax",%progbits
 492              		.align	1
 493              		.p2align 4,,15
 494              		.global	Vector64
 495              		.syntax unified
 496              		.thumb
 497              		.thumb_func
 499              	Vector64:
 500              	.LFB184:
 210:libraries/zf_driver/zf_driver_exti.c **** 
 211:libraries/zf_driver/zf_driver_exti.c **** //-------------------------------------------------------------------------------------------------
 212:libraries/zf_driver/zf_driver_exti.c **** // ÂáΩÊï∞ÁÆÄ‰ªã     EXTI3 Á∫ø ÁöÑ‰∏≤Âè£‰∏≠Êñ≠ÊúçÂä°ÂáΩÊï∞
 213:libraries/zf_driver/zf_driver_exti.c **** // ÂèÇÊï∞ËØ¥Êòé     void
 214:libraries/zf_driver/zf_driver_exti.c **** // ËøîÂõûÂèÇÊï∞     void
 215:libraries/zf_driver/zf_driver_exti.c **** // ‰ΩøÁî®Á§∫‰æã     
 216:libraries/zf_driver/zf_driver_exti.c **** // Â§áÊ≥®‰ø°ÊÅØ     ÂêØÂä® .s Êñá‰ª∂ÂÆö‰πâ ‰∏çÂÖÅËÆ∏‰øÆÊîπÂáΩÊï∞ÂêçÁß∞
 217:libraries/zf_driver/zf_driver_exti.c **** //              zf_exti_set_interrupt_priority(pin, priority);
 218:libraries/zf_driver/zf_driver_exti.c **** //-------------------------------------------------------------------------------------------------
 219:libraries/zf_driver/zf_driver_exti.c **** void IRQ_EXTI3_HANDLER (void)
 220:libraries/zf_driver/zf_driver_exti.c **** {
 501              		.loc 1 220 1
 502              		.cfi_startproc
 503              		@ args = 0, pretend = 0, frame = 8
 504              		@ frame_needed = 0, uses_anonymous_args = 0
 505 0000 00B5     		push	{lr}
 506              		.cfi_def_cfa_offset 4
 507              		.cfi_offset 14, -4
 508 0002 83B0     		sub	sp, sp, #12
 509              		.cfi_def_cfa_offset 16
 221:libraries/zf_driver/zf_driver_exti.c ****     #define TEMP_EXTI_INDEX     ( EXTI1_CH3_A3 )
 222:libraries/zf_driver/zf_driver_exti.c ****     exti_obj_list[EXTI_CALC_INDEX].exti_ptr->C1PR1 |= (0x00000001 << EXTI_CALC_CHANNEL);
 510              		.loc 1 222 35
 511 0004 1D4B     		ldr	r3, .L36
 512 0006 1B68     		ldr	r3, [r3]
 513              		.loc 1 222 52
 514 0008 D3F88820 		ldr	r2, [r3, #136]
 515              		.loc 1 222 35
 516 000c 1B4B     		ldr	r3, .L36
 517 000e 1B68     		ldr	r3, [r3]
 518              		.loc 1 222 52
 519 0010 42F00802 		orr	r2, r2, #8
 520 0014 C3F88820 		str	r2, [r3, #136]
 223:libraries/zf_driver/zf_driver_exti.c ****     if(PIN_NULL != exti_obj_list[EXTI_CALC_INDEX].pin_list[EXTI_CALC_CHANNEL])
 521              		.loc 1 223 59
 522 0018 184B     		ldr	r3, .L36
 523 001a 5B89     		ldrh	r3, [r3, #10]
 524              		.loc 1 223 7
 525 001c 40F6FF72 		movw	r2, #4095
 526 0020 9342     		cmp	r3, r2
 527 0022 20D0     		beq	.L30
 528              	.LBB63:
 224:libraries/zf_driver/zf_driver_exti.c ****     {
 225:libraries/zf_driver/zf_driver_exti.c ****         uint32 event_temp = EXTI_INTERRUPT_STATE_NONE;
 529              		.loc 1 225 16
 530 0024 0023     		movs	r3, #0
 531 0026 0193     		str	r3, [sp, #4]
 226:libraries/zf_driver/zf_driver_exti.c ****         switch((exti_obj_list[EXTI_CALC_INDEX].config_info >> (EXTI_CALC_CHANNEL * 2)) & 0x03)
 532              		.loc 1 226 47
 533 0028 144B     		ldr	r3, .L36
 534 002a 5B6A     		ldr	r3, [r3, #36]
 535              		.loc 1 226 60
 536 002c 9B09     		lsrs	r3, r3, #6
 537              		.loc 1 226 88
 538 002e 03F00303 		and	r3, r3, #3
 539              		.loc 1 226 9
 540 0032 032B     		cmp	r3, #3
 541 0034 0CD0     		beq	.L31
 542 0036 032B     		cmp	r3, #3
 543 0038 0DD8     		bhi	.L32
 544 003a 012B     		cmp	r3, #1
 545 003c 02D0     		beq	.L33
 546 003e 022B     		cmp	r3, #2
 547 0040 03D0     		beq	.L34
 548 0042 08E0     		b	.L32
 549              	.L33:
 227:libraries/zf_driver/zf_driver_exti.c ****         {
 228:libraries/zf_driver/zf_driver_exti.c ****             case EXTI_TRIGGER_TYPE_RISING   :   event_temp = EXTI_INTERRUPT_STATE_RISING    ;   bre
 550              		.loc 1 228 60
 551 0044 0123     		movs	r3, #1
 552 0046 0193     		str	r3, [sp, #4]
 553              		.loc 1 228 13
 554 0048 05E0     		b	.L32
 555              	.L34:
 229:libraries/zf_driver/zf_driver_exti.c ****             case EXTI_TRIGGER_TYPE_FALLING  :   event_temp = EXTI_INTERRUPT_STATE_FALLING   ;   bre
 556              		.loc 1 229 60
 557 004a 0223     		movs	r3, #2
 558 004c 0193     		str	r3, [sp, #4]
 559              		.loc 1 229 13
 560 004e 02E0     		b	.L32
 561              	.L31:
 230:libraries/zf_driver/zf_driver_exti.c ****             case EXTI_TRIGGER_TYPE_BOTH     :   event_temp = EXTI_INTERRUPT_STATE_BOTH      ;   bre
 562              		.loc 1 230 60
 563 0050 0323     		movs	r3, #3
 564 0052 0193     		str	r3, [sp, #4]
 565              		.loc 1 230 13
 566 0054 00BF     		nop
 567              	.L32:
 231:libraries/zf_driver/zf_driver_exti.c ****         }
 232:libraries/zf_driver/zf_driver_exti.c ****         exti_callback[EXTI_CALC_INDEX][EXTI_CALC_CHANNEL].callback(event_temp, exti_callback[EXTI_C
 568              		.loc 1 232 58
 569 0056 0A4B     		ldr	r3, .L36+4
 570 0058 9B69     		ldr	r3, [r3, #24]
 571              		.loc 1 232 9
 572 005a 094A     		ldr	r2, .L36+4
 573 005c D269     		ldr	r2, [r2, #28]
 574 005e 1146     		mov	r1, r2
 575 0060 0198     		ldr	r0, [sp, #4]
 576 0062 9847     		blx	r3
 577              	.LVL3:
 578              	.LBE63:
 579 0064 02E0     		b	.L35
 580              	.L30:
 233:libraries/zf_driver/zf_driver_exti.c ****     }
 234:libraries/zf_driver/zf_driver_exti.c ****     else
 235:libraries/zf_driver/zf_driver_exti.c ****     {
 236:libraries/zf_driver/zf_driver_exti.c ****         IRQ_PROLOGUE();
 237:libraries/zf_driver/zf_driver_exti.c ****         __exti_serve_interrupt(EXTI_IRQ_LINE3);
 581              		.loc 1 237 9
 582 0066 0320     		movs	r0, #3
 583 0068 FFF7FEFF 		bl	__exti_serve_interrupt
 584              	.L35:
 585              	.LBB64:
 586              	.LBB65:
 271:C:/StellarStudio-7.0/SDKS/StellarESDK-1.7.0/Modules/Platform/CMSIS/Core/Include\cmsis_gcc.h **** }
 587              		.loc 2 271 3
 588              		.syntax unified
 589              	@ 271 "C:/StellarStudio-7.0/SDKS/StellarESDK-1.7.0/Modules/Platform/CMSIS/Core/Include/cmsis_gcc.h"
 590 006c BFF34F8F 		dsb 0xF
 591              	@ 0 "" 2
 592              		.loc 2 272 1
 593              		.thumb
 594              		.syntax unified
 595 0070 00BF     		nop
 596              	.LBE65:
 597              	.LBE64:
 238:libraries/zf_driver/zf_driver_exti.c ****         IRQ_EPILOGUE();
 239:libraries/zf_driver/zf_driver_exti.c ****     }
 240:libraries/zf_driver/zf_driver_exti.c ****     #undef  TEMP_EXTI_INDEX
 241:libraries/zf_driver/zf_driver_exti.c ****     ZF_DSB();
 242:libraries/zf_driver/zf_driver_exti.c **** }
 598              		.loc 1 242 1
 599 0072 00BF     		nop
 600 0074 03B0     		add	sp, sp, #12
 601              		.cfi_def_cfa_offset 4
 602              		@ sp needed
 603 0076 5DF804FB 		ldr	pc, [sp], #4
 604              	.L37:
 605 007a 00BF     		.align	2
 606              	.L36:
 607 007c 00000000 		.word	exti_obj_list
 608 0080 00000000 		.word	exti_callback
 609              		.cfi_endproc
 610              	.LFE184:
 612              		.section	.text.Vector68,"ax",%progbits
 613              		.align	1
 614              		.p2align 4,,15
 615              		.global	Vector68
 616              		.syntax unified
 617              		.thumb
 618              		.thumb_func
 620              	Vector68:
 621              	.LFB185:
 243:libraries/zf_driver/zf_driver_exti.c **** 
 244:libraries/zf_driver/zf_driver_exti.c **** //-------------------------------------------------------------------------------------------------
 245:libraries/zf_driver/zf_driver_exti.c **** // ÂáΩÊï∞ÁÆÄ‰ªã     EXTI4 Á∫ø ÁöÑ‰∏≤Âè£‰∏≠Êñ≠ÊúçÂä°ÂáΩÊï∞
 246:libraries/zf_driver/zf_driver_exti.c **** // ÂèÇÊï∞ËØ¥Êòé     void
 247:libraries/zf_driver/zf_driver_exti.c **** // ËøîÂõûÂèÇÊï∞     void
 248:libraries/zf_driver/zf_driver_exti.c **** // ‰ΩøÁî®Á§∫‰æã     
 249:libraries/zf_driver/zf_driver_exti.c **** // Â§áÊ≥®‰ø°ÊÅØ     ÂêØÂä® .s Êñá‰ª∂ÂÆö‰πâ ‰∏çÂÖÅËÆ∏‰øÆÊîπÂáΩÊï∞ÂêçÁß∞
 250:libraries/zf_driver/zf_driver_exti.c **** //              zf_exti_set_interrupt_priority(pin, priority);
 251:libraries/zf_driver/zf_driver_exti.c **** //-------------------------------------------------------------------------------------------------
 252:libraries/zf_driver/zf_driver_exti.c **** void IRQ_EXTI4_HANDLER (void)
 253:libraries/zf_driver/zf_driver_exti.c **** {
 622              		.loc 1 253 1
 623              		.cfi_startproc
 624              		@ args = 0, pretend = 0, frame = 8
 625              		@ frame_needed = 0, uses_anonymous_args = 0
 626 0000 00B5     		push	{lr}
 627              		.cfi_def_cfa_offset 4
 628              		.cfi_offset 14, -4
 629 0002 83B0     		sub	sp, sp, #12
 630              		.cfi_def_cfa_offset 16
 254:libraries/zf_driver/zf_driver_exti.c ****     #define TEMP_EXTI_INDEX     ( EXTI1_CH4_A4 )
 255:libraries/zf_driver/zf_driver_exti.c ****     exti_obj_list[EXTI_CALC_INDEX].exti_ptr->C1PR1 |= (0x00000001 << EXTI_CALC_CHANNEL);
 631              		.loc 1 255 35
 632 0004 1D4B     		ldr	r3, .L45
 633 0006 1B68     		ldr	r3, [r3]
 634              		.loc 1 255 52
 635 0008 D3F88820 		ldr	r2, [r3, #136]
 636              		.loc 1 255 35
 637 000c 1B4B     		ldr	r3, .L45
 638 000e 1B68     		ldr	r3, [r3]
 639              		.loc 1 255 52
 640 0010 42F01002 		orr	r2, r2, #16
 641 0014 C3F88820 		str	r2, [r3, #136]
 256:libraries/zf_driver/zf_driver_exti.c ****     if(PIN_NULL != exti_obj_list[EXTI_CALC_INDEX].pin_list[EXTI_CALC_CHANNEL])
 642              		.loc 1 256 59
 643 0018 184B     		ldr	r3, .L45
 644 001a 9B89     		ldrh	r3, [r3, #12]
 645              		.loc 1 256 7
 646 001c 40F6FF72 		movw	r2, #4095
 647 0020 9342     		cmp	r3, r2
 648 0022 20D0     		beq	.L39
 649              	.LBB66:
 257:libraries/zf_driver/zf_driver_exti.c ****     {
 258:libraries/zf_driver/zf_driver_exti.c ****         uint32 event_temp = EXTI_INTERRUPT_STATE_NONE;
 650              		.loc 1 258 16
 651 0024 0023     		movs	r3, #0
 652 0026 0193     		str	r3, [sp, #4]
 259:libraries/zf_driver/zf_driver_exti.c ****         switch((exti_obj_list[EXTI_CALC_INDEX].config_info >> (EXTI_CALC_CHANNEL * 2)) & 0x03)
 653              		.loc 1 259 47
 654 0028 144B     		ldr	r3, .L45
 655 002a 5B6A     		ldr	r3, [r3, #36]
 656              		.loc 1 259 60
 657 002c 1B0A     		lsrs	r3, r3, #8
 658              		.loc 1 259 88
 659 002e 03F00303 		and	r3, r3, #3
 660              		.loc 1 259 9
 661 0032 032B     		cmp	r3, #3
 662 0034 0CD0     		beq	.L40
 663 0036 032B     		cmp	r3, #3
 664 0038 0DD8     		bhi	.L41
 665 003a 012B     		cmp	r3, #1
 666 003c 02D0     		beq	.L42
 667 003e 022B     		cmp	r3, #2
 668 0040 03D0     		beq	.L43
 669 0042 08E0     		b	.L41
 670              	.L42:
 260:libraries/zf_driver/zf_driver_exti.c ****         {
 261:libraries/zf_driver/zf_driver_exti.c ****             case EXTI_TRIGGER_TYPE_RISING   :   event_temp = EXTI_INTERRUPT_STATE_RISING    ;   bre
 671              		.loc 1 261 60
 672 0044 0123     		movs	r3, #1
 673 0046 0193     		str	r3, [sp, #4]
 674              		.loc 1 261 13
 675 0048 05E0     		b	.L41
 676              	.L43:
 262:libraries/zf_driver/zf_driver_exti.c ****             case EXTI_TRIGGER_TYPE_FALLING  :   event_temp = EXTI_INTERRUPT_STATE_FALLING   ;   bre
 677              		.loc 1 262 60
 678 004a 0223     		movs	r3, #2
 679 004c 0193     		str	r3, [sp, #4]
 680              		.loc 1 262 13
 681 004e 02E0     		b	.L41
 682              	.L40:
 263:libraries/zf_driver/zf_driver_exti.c ****             case EXTI_TRIGGER_TYPE_BOTH     :   event_temp = EXTI_INTERRUPT_STATE_BOTH      ;   bre
 683              		.loc 1 263 60
 684 0050 0323     		movs	r3, #3
 685 0052 0193     		str	r3, [sp, #4]
 686              		.loc 1 263 13
 687 0054 00BF     		nop
 688              	.L41:
 264:libraries/zf_driver/zf_driver_exti.c ****         }
 265:libraries/zf_driver/zf_driver_exti.c ****         exti_callback[EXTI_CALC_INDEX][EXTI_CALC_CHANNEL].callback(event_temp, exti_callback[EXTI_C
 689              		.loc 1 265 58
 690 0056 0A4B     		ldr	r3, .L45+4
 691 0058 1B6A     		ldr	r3, [r3, #32]
 692              		.loc 1 265 9
 693 005a 094A     		ldr	r2, .L45+4
 694 005c 526A     		ldr	r2, [r2, #36]
 695 005e 1146     		mov	r1, r2
 696 0060 0198     		ldr	r0, [sp, #4]
 697 0062 9847     		blx	r3
 698              	.LVL4:
 699              	.LBE66:
 700 0064 02E0     		b	.L44
 701              	.L39:
 266:libraries/zf_driver/zf_driver_exti.c ****     }
 267:libraries/zf_driver/zf_driver_exti.c ****     else
 268:libraries/zf_driver/zf_driver_exti.c ****     {
 269:libraries/zf_driver/zf_driver_exti.c ****         IRQ_PROLOGUE();
 270:libraries/zf_driver/zf_driver_exti.c ****         __exti_serve_interrupt(EXTI_IRQ_LINE4);
 702              		.loc 1 270 9
 703 0066 0420     		movs	r0, #4
 704 0068 FFF7FEFF 		bl	__exti_serve_interrupt
 705              	.L44:
 706              	.LBB67:
 707              	.LBB68:
 271:C:/StellarStudio-7.0/SDKS/StellarESDK-1.7.0/Modules/Platform/CMSIS/Core/Include\cmsis_gcc.h **** }
 708              		.loc 2 271 3
 709              		.syntax unified
 710              	@ 271 "C:/StellarStudio-7.0/SDKS/StellarESDK-1.7.0/Modules/Platform/CMSIS/Core/Include/cmsis_gcc.h"
 711 006c BFF34F8F 		dsb 0xF
 712              	@ 0 "" 2
 713              		.loc 2 272 1
 714              		.thumb
 715              		.syntax unified
 716 0070 00BF     		nop
 717              	.LBE68:
 718              	.LBE67:
 271:libraries/zf_driver/zf_driver_exti.c ****         IRQ_EPILOGUE();
 272:libraries/zf_driver/zf_driver_exti.c ****     }
 273:libraries/zf_driver/zf_driver_exti.c ****     #undef  TEMP_EXTI_INDEX
 274:libraries/zf_driver/zf_driver_exti.c ****     ZF_DSB();
 275:libraries/zf_driver/zf_driver_exti.c **** }
 719              		.loc 1 275 1
 720 0072 00BF     		nop
 721 0074 03B0     		add	sp, sp, #12
 722              		.cfi_def_cfa_offset 4
 723              		@ sp needed
 724 0076 5DF804FB 		ldr	pc, [sp], #4
 725              	.L46:
 726 007a 00BF     		.align	2
 727              	.L45:
 728 007c 00000000 		.word	exti_obj_list
 729 0080 00000000 		.word	exti_callback
 730              		.cfi_endproc
 731              	.LFE185:
 733              		.section	.text.VectorE0,"ax",%progbits
 734              		.align	1
 735              		.p2align 4,,15
 736              		.global	VectorE0
 737              		.syntax unified
 738              		.thumb
 739              		.thumb_func
 741              	VectorE0:
 742              	.LFB186:
 276:libraries/zf_driver/zf_driver_exti.c **** 
 277:libraries/zf_driver/zf_driver_exti.c **** //-------------------------------------------------------------------------------------------------
 278:libraries/zf_driver/zf_driver_exti.c **** // ÂáΩÊï∞ÁÆÄ‰ªã     EXTI5-9 Á∫ø ÁöÑ‰∏≤Âè£‰∏≠Êñ≠ÊúçÂä°ÂáΩÊï∞
 279:libraries/zf_driver/zf_driver_exti.c **** // ÂèÇÊï∞ËØ¥Êòé     void
 280:libraries/zf_driver/zf_driver_exti.c **** // ËøîÂõûÂèÇÊï∞     void
 281:libraries/zf_driver/zf_driver_exti.c **** // ‰ΩøÁî®Á§∫‰æã     
 282:libraries/zf_driver/zf_driver_exti.c **** // Â§áÊ≥®‰ø°ÊÅØ     ÂêØÂä® .s Êñá‰ª∂ÂÆö‰πâ ‰∏çÂÖÅËÆ∏‰øÆÊîπÂáΩÊï∞ÂêçÁß∞
 283:libraries/zf_driver/zf_driver_exti.c **** //              zf_exti_set_interrupt_priority(pin, priority);
 284:libraries/zf_driver/zf_driver_exti.c **** //-------------------------------------------------------------------------------------------------
 285:libraries/zf_driver/zf_driver_exti.c **** void IRQ_EXTI9_5_HANDLER (void)
 286:libraries/zf_driver/zf_driver_exti.c **** {
 743              		.loc 1 286 1
 744              		.cfi_startproc
 745              		@ args = 0, pretend = 0, frame = 24
 746              		@ frame_needed = 0, uses_anonymous_args = 0
 747 0000 00B5     		push	{lr}
 748              		.cfi_def_cfa_offset 4
 749              		.cfi_offset 14, -4
 750 0002 87B0     		sub	sp, sp, #28
 751              		.cfi_def_cfa_offset 32
 287:libraries/zf_driver/zf_driver_exti.c ****     if(EXTI->C1PR1 & (0x00000001 << 5))
 752              		.loc 1 287 12
 753 0004 9E4B     		ldr	r3, .L83
 754 0006 D3F88830 		ldr	r3, [r3, #136]
 755              		.loc 1 287 20
 756 000a 03F02003 		and	r3, r3, #32
 757              		.loc 1 287 7
 758 000e 002B     		cmp	r3, #0
 759 0010 36D0     		beq	.L48
 288:libraries/zf_driver/zf_driver_exti.c ****     {
 289:libraries/zf_driver/zf_driver_exti.c ****         #define TEMP_EXTI_INDEX     ( EXTI1_CH5_A5 )
 290:libraries/zf_driver/zf_driver_exti.c ****         exti_obj_list[EXTI_CALC_INDEX].exti_ptr->C1PR1 |= (0x00000001 << EXTI_CALC_CHANNEL);
 760              		.loc 1 290 39
 761 0012 9C4B     		ldr	r3, .L83+4
 762 0014 1B68     		ldr	r3, [r3]
 763              		.loc 1 290 56
 764 0016 D3F88820 		ldr	r2, [r3, #136]
 765              		.loc 1 290 39
 766 001a 9A4B     		ldr	r3, .L83+4
 767 001c 1B68     		ldr	r3, [r3]
 768              		.loc 1 290 56
 769 001e 42F02002 		orr	r2, r2, #32
 770 0022 C3F88820 		str	r2, [r3, #136]
 291:libraries/zf_driver/zf_driver_exti.c ****         if(PIN_NULL != exti_obj_list[EXTI_CALC_INDEX].pin_list[EXTI_CALC_CHANNEL])
 771              		.loc 1 291 63
 772 0026 974B     		ldr	r3, .L83+4
 773 0028 DB89     		ldrh	r3, [r3, #14]
 774              		.loc 1 291 11
 775 002a 40F6FF72 		movw	r2, #4095
 776 002e 9342     		cmp	r3, r2
 777 0030 20D0     		beq	.L49
 778              	.LBB69:
 292:libraries/zf_driver/zf_driver_exti.c ****         {
 293:libraries/zf_driver/zf_driver_exti.c ****             uint32 event_temp = EXTI_INTERRUPT_STATE_NONE;
 779              		.loc 1 293 20
 780 0032 0023     		movs	r3, #0
 781 0034 0593     		str	r3, [sp, #20]
 294:libraries/zf_driver/zf_driver_exti.c ****             switch((exti_obj_list[EXTI_CALC_INDEX].config_info >> (EXTI_CALC_CHANNEL * 2)) & 0x03)
 782              		.loc 1 294 51
 783 0036 934B     		ldr	r3, .L83+4
 784 0038 5B6A     		ldr	r3, [r3, #36]
 785              		.loc 1 294 64
 786 003a 9B0A     		lsrs	r3, r3, #10
 787              		.loc 1 294 92
 788 003c 03F00303 		and	r3, r3, #3
 789              		.loc 1 294 13
 790 0040 032B     		cmp	r3, #3
 791 0042 0CD0     		beq	.L50
 792 0044 032B     		cmp	r3, #3
 793 0046 0DD8     		bhi	.L51
 794 0048 012B     		cmp	r3, #1
 795 004a 02D0     		beq	.L52
 796 004c 022B     		cmp	r3, #2
 797 004e 03D0     		beq	.L53
 798 0050 08E0     		b	.L51
 799              	.L52:
 295:libraries/zf_driver/zf_driver_exti.c ****             {
 296:libraries/zf_driver/zf_driver_exti.c ****                 case EXTI_TRIGGER_TYPE_RISING   :   event_temp = EXTI_INTERRUPT_STATE_RISING    ;  
 800              		.loc 1 296 64
 801 0052 0123     		movs	r3, #1
 802 0054 0593     		str	r3, [sp, #20]
 803              		.loc 1 296 17
 804 0056 05E0     		b	.L51
 805              	.L53:
 297:libraries/zf_driver/zf_driver_exti.c ****                 case EXTI_TRIGGER_TYPE_FALLING  :   event_temp = EXTI_INTERRUPT_STATE_FALLING   ;  
 806              		.loc 1 297 64
 807 0058 0223     		movs	r3, #2
 808 005a 0593     		str	r3, [sp, #20]
 809              		.loc 1 297 17
 810 005c 02E0     		b	.L51
 811              	.L50:
 298:libraries/zf_driver/zf_driver_exti.c ****                 case EXTI_TRIGGER_TYPE_BOTH     :   event_temp = EXTI_INTERRUPT_STATE_BOTH      ;  
 812              		.loc 1 298 64
 813 005e 0323     		movs	r3, #3
 814 0060 0593     		str	r3, [sp, #20]
 815              		.loc 1 298 17
 816 0062 00BF     		nop
 817              	.L51:
 299:libraries/zf_driver/zf_driver_exti.c ****             }
 300:libraries/zf_driver/zf_driver_exti.c ****             exti_callback[EXTI_CALC_INDEX][EXTI_CALC_CHANNEL].callback(event_temp, exti_callback[EX
 818              		.loc 1 300 62
 819 0064 884B     		ldr	r3, .L83+8
 820 0066 9B6A     		ldr	r3, [r3, #40]
 821              		.loc 1 300 13
 822 0068 874A     		ldr	r2, .L83+8
 823 006a D26A     		ldr	r2, [r2, #44]
 824 006c 1146     		mov	r1, r2
 825 006e 0598     		ldr	r0, [sp, #20]
 826 0070 9847     		blx	r3
 827              	.LVL5:
 828              	.LBE69:
 829 0072 02E0     		b	.L54
 830              	.L49:
 301:libraries/zf_driver/zf_driver_exti.c ****         }
 302:libraries/zf_driver/zf_driver_exti.c ****         else
 303:libraries/zf_driver/zf_driver_exti.c ****         {
 304:libraries/zf_driver/zf_driver_exti.c ****             IRQ_PROLOGUE();
 305:libraries/zf_driver/zf_driver_exti.c ****             __exti_serve_interrupt(EXTI_IRQ_LINE9_5);
 831              		.loc 1 305 13
 832 0074 0520     		movs	r0, #5
 833 0076 FFF7FEFF 		bl	__exti_serve_interrupt
 834              	.L54:
 835              	.LBB70:
 836              	.LBB71:
 271:C:/StellarStudio-7.0/SDKS/StellarESDK-1.7.0/Modules/Platform/CMSIS/Core/Include\cmsis_gcc.h **** }
 837              		.loc 2 271 3
 838              		.syntax unified
 839              	@ 271 "C:/StellarStudio-7.0/SDKS/StellarESDK-1.7.0/Modules/Platform/CMSIS/Core/Include/cmsis_gcc.h"
 840 007a BFF34F8F 		dsb 0xF
 841              	@ 0 "" 2
 842              		.loc 2 272 1
 843              		.thumb
 844              		.syntax unified
 845 007e 00BF     		nop
 846              	.L48:
 847              	.LBE71:
 848              	.LBE70:
 306:libraries/zf_driver/zf_driver_exti.c ****             IRQ_EPILOGUE();
 307:libraries/zf_driver/zf_driver_exti.c ****         }
 308:libraries/zf_driver/zf_driver_exti.c ****         #undef  TEMP_EXTI_INDEX
 309:libraries/zf_driver/zf_driver_exti.c ****         ZF_DSB();
 310:libraries/zf_driver/zf_driver_exti.c ****     }
 311:libraries/zf_driver/zf_driver_exti.c ****     if(EXTI->C1PR1 & (0x00000001 << 6))
 849              		.loc 1 311 12
 850 0080 7F4B     		ldr	r3, .L83
 851 0082 D3F88830 		ldr	r3, [r3, #136]
 852              		.loc 1 311 20
 853 0086 03F04003 		and	r3, r3, #64
 854              		.loc 1 311 7
 855 008a 002B     		cmp	r3, #0
 856 008c 36D0     		beq	.L55
 312:libraries/zf_driver/zf_driver_exti.c ****     {
 313:libraries/zf_driver/zf_driver_exti.c ****         #define TEMP_EXTI_INDEX     ( EXTI1_CH6_A6 )
 314:libraries/zf_driver/zf_driver_exti.c ****         exti_obj_list[EXTI_CALC_INDEX].exti_ptr->C1PR1 |= (0x00000001 << EXTI_CALC_CHANNEL);
 857              		.loc 1 314 39
 858 008e 7D4B     		ldr	r3, .L83+4
 859 0090 1B68     		ldr	r3, [r3]
 860              		.loc 1 314 56
 861 0092 D3F88820 		ldr	r2, [r3, #136]
 862              		.loc 1 314 39
 863 0096 7B4B     		ldr	r3, .L83+4
 864 0098 1B68     		ldr	r3, [r3]
 865              		.loc 1 314 56
 866 009a 42F04002 		orr	r2, r2, #64
 867 009e C3F88820 		str	r2, [r3, #136]
 315:libraries/zf_driver/zf_driver_exti.c ****         if(PIN_NULL != exti_obj_list[EXTI_CALC_INDEX].pin_list[EXTI_CALC_CHANNEL])
 868              		.loc 1 315 63
 869 00a2 784B     		ldr	r3, .L83+4
 870 00a4 1B8A     		ldrh	r3, [r3, #16]
 871              		.loc 1 315 11
 872 00a6 40F6FF72 		movw	r2, #4095
 873 00aa 9342     		cmp	r3, r2
 874 00ac 20D0     		beq	.L56
 875              	.LBB72:
 316:libraries/zf_driver/zf_driver_exti.c ****         {
 317:libraries/zf_driver/zf_driver_exti.c ****             uint32 event_temp = EXTI_INTERRUPT_STATE_NONE;
 876              		.loc 1 317 20
 877 00ae 0023     		movs	r3, #0
 878 00b0 0493     		str	r3, [sp, #16]
 318:libraries/zf_driver/zf_driver_exti.c ****             switch((exti_obj_list[EXTI_CALC_INDEX].config_info >> (EXTI_CALC_CHANNEL * 2)) & 0x03)
 879              		.loc 1 318 51
 880 00b2 744B     		ldr	r3, .L83+4
 881 00b4 5B6A     		ldr	r3, [r3, #36]
 882              		.loc 1 318 64
 883 00b6 1B0B     		lsrs	r3, r3, #12
 884              		.loc 1 318 92
 885 00b8 03F00303 		and	r3, r3, #3
 886              		.loc 1 318 13
 887 00bc 032B     		cmp	r3, #3
 888 00be 0CD0     		beq	.L57
 889 00c0 032B     		cmp	r3, #3
 890 00c2 0DD8     		bhi	.L58
 891 00c4 012B     		cmp	r3, #1
 892 00c6 02D0     		beq	.L59
 893 00c8 022B     		cmp	r3, #2
 894 00ca 03D0     		beq	.L60
 895 00cc 08E0     		b	.L58
 896              	.L59:
 319:libraries/zf_driver/zf_driver_exti.c ****             {
 320:libraries/zf_driver/zf_driver_exti.c ****                 case EXTI_TRIGGER_TYPE_RISING   :   event_temp = EXTI_INTERRUPT_STATE_RISING    ;  
 897              		.loc 1 320 64
 898 00ce 0123     		movs	r3, #1
 899 00d0 0493     		str	r3, [sp, #16]
 900              		.loc 1 320 17
 901 00d2 05E0     		b	.L58
 902              	.L60:
 321:libraries/zf_driver/zf_driver_exti.c ****                 case EXTI_TRIGGER_TYPE_FALLING  :   event_temp = EXTI_INTERRUPT_STATE_FALLING   ;  
 903              		.loc 1 321 64
 904 00d4 0223     		movs	r3, #2
 905 00d6 0493     		str	r3, [sp, #16]
 906              		.loc 1 321 17
 907 00d8 02E0     		b	.L58
 908              	.L57:
 322:libraries/zf_driver/zf_driver_exti.c ****                 case EXTI_TRIGGER_TYPE_BOTH     :   event_temp = EXTI_INTERRUPT_STATE_BOTH      ;  
 909              		.loc 1 322 64
 910 00da 0323     		movs	r3, #3
 911 00dc 0493     		str	r3, [sp, #16]
 912              		.loc 1 322 17
 913 00de 00BF     		nop
 914              	.L58:
 323:libraries/zf_driver/zf_driver_exti.c ****             }
 324:libraries/zf_driver/zf_driver_exti.c ****             exti_callback[EXTI_CALC_INDEX][EXTI_CALC_CHANNEL].callback(event_temp, exti_callback[EX
 915              		.loc 1 324 62
 916 00e0 694B     		ldr	r3, .L83+8
 917 00e2 1B6B     		ldr	r3, [r3, #48]
 918              		.loc 1 324 13
 919 00e4 684A     		ldr	r2, .L83+8
 920 00e6 526B     		ldr	r2, [r2, #52]
 921 00e8 1146     		mov	r1, r2
 922 00ea 0498     		ldr	r0, [sp, #16]
 923 00ec 9847     		blx	r3
 924              	.LVL6:
 925              	.LBE72:
 926 00ee 02E0     		b	.L61
 927              	.L56:
 325:libraries/zf_driver/zf_driver_exti.c ****         }
 326:libraries/zf_driver/zf_driver_exti.c ****         else
 327:libraries/zf_driver/zf_driver_exti.c ****         {
 328:libraries/zf_driver/zf_driver_exti.c ****             IRQ_PROLOGUE();
 329:libraries/zf_driver/zf_driver_exti.c ****             __exti_serve_interrupt(EXTI_IRQ_LINE9_5);
 928              		.loc 1 329 13
 929 00f0 0520     		movs	r0, #5
 930 00f2 FFF7FEFF 		bl	__exti_serve_interrupt
 931              	.L61:
 932              	.LBB73:
 933              	.LBB74:
 271:C:/StellarStudio-7.0/SDKS/StellarESDK-1.7.0/Modules/Platform/CMSIS/Core/Include\cmsis_gcc.h **** }
 934              		.loc 2 271 3
 935              		.syntax unified
 936              	@ 271 "C:/StellarStudio-7.0/SDKS/StellarESDK-1.7.0/Modules/Platform/CMSIS/Core/Include/cmsis_gcc.h"
 937 00f6 BFF34F8F 		dsb 0xF
 938              	@ 0 "" 2
 939              		.loc 2 272 1
 940              		.thumb
 941              		.syntax unified
 942 00fa 00BF     		nop
 943              	.L55:
 944              	.LBE74:
 945              	.LBE73:
 330:libraries/zf_driver/zf_driver_exti.c ****             IRQ_EPILOGUE();
 331:libraries/zf_driver/zf_driver_exti.c ****         }
 332:libraries/zf_driver/zf_driver_exti.c ****         #undef  TEMP_EXTI_INDEX
 333:libraries/zf_driver/zf_driver_exti.c ****         ZF_DSB();
 334:libraries/zf_driver/zf_driver_exti.c ****     }
 335:libraries/zf_driver/zf_driver_exti.c ****     if(EXTI->C1PR1 & (0x00000001 << 7))
 946              		.loc 1 335 12
 947 00fc 604B     		ldr	r3, .L83
 948 00fe D3F88830 		ldr	r3, [r3, #136]
 949              		.loc 1 335 20
 950 0102 03F08003 		and	r3, r3, #128
 951              		.loc 1 335 7
 952 0106 002B     		cmp	r3, #0
 953 0108 36D0     		beq	.L62
 336:libraries/zf_driver/zf_driver_exti.c ****     {
 337:libraries/zf_driver/zf_driver_exti.c ****         #define TEMP_EXTI_INDEX     ( EXTI1_CH7_A7 )
 338:libraries/zf_driver/zf_driver_exti.c ****         exti_obj_list[EXTI_CALC_INDEX].exti_ptr->C1PR1 |= (0x00000001 << EXTI_CALC_CHANNEL);
 954              		.loc 1 338 39
 955 010a 5E4B     		ldr	r3, .L83+4
 956 010c 1B68     		ldr	r3, [r3]
 957              		.loc 1 338 56
 958 010e D3F88820 		ldr	r2, [r3, #136]
 959              		.loc 1 338 39
 960 0112 5C4B     		ldr	r3, .L83+4
 961 0114 1B68     		ldr	r3, [r3]
 962              		.loc 1 338 56
 963 0116 42F08002 		orr	r2, r2, #128
 964 011a C3F88820 		str	r2, [r3, #136]
 339:libraries/zf_driver/zf_driver_exti.c ****         if(PIN_NULL != exti_obj_list[EXTI_CALC_INDEX].pin_list[EXTI_CALC_CHANNEL])
 965              		.loc 1 339 63
 966 011e 594B     		ldr	r3, .L83+4
 967 0120 5B8A     		ldrh	r3, [r3, #18]
 968              		.loc 1 339 11
 969 0122 40F6FF72 		movw	r2, #4095
 970 0126 9342     		cmp	r3, r2
 971 0128 20D0     		beq	.L63
 972              	.LBB75:
 340:libraries/zf_driver/zf_driver_exti.c ****         {
 341:libraries/zf_driver/zf_driver_exti.c ****             uint32 event_temp = EXTI_INTERRUPT_STATE_NONE;
 973              		.loc 1 341 20
 974 012a 0023     		movs	r3, #0
 975 012c 0393     		str	r3, [sp, #12]
 342:libraries/zf_driver/zf_driver_exti.c ****             switch((exti_obj_list[EXTI_CALC_INDEX].config_info >> (EXTI_CALC_CHANNEL * 2)) & 0x03)
 976              		.loc 1 342 51
 977 012e 554B     		ldr	r3, .L83+4
 978 0130 5B6A     		ldr	r3, [r3, #36]
 979              		.loc 1 342 64
 980 0132 9B0B     		lsrs	r3, r3, #14
 981              		.loc 1 342 92
 982 0134 03F00303 		and	r3, r3, #3
 983              		.loc 1 342 13
 984 0138 032B     		cmp	r3, #3
 985 013a 0CD0     		beq	.L64
 986 013c 032B     		cmp	r3, #3
 987 013e 0DD8     		bhi	.L65
 988 0140 012B     		cmp	r3, #1
 989 0142 02D0     		beq	.L66
 990 0144 022B     		cmp	r3, #2
 991 0146 03D0     		beq	.L67
 992 0148 08E0     		b	.L65
 993              	.L66:
 343:libraries/zf_driver/zf_driver_exti.c ****             {
 344:libraries/zf_driver/zf_driver_exti.c ****                 case EXTI_TRIGGER_TYPE_RISING   :   event_temp = EXTI_INTERRUPT_STATE_RISING    ;  
 994              		.loc 1 344 64
 995 014a 0123     		movs	r3, #1
 996 014c 0393     		str	r3, [sp, #12]
 997              		.loc 1 344 17
 998 014e 05E0     		b	.L65
 999              	.L67:
 345:libraries/zf_driver/zf_driver_exti.c ****                 case EXTI_TRIGGER_TYPE_FALLING  :   event_temp = EXTI_INTERRUPT_STATE_FALLING   ;  
 1000              		.loc 1 345 64
 1001 0150 0223     		movs	r3, #2
 1002 0152 0393     		str	r3, [sp, #12]
 1003              		.loc 1 345 17
 1004 0154 02E0     		b	.L65
 1005              	.L64:
 346:libraries/zf_driver/zf_driver_exti.c ****                 case EXTI_TRIGGER_TYPE_BOTH     :   event_temp = EXTI_INTERRUPT_STATE_BOTH      ;  
 1006              		.loc 1 346 64
 1007 0156 0323     		movs	r3, #3
 1008 0158 0393     		str	r3, [sp, #12]
 1009              		.loc 1 346 17
 1010 015a 00BF     		nop
 1011              	.L65:
 347:libraries/zf_driver/zf_driver_exti.c ****             }
 348:libraries/zf_driver/zf_driver_exti.c ****             exti_callback[EXTI_CALC_INDEX][EXTI_CALC_CHANNEL].callback(event_temp, exti_callback[EX
 1012              		.loc 1 348 62
 1013 015c 4A4B     		ldr	r3, .L83+8
 1014 015e 9B6B     		ldr	r3, [r3, #56]
 1015              		.loc 1 348 13
 1016 0160 494A     		ldr	r2, .L83+8
 1017 0162 D26B     		ldr	r2, [r2, #60]
 1018 0164 1146     		mov	r1, r2
 1019 0166 0398     		ldr	r0, [sp, #12]
 1020 0168 9847     		blx	r3
 1021              	.LVL7:
 1022              	.LBE75:
 1023 016a 02E0     		b	.L68
 1024              	.L63:
 349:libraries/zf_driver/zf_driver_exti.c ****         }
 350:libraries/zf_driver/zf_driver_exti.c ****         else
 351:libraries/zf_driver/zf_driver_exti.c ****         {
 352:libraries/zf_driver/zf_driver_exti.c ****             IRQ_PROLOGUE();
 353:libraries/zf_driver/zf_driver_exti.c ****             __exti_serve_interrupt(EXTI_IRQ_LINE9_5);
 1025              		.loc 1 353 13
 1026 016c 0520     		movs	r0, #5
 1027 016e FFF7FEFF 		bl	__exti_serve_interrupt
 1028              	.L68:
 1029              	.LBB76:
 1030              	.LBB77:
 271:C:/StellarStudio-7.0/SDKS/StellarESDK-1.7.0/Modules/Platform/CMSIS/Core/Include\cmsis_gcc.h **** }
 1031              		.loc 2 271 3
 1032              		.syntax unified
 1033              	@ 271 "C:/StellarStudio-7.0/SDKS/StellarESDK-1.7.0/Modules/Platform/CMSIS/Core/Include/cmsis_gcc.h"
 1034 0172 BFF34F8F 		dsb 0xF
 1035              	@ 0 "" 2
 1036              		.loc 2 272 1
 1037              		.thumb
 1038              		.syntax unified
 1039 0176 00BF     		nop
 1040              	.L62:
 1041              	.LBE77:
 1042              	.LBE76:
 354:libraries/zf_driver/zf_driver_exti.c ****             IRQ_EPILOGUE();
 355:libraries/zf_driver/zf_driver_exti.c ****         }
 356:libraries/zf_driver/zf_driver_exti.c ****         #undef  TEMP_EXTI_INDEX
 357:libraries/zf_driver/zf_driver_exti.c ****         ZF_DSB();
 358:libraries/zf_driver/zf_driver_exti.c ****     }
 359:libraries/zf_driver/zf_driver_exti.c ****     if(EXTI->C1PR1 & (0x00000001 << 8))
 1043              		.loc 1 359 12
 1044 0178 414B     		ldr	r3, .L83
 1045 017a D3F88830 		ldr	r3, [r3, #136]
 1046              		.loc 1 359 20
 1047 017e 03F48073 		and	r3, r3, #256
 1048              		.loc 1 359 7
 1049 0182 002B     		cmp	r3, #0
 1050 0184 36D0     		beq	.L69
 360:libraries/zf_driver/zf_driver_exti.c ****     {
 361:libraries/zf_driver/zf_driver_exti.c ****         #define TEMP_EXTI_INDEX     ( EXTI1_CH8_A8 )
 362:libraries/zf_driver/zf_driver_exti.c ****         exti_obj_list[EXTI_CALC_INDEX].exti_ptr->C1PR1 |= (0x00000001 << EXTI_CALC_CHANNEL);
 1051              		.loc 1 362 39
 1052 0186 3F4B     		ldr	r3, .L83+4
 1053 0188 1B68     		ldr	r3, [r3]
 1054              		.loc 1 362 56
 1055 018a D3F88820 		ldr	r2, [r3, #136]
 1056              		.loc 1 362 39
 1057 018e 3D4B     		ldr	r3, .L83+4
 1058 0190 1B68     		ldr	r3, [r3]
 1059              		.loc 1 362 56
 1060 0192 42F48072 		orr	r2, r2, #256
 1061 0196 C3F88820 		str	r2, [r3, #136]
 363:libraries/zf_driver/zf_driver_exti.c ****         if(PIN_NULL != exti_obj_list[EXTI_CALC_INDEX].pin_list[EXTI_CALC_CHANNEL])
 1062              		.loc 1 363 63
 1063 019a 3A4B     		ldr	r3, .L83+4
 1064 019c 9B8A     		ldrh	r3, [r3, #20]
 1065              		.loc 1 363 11
 1066 019e 40F6FF72 		movw	r2, #4095
 1067 01a2 9342     		cmp	r3, r2
 1068 01a4 20D0     		beq	.L70
 1069              	.LBB78:
 364:libraries/zf_driver/zf_driver_exti.c ****         {
 365:libraries/zf_driver/zf_driver_exti.c ****             uint32 event_temp = EXTI_INTERRUPT_STATE_NONE;
 1070              		.loc 1 365 20
 1071 01a6 0023     		movs	r3, #0
 1072 01a8 0293     		str	r3, [sp, #8]
 366:libraries/zf_driver/zf_driver_exti.c ****             switch((exti_obj_list[EXTI_CALC_INDEX].config_info >> (EXTI_CALC_CHANNEL * 2)) & 0x03)
 1073              		.loc 1 366 51
 1074 01aa 364B     		ldr	r3, .L83+4
 1075 01ac 5B6A     		ldr	r3, [r3, #36]
 1076              		.loc 1 366 64
 1077 01ae 1B0C     		lsrs	r3, r3, #16
 1078              		.loc 1 366 92
 1079 01b0 03F00303 		and	r3, r3, #3
 1080              		.loc 1 366 13
 1081 01b4 032B     		cmp	r3, #3
 1082 01b6 0CD0     		beq	.L71
 1083 01b8 032B     		cmp	r3, #3
 1084 01ba 0DD8     		bhi	.L72
 1085 01bc 012B     		cmp	r3, #1
 1086 01be 02D0     		beq	.L73
 1087 01c0 022B     		cmp	r3, #2
 1088 01c2 03D0     		beq	.L74
 1089 01c4 08E0     		b	.L72
 1090              	.L73:
 367:libraries/zf_driver/zf_driver_exti.c ****             {
 368:libraries/zf_driver/zf_driver_exti.c ****                 case EXTI_TRIGGER_TYPE_RISING   :   event_temp = EXTI_INTERRUPT_STATE_RISING    ;  
 1091              		.loc 1 368 64
 1092 01c6 0123     		movs	r3, #1
 1093 01c8 0293     		str	r3, [sp, #8]
 1094              		.loc 1 368 17
 1095 01ca 05E0     		b	.L72
 1096              	.L74:
 369:libraries/zf_driver/zf_driver_exti.c ****                 case EXTI_TRIGGER_TYPE_FALLING  :   event_temp = EXTI_INTERRUPT_STATE_FALLING   ;  
 1097              		.loc 1 369 64
 1098 01cc 0223     		movs	r3, #2
 1099 01ce 0293     		str	r3, [sp, #8]
 1100              		.loc 1 369 17
 1101 01d0 02E0     		b	.L72
 1102              	.L71:
 370:libraries/zf_driver/zf_driver_exti.c ****                 case EXTI_TRIGGER_TYPE_BOTH     :   event_temp = EXTI_INTERRUPT_STATE_BOTH      ;  
 1103              		.loc 1 370 64
 1104 01d2 0323     		movs	r3, #3
 1105 01d4 0293     		str	r3, [sp, #8]
 1106              		.loc 1 370 17
 1107 01d6 00BF     		nop
 1108              	.L72:
 371:libraries/zf_driver/zf_driver_exti.c ****             }
 372:libraries/zf_driver/zf_driver_exti.c ****             exti_callback[EXTI_CALC_INDEX][EXTI_CALC_CHANNEL].callback(event_temp, exti_callback[EX
 1109              		.loc 1 372 62
 1110 01d8 2B4B     		ldr	r3, .L83+8
 1111 01da 1B6C     		ldr	r3, [r3, #64]
 1112              		.loc 1 372 13
 1113 01dc 2A4A     		ldr	r2, .L83+8
 1114 01de 526C     		ldr	r2, [r2, #68]
 1115 01e0 1146     		mov	r1, r2
 1116 01e2 0298     		ldr	r0, [sp, #8]
 1117 01e4 9847     		blx	r3
 1118              	.LVL8:
 1119              	.LBE78:
 1120 01e6 02E0     		b	.L75
 1121              	.L70:
 373:libraries/zf_driver/zf_driver_exti.c ****         }
 374:libraries/zf_driver/zf_driver_exti.c ****         else
 375:libraries/zf_driver/zf_driver_exti.c ****         {
 376:libraries/zf_driver/zf_driver_exti.c ****             IRQ_PROLOGUE();
 377:libraries/zf_driver/zf_driver_exti.c ****             __exti_serve_interrupt(EXTI_IRQ_LINE9_5);
 1122              		.loc 1 377 13
 1123 01e8 0520     		movs	r0, #5
 1124 01ea FFF7FEFF 		bl	__exti_serve_interrupt
 1125              	.L75:
 1126              	.LBB79:
 1127              	.LBB80:
 271:C:/StellarStudio-7.0/SDKS/StellarESDK-1.7.0/Modules/Platform/CMSIS/Core/Include\cmsis_gcc.h **** }
 1128              		.loc 2 271 3
 1129              		.syntax unified
 1130              	@ 271 "C:/StellarStudio-7.0/SDKS/StellarESDK-1.7.0/Modules/Platform/CMSIS/Core/Include/cmsis_gcc.h"
 1131 01ee BFF34F8F 		dsb 0xF
 1132              	@ 0 "" 2
 1133              		.loc 2 272 1
 1134              		.thumb
 1135              		.syntax unified
 1136 01f2 00BF     		nop
 1137              	.L69:
 1138              	.LBE80:
 1139              	.LBE79:
 378:libraries/zf_driver/zf_driver_exti.c ****             IRQ_EPILOGUE();
 379:libraries/zf_driver/zf_driver_exti.c ****         }
 380:libraries/zf_driver/zf_driver_exti.c ****         #undef  TEMP_EXTI_INDEX
 381:libraries/zf_driver/zf_driver_exti.c ****         ZF_DSB();
 382:libraries/zf_driver/zf_driver_exti.c ****     }
 383:libraries/zf_driver/zf_driver_exti.c ****     if(EXTI->C1PR1 & (0x00000001 << 9))
 1140              		.loc 1 383 12
 1141 01f4 224B     		ldr	r3, .L83
 1142 01f6 D3F88830 		ldr	r3, [r3, #136]
 1143              		.loc 1 383 20
 1144 01fa 03F40073 		and	r3, r3, #512
 1145              		.loc 1 383 7
 1146 01fe 002B     		cmp	r3, #0
 1147 0200 36D0     		beq	.L76
 384:libraries/zf_driver/zf_driver_exti.c ****     {
 385:libraries/zf_driver/zf_driver_exti.c ****         #define TEMP_EXTI_INDEX     ( EXTI1_CH9_A9 )
 386:libraries/zf_driver/zf_driver_exti.c ****         exti_obj_list[EXTI_CALC_INDEX].exti_ptr->C1PR1 |= (0x00000001 << EXTI_CALC_CHANNEL);
 1148              		.loc 1 386 39
 1149 0202 204B     		ldr	r3, .L83+4
 1150 0204 1B68     		ldr	r3, [r3]
 1151              		.loc 1 386 56
 1152 0206 D3F88820 		ldr	r2, [r3, #136]
 1153              		.loc 1 386 39
 1154 020a 1E4B     		ldr	r3, .L83+4
 1155 020c 1B68     		ldr	r3, [r3]
 1156              		.loc 1 386 56
 1157 020e 42F40072 		orr	r2, r2, #512
 1158 0212 C3F88820 		str	r2, [r3, #136]
 387:libraries/zf_driver/zf_driver_exti.c ****         if(PIN_NULL != exti_obj_list[EXTI_CALC_INDEX].pin_list[EXTI_CALC_CHANNEL])
 1159              		.loc 1 387 63
 1160 0216 1B4B     		ldr	r3, .L83+4
 1161 0218 DB8A     		ldrh	r3, [r3, #22]
 1162              		.loc 1 387 11
 1163 021a 40F6FF72 		movw	r2, #4095
 1164 021e 9342     		cmp	r3, r2
 1165 0220 20D0     		beq	.L77
 1166              	.LBB81:
 388:libraries/zf_driver/zf_driver_exti.c ****         {
 389:libraries/zf_driver/zf_driver_exti.c ****             uint32 event_temp = EXTI_INTERRUPT_STATE_NONE;
 1167              		.loc 1 389 20
 1168 0222 0023     		movs	r3, #0
 1169 0224 0193     		str	r3, [sp, #4]
 390:libraries/zf_driver/zf_driver_exti.c ****             switch((exti_obj_list[EXTI_CALC_INDEX].config_info >> (EXTI_CALC_CHANNEL * 2)) & 0x03)
 1170              		.loc 1 390 51
 1171 0226 174B     		ldr	r3, .L83+4
 1172 0228 5B6A     		ldr	r3, [r3, #36]
 1173              		.loc 1 390 64
 1174 022a 9B0C     		lsrs	r3, r3, #18
 1175              		.loc 1 390 92
 1176 022c 03F00303 		and	r3, r3, #3
 1177              		.loc 1 390 13
 1178 0230 032B     		cmp	r3, #3
 1179 0232 0CD0     		beq	.L78
 1180 0234 032B     		cmp	r3, #3
 1181 0236 0DD8     		bhi	.L79
 1182 0238 012B     		cmp	r3, #1
 1183 023a 02D0     		beq	.L80
 1184 023c 022B     		cmp	r3, #2
 1185 023e 03D0     		beq	.L81
 1186 0240 08E0     		b	.L79
 1187              	.L80:
 391:libraries/zf_driver/zf_driver_exti.c ****             {
 392:libraries/zf_driver/zf_driver_exti.c ****                 case EXTI_TRIGGER_TYPE_RISING   :   event_temp = EXTI_INTERRUPT_STATE_RISING    ;  
 1188              		.loc 1 392 64
 1189 0242 0123     		movs	r3, #1
 1190 0244 0193     		str	r3, [sp, #4]
 1191              		.loc 1 392 17
 1192 0246 05E0     		b	.L79
 1193              	.L81:
 393:libraries/zf_driver/zf_driver_exti.c ****                 case EXTI_TRIGGER_TYPE_FALLING  :   event_temp = EXTI_INTERRUPT_STATE_FALLING   ;  
 1194              		.loc 1 393 64
 1195 0248 0223     		movs	r3, #2
 1196 024a 0193     		str	r3, [sp, #4]
 1197              		.loc 1 393 17
 1198 024c 02E0     		b	.L79
 1199              	.L78:
 394:libraries/zf_driver/zf_driver_exti.c ****                 case EXTI_TRIGGER_TYPE_BOTH     :   event_temp = EXTI_INTERRUPT_STATE_BOTH      ;  
 1200              		.loc 1 394 64
 1201 024e 0323     		movs	r3, #3
 1202 0250 0193     		str	r3, [sp, #4]
 1203              		.loc 1 394 17
 1204 0252 00BF     		nop
 1205              	.L79:
 395:libraries/zf_driver/zf_driver_exti.c ****             }
 396:libraries/zf_driver/zf_driver_exti.c ****             exti_callback[EXTI_CALC_INDEX][EXTI_CALC_CHANNEL].callback(event_temp, exti_callback[EX
 1206              		.loc 1 396 62
 1207 0254 0C4B     		ldr	r3, .L83+8
 1208 0256 9B6C     		ldr	r3, [r3, #72]
 1209              		.loc 1 396 13
 1210 0258 0B4A     		ldr	r2, .L83+8
 1211 025a D26C     		ldr	r2, [r2, #76]
 1212 025c 1146     		mov	r1, r2
 1213 025e 0198     		ldr	r0, [sp, #4]
 1214 0260 9847     		blx	r3
 1215              	.LVL9:
 1216              	.LBE81:
 1217 0262 02E0     		b	.L82
 1218              	.L77:
 397:libraries/zf_driver/zf_driver_exti.c ****         }
 398:libraries/zf_driver/zf_driver_exti.c ****         else
 399:libraries/zf_driver/zf_driver_exti.c ****         {
 400:libraries/zf_driver/zf_driver_exti.c ****             IRQ_PROLOGUE();
 401:libraries/zf_driver/zf_driver_exti.c ****             __exti_serve_interrupt(EXTI_IRQ_LINE9_5);
 1219              		.loc 1 401 13
 1220 0264 0520     		movs	r0, #5
 1221 0266 FFF7FEFF 		bl	__exti_serve_interrupt
 1222              	.L82:
 1223              	.LBB82:
 1224              	.LBB83:
 271:C:/StellarStudio-7.0/SDKS/StellarESDK-1.7.0/Modules/Platform/CMSIS/Core/Include\cmsis_gcc.h **** }
 1225              		.loc 2 271 3
 1226              		.syntax unified
 1227              	@ 271 "C:/StellarStudio-7.0/SDKS/StellarESDK-1.7.0/Modules/Platform/CMSIS/Core/Include/cmsis_gcc.h"
 1228 026a BFF34F8F 		dsb 0xF
 1229              	@ 0 "" 2
 1230              		.loc 2 272 1
 1231              		.thumb
 1232              		.syntax unified
 1233 026e 00BF     		nop
 1234              	.L76:
 1235              	.LBE83:
 1236              	.LBE82:
 1237              	.LBB84:
 1238              	.LBB85:
 271:C:/StellarStudio-7.0/SDKS/StellarESDK-1.7.0/Modules/Platform/CMSIS/Core/Include\cmsis_gcc.h **** }
 1239              		.loc 2 271 3
 1240              		.syntax unified
 1241              	@ 271 "C:/StellarStudio-7.0/SDKS/StellarESDK-1.7.0/Modules/Platform/CMSIS/Core/Include/cmsis_gcc.h"
 1242 0270 BFF34F8F 		dsb 0xF
 1243              	@ 0 "" 2
 1244              		.loc 2 272 1
 1245              		.thumb
 1246              		.syntax unified
 1247 0274 00BF     		nop
 1248              	.LBE85:
 1249              	.LBE84:
 402:libraries/zf_driver/zf_driver_exti.c ****             IRQ_EPILOGUE();
 403:libraries/zf_driver/zf_driver_exti.c ****         }
 404:libraries/zf_driver/zf_driver_exti.c ****         #undef  TEMP_EXTI_INDEX
 405:libraries/zf_driver/zf_driver_exti.c ****         ZF_DSB();
 406:libraries/zf_driver/zf_driver_exti.c ****     }
 407:libraries/zf_driver/zf_driver_exti.c ****     ZF_DSB();
 408:libraries/zf_driver/zf_driver_exti.c **** }
 1250              		.loc 1 408 1
 1251 0276 00BF     		nop
 1252 0278 07B0     		add	sp, sp, #28
 1253              		.cfi_def_cfa_offset 4
 1254              		@ sp needed
 1255 027a 5DF804FB 		ldr	pc, [sp], #4
 1256              	.L84:
 1257 027e 00BF     		.align	2
 1258              	.L83:
 1259 0280 00040042 		.word	1107297280
 1260 0284 00000000 		.word	exti_obj_list
 1261 0288 00000000 		.word	exti_callback
 1262              		.cfi_endproc
 1263              	.LFE186:
 1265              		.section	.text.VectorE4,"ax",%progbits
 1266              		.align	1
 1267              		.p2align 4,,15
 1268              		.global	VectorE4
 1269              		.syntax unified
 1270              		.thumb
 1271              		.thumb_func
 1273              	VectorE4:
 1274              	.LFB187:
 409:libraries/zf_driver/zf_driver_exti.c **** 
 410:libraries/zf_driver/zf_driver_exti.c **** //-------------------------------------------------------------------------------------------------
 411:libraries/zf_driver/zf_driver_exti.c **** // ÂáΩÊï∞ÁÆÄ‰ªã     EXTI10-15 Á∫ø ÁöÑ‰∏≤Âè£‰∏≠Êñ≠ÊúçÂä°ÂáΩÊï∞
 412:libraries/zf_driver/zf_driver_exti.c **** // ÂèÇÊï∞ËØ¥Êòé     void
 413:libraries/zf_driver/zf_driver_exti.c **** // ËøîÂõûÂèÇÊï∞     void
 414:libraries/zf_driver/zf_driver_exti.c **** // ‰ΩøÁî®Á§∫‰æã     
 415:libraries/zf_driver/zf_driver_exti.c **** // Â§áÊ≥®‰ø°ÊÅØ     ÂêØÂä® .s Êñá‰ª∂ÂÆö‰πâ ‰∏çÂÖÅËÆ∏‰øÆÊîπÂáΩÊï∞ÂêçÁß∞
 416:libraries/zf_driver/zf_driver_exti.c **** //              zf_exti_set_interrupt_priority(pin, priority);
 417:libraries/zf_driver/zf_driver_exti.c **** //-------------------------------------------------------------------------------------------------
 418:libraries/zf_driver/zf_driver_exti.c **** void IRQ_EXTI15_10_HANDLER (void)
 419:libraries/zf_driver/zf_driver_exti.c **** {
 1275              		.loc 1 419 1
 1276              		.cfi_startproc
 1277              		@ args = 0, pretend = 0, frame = 24
 1278              		@ frame_needed = 0, uses_anonymous_args = 0
 1279 0000 00B5     		push	{lr}
 1280              		.cfi_def_cfa_offset 4
 1281              		.cfi_offset 14, -4
 1282 0002 87B0     		sub	sp, sp, #28
 1283              		.cfi_def_cfa_offset 32
 420:libraries/zf_driver/zf_driver_exti.c ****     if(EXTI->C1PR1 & (0x00000001 << 10))
 1284              		.loc 1 420 12
 1285 0004 974B     		ldr	r3, .L128
 1286 0006 D3F88830 		ldr	r3, [r3, #136]
 1287              		.loc 1 420 20
 1288 000a 03F48063 		and	r3, r3, #1024
 1289              		.loc 1 420 7
 1290 000e 002B     		cmp	r3, #0
 1291 0010 36D0     		beq	.L86
 421:libraries/zf_driver/zf_driver_exti.c ****     {
 422:libraries/zf_driver/zf_driver_exti.c ****         #define TEMP_EXTI_INDEX     ( EXTI1_CH10_A10 )
 423:libraries/zf_driver/zf_driver_exti.c ****         exti_obj_list[EXTI_CALC_INDEX].exti_ptr->C1PR1 |= (0x00000001 << EXTI_CALC_CHANNEL);
 1292              		.loc 1 423 39
 1293 0012 954B     		ldr	r3, .L128+4
 1294 0014 1B68     		ldr	r3, [r3]
 1295              		.loc 1 423 56
 1296 0016 D3F88820 		ldr	r2, [r3, #136]
 1297              		.loc 1 423 39
 1298 001a 934B     		ldr	r3, .L128+4
 1299 001c 1B68     		ldr	r3, [r3]
 1300              		.loc 1 423 56
 1301 001e 42F48062 		orr	r2, r2, #1024
 1302 0022 C3F88820 		str	r2, [r3, #136]
 424:libraries/zf_driver/zf_driver_exti.c ****         if(PIN_NULL != exti_obj_list[EXTI_CALC_INDEX].pin_list[EXTI_CALC_CHANNEL])
 1303              		.loc 1 424 63
 1304 0026 904B     		ldr	r3, .L128+4
 1305 0028 1B8B     		ldrh	r3, [r3, #24]
 1306              		.loc 1 424 11
 1307 002a 40F6FF72 		movw	r2, #4095
 1308 002e 9342     		cmp	r3, r2
 1309 0030 20D0     		beq	.L87
 1310              	.LBB86:
 425:libraries/zf_driver/zf_driver_exti.c ****         {
 426:libraries/zf_driver/zf_driver_exti.c ****             uint32 event_temp = EXTI_INTERRUPT_STATE_NONE;
 1311              		.loc 1 426 20
 1312 0032 0023     		movs	r3, #0
 1313 0034 0593     		str	r3, [sp, #20]
 427:libraries/zf_driver/zf_driver_exti.c ****             switch((exti_obj_list[EXTI_CALC_INDEX].config_info >> (EXTI_CALC_CHANNEL * 2)) & 0x03)
 1314              		.loc 1 427 51
 1315 0036 8C4B     		ldr	r3, .L128+4
 1316 0038 5B6A     		ldr	r3, [r3, #36]
 1317              		.loc 1 427 64
 1318 003a 1B0D     		lsrs	r3, r3, #20
 1319              		.loc 1 427 92
 1320 003c 03F00303 		and	r3, r3, #3
 1321              		.loc 1 427 13
 1322 0040 032B     		cmp	r3, #3
 1323 0042 0CD0     		beq	.L88
 1324 0044 032B     		cmp	r3, #3
 1325 0046 0DD8     		bhi	.L89
 1326 0048 012B     		cmp	r3, #1
 1327 004a 02D0     		beq	.L90
 1328 004c 022B     		cmp	r3, #2
 1329 004e 03D0     		beq	.L91
 1330 0050 08E0     		b	.L89
 1331              	.L90:
 428:libraries/zf_driver/zf_driver_exti.c ****             {
 429:libraries/zf_driver/zf_driver_exti.c ****                 case EXTI_TRIGGER_TYPE_RISING   :   event_temp = EXTI_INTERRUPT_STATE_RISING    ;  
 1332              		.loc 1 429 64
 1333 0052 0123     		movs	r3, #1
 1334 0054 0593     		str	r3, [sp, #20]
 1335              		.loc 1 429 17
 1336 0056 05E0     		b	.L89
 1337              	.L91:
 430:libraries/zf_driver/zf_driver_exti.c ****                 case EXTI_TRIGGER_TYPE_FALLING  :   event_temp = EXTI_INTERRUPT_STATE_FALLING   ;  
 1338              		.loc 1 430 64
 1339 0058 0223     		movs	r3, #2
 1340 005a 0593     		str	r3, [sp, #20]
 1341              		.loc 1 430 17
 1342 005c 02E0     		b	.L89
 1343              	.L88:
 431:libraries/zf_driver/zf_driver_exti.c ****                 case EXTI_TRIGGER_TYPE_BOTH     :   event_temp = EXTI_INTERRUPT_STATE_BOTH      ;  
 1344              		.loc 1 431 64
 1345 005e 0323     		movs	r3, #3
 1346 0060 0593     		str	r3, [sp, #20]
 1347              		.loc 1 431 17
 1348 0062 00BF     		nop
 1349              	.L89:
 432:libraries/zf_driver/zf_driver_exti.c ****             }
 433:libraries/zf_driver/zf_driver_exti.c ****             exti_callback[EXTI_CALC_INDEX][EXTI_CALC_CHANNEL].callback(event_temp, exti_callback[EX
 1350              		.loc 1 433 62
 1351 0064 814B     		ldr	r3, .L128+8
 1352 0066 1B6D     		ldr	r3, [r3, #80]
 1353              		.loc 1 433 13
 1354 0068 804A     		ldr	r2, .L128+8
 1355 006a 526D     		ldr	r2, [r2, #84]
 1356 006c 1146     		mov	r1, r2
 1357 006e 0598     		ldr	r0, [sp, #20]
 1358 0070 9847     		blx	r3
 1359              	.LVL10:
 1360              	.LBE86:
 1361 0072 02E0     		b	.L92
 1362              	.L87:
 434:libraries/zf_driver/zf_driver_exti.c ****         }
 435:libraries/zf_driver/zf_driver_exti.c ****         else
 436:libraries/zf_driver/zf_driver_exti.c ****         {
 437:libraries/zf_driver/zf_driver_exti.c ****             IRQ_PROLOGUE();
 438:libraries/zf_driver/zf_driver_exti.c ****             __exti_serve_interrupt(EXTI_IRQ_LINE15_10);
 1363              		.loc 1 438 13
 1364 0074 0620     		movs	r0, #6
 1365 0076 FFF7FEFF 		bl	__exti_serve_interrupt
 1366              	.L92:
 1367              	.LBB87:
 1368              	.LBB88:
 271:C:/StellarStudio-7.0/SDKS/StellarESDK-1.7.0/Modules/Platform/CMSIS/Core/Include\cmsis_gcc.h **** }
 1369              		.loc 2 271 3
 1370              		.syntax unified
 1371              	@ 271 "C:/StellarStudio-7.0/SDKS/StellarESDK-1.7.0/Modules/Platform/CMSIS/Core/Include/cmsis_gcc.h"
 1372 007a BFF34F8F 		dsb 0xF
 1373              	@ 0 "" 2
 1374              		.loc 2 272 1
 1375              		.thumb
 1376              		.syntax unified
 1377 007e 00BF     		nop
 1378              	.L86:
 1379              	.LBE88:
 1380              	.LBE87:
 439:libraries/zf_driver/zf_driver_exti.c ****             IRQ_EPILOGUE();
 440:libraries/zf_driver/zf_driver_exti.c ****         }
 441:libraries/zf_driver/zf_driver_exti.c ****         #undef  TEMP_EXTI_INDEX
 442:libraries/zf_driver/zf_driver_exti.c ****         ZF_DSB();
 443:libraries/zf_driver/zf_driver_exti.c ****     }
 444:libraries/zf_driver/zf_driver_exti.c ****     if(EXTI->C1PR1 & (0x00000001 << 11))
 1381              		.loc 1 444 12
 1382 0080 784B     		ldr	r3, .L128
 1383 0082 D3F88830 		ldr	r3, [r3, #136]
 1384              		.loc 1 444 20
 1385 0086 03F40063 		and	r3, r3, #2048
 1386              		.loc 1 444 7
 1387 008a 002B     		cmp	r3, #0
 1388 008c 36D0     		beq	.L93
 445:libraries/zf_driver/zf_driver_exti.c ****     {
 446:libraries/zf_driver/zf_driver_exti.c ****         #define TEMP_EXTI_INDEX     ( EXTI1_CH11_A11 )
 447:libraries/zf_driver/zf_driver_exti.c ****         exti_obj_list[EXTI_CALC_INDEX].exti_ptr->C1PR1 |= (0x00000001 << EXTI_CALC_CHANNEL);
 1389              		.loc 1 447 39
 1390 008e 764B     		ldr	r3, .L128+4
 1391 0090 1B68     		ldr	r3, [r3]
 1392              		.loc 1 447 56
 1393 0092 D3F88820 		ldr	r2, [r3, #136]
 1394              		.loc 1 447 39
 1395 0096 744B     		ldr	r3, .L128+4
 1396 0098 1B68     		ldr	r3, [r3]
 1397              		.loc 1 447 56
 1398 009a 42F40062 		orr	r2, r2, #2048
 1399 009e C3F88820 		str	r2, [r3, #136]
 448:libraries/zf_driver/zf_driver_exti.c ****         if(PIN_NULL != exti_obj_list[EXTI_CALC_INDEX].pin_list[EXTI_CALC_CHANNEL])
 1400              		.loc 1 448 63
 1401 00a2 714B     		ldr	r3, .L128+4
 1402 00a4 5B8B     		ldrh	r3, [r3, #26]
 1403              		.loc 1 448 11
 1404 00a6 40F6FF72 		movw	r2, #4095
 1405 00aa 9342     		cmp	r3, r2
 1406 00ac 20D0     		beq	.L94
 1407              	.LBB89:
 449:libraries/zf_driver/zf_driver_exti.c ****         {
 450:libraries/zf_driver/zf_driver_exti.c ****             uint32 event_temp = EXTI_INTERRUPT_STATE_NONE;
 1408              		.loc 1 450 20
 1409 00ae 0023     		movs	r3, #0
 1410 00b0 0493     		str	r3, [sp, #16]
 451:libraries/zf_driver/zf_driver_exti.c ****             switch((exti_obj_list[EXTI_CALC_INDEX].config_info >> (EXTI_CALC_CHANNEL * 2)) & 0x03)
 1411              		.loc 1 451 51
 1412 00b2 6D4B     		ldr	r3, .L128+4
 1413 00b4 5B6A     		ldr	r3, [r3, #36]
 1414              		.loc 1 451 64
 1415 00b6 9B0D     		lsrs	r3, r3, #22
 1416              		.loc 1 451 92
 1417 00b8 03F00303 		and	r3, r3, #3
 1418              		.loc 1 451 13
 1419 00bc 032B     		cmp	r3, #3
 1420 00be 0CD0     		beq	.L95
 1421 00c0 032B     		cmp	r3, #3
 1422 00c2 0DD8     		bhi	.L96
 1423 00c4 012B     		cmp	r3, #1
 1424 00c6 02D0     		beq	.L97
 1425 00c8 022B     		cmp	r3, #2
 1426 00ca 03D0     		beq	.L98
 1427 00cc 08E0     		b	.L96
 1428              	.L97:
 452:libraries/zf_driver/zf_driver_exti.c ****             {
 453:libraries/zf_driver/zf_driver_exti.c ****                 case EXTI_TRIGGER_TYPE_RISING   :   event_temp = EXTI_INTERRUPT_STATE_RISING    ;  
 1429              		.loc 1 453 64
 1430 00ce 0123     		movs	r3, #1
 1431 00d0 0493     		str	r3, [sp, #16]
 1432              		.loc 1 453 17
 1433 00d2 05E0     		b	.L96
 1434              	.L98:
 454:libraries/zf_driver/zf_driver_exti.c ****                 case EXTI_TRIGGER_TYPE_FALLING  :   event_temp = EXTI_INTERRUPT_STATE_FALLING   ;  
 1435              		.loc 1 454 64
 1436 00d4 0223     		movs	r3, #2
 1437 00d6 0493     		str	r3, [sp, #16]
 1438              		.loc 1 454 17
 1439 00d8 02E0     		b	.L96
 1440              	.L95:
 455:libraries/zf_driver/zf_driver_exti.c ****                 case EXTI_TRIGGER_TYPE_BOTH     :   event_temp = EXTI_INTERRUPT_STATE_BOTH      ;  
 1441              		.loc 1 455 64
 1442 00da 0323     		movs	r3, #3
 1443 00dc 0493     		str	r3, [sp, #16]
 1444              		.loc 1 455 17
 1445 00de 00BF     		nop
 1446              	.L96:
 456:libraries/zf_driver/zf_driver_exti.c ****             }
 457:libraries/zf_driver/zf_driver_exti.c ****             exti_callback[EXTI_CALC_INDEX][EXTI_CALC_CHANNEL].callback(event_temp, exti_callback[EX
 1447              		.loc 1 457 62
 1448 00e0 624B     		ldr	r3, .L128+8
 1449 00e2 9B6D     		ldr	r3, [r3, #88]
 1450              		.loc 1 457 13
 1451 00e4 614A     		ldr	r2, .L128+8
 1452 00e6 D26D     		ldr	r2, [r2, #92]
 1453 00e8 1146     		mov	r1, r2
 1454 00ea 0498     		ldr	r0, [sp, #16]
 1455 00ec 9847     		blx	r3
 1456              	.LVL11:
 1457              	.LBE89:
 1458 00ee 02E0     		b	.L99
 1459              	.L94:
 458:libraries/zf_driver/zf_driver_exti.c ****         }
 459:libraries/zf_driver/zf_driver_exti.c ****         else
 460:libraries/zf_driver/zf_driver_exti.c ****         {
 461:libraries/zf_driver/zf_driver_exti.c ****             IRQ_PROLOGUE();
 462:libraries/zf_driver/zf_driver_exti.c ****             __exti_serve_interrupt(EXTI_IRQ_LINE15_10);
 1460              		.loc 1 462 13
 1461 00f0 0620     		movs	r0, #6
 1462 00f2 FFF7FEFF 		bl	__exti_serve_interrupt
 1463              	.L99:
 1464              	.LBB90:
 1465              	.LBB91:
 271:C:/StellarStudio-7.0/SDKS/StellarESDK-1.7.0/Modules/Platform/CMSIS/Core/Include\cmsis_gcc.h **** }
 1466              		.loc 2 271 3
 1467              		.syntax unified
 1468              	@ 271 "C:/StellarStudio-7.0/SDKS/StellarESDK-1.7.0/Modules/Platform/CMSIS/Core/Include/cmsis_gcc.h"
 1469 00f6 BFF34F8F 		dsb 0xF
 1470              	@ 0 "" 2
 1471              		.loc 2 272 1
 1472              		.thumb
 1473              		.syntax unified
 1474 00fa 00BF     		nop
 1475              	.L93:
 1476              	.LBE91:
 1477              	.LBE90:
 463:libraries/zf_driver/zf_driver_exti.c ****             IRQ_EPILOGUE();
 464:libraries/zf_driver/zf_driver_exti.c ****         }
 465:libraries/zf_driver/zf_driver_exti.c ****         #undef  TEMP_EXTI_INDEX
 466:libraries/zf_driver/zf_driver_exti.c ****         ZF_DSB();
 467:libraries/zf_driver/zf_driver_exti.c ****     }
 468:libraries/zf_driver/zf_driver_exti.c ****     if(EXTI->C1PR1 & (0x00000001 << 12))
 1478              		.loc 1 468 12
 1479 00fc 594B     		ldr	r3, .L128
 1480 00fe D3F88830 		ldr	r3, [r3, #136]
 1481              		.loc 1 468 20
 1482 0102 03F48053 		and	r3, r3, #4096
 1483              		.loc 1 468 7
 1484 0106 002B     		cmp	r3, #0
 1485 0108 36D0     		beq	.L100
 469:libraries/zf_driver/zf_driver_exti.c ****     {
 470:libraries/zf_driver/zf_driver_exti.c ****         #define TEMP_EXTI_INDEX     ( EXTI1_CH12_A12 )
 471:libraries/zf_driver/zf_driver_exti.c ****         exti_obj_list[EXTI_CALC_INDEX].exti_ptr->C1PR1 |= (0x00000001 << EXTI_CALC_CHANNEL);
 1486              		.loc 1 471 39
 1487 010a 574B     		ldr	r3, .L128+4
 1488 010c 1B68     		ldr	r3, [r3]
 1489              		.loc 1 471 56
 1490 010e D3F88820 		ldr	r2, [r3, #136]
 1491              		.loc 1 471 39
 1492 0112 554B     		ldr	r3, .L128+4
 1493 0114 1B68     		ldr	r3, [r3]
 1494              		.loc 1 471 56
 1495 0116 42F48052 		orr	r2, r2, #4096
 1496 011a C3F88820 		str	r2, [r3, #136]
 472:libraries/zf_driver/zf_driver_exti.c ****         if(PIN_NULL != exti_obj_list[EXTI_CALC_INDEX].pin_list[EXTI_CALC_CHANNEL])
 1497              		.loc 1 472 63
 1498 011e 524B     		ldr	r3, .L128+4
 1499 0120 9B8B     		ldrh	r3, [r3, #28]
 1500              		.loc 1 472 11
 1501 0122 40F6FF72 		movw	r2, #4095
 1502 0126 9342     		cmp	r3, r2
 1503 0128 20D0     		beq	.L101
 1504              	.LBB92:
 473:libraries/zf_driver/zf_driver_exti.c ****         {
 474:libraries/zf_driver/zf_driver_exti.c ****             uint32 event_temp = EXTI_INTERRUPT_STATE_NONE;
 1505              		.loc 1 474 20
 1506 012a 0023     		movs	r3, #0
 1507 012c 0393     		str	r3, [sp, #12]
 475:libraries/zf_driver/zf_driver_exti.c ****             switch((exti_obj_list[EXTI_CALC_INDEX].config_info >> (EXTI_CALC_CHANNEL * 2)) & 0x03)
 1508              		.loc 1 475 51
 1509 012e 4E4B     		ldr	r3, .L128+4
 1510 0130 5B6A     		ldr	r3, [r3, #36]
 1511              		.loc 1 475 64
 1512 0132 1B0E     		lsrs	r3, r3, #24
 1513              		.loc 1 475 92
 1514 0134 03F00303 		and	r3, r3, #3
 1515              		.loc 1 475 13
 1516 0138 032B     		cmp	r3, #3
 1517 013a 0CD0     		beq	.L102
 1518 013c 032B     		cmp	r3, #3
 1519 013e 0DD8     		bhi	.L103
 1520 0140 012B     		cmp	r3, #1
 1521 0142 02D0     		beq	.L104
 1522 0144 022B     		cmp	r3, #2
 1523 0146 03D0     		beq	.L105
 1524 0148 08E0     		b	.L103
 1525              	.L104:
 476:libraries/zf_driver/zf_driver_exti.c ****             {
 477:libraries/zf_driver/zf_driver_exti.c ****                 case EXTI_TRIGGER_TYPE_RISING   :   event_temp = EXTI_INTERRUPT_STATE_RISING    ;  
 1526              		.loc 1 477 64
 1527 014a 0123     		movs	r3, #1
 1528 014c 0393     		str	r3, [sp, #12]
 1529              		.loc 1 477 17
 1530 014e 05E0     		b	.L103
 1531              	.L105:
 478:libraries/zf_driver/zf_driver_exti.c ****                 case EXTI_TRIGGER_TYPE_FALLING  :   event_temp = EXTI_INTERRUPT_STATE_FALLING   ;  
 1532              		.loc 1 478 64
 1533 0150 0223     		movs	r3, #2
 1534 0152 0393     		str	r3, [sp, #12]
 1535              		.loc 1 478 17
 1536 0154 02E0     		b	.L103
 1537              	.L102:
 479:libraries/zf_driver/zf_driver_exti.c ****                 case EXTI_TRIGGER_TYPE_BOTH     :   event_temp = EXTI_INTERRUPT_STATE_BOTH      ;  
 1538              		.loc 1 479 64
 1539 0156 0323     		movs	r3, #3
 1540 0158 0393     		str	r3, [sp, #12]
 1541              		.loc 1 479 17
 1542 015a 00BF     		nop
 1543              	.L103:
 480:libraries/zf_driver/zf_driver_exti.c ****             }
 481:libraries/zf_driver/zf_driver_exti.c ****             exti_callback[EXTI_CALC_INDEX][EXTI_CALC_CHANNEL].callback(event_temp, exti_callback[EX
 1544              		.loc 1 481 62
 1545 015c 434B     		ldr	r3, .L128+8
 1546 015e 1B6E     		ldr	r3, [r3, #96]
 1547              		.loc 1 481 13
 1548 0160 424A     		ldr	r2, .L128+8
 1549 0162 526E     		ldr	r2, [r2, #100]
 1550 0164 1146     		mov	r1, r2
 1551 0166 0398     		ldr	r0, [sp, #12]
 1552 0168 9847     		blx	r3
 1553              	.LVL12:
 1554              	.LBE92:
 1555 016a 02E0     		b	.L106
 1556              	.L101:
 482:libraries/zf_driver/zf_driver_exti.c ****         }
 483:libraries/zf_driver/zf_driver_exti.c ****         else
 484:libraries/zf_driver/zf_driver_exti.c ****         {
 485:libraries/zf_driver/zf_driver_exti.c ****             IRQ_PROLOGUE();
 486:libraries/zf_driver/zf_driver_exti.c ****             __exti_serve_interrupt(EXTI_IRQ_LINE15_10);
 1557              		.loc 1 486 13
 1558 016c 0620     		movs	r0, #6
 1559 016e FFF7FEFF 		bl	__exti_serve_interrupt
 1560              	.L106:
 1561              	.LBB93:
 1562              	.LBB94:
 271:C:/StellarStudio-7.0/SDKS/StellarESDK-1.7.0/Modules/Platform/CMSIS/Core/Include\cmsis_gcc.h **** }
 1563              		.loc 2 271 3
 1564              		.syntax unified
 1565              	@ 271 "C:/StellarStudio-7.0/SDKS/StellarESDK-1.7.0/Modules/Platform/CMSIS/Core/Include/cmsis_gcc.h"
 1566 0172 BFF34F8F 		dsb 0xF
 1567              	@ 0 "" 2
 1568              		.loc 2 272 1
 1569              		.thumb
 1570              		.syntax unified
 1571 0176 00BF     		nop
 1572              	.L100:
 1573              	.LBE94:
 1574              	.LBE93:
 487:libraries/zf_driver/zf_driver_exti.c ****             IRQ_EPILOGUE();
 488:libraries/zf_driver/zf_driver_exti.c ****         }
 489:libraries/zf_driver/zf_driver_exti.c ****         #undef  TEMP_EXTI_INDEX
 490:libraries/zf_driver/zf_driver_exti.c ****         ZF_DSB();
 491:libraries/zf_driver/zf_driver_exti.c ****     }
 492:libraries/zf_driver/zf_driver_exti.c ****     if(EXTI->C1PR1 & (0x00000001 << 13))
 1575              		.loc 1 492 12
 1576 0178 3A4B     		ldr	r3, .L128
 1577 017a D3F88830 		ldr	r3, [r3, #136]
 1578              		.loc 1 492 20
 1579 017e 03F40053 		and	r3, r3, #8192
 1580              		.loc 1 492 7
 1581 0182 002B     		cmp	r3, #0
 1582 0184 36D0     		beq	.L107
 493:libraries/zf_driver/zf_driver_exti.c ****     {
 494:libraries/zf_driver/zf_driver_exti.c ****         #define TEMP_EXTI_INDEX     ( EXTI1_CH13_A13 )
 495:libraries/zf_driver/zf_driver_exti.c ****         exti_obj_list[EXTI_CALC_INDEX].exti_ptr->C1PR1 |= (0x00000001 << EXTI_CALC_CHANNEL);
 1583              		.loc 1 495 39
 1584 0186 384B     		ldr	r3, .L128+4
 1585 0188 1B68     		ldr	r3, [r3]
 1586              		.loc 1 495 56
 1587 018a D3F88820 		ldr	r2, [r3, #136]
 1588              		.loc 1 495 39
 1589 018e 364B     		ldr	r3, .L128+4
 1590 0190 1B68     		ldr	r3, [r3]
 1591              		.loc 1 495 56
 1592 0192 42F40052 		orr	r2, r2, #8192
 1593 0196 C3F88820 		str	r2, [r3, #136]
 496:libraries/zf_driver/zf_driver_exti.c ****         if(PIN_NULL != exti_obj_list[EXTI_CALC_INDEX].pin_list[EXTI_CALC_CHANNEL])
 1594              		.loc 1 496 63
 1595 019a 334B     		ldr	r3, .L128+4
 1596 019c DB8B     		ldrh	r3, [r3, #30]
 1597              		.loc 1 496 11
 1598 019e 40F6FF72 		movw	r2, #4095
 1599 01a2 9342     		cmp	r3, r2
 1600 01a4 20D0     		beq	.L108
 1601              	.LBB95:
 497:libraries/zf_driver/zf_driver_exti.c ****         {
 498:libraries/zf_driver/zf_driver_exti.c ****             uint32 event_temp = EXTI_INTERRUPT_STATE_NONE;
 1602              		.loc 1 498 20
 1603 01a6 0023     		movs	r3, #0
 1604 01a8 0293     		str	r3, [sp, #8]
 499:libraries/zf_driver/zf_driver_exti.c ****             switch((exti_obj_list[EXTI_CALC_INDEX].config_info >> (EXTI_CALC_CHANNEL * 2)) & 0x03)
 1605              		.loc 1 499 51
 1606 01aa 2F4B     		ldr	r3, .L128+4
 1607 01ac 5B6A     		ldr	r3, [r3, #36]
 1608              		.loc 1 499 64
 1609 01ae 9B0E     		lsrs	r3, r3, #26
 1610              		.loc 1 499 92
 1611 01b0 03F00303 		and	r3, r3, #3
 1612              		.loc 1 499 13
 1613 01b4 032B     		cmp	r3, #3
 1614 01b6 0CD0     		beq	.L109
 1615 01b8 032B     		cmp	r3, #3
 1616 01ba 0DD8     		bhi	.L110
 1617 01bc 012B     		cmp	r3, #1
 1618 01be 02D0     		beq	.L111
 1619 01c0 022B     		cmp	r3, #2
 1620 01c2 03D0     		beq	.L112
 1621 01c4 08E0     		b	.L110
 1622              	.L111:
 500:libraries/zf_driver/zf_driver_exti.c ****             {
 501:libraries/zf_driver/zf_driver_exti.c ****                 case EXTI_TRIGGER_TYPE_RISING   :   event_temp = EXTI_INTERRUPT_STATE_RISING    ;  
 1623              		.loc 1 501 64
 1624 01c6 0123     		movs	r3, #1
 1625 01c8 0293     		str	r3, [sp, #8]
 1626              		.loc 1 501 17
 1627 01ca 05E0     		b	.L110
 1628              	.L112:
 502:libraries/zf_driver/zf_driver_exti.c ****                 case EXTI_TRIGGER_TYPE_FALLING  :   event_temp = EXTI_INTERRUPT_STATE_FALLING   ;  
 1629              		.loc 1 502 64
 1630 01cc 0223     		movs	r3, #2
 1631 01ce 0293     		str	r3, [sp, #8]
 1632              		.loc 1 502 17
 1633 01d0 02E0     		b	.L110
 1634              	.L109:
 503:libraries/zf_driver/zf_driver_exti.c ****                 case EXTI_TRIGGER_TYPE_BOTH     :   event_temp = EXTI_INTERRUPT_STATE_BOTH      ;  
 1635              		.loc 1 503 64
 1636 01d2 0323     		movs	r3, #3
 1637 01d4 0293     		str	r3, [sp, #8]
 1638              		.loc 1 503 17
 1639 01d6 00BF     		nop
 1640              	.L110:
 504:libraries/zf_driver/zf_driver_exti.c ****             }
 505:libraries/zf_driver/zf_driver_exti.c ****             exti_callback[EXTI_CALC_INDEX][EXTI_CALC_CHANNEL].callback(event_temp, exti_callback[EX
 1641              		.loc 1 505 62
 1642 01d8 244B     		ldr	r3, .L128+8
 1643 01da 9B6E     		ldr	r3, [r3, #104]
 1644              		.loc 1 505 13
 1645 01dc 234A     		ldr	r2, .L128+8
 1646 01de D26E     		ldr	r2, [r2, #108]
 1647 01e0 1146     		mov	r1, r2
 1648 01e2 0298     		ldr	r0, [sp, #8]
 1649 01e4 9847     		blx	r3
 1650              	.LVL13:
 1651              	.LBE95:
 1652 01e6 02E0     		b	.L113
 1653              	.L108:
 506:libraries/zf_driver/zf_driver_exti.c ****         }
 507:libraries/zf_driver/zf_driver_exti.c ****         else
 508:libraries/zf_driver/zf_driver_exti.c ****         {
 509:libraries/zf_driver/zf_driver_exti.c ****             IRQ_PROLOGUE();
 510:libraries/zf_driver/zf_driver_exti.c ****             __exti_serve_interrupt(EXTI_IRQ_LINE15_10);
 1654              		.loc 1 510 13
 1655 01e8 0620     		movs	r0, #6
 1656 01ea FFF7FEFF 		bl	__exti_serve_interrupt
 1657              	.L113:
 1658              	.LBB96:
 1659              	.LBB97:
 271:C:/StellarStudio-7.0/SDKS/StellarESDK-1.7.0/Modules/Platform/CMSIS/Core/Include\cmsis_gcc.h **** }
 1660              		.loc 2 271 3
 1661              		.syntax unified
 1662              	@ 271 "C:/StellarStudio-7.0/SDKS/StellarESDK-1.7.0/Modules/Platform/CMSIS/Core/Include/cmsis_gcc.h"
 1663 01ee BFF34F8F 		dsb 0xF
 1664              	@ 0 "" 2
 1665              		.loc 2 272 1
 1666              		.thumb
 1667              		.syntax unified
 1668 01f2 00BF     		nop
 1669              	.L107:
 1670              	.LBE97:
 1671              	.LBE96:
 511:libraries/zf_driver/zf_driver_exti.c ****             IRQ_EPILOGUE();
 512:libraries/zf_driver/zf_driver_exti.c ****         }
 513:libraries/zf_driver/zf_driver_exti.c ****         #undef  TEMP_EXTI_INDEX
 514:libraries/zf_driver/zf_driver_exti.c ****         ZF_DSB();
 515:libraries/zf_driver/zf_driver_exti.c ****     }
 516:libraries/zf_driver/zf_driver_exti.c ****     if(EXTI->C1PR1 & (0x00000001 << 14))
 1672              		.loc 1 516 12
 1673 01f4 1B4B     		ldr	r3, .L128
 1674 01f6 D3F88830 		ldr	r3, [r3, #136]
 1675              		.loc 1 516 20
 1676 01fa 03F48043 		and	r3, r3, #16384
 1677              		.loc 1 516 7
 1678 01fe 002B     		cmp	r3, #0
 1679 0200 3CD0     		beq	.L114
 517:libraries/zf_driver/zf_driver_exti.c ****     {
 518:libraries/zf_driver/zf_driver_exti.c ****         #define TEMP_EXTI_INDEX     ( EXTI1_CH14_A14 )
 519:libraries/zf_driver/zf_driver_exti.c ****         exti_obj_list[EXTI_CALC_INDEX].exti_ptr->C1PR1 |= (0x00000001 << EXTI_CALC_CHANNEL);
 1680              		.loc 1 519 39
 1681 0202 194B     		ldr	r3, .L128+4
 1682 0204 1B68     		ldr	r3, [r3]
 1683              		.loc 1 519 56
 1684 0206 D3F88820 		ldr	r2, [r3, #136]
 1685              		.loc 1 519 39
 1686 020a 174B     		ldr	r3, .L128+4
 1687 020c 1B68     		ldr	r3, [r3]
 1688              		.loc 1 519 56
 1689 020e 42F48042 		orr	r2, r2, #16384
 1690 0212 C3F88820 		str	r2, [r3, #136]
 520:libraries/zf_driver/zf_driver_exti.c ****         if(PIN_NULL != exti_obj_list[EXTI_CALC_INDEX].pin_list[EXTI_CALC_CHANNEL])
 1691              		.loc 1 520 63
 1692 0216 144B     		ldr	r3, .L128+4
 1693 0218 1B8C     		ldrh	r3, [r3, #32]
 1694              		.loc 1 520 11
 1695 021a 40F6FF72 		movw	r2, #4095
 1696 021e 9342     		cmp	r3, r2
 1697 0220 26D0     		beq	.L115
 1698              	.LBB98:
 521:libraries/zf_driver/zf_driver_exti.c ****         {
 522:libraries/zf_driver/zf_driver_exti.c ****             uint32 event_temp = EXTI_INTERRUPT_STATE_NONE;
 1699              		.loc 1 522 20
 1700 0222 0023     		movs	r3, #0
 1701 0224 0193     		str	r3, [sp, #4]
 523:libraries/zf_driver/zf_driver_exti.c ****             switch((exti_obj_list[EXTI_CALC_INDEX].config_info >> (EXTI_CALC_CHANNEL * 2)) & 0x03)
 1702              		.loc 1 523 51
 1703 0226 104B     		ldr	r3, .L128+4
 1704 0228 5B6A     		ldr	r3, [r3, #36]
 1705              		.loc 1 523 64
 1706 022a 1B0F     		lsrs	r3, r3, #28
 1707              		.loc 1 523 92
 1708 022c 03F00303 		and	r3, r3, #3
 1709              		.loc 1 523 13
 1710 0230 032B     		cmp	r3, #3
 1711 0232 0CD0     		beq	.L116
 1712 0234 032B     		cmp	r3, #3
 1713 0236 0DD8     		bhi	.L117
 1714 0238 012B     		cmp	r3, #1
 1715 023a 02D0     		beq	.L118
 1716 023c 022B     		cmp	r3, #2
 1717 023e 03D0     		beq	.L119
 1718 0240 08E0     		b	.L117
 1719              	.L118:
 524:libraries/zf_driver/zf_driver_exti.c ****             {
 525:libraries/zf_driver/zf_driver_exti.c ****                 case EXTI_TRIGGER_TYPE_RISING   :   event_temp = EXTI_INTERRUPT_STATE_RISING    ;  
 1720              		.loc 1 525 64
 1721 0242 0123     		movs	r3, #1
 1722 0244 0193     		str	r3, [sp, #4]
 1723              		.loc 1 525 17
 1724 0246 05E0     		b	.L117
 1725              	.L119:
 526:libraries/zf_driver/zf_driver_exti.c ****                 case EXTI_TRIGGER_TYPE_FALLING  :   event_temp = EXTI_INTERRUPT_STATE_FALLING   ;  
 1726              		.loc 1 526 64
 1727 0248 0223     		movs	r3, #2
 1728 024a 0193     		str	r3, [sp, #4]
 1729              		.loc 1 526 17
 1730 024c 02E0     		b	.L117
 1731              	.L116:
 527:libraries/zf_driver/zf_driver_exti.c ****                 case EXTI_TRIGGER_TYPE_BOTH     :   event_temp = EXTI_INTERRUPT_STATE_BOTH      ;  
 1732              		.loc 1 527 64
 1733 024e 0323     		movs	r3, #3
 1734 0250 0193     		str	r3, [sp, #4]
 1735              		.loc 1 527 17
 1736 0252 00BF     		nop
 1737              	.L117:
 528:libraries/zf_driver/zf_driver_exti.c ****             }
 529:libraries/zf_driver/zf_driver_exti.c ****             exti_callback[EXTI_CALC_INDEX][EXTI_CALC_CHANNEL].callback(event_temp, exti_callback[EX
 1738              		.loc 1 529 62
 1739 0254 054B     		ldr	r3, .L128+8
 1740 0256 1B6F     		ldr	r3, [r3, #112]
 1741              		.loc 1 529 13
 1742 0258 044A     		ldr	r2, .L128+8
 1743 025a 526F     		ldr	r2, [r2, #116]
 1744 025c 1146     		mov	r1, r2
 1745 025e 0198     		ldr	r0, [sp, #4]
 1746 0260 9847     		blx	r3
 1747              	.LVL14:
 1748              	.LBE98:
 1749 0262 08E0     		b	.L120
 1750              	.L129:
 1751              		.align	2
 1752              	.L128:
 1753 0264 00040042 		.word	1107297280
 1754 0268 00000000 		.word	exti_obj_list
 1755 026c 00000000 		.word	exti_callback
 1756              	.L115:
 530:libraries/zf_driver/zf_driver_exti.c ****         }
 531:libraries/zf_driver/zf_driver_exti.c ****         else
 532:libraries/zf_driver/zf_driver_exti.c ****         {
 533:libraries/zf_driver/zf_driver_exti.c ****             IRQ_PROLOGUE();
 534:libraries/zf_driver/zf_driver_exti.c ****             __exti_serve_interrupt(EXTI_IRQ_LINE15_10);
 1757              		.loc 1 534 13
 1758 0270 0620     		movs	r0, #6
 1759 0272 FFF7FEFF 		bl	__exti_serve_interrupt
 1760              	.L120:
 1761              	.LBB99:
 1762              	.LBB100:
 271:C:/StellarStudio-7.0/SDKS/StellarESDK-1.7.0/Modules/Platform/CMSIS/Core/Include\cmsis_gcc.h **** }
 1763              		.loc 2 271 3
 1764              		.syntax unified
 1765              	@ 271 "C:/StellarStudio-7.0/SDKS/StellarESDK-1.7.0/Modules/Platform/CMSIS/Core/Include/cmsis_gcc.h"
 1766 0276 BFF34F8F 		dsb 0xF
 1767              	@ 0 "" 2
 1768              		.loc 2 272 1
 1769              		.thumb
 1770              		.syntax unified
 1771 027a 00BF     		nop
 1772              	.L114:
 1773              	.LBE100:
 1774              	.LBE99:
 535:libraries/zf_driver/zf_driver_exti.c ****             IRQ_EPILOGUE();
 536:libraries/zf_driver/zf_driver_exti.c ****         }
 537:libraries/zf_driver/zf_driver_exti.c ****         #undef  TEMP_EXTI_INDEX
 538:libraries/zf_driver/zf_driver_exti.c ****         ZF_DSB();
 539:libraries/zf_driver/zf_driver_exti.c ****     }
 540:libraries/zf_driver/zf_driver_exti.c ****     if(EXTI->C1PR1 & (0x00000001 << 15))
 1775              		.loc 1 540 12
 1776 027c 214B     		ldr	r3, .L130
 1777 027e D3F88830 		ldr	r3, [r3, #136]
 1778              		.loc 1 540 20
 1779 0282 03F40043 		and	r3, r3, #32768
 1780              		.loc 1 540 7
 1781 0286 002B     		cmp	r3, #0
 1782 0288 34D0     		beq	.L121
 541:libraries/zf_driver/zf_driver_exti.c ****     {
 542:libraries/zf_driver/zf_driver_exti.c ****         #define TEMP_EXTI_INDEX     ( EXTI1_CH15_A15 )
 543:libraries/zf_driver/zf_driver_exti.c ****         exti_obj_list[EXTI_CALC_INDEX].exti_ptr->C1PR1 |= (0x00000001 << EXTI_CALC_CHANNEL);
 1783              		.loc 1 543 39
 1784 028a 1F4B     		ldr	r3, .L130+4
 1785 028c 1B68     		ldr	r3, [r3]
 1786              		.loc 1 543 56
 1787 028e D3F88820 		ldr	r2, [r3, #136]
 1788              		.loc 1 543 39
 1789 0292 1D4B     		ldr	r3, .L130+4
 1790 0294 1B68     		ldr	r3, [r3]
 1791              		.loc 1 543 56
 1792 0296 42F40042 		orr	r2, r2, #32768
 1793 029a C3F88820 		str	r2, [r3, #136]
 544:libraries/zf_driver/zf_driver_exti.c ****         if(PIN_NULL != exti_obj_list[EXTI_CALC_INDEX].pin_list[EXTI_CALC_CHANNEL])
 1794              		.loc 1 544 63
 1795 029e 1A4B     		ldr	r3, .L130+4
 1796 02a0 5B8C     		ldrh	r3, [r3, #34]
 1797              		.loc 1 544 11
 1798 02a2 40F6FF72 		movw	r2, #4095
 1799 02a6 9342     		cmp	r3, r2
 1800 02a8 1ED0     		beq	.L122
 1801              	.LBB101:
 545:libraries/zf_driver/zf_driver_exti.c ****         {
 546:libraries/zf_driver/zf_driver_exti.c ****             uint32 event_temp = EXTI_INTERRUPT_STATE_NONE;
 1802              		.loc 1 546 20
 1803 02aa 0023     		movs	r3, #0
 1804 02ac 0093     		str	r3, [sp]
 547:libraries/zf_driver/zf_driver_exti.c ****             switch((exti_obj_list[EXTI_CALC_INDEX].config_info >> (EXTI_CALC_CHANNEL * 2)) & 0x03)
 1805              		.loc 1 547 51
 1806 02ae 164B     		ldr	r3, .L130+4
 1807 02b0 5B6A     		ldr	r3, [r3, #36]
 1808              		.loc 1 547 64
 1809 02b2 9B0F     		lsrs	r3, r3, #30
 1810              		.loc 1 547 13
 1811 02b4 032B     		cmp	r3, #3
 1812 02b6 0CD0     		beq	.L123
 1813 02b8 032B     		cmp	r3, #3
 1814 02ba 0DD8     		bhi	.L124
 1815 02bc 012B     		cmp	r3, #1
 1816 02be 02D0     		beq	.L125
 1817 02c0 022B     		cmp	r3, #2
 1818 02c2 03D0     		beq	.L126
 1819 02c4 08E0     		b	.L124
 1820              	.L125:
 548:libraries/zf_driver/zf_driver_exti.c ****             {
 549:libraries/zf_driver/zf_driver_exti.c ****                 case EXTI_TRIGGER_TYPE_RISING   :   event_temp = EXTI_INTERRUPT_STATE_RISING    ;  
 1821              		.loc 1 549 64
 1822 02c6 0123     		movs	r3, #1
 1823 02c8 0093     		str	r3, [sp]
 1824              		.loc 1 549 17
 1825 02ca 05E0     		b	.L124
 1826              	.L126:
 550:libraries/zf_driver/zf_driver_exti.c ****                 case EXTI_TRIGGER_TYPE_FALLING  :   event_temp = EXTI_INTERRUPT_STATE_FALLING   ;  
 1827              		.loc 1 550 64
 1828 02cc 0223     		movs	r3, #2
 1829 02ce 0093     		str	r3, [sp]
 1830              		.loc 1 550 17
 1831 02d0 02E0     		b	.L124
 1832              	.L123:
 551:libraries/zf_driver/zf_driver_exti.c ****                 case EXTI_TRIGGER_TYPE_BOTH     :   event_temp = EXTI_INTERRUPT_STATE_BOTH      ;  
 1833              		.loc 1 551 64
 1834 02d2 0323     		movs	r3, #3
 1835 02d4 0093     		str	r3, [sp]
 1836              		.loc 1 551 17
 1837 02d6 00BF     		nop
 1838              	.L124:
 552:libraries/zf_driver/zf_driver_exti.c ****             }
 553:libraries/zf_driver/zf_driver_exti.c ****             exti_callback[EXTI_CALC_INDEX][EXTI_CALC_CHANNEL].callback(event_temp, exti_callback[EX
 1839              		.loc 1 553 62
 1840 02d8 0C4B     		ldr	r3, .L130+8
 1841 02da 9B6F     		ldr	r3, [r3, #120]
 1842              		.loc 1 553 13
 1843 02dc 0B4A     		ldr	r2, .L130+8
 1844 02de D26F     		ldr	r2, [r2, #124]
 1845 02e0 1146     		mov	r1, r2
 1846 02e2 0098     		ldr	r0, [sp]
 1847 02e4 9847     		blx	r3
 1848              	.LVL15:
 1849              	.LBE101:
 1850 02e6 02E0     		b	.L127
 1851              	.L122:
 554:libraries/zf_driver/zf_driver_exti.c ****         }
 555:libraries/zf_driver/zf_driver_exti.c ****         else
 556:libraries/zf_driver/zf_driver_exti.c ****         {
 557:libraries/zf_driver/zf_driver_exti.c ****             IRQ_PROLOGUE();
 558:libraries/zf_driver/zf_driver_exti.c ****             __exti_serve_interrupt(EXTI_IRQ_LINE15_10);
 1852              		.loc 1 558 13
 1853 02e8 0620     		movs	r0, #6
 1854 02ea FFF7FEFF 		bl	__exti_serve_interrupt
 1855              	.L127:
 1856              	.LBB102:
 1857              	.LBB103:
 271:C:/StellarStudio-7.0/SDKS/StellarESDK-1.7.0/Modules/Platform/CMSIS/Core/Include\cmsis_gcc.h **** }
 1858              		.loc 2 271 3
 1859              		.syntax unified
 1860              	@ 271 "C:/StellarStudio-7.0/SDKS/StellarESDK-1.7.0/Modules/Platform/CMSIS/Core/Include/cmsis_gcc.h"
 1861 02ee BFF34F8F 		dsb 0xF
 1862              	@ 0 "" 2
 1863              		.loc 2 272 1
 1864              		.thumb
 1865              		.syntax unified
 1866 02f2 00BF     		nop
 1867              	.L121:
 1868              	.LBE103:
 1869              	.LBE102:
 1870              	.LBB104:
 1871              	.LBB105:
 271:C:/StellarStudio-7.0/SDKS/StellarESDK-1.7.0/Modules/Platform/CMSIS/Core/Include\cmsis_gcc.h **** }
 1872              		.loc 2 271 3
 1873              		.syntax unified
 1874              	@ 271 "C:/StellarStudio-7.0/SDKS/StellarESDK-1.7.0/Modules/Platform/CMSIS/Core/Include/cmsis_gcc.h"
 1875 02f4 BFF34F8F 		dsb 0xF
 1876              	@ 0 "" 2
 1877              		.loc 2 272 1
 1878              		.thumb
 1879              		.syntax unified
 1880 02f8 00BF     		nop
 1881              	.LBE105:
 1882              	.LBE104:
 559:libraries/zf_driver/zf_driver_exti.c ****             IRQ_EPILOGUE();
 560:libraries/zf_driver/zf_driver_exti.c ****         }
 561:libraries/zf_driver/zf_driver_exti.c ****         #undef  TEMP_EXTI_INDEX
 562:libraries/zf_driver/zf_driver_exti.c ****         ZF_DSB();
 563:libraries/zf_driver/zf_driver_exti.c ****     }
 564:libraries/zf_driver/zf_driver_exti.c ****     ZF_DSB();
 565:libraries/zf_driver/zf_driver_exti.c **** }
 1883              		.loc 1 565 1
 1884 02fa 00BF     		nop
 1885 02fc 07B0     		add	sp, sp, #28
 1886              		.cfi_def_cfa_offset 4
 1887              		@ sp needed
 1888 02fe 5DF804FB 		ldr	pc, [sp], #4
 1889              	.L131:
 1890 0302 00BF     		.align	2
 1891              	.L130:
 1892 0304 00040042 		.word	1107297280
 1893 0308 00000000 		.word	exti_obj_list
 1894 030c 00000000 		.word	exti_callback
 1895              		.cfi_endproc
 1896              	.LFE187:
 1898              		.section	.text.zf_exti_assert_handler,"ax",%progbits
 1899              		.align	1
 1900              		.p2align 4,,15
 1901              		.global	zf_exti_assert_handler
 1902              		.syntax unified
 1903              		.thumb
 1904              		.thumb_func
 1906              	zf_exti_assert_handler:
 1907              	.LFB188:
 566:libraries/zf_driver/zf_driver_exti.c **** // <<<<<<<<<<<<<<<<<<<<<<<<<<<<<<<<<<<<<<<<< Part   End <<<<<<<<<<<<<<<<<<<<<<<<<<<<<<<<<<<<<<<<<
 567:libraries/zf_driver/zf_driver_exti.c **** 
 568:libraries/zf_driver/zf_driver_exti.c **** // Ê≠§Â§ÑÂÆö‰πâ Êú¨Êñá‰ª∂ÁöÑÊâÄÊúâÂáΩÊï∞ÂÖ∑‰ΩìÂÆö‰πâ ËøôÈáå‰∏çÂÖÅËÆ∏Áî®Êà∑‰øÆÊîπ
 569:libraries/zf_driver/zf_driver_exti.c **** // >>>>>>>>>>>>>>>>>>>>>>>>>>>>>>>>>>>>>>>>> Part Start >>>>>>>>>>>>>>>>>>>>>>>>>>>>>>>>>>>>>>>>>
 570:libraries/zf_driver/zf_driver_exti.c **** //-------------------------------------------------------------------------------------------------
 571:libraries/zf_driver/zf_driver_exti.c **** // ÂáΩÊï∞ÁÆÄ‰ªã     EXTI Êñ≠Ë®ÄÂ§ÑÁêÜ
 572:libraries/zf_driver/zf_driver_exti.c **** // ÂèÇÊï∞ËØ¥Êòé     *file               Êñá‰ª∂Ë∑ØÂæÑ
 573:libraries/zf_driver/zf_driver_exti.c **** // ÂèÇÊï∞ËØ¥Êòé     line                Êä•ÈîôË°å
 574:libraries/zf_driver/zf_driver_exti.c **** // ÂèÇÊï∞ËØ¥Êòé     *tips               ËæìÂá∫‰ø°ÊÅØ
 575:libraries/zf_driver/zf_driver_exti.c **** // ËøîÂõûÂèÇÊï∞     uint8               Êìç‰ΩúÁä∂ÊÄÅ ZF_NO_ERROR / GPIO_OPERATION_DONE - ÂÆåÊàê ÂÖ∂
 576:libraries/zf_driver/zf_driver_exti.c **** // ‰ΩøÁî®Á§∫‰æã     zf_exti_assert_handler(file, line, tips);
 577:libraries/zf_driver/zf_driver_exti.c **** // Â§áÊ≥®‰ø°ÊÅØ
 578:libraries/zf_driver/zf_driver_exti.c **** //-------------------------------------------------------------------------------------------------
 579:libraries/zf_driver/zf_driver_exti.c **** uint8 zf_exti_assert_handler (char *file, int line, char *tips)
 580:libraries/zf_driver/zf_driver_exti.c **** {
 1908              		.loc 1 580 1
 1909              		.cfi_startproc
 1910              		@ args = 0, pretend = 0, frame = 16
 1911              		@ frame_needed = 0, uses_anonymous_args = 0
 1912 0000 00B5     		push	{lr}
 1913              		.cfi_def_cfa_offset 4
 1914              		.cfi_offset 14, -4
 1915 0002 87B0     		sub	sp, sp, #28
 1916              		.cfi_def_cfa_offset 32
 1917 0004 0590     		str	r0, [sp, #20]
 1918 0006 0491     		str	r1, [sp, #16]
 1919 0008 0392     		str	r2, [sp, #12]
 581:libraries/zf_driver/zf_driver_exti.c ****     debug_message_handler(DEBUG_OUTPUT_LEVEL_ASSERT, ZF_FALSE, tips, file, line);
 1920              		.loc 1 581 5
 1921 000a 049B     		ldr	r3, [sp, #16]
 1922 000c 0093     		str	r3, [sp]
 1923 000e 059B     		ldr	r3, [sp, #20]
 1924 0010 039A     		ldr	r2, [sp, #12]
 1925 0012 0021     		movs	r1, #0
 1926 0014 0220     		movs	r0, #2
 1927 0016 FFF7FEFF 		bl	debug_message_handler
 1928              	.L133:
 582:libraries/zf_driver/zf_driver_exti.c ****     while(1);
 1929              		.loc 1 582 10 discriminator 1
 1930 001a FEE7     		b	.L133
 1931              		.cfi_endproc
 1932              	.LFE188:
 1934              		.section	.rodata
 1935              		.align	2
 1936              	.LC0:
 1937 0000 6C696272 		.ascii	"libraries/zf_driver/zf_driver_exti.c\000"
 1937      61726965 
 1937      732F7A66 
 1937      5F647269 
 1937      7665722F 
 1938              		.section	.text.zf_exti_enable,"ax",%progbits
 1939              		.align	1
 1940              		.p2align 4,,15
 1941              		.global	zf_exti_enable
 1942              		.syntax unified
 1943              		.thumb
 1944              		.thumb_func
 1946              	zf_exti_enable:
 1947              	.LFB189:
 583:libraries/zf_driver/zf_driver_exti.c ****     return ZF_ERROR;
 584:libraries/zf_driver/zf_driver_exti.c **** }
 585:libraries/zf_driver/zf_driver_exti.c **** 
 586:libraries/zf_driver/zf_driver_exti.c **** 
 587:libraries/zf_driver/zf_driver_exti.c **** //-------------------------------------------------------------------------------------------------
 588:libraries/zf_driver/zf_driver_exti.c **** // ÂáΩÊï∞ÁÆÄ‰ªã     EXTI ‰∏≠Êñ≠‰ΩøËÉΩ
 589:libraries/zf_driver/zf_driver_exti.c **** // ÂèÇÊï∞ËØ¥Êòé     channel             ÈÄâÊã© EXTI ÂºïËÑö  (ËØ¶ËßÅ zf_driver_exti.h ÂÜÖ zf_exti_ch
 590:libraries/zf_driver/zf_driver_exti.c **** // ËøîÂõûÂèÇÊï∞     uint8               Êìç‰ΩúÁä∂ÊÄÅ ZF_NO_ERROR / EXTI_OPERATION_DONE - ÂÆåÊàê ÂÖ∂
 591:libraries/zf_driver/zf_driver_exti.c **** // ‰ΩøÁî®Á§∫‰æã     zf_exti_enable(channel);
 592:libraries/zf_driver/zf_driver_exti.c **** // Â§áÊ≥®‰ø°ÊÅØ     
 593:libraries/zf_driver/zf_driver_exti.c **** //-------------------------------------------------------------------------------------------------
 594:libraries/zf_driver/zf_driver_exti.c **** uint8 zf_exti_enable (zf_exti_channel_pin_enum channel)
 595:libraries/zf_driver/zf_driver_exti.c **** {
 1948              		.loc 1 595 1
 1949              		.cfi_startproc
 1950              		@ args = 0, pretend = 0, frame = 16
 1951              		@ frame_needed = 0, uses_anonymous_args = 0
 1952 0000 10B5     		push	{r4, lr}
 1953              		.cfi_def_cfa_offset 8
 1954              		.cfi_offset 4, -8
 1955              		.cfi_offset 14, -4
 1956 0002 84B0     		sub	sp, sp, #16
 1957              		.cfi_def_cfa_offset 24
 1958 0004 0190     		str	r0, [sp, #4]
 596:libraries/zf_driver/zf_driver_exti.c ****     zf_exti_operation_state_enum return_state = EXTI_ERROR_UNKNOW;
 1959              		.loc 1 596 34
 1960 0006 0123     		movs	r3, #1
 1961 0008 8DF80F30 		strb	r3, [sp, #15]
 597:libraries/zf_driver/zf_driver_exti.c **** 
 598:libraries/zf_driver/zf_driver_exti.c ****     uint8   exti_index      = ((channel >> EXTI_INDEX_OFFSET) & EXTI_INDEX_MASK);
 1962              		.loc 1 598 41
 1963 000c 019B     		ldr	r3, [sp, #4]
 1964 000e 1B0B     		lsrs	r3, r3, #12
 1965              		.loc 1 598 63
 1966 0010 DBB2     		uxtb	r3, r3
 1967              		.loc 1 598 13
 1968 0012 03F00F03 		and	r3, r3, #15
 1969 0016 8DF80E30 		strb	r3, [sp, #14]
 599:libraries/zf_driver/zf_driver_exti.c ****     uint8   exti_channel    = ((channel >> EXTI_CHANNEL_OFFSET) & EXTI_CHANNEL_MASK);
 1970              		.loc 1 599 41
 1971 001a 019B     		ldr	r3, [sp, #4]
 1972 001c 1B0C     		lsrs	r3, r3, #16
 1973              		.loc 1 599 65
 1974 001e DBB2     		uxtb	r3, r3
 1975              		.loc 1 599 13
 1976 0020 03F00F03 		and	r3, r3, #15
 1977 0024 8DF80D30 		strb	r3, [sp, #13]
 1978              	.LBB106:
 600:libraries/zf_driver/zf_driver_exti.c **** 
 601:libraries/zf_driver/zf_driver_exti.c ****     do
 602:libraries/zf_driver/zf_driver_exti.c ****     {
 603:libraries/zf_driver/zf_driver_exti.c ****         zf_gpio_pin_enum pin = (zf_gpio_pin_enum)(channel & EXTI_PIN_INDEX_MASK);
 1979              		.loc 1 603 32
 1980 0028 019B     		ldr	r3, [sp, #4]
 1981 002a 9BB2     		uxth	r3, r3
 1982              		.loc 1 603 26
 1983 002c C3F30B03 		ubfx	r3, r3, #0, #12
 1984 0030 ADF80A30 		strh	r3, [sp, #10]	@ movhi
 604:libraries/zf_driver/zf_driver_exti.c **** 
 605:libraries/zf_driver/zf_driver_exti.c ****         if(zf_exti_assert(PIN_NULL !=                                           // Ê£ÄÊü• ÂØπÂ∫îÈÄö
 1985              		.loc 1 605 12
 1986 0034 9DF80E20 		ldrb	r2, [sp, #14]	@ zero_extendqisi2
 1987 0038 9DF80D10 		ldrb	r1, [sp, #13]	@ zero_extendqisi2
 1988 003c 2F48     		ldr	r0, .L139
 1989 003e 1346     		mov	r3, r2
 1990 0040 9B00     		lsls	r3, r3, #2
 1991 0042 1344     		add	r3, r3, r2
 1992 0044 9B00     		lsls	r3, r3, #2
 1993 0046 0B44     		add	r3, r3, r1
 1994 0048 5B00     		lsls	r3, r3, #1
 1995 004a 0344     		add	r3, r3, r0
 1996 004c 9B88     		ldrh	r3, [r3, #4]
 1997              		.loc 1 605 11
 1998 004e 40F6FF72 		movw	r2, #4095
 1999 0052 9342     		cmp	r3, r2
 2000 0054 0CD1     		bne	.L135
 2001              		.loc 1 605 12 discriminator 1
 2002 0056 0022     		movs	r2, #0
 2003 0058 40F25D21 		movw	r1, #605
 2004 005c 2848     		ldr	r0, .L139+4
 2005 005e FFF7FEFF 		bl	zf_exti_assert_handler
 2006 0062 0346     		mov	r3, r0
 2007 0064 002B     		cmp	r3, #0
 2008 0066 03D0     		beq	.L135
 606:libraries/zf_driver/zf_driver_exti.c ****             exti_obj_list[exti_index].pin_list[exti_channel]))
 607:libraries/zf_driver/zf_driver_exti.c ****         {
 608:libraries/zf_driver/zf_driver_exti.c ****             // Ê≠§Â§ÑÂ¶ÇÊûúÊñ≠Ë®ÄÊä•Èîô ÈÇ£‰πàËØÅÊòéÊú¨ÈÄöÈÅìÊ≤°ÊúâÂàùÂßãÂåñËøá ÊòØ‰∏çÂÖÅËÆ∏Áõ¥Êé•Ê
 609:libraries/zf_driver/zf_driver_exti.c ****             // Êú™ÂàùÂßãÂåñÊ®°ÂùóÂæàÂèØËÉΩÊ≤°ÊúâÂºÄÂêØÊ®°ÂùóÊó∂ÈíüÊàñËÄÖÊ≤°Êúâ‰ΩøËÉΩÊ®°Âùó
 610:libraries/zf_driver/zf_driver_exti.c ****             // ÂØπ‰∫éÈÉ®ÂàÜÂçïÁâáÊú∫Ê≤°Êúâ‰ΩøËÉΩÊ®°ÂùóÁõ¥Êé•Êìç‰Ωú‰ºöÂØºËá¥ÊÄªÁ∫øÂºÇÂ∏∏ÊàñËÄÖÁ°¨‰ª∂
 611:libraries/zf_driver/zf_driver_exti.c ****             return_state = EXTI_ERROR_MODULE_NOT_INIT;
 2009              		.loc 1 611 26
 2010 0068 2123     		movs	r3, #33
 2011 006a 8DF80F30 		strb	r3, [sp, #15]
 612:libraries/zf_driver/zf_driver_exti.c ****             break;
 2012              		.loc 1 612 13
 2013 006e 40E0     		b	.L136
 2014              	.L135:
 613:libraries/zf_driver/zf_driver_exti.c ****         }
 614:libraries/zf_driver/zf_driver_exti.c ****         if(zf_exti_assert(pin ==                                                // Ê£ÄÊü• ÂØπÂ∫îÈÄö
 2015              		.loc 1 614 12
 2016 0070 9DF80E20 		ldrb	r2, [sp, #14]	@ zero_extendqisi2
 2017 0074 9DF80D10 		ldrb	r1, [sp, #13]	@ zero_extendqisi2
 2018 0078 2048     		ldr	r0, .L139
 2019 007a 1346     		mov	r3, r2
 2020 007c 9B00     		lsls	r3, r3, #2
 2021 007e 1344     		add	r3, r3, r2
 2022 0080 9B00     		lsls	r3, r3, #2
 2023 0082 0B44     		add	r3, r3, r1
 2024 0084 5B00     		lsls	r3, r3, #1
 2025 0086 0344     		add	r3, r3, r0
 2026 0088 9B88     		ldrh	r3, [r3, #4]
 2027              		.loc 1 614 11
 2028 008a BDF80A20 		ldrh	r2, [sp, #10]
 2029 008e 9A42     		cmp	r2, r3
 2030 0090 0CD0     		beq	.L137
 2031              		.loc 1 614 12 discriminator 1
 2032 0092 0022     		movs	r2, #0
 2033 0094 40F26621 		movw	r1, #614
 2034 0098 1948     		ldr	r0, .L139+4
 2035 009a FFF7FEFF 		bl	zf_exti_assert_handler
 2036 009e 0346     		mov	r3, r0
 2037 00a0 002B     		cmp	r3, #0
 2038 00a2 03D0     		beq	.L137
 615:libraries/zf_driver/zf_driver_exti.c ****             exti_obj_list[exti_index].pin_list[exti_channel]))
 616:libraries/zf_driver/zf_driver_exti.c ****         {
 617:libraries/zf_driver/zf_driver_exti.c ****             // Ê≠§Â§ÑÂ¶ÇÊûúÊñ≠Ë®ÄÊä•Èîô ÈÇ£‰πàËØÅÊòéÊú¨ÈÄöÈÅìÂéüÊú¨ÂàùÂßãÂåñÂºïËÑö‰∏éÊ≥®ÈîÄÁöÑÂºïËÑ
 618:libraries/zf_driver/zf_driver_exti.c ****             // ÂàùÂßãÂåñÁî®‰ªÄ‰πàÂºïËÑö Ê≥®ÈîÄÂ∞±Áî®‰ªÄ‰πàÂºïËÑö ‰∏çË¶ÅÈöè‰æø‰π±Â°´
 619:libraries/zf_driver/zf_driver_exti.c ****             return_state = EXTI_ERROR_PIN_MISMATCH;
 2039              		.loc 1 619 26
 2040 00a4 2223     		movs	r3, #34
 2041 00a6 8DF80F30 		strb	r3, [sp, #15]
 620:libraries/zf_driver/zf_driver_exti.c ****             break;
 2042              		.loc 1 620 13
 2043 00aa 22E0     		b	.L136
 2044              	.L137:
 621:libraries/zf_driver/zf_driver_exti.c ****         }
 622:libraries/zf_driver/zf_driver_exti.c **** 
 623:libraries/zf_driver/zf_driver_exti.c ****         exti_obj_list[exti_index].exti_ptr->C1IMR1 |= (0x00000001 << (pin & GPIO_PIN_INDEX_MASK));
 2045              		.loc 1 623 34
 2046 00ac 9DF80E20 		ldrb	r2, [sp, #14]	@ zero_extendqisi2
 2047 00b0 1249     		ldr	r1, .L139
 2048 00b2 1346     		mov	r3, r2
 2049 00b4 9B00     		lsls	r3, r3, #2
 2050 00b6 1344     		add	r3, r3, r2
 2051 00b8 DB00     		lsls	r3, r3, #3
 2052 00ba 0B44     		add	r3, r3, r1
 2053 00bc 1B68     		ldr	r3, [r3]
 2054              		.loc 1 623 52
 2055 00be D3F88010 		ldr	r1, [r3, #128]
 2056              		.loc 1 623 75
 2057 00c2 BDF80A30 		ldrh	r3, [sp, #10]
 2058 00c6 03F01F03 		and	r3, r3, #31
 2059              		.loc 1 623 67
 2060 00ca 0122     		movs	r2, #1
 2061 00cc 02FA03F3 		lsl	r3, r2, r3
 2062 00d0 1C46     		mov	r4, r3
 2063              		.loc 1 623 34
 2064 00d2 9DF80E20 		ldrb	r2, [sp, #14]	@ zero_extendqisi2
 2065 00d6 0948     		ldr	r0, .L139
 2066 00d8 1346     		mov	r3, r2
 2067 00da 9B00     		lsls	r3, r3, #2
 2068 00dc 1344     		add	r3, r3, r2
 2069 00de DB00     		lsls	r3, r3, #3
 2070 00e0 0344     		add	r3, r3, r0
 2071 00e2 1B68     		ldr	r3, [r3]
 2072              		.loc 1 623 52
 2073 00e4 41EA0402 		orr	r2, r1, r4
 2074 00e8 C3F88020 		str	r2, [r3, #128]
 624:libraries/zf_driver/zf_driver_exti.c **** 
 625:libraries/zf_driver/zf_driver_exti.c ****         return_state = EXTI_OPERATION_DONE;
 2075              		.loc 1 625 22
 2076 00ec 0023     		movs	r3, #0
 2077 00ee 8DF80F30 		strb	r3, [sp, #15]
 2078              	.L136:
 2079              	.LBE106:
 626:libraries/zf_driver/zf_driver_exti.c ****     }while(0);
 627:libraries/zf_driver/zf_driver_exti.c **** 
 628:libraries/zf_driver/zf_driver_exti.c ****     return return_state;
 2080              		.loc 1 628 12
 2081 00f2 9DF80F30 		ldrb	r3, [sp, #15]	@ zero_extendqisi2
 629:libraries/zf_driver/zf_driver_exti.c **** }
 2082              		.loc 1 629 1
 2083 00f6 1846     		mov	r0, r3
 2084 00f8 04B0     		add	sp, sp, #16
 2085              		.cfi_def_cfa_offset 8
 2086              		@ sp needed
 2087 00fa 10BD     		pop	{r4, pc}
 2088              	.L140:
 2089              		.align	2
 2090              	.L139:
 2091 00fc 00000000 		.word	exti_obj_list
 2092 0100 00000000 		.word	.LC0
 2093              		.cfi_endproc
 2094              	.LFE189:
 2096              		.section	.text.zf_exti_disable,"ax",%progbits
 2097              		.align	1
 2098              		.p2align 4,,15
 2099              		.global	zf_exti_disable
 2100              		.syntax unified
 2101              		.thumb
 2102              		.thumb_func
 2104              	zf_exti_disable:
 2105              	.LFB190:
 630:libraries/zf_driver/zf_driver_exti.c **** 
 631:libraries/zf_driver/zf_driver_exti.c **** //-------------------------------------------------------------------------------------------------
 632:libraries/zf_driver/zf_driver_exti.c **** // ÂáΩÊï∞ÁÆÄ‰ªã     EXTI ‰∏≠Êñ≠Â§±ËÉΩ
 633:libraries/zf_driver/zf_driver_exti.c **** // ÂèÇÊï∞ËØ¥Êòé     channel             ÈÄâÊã© EXTI ÂºïËÑö  (ËØ¶ËßÅ zf_driver_exti.h ÂÜÖ zf_exti_ch
 634:libraries/zf_driver/zf_driver_exti.c **** // ËøîÂõûÂèÇÊï∞     uint8               Êìç‰ΩúÁä∂ÊÄÅ ZF_NO_ERROR / EXTI_OPERATION_DONE - ÂÆåÊàê ÂÖ∂
 635:libraries/zf_driver/zf_driver_exti.c **** // ‰ΩøÁî®Á§∫‰æã     zf_exti_disable(channel);
 636:libraries/zf_driver/zf_driver_exti.c **** // Â§áÊ≥®‰ø°ÊÅØ     
 637:libraries/zf_driver/zf_driver_exti.c **** //-------------------------------------------------------------------------------------------------
 638:libraries/zf_driver/zf_driver_exti.c **** uint8 zf_exti_disable (zf_exti_channel_pin_enum channel)
 639:libraries/zf_driver/zf_driver_exti.c **** {
 2106              		.loc 1 639 1
 2107              		.cfi_startproc
 2108              		@ args = 0, pretend = 0, frame = 16
 2109              		@ frame_needed = 0, uses_anonymous_args = 0
 2110 0000 10B5     		push	{r4, lr}
 2111              		.cfi_def_cfa_offset 8
 2112              		.cfi_offset 4, -8
 2113              		.cfi_offset 14, -4
 2114 0002 84B0     		sub	sp, sp, #16
 2115              		.cfi_def_cfa_offset 24
 2116 0004 0190     		str	r0, [sp, #4]
 640:libraries/zf_driver/zf_driver_exti.c ****     zf_exti_operation_state_enum return_state = EXTI_ERROR_UNKNOW;
 2117              		.loc 1 640 34
 2118 0006 0123     		movs	r3, #1
 2119 0008 8DF80F30 		strb	r3, [sp, #15]
 641:libraries/zf_driver/zf_driver_exti.c **** 
 642:libraries/zf_driver/zf_driver_exti.c ****     uint8   exti_index      = ((channel >> EXTI_INDEX_OFFSET) & EXTI_INDEX_MASK);
 2120              		.loc 1 642 41
 2121 000c 019B     		ldr	r3, [sp, #4]
 2122 000e 1B0B     		lsrs	r3, r3, #12
 2123              		.loc 1 642 63
 2124 0010 DBB2     		uxtb	r3, r3
 2125              		.loc 1 642 13
 2126 0012 03F00F03 		and	r3, r3, #15
 2127 0016 8DF80E30 		strb	r3, [sp, #14]
 643:libraries/zf_driver/zf_driver_exti.c ****     uint8   exti_channel    = ((channel >> EXTI_CHANNEL_OFFSET) & EXTI_CHANNEL_MASK);
 2128              		.loc 1 643 41
 2129 001a 019B     		ldr	r3, [sp, #4]
 2130 001c 1B0C     		lsrs	r3, r3, #16
 2131              		.loc 1 643 65
 2132 001e DBB2     		uxtb	r3, r3
 2133              		.loc 1 643 13
 2134 0020 03F00F03 		and	r3, r3, #15
 2135 0024 8DF80D30 		strb	r3, [sp, #13]
 2136              	.LBB107:
 644:libraries/zf_driver/zf_driver_exti.c **** 
 645:libraries/zf_driver/zf_driver_exti.c ****     do
 646:libraries/zf_driver/zf_driver_exti.c ****     {
 647:libraries/zf_driver/zf_driver_exti.c ****         zf_gpio_pin_enum pin = (zf_gpio_pin_enum)(channel & EXTI_PIN_INDEX_MASK);
 2137              		.loc 1 647 32
 2138 0028 019B     		ldr	r3, [sp, #4]
 2139 002a 9BB2     		uxth	r3, r3
 2140              		.loc 1 647 26
 2141 002c C3F30B03 		ubfx	r3, r3, #0, #12
 2142 0030 ADF80A30 		strh	r3, [sp, #10]	@ movhi
 648:libraries/zf_driver/zf_driver_exti.c **** 
 649:libraries/zf_driver/zf_driver_exti.c ****         if(zf_exti_assert(PIN_NULL !=                                           // Ê£ÄÊü• ÂØπÂ∫îÈÄö
 2143              		.loc 1 649 12
 2144 0034 9DF80E20 		ldrb	r2, [sp, #14]	@ zero_extendqisi2
 2145 0038 9DF80D10 		ldrb	r1, [sp, #13]	@ zero_extendqisi2
 2146 003c 3048     		ldr	r0, .L146
 2147 003e 1346     		mov	r3, r2
 2148 0040 9B00     		lsls	r3, r3, #2
 2149 0042 1344     		add	r3, r3, r2
 2150 0044 9B00     		lsls	r3, r3, #2
 2151 0046 0B44     		add	r3, r3, r1
 2152 0048 5B00     		lsls	r3, r3, #1
 2153 004a 0344     		add	r3, r3, r0
 2154 004c 9B88     		ldrh	r3, [r3, #4]
 2155              		.loc 1 649 11
 2156 004e 40F6FF72 		movw	r2, #4095
 2157 0052 9342     		cmp	r3, r2
 2158 0054 0CD1     		bne	.L142
 2159              		.loc 1 649 12 discriminator 1
 2160 0056 0022     		movs	r2, #0
 2161 0058 40F28921 		movw	r1, #649
 2162 005c 2948     		ldr	r0, .L146+4
 2163 005e FFF7FEFF 		bl	zf_exti_assert_handler
 2164 0062 0346     		mov	r3, r0
 2165 0064 002B     		cmp	r3, #0
 2166 0066 03D0     		beq	.L142
 650:libraries/zf_driver/zf_driver_exti.c ****             exti_obj_list[exti_index].pin_list[exti_channel]))
 651:libraries/zf_driver/zf_driver_exti.c ****         {
 652:libraries/zf_driver/zf_driver_exti.c ****             // Ê≠§Â§ÑÂ¶ÇÊûúÊñ≠Ë®ÄÊä•Èîô ÈÇ£‰πàËØÅÊòéÊú¨ÈÄöÈÅìÊ≤°ÊúâÂàùÂßãÂåñËøá ÊòØ‰∏çÂÖÅËÆ∏Áõ¥Êé•Ê
 653:libraries/zf_driver/zf_driver_exti.c ****             // Êú™ÂàùÂßãÂåñÊ®°ÂùóÂæàÂèØËÉΩÊ≤°ÊúâÂºÄÂêØÊ®°ÂùóÊó∂ÈíüÊàñËÄÖÊ≤°Êúâ‰ΩøËÉΩÊ®°Âùó
 654:libraries/zf_driver/zf_driver_exti.c ****             // ÂØπ‰∫éÈÉ®ÂàÜÂçïÁâáÊú∫Ê≤°Êúâ‰ΩøËÉΩÊ®°ÂùóÁõ¥Êé•Êìç‰Ωú‰ºöÂØºËá¥ÊÄªÁ∫øÂºÇÂ∏∏ÊàñËÄÖÁ°¨‰ª∂
 655:libraries/zf_driver/zf_driver_exti.c ****             return_state = EXTI_ERROR_MODULE_NOT_INIT;
 2167              		.loc 1 655 26
 2168 0068 2123     		movs	r3, #33
 2169 006a 8DF80F30 		strb	r3, [sp, #15]
 656:libraries/zf_driver/zf_driver_exti.c ****             break;
 2170              		.loc 1 656 13
 2171 006e 41E0     		b	.L143
 2172              	.L142:
 657:libraries/zf_driver/zf_driver_exti.c ****         }
 658:libraries/zf_driver/zf_driver_exti.c ****         if(zf_exti_assert(pin ==                                                // Ê£ÄÊü• ÂØπÂ∫îÈÄö
 2173              		.loc 1 658 12
 2174 0070 9DF80E20 		ldrb	r2, [sp, #14]	@ zero_extendqisi2
 2175 0074 9DF80D10 		ldrb	r1, [sp, #13]	@ zero_extendqisi2
 2176 0078 2148     		ldr	r0, .L146
 2177 007a 1346     		mov	r3, r2
 2178 007c 9B00     		lsls	r3, r3, #2
 2179 007e 1344     		add	r3, r3, r2
 2180 0080 9B00     		lsls	r3, r3, #2
 2181 0082 0B44     		add	r3, r3, r1
 2182 0084 5B00     		lsls	r3, r3, #1
 2183 0086 0344     		add	r3, r3, r0
 2184 0088 9B88     		ldrh	r3, [r3, #4]
 2185              		.loc 1 658 11
 2186 008a BDF80A20 		ldrh	r2, [sp, #10]
 2187 008e 9A42     		cmp	r2, r3
 2188 0090 0CD0     		beq	.L144
 2189              		.loc 1 658 12 discriminator 1
 2190 0092 0022     		movs	r2, #0
 2191 0094 40F29221 		movw	r1, #658
 2192 0098 1A48     		ldr	r0, .L146+4
 2193 009a FFF7FEFF 		bl	zf_exti_assert_handler
 2194 009e 0346     		mov	r3, r0
 2195 00a0 002B     		cmp	r3, #0
 2196 00a2 03D0     		beq	.L144
 659:libraries/zf_driver/zf_driver_exti.c ****             exti_obj_list[exti_index].pin_list[exti_channel]))
 660:libraries/zf_driver/zf_driver_exti.c ****         {
 661:libraries/zf_driver/zf_driver_exti.c ****             // Ê≠§Â§ÑÂ¶ÇÊûúÊñ≠Ë®ÄÊä•Èîô ÈÇ£‰πàËØÅÊòéÊú¨ÈÄöÈÅìÂéüÊú¨ÂàùÂßãÂåñÂºïËÑö‰∏éÊ≥®ÈîÄÁöÑÂºïËÑ
 662:libraries/zf_driver/zf_driver_exti.c ****             // ÂàùÂßãÂåñÁî®‰ªÄ‰πàÂºïËÑö Ê≥®ÈîÄÂ∞±Áî®‰ªÄ‰πàÂºïËÑö ‰∏çË¶ÅÈöè‰æø‰π±Â°´
 663:libraries/zf_driver/zf_driver_exti.c ****             return_state = EXTI_ERROR_PIN_MISMATCH;
 2197              		.loc 1 663 26
 2198 00a4 2223     		movs	r3, #34
 2199 00a6 8DF80F30 		strb	r3, [sp, #15]
 664:libraries/zf_driver/zf_driver_exti.c ****             break;
 2200              		.loc 1 664 13
 2201 00aa 23E0     		b	.L143
 2202              	.L144:
 665:libraries/zf_driver/zf_driver_exti.c ****         }
 666:libraries/zf_driver/zf_driver_exti.c **** 
 667:libraries/zf_driver/zf_driver_exti.c ****         exti_obj_list[exti_index].exti_ptr->C1IMR1 &= ~(0x00000001 << (pin & GPIO_PIN_INDEX_MASK));
 2203              		.loc 1 667 34
 2204 00ac 9DF80E20 		ldrb	r2, [sp, #14]	@ zero_extendqisi2
 2205 00b0 1349     		ldr	r1, .L146
 2206 00b2 1346     		mov	r3, r2
 2207 00b4 9B00     		lsls	r3, r3, #2
 2208 00b6 1344     		add	r3, r3, r2
 2209 00b8 DB00     		lsls	r3, r3, #3
 2210 00ba 0B44     		add	r3, r3, r1
 2211 00bc 1B68     		ldr	r3, [r3]
 2212              		.loc 1 667 52
 2213 00be D3F88010 		ldr	r1, [r3, #128]
 2214              		.loc 1 667 76
 2215 00c2 BDF80A30 		ldrh	r3, [sp, #10]
 2216 00c6 03F01F03 		and	r3, r3, #31
 2217              		.loc 1 667 68
 2218 00ca 0122     		movs	r2, #1
 2219 00cc 02FA03F3 		lsl	r3, r2, r3
 2220              		.loc 1 667 55
 2221 00d0 DB43     		mvns	r3, r3
 2222 00d2 1C46     		mov	r4, r3
 2223              		.loc 1 667 34
 2224 00d4 9DF80E20 		ldrb	r2, [sp, #14]	@ zero_extendqisi2
 2225 00d8 0948     		ldr	r0, .L146
 2226 00da 1346     		mov	r3, r2
 2227 00dc 9B00     		lsls	r3, r3, #2
 2228 00de 1344     		add	r3, r3, r2
 2229 00e0 DB00     		lsls	r3, r3, #3
 2230 00e2 0344     		add	r3, r3, r0
 2231 00e4 1B68     		ldr	r3, [r3]
 2232              		.loc 1 667 52
 2233 00e6 01EA0402 		and	r2, r1, r4
 2234 00ea C3F88020 		str	r2, [r3, #128]
 668:libraries/zf_driver/zf_driver_exti.c **** 
 669:libraries/zf_driver/zf_driver_exti.c ****         return_state = EXTI_OPERATION_DONE;
 2235              		.loc 1 669 22
 2236 00ee 0023     		movs	r3, #0
 2237 00f0 8DF80F30 		strb	r3, [sp, #15]
 2238              	.L143:
 2239              	.LBE107:
 670:libraries/zf_driver/zf_driver_exti.c ****     }while(0);
 671:libraries/zf_driver/zf_driver_exti.c **** 
 672:libraries/zf_driver/zf_driver_exti.c ****     return return_state;
 2240              		.loc 1 672 12
 2241 00f4 9DF80F30 		ldrb	r3, [sp, #15]	@ zero_extendqisi2
 673:libraries/zf_driver/zf_driver_exti.c **** }
 2242              		.loc 1 673 1
 2243 00f8 1846     		mov	r0, r3
 2244 00fa 04B0     		add	sp, sp, #16
 2245              		.cfi_def_cfa_offset 8
 2246              		@ sp needed
 2247 00fc 10BD     		pop	{r4, pc}
 2248              	.L147:
 2249 00fe 00BF     		.align	2
 2250              	.L146:
 2251 0100 00000000 		.word	exti_obj_list
 2252 0104 00000000 		.word	.LC0
 2253              		.cfi_endproc
 2254              	.LFE190:
 2256              		.section	.text.zf_exti_set_callback,"ax",%progbits
 2257              		.align	1
 2258              		.p2align 4,,15
 2259              		.global	zf_exti_set_callback
 2260              		.syntax unified
 2261              		.thumb
 2262              		.thumb_func
 2264              	zf_exti_set_callback:
 2265              	.LFB191:
 674:libraries/zf_driver/zf_driver_exti.c **** 
 675:libraries/zf_driver/zf_driver_exti.c **** //-------------------------------------------------------------------------------------------------
 676:libraries/zf_driver/zf_driver_exti.c **** // ÂáΩÊï∞ÁÆÄ‰ªã     EXTI ‰∏≠Êñ≠ËÆæÁΩÆÂõûË∞ÉÂáΩÊï∞
 677:libraries/zf_driver/zf_driver_exti.c **** // ÂèÇÊï∞ËØ¥Êòé     channel             ÈÄâÊã© EXTI ÂºïËÑö  (ËØ¶ËßÅ zf_driver_exti.h ÂÜÖ zf_exti_ch
 678:libraries/zf_driver/zf_driver_exti.c **** // ÂèÇÊï∞ËØ¥Êòé     callback            ÂõûË∞ÉÂáΩÊï∞ ‰∏∫Êó†ËøîÂõûÂÄº uint32 void* ‰∏§‰∏™ÂèÇÊï∞ÁöÑÂá
 679:libraries/zf_driver/zf_driver_exti.c **** // ÂèÇÊï∞ËØ¥Êòé     *ptr                ÂõûË∞ÉÂèÇÊï∞ Áî®Êà∑Ëá™ÊãüÂÆöÁöÑÂèÇÊï∞ÊåáÈíà ‰∏çÈúÄË¶ÅÁöÑËØù
 680:libraries/zf_driver/zf_driver_exti.c **** // ËøîÂõûÂèÇÊï∞     uint8               Êìç‰ΩúÁä∂ÊÄÅ ZF_NO_ERROR / EXTI_OPERATION_DONE - ÂÆåÊàê ÂÖ∂
 681:libraries/zf_driver/zf_driver_exti.c **** // ‰ΩøÁî®Á§∫‰æã     zf_exti_set_callback(channel, callback, NULL);
 682:libraries/zf_driver/zf_driver_exti.c **** // Â§áÊ≥®‰ø°ÊÅØ     
 683:libraries/zf_driver/zf_driver_exti.c **** //-------------------------------------------------------------------------------------------------
 684:libraries/zf_driver/zf_driver_exti.c **** uint8 zf_exti_set_callback (zf_exti_channel_pin_enum channel, void_callback_uint32_ptr callback, vo
 685:libraries/zf_driver/zf_driver_exti.c **** {
 2266              		.loc 1 685 1
 2267              		.cfi_startproc
 2268              		@ args = 0, pretend = 0, frame = 24
 2269              		@ frame_needed = 0, uses_anonymous_args = 0
 2270 0000 00B5     		push	{lr}
 2271              		.cfi_def_cfa_offset 4
 2272              		.cfi_offset 14, -4
 2273 0002 87B0     		sub	sp, sp, #28
 2274              		.cfi_def_cfa_offset 32
 2275 0004 0390     		str	r0, [sp, #12]
 2276 0006 0291     		str	r1, [sp, #8]
 2277 0008 0192     		str	r2, [sp, #4]
 686:libraries/zf_driver/zf_driver_exti.c ****     zf_exti_operation_state_enum return_state = EXTI_ERROR_UNKNOW;
 2278              		.loc 1 686 34
 2279 000a 0123     		movs	r3, #1
 2280 000c 8DF81730 		strb	r3, [sp, #23]
 687:libraries/zf_driver/zf_driver_exti.c **** 
 688:libraries/zf_driver/zf_driver_exti.c ****     uint8   exti_index      = ((channel >> EXTI_INDEX_OFFSET) & EXTI_INDEX_MASK);
 2281              		.loc 1 688 41
 2282 0010 039B     		ldr	r3, [sp, #12]
 2283 0012 1B0B     		lsrs	r3, r3, #12
 2284              		.loc 1 688 63
 2285 0014 DBB2     		uxtb	r3, r3
 2286              		.loc 1 688 13
 2287 0016 03F00F03 		and	r3, r3, #15
 2288 001a 8DF81630 		strb	r3, [sp, #22]
 689:libraries/zf_driver/zf_driver_exti.c ****     uint8   exti_channel    = ((channel >> EXTI_CHANNEL_OFFSET) & EXTI_CHANNEL_MASK);
 2289              		.loc 1 689 41
 2290 001e 039B     		ldr	r3, [sp, #12]
 2291 0020 1B0C     		lsrs	r3, r3, #16
 2292              		.loc 1 689 65
 2293 0022 DBB2     		uxtb	r3, r3
 2294              		.loc 1 689 13
 2295 0024 03F00F03 		and	r3, r3, #15
 2296 0028 8DF81530 		strb	r3, [sp, #21]
 690:libraries/zf_driver/zf_driver_exti.c **** 
 691:libraries/zf_driver/zf_driver_exti.c ****     do
 692:libraries/zf_driver/zf_driver_exti.c ****     {
 693:libraries/zf_driver/zf_driver_exti.c ****         if(zf_exti_assert(PIN_NULL !=                                           // Ê£ÄÊü• ÂØπÂ∫îÈÄö
 2297              		.loc 1 693 12
 2298 002c 9DF81620 		ldrb	r2, [sp, #22]	@ zero_extendqisi2
 2299 0030 9DF81510 		ldrb	r1, [sp, #21]	@ zero_extendqisi2
 2300 0034 2648     		ldr	r0, .L153
 2301 0036 1346     		mov	r3, r2
 2302 0038 9B00     		lsls	r3, r3, #2
 2303 003a 1344     		add	r3, r3, r2
 2304 003c 9B00     		lsls	r3, r3, #2
 2305 003e 0B44     		add	r3, r3, r1
 2306 0040 5B00     		lsls	r3, r3, #1
 2307 0042 0344     		add	r3, r3, r0
 2308 0044 9B88     		ldrh	r3, [r3, #4]
 2309              		.loc 1 693 11
 2310 0046 40F6FF72 		movw	r2, #4095
 2311 004a 9342     		cmp	r3, r2
 2312 004c 0CD1     		bne	.L149
 2313              		.loc 1 693 12 discriminator 1
 2314 004e 0022     		movs	r2, #0
 2315 0050 40F2B521 		movw	r1, #693
 2316 0054 1F48     		ldr	r0, .L153+4
 2317 0056 FFF7FEFF 		bl	zf_exti_assert_handler
 2318 005a 0346     		mov	r3, r0
 2319 005c 002B     		cmp	r3, #0
 2320 005e 03D0     		beq	.L149
 694:libraries/zf_driver/zf_driver_exti.c ****             exti_obj_list[exti_index].pin_list[exti_channel]))
 695:libraries/zf_driver/zf_driver_exti.c ****         {
 696:libraries/zf_driver/zf_driver_exti.c ****             // Ê≠§Â§ÑÂ¶ÇÊûúÊñ≠Ë®ÄÊä•Èîô ÈÇ£‰πàËØÅÊòéÊú¨ÈÄöÈÅìÂ∑≤ÁªèÂàùÂßãÂåñËøá‰∫Ü ÊòØ‰∏çÂÖÅËÆ∏Ë¶ÜÁ
 697:libraries/zf_driver/zf_driver_exti.c ****             // Â¶ÇÊûúË¶ÅÊõ¥ÊîπÊú¨ÈÄöÈÅìÁöÑÂºïËÑö Â∫îËØ•ÂÖàË∞ÉÁî®Ê≥®ÈîÄÂàùÂßãÂåñ ‰πãÂêéÂÜçÈáçÊñ∞ÂàùÂ
 698:libraries/zf_driver/zf_driver_exti.c ****             return_state = EXTI_ERROR_MODULE_OCCUPIED;
 2321              		.loc 1 698 26
 2322 0060 2023     		movs	r3, #32
 2323 0062 8DF81730 		strb	r3, [sp, #23]
 699:libraries/zf_driver/zf_driver_exti.c ****             break;
 2324              		.loc 1 699 13
 2325 0066 2DE0     		b	.L150
 2326              	.L149:
 700:libraries/zf_driver/zf_driver_exti.c ****         }
 701:libraries/zf_driver/zf_driver_exti.c ****         if(zf_exti_assert(NULL != callback))                                    // Ê£ÄÊü• ÂõûË∞ÉÂáΩ
 2327              		.loc 1 701 11
 2328 0068 029B     		ldr	r3, [sp, #8]
 2329 006a 002B     		cmp	r3, #0
 2330 006c 0CD1     		bne	.L151
 2331              		.loc 1 701 12 discriminator 1
 2332 006e 0022     		movs	r2, #0
 2333 0070 40F2BD21 		movw	r1, #701
 2334 0074 1748     		ldr	r0, .L153+4
 2335 0076 FFF7FEFF 		bl	zf_exti_assert_handler
 2336 007a 0346     		mov	r3, r0
 2337 007c 002B     		cmp	r3, #0
 2338 007e 03D0     		beq	.L151
 702:libraries/zf_driver/zf_driver_exti.c ****         {
 703:libraries/zf_driver/zf_driver_exti.c ****             // Ê≠§Â§ÑÂ¶ÇÊûúÊñ≠Ë®ÄÊä•Èîô ÈÇ£‰πàËØÅÊòéÂõûË∞ÉÂáΩÊï∞‰∏∫Á©∫ÊåáÈíà ÊòØ‰∏çÂÖÅËÆ∏ÁöÑ
 704:libraries/zf_driver/zf_driver_exti.c ****             // ‰∏≠Êñ≠ÂøÖÈ°ªËÆæÁΩÆÊúâÊïàÁöÑÂõûË∞ÉÂáΩÊï∞ Âê¶Âàô‰ºöÂØºËá¥Á®ãÂ∫èÂºÇÂ∏∏
 705:libraries/zf_driver/zf_driver_exti.c ****             return_state = EXTI_ERROR_INTERRUPT_CALLBACK_ILLEGAL;
 2339              		.loc 1 705 26
 2340 0080 2323     		movs	r3, #35
 2341 0082 8DF81730 		strb	r3, [sp, #23]
 706:libraries/zf_driver/zf_driver_exti.c ****             break;
 2342              		.loc 1 706 13
 2343 0086 1DE0     		b	.L150
 2344              	.L151:
 707:libraries/zf_driver/zf_driver_exti.c ****         }
 708:libraries/zf_driver/zf_driver_exti.c **** 
 709:libraries/zf_driver/zf_driver_exti.c ****         // ‰øÆÊîπÂõûË∞ÉÂáΩÊï∞ÈúÄË¶ÅÂÖàÁ¶ÅÊ≠¢‰∏≠Êñ≠Ëß¶Âèë
 710:libraries/zf_driver/zf_driver_exti.c ****         // ÈÅøÂÖçÂú®‰øÆÊîπËøáÁ®ã‰∏≠Ëß¶Âèë‰∏≠Êñ≠ÂØºËá¥Á®ãÂ∫èÂºÇÂ∏∏
 711:libraries/zf_driver/zf_driver_exti.c ****         zf_exti_disable(channel);
 2345              		.loc 1 711 9
 2346 0088 0398     		ldr	r0, [sp, #12]
 2347 008a FFF7FEFF 		bl	zf_exti_disable
 712:libraries/zf_driver/zf_driver_exti.c ****         exti_callback[exti_index][exti_channel].callback      = callback;
 2348              		.loc 1 712 48
 2349 008e 9DF81620 		ldrb	r2, [sp, #22]	@ zero_extendqisi2
 2350 0092 9DF81530 		ldrb	r3, [sp, #21]	@ zero_extendqisi2
 2351              		.loc 1 712 63
 2352 0096 1049     		ldr	r1, .L153+8
 2353 0098 1201     		lsls	r2, r2, #4
 2354 009a 1344     		add	r3, r3, r2
 2355 009c 029A     		ldr	r2, [sp, #8]
 2356 009e 41F83320 		str	r2, [r1, r3, lsl #3]
 713:libraries/zf_driver/zf_driver_exti.c ****         exti_callback[exti_index][exti_channel].parameter_ptr = ptr;
 2357              		.loc 1 713 48
 2358 00a2 9DF81620 		ldrb	r2, [sp, #22]	@ zero_extendqisi2
 2359 00a6 9DF81530 		ldrb	r3, [sp, #21]	@ zero_extendqisi2
 2360              		.loc 1 713 63
 2361 00aa 0B49     		ldr	r1, .L153+8
 2362 00ac 1201     		lsls	r2, r2, #4
 2363 00ae 1344     		add	r3, r3, r2
 2364 00b0 DB00     		lsls	r3, r3, #3
 2365 00b2 0B44     		add	r3, r3, r1
 2366 00b4 019A     		ldr	r2, [sp, #4]
 2367 00b6 5A60     		str	r2, [r3, #4]
 714:libraries/zf_driver/zf_driver_exti.c ****         zf_exti_enable(channel);
 2368              		.loc 1 714 9
 2369 00b8 0398     		ldr	r0, [sp, #12]
 2370 00ba FFF7FEFF 		bl	zf_exti_enable
 715:libraries/zf_driver/zf_driver_exti.c **** 
 716:libraries/zf_driver/zf_driver_exti.c ****         return_state = EXTI_OPERATION_DONE;
 2371              		.loc 1 716 22
 2372 00be 0023     		movs	r3, #0
 2373 00c0 8DF81730 		strb	r3, [sp, #23]
 2374              	.L150:
 717:libraries/zf_driver/zf_driver_exti.c ****     }while(0);
 718:libraries/zf_driver/zf_driver_exti.c **** 
 719:libraries/zf_driver/zf_driver_exti.c ****     return return_state;
 2375              		.loc 1 719 12
 2376 00c4 9DF81730 		ldrb	r3, [sp, #23]	@ zero_extendqisi2
 720:libraries/zf_driver/zf_driver_exti.c **** }
 2377              		.loc 1 720 1
 2378 00c8 1846     		mov	r0, r3
 2379 00ca 07B0     		add	sp, sp, #28
 2380              		.cfi_def_cfa_offset 4
 2381              		@ sp needed
 2382 00cc 5DF804FB 		ldr	pc, [sp], #4
 2383              	.L154:
 2384              		.align	2
 2385              	.L153:
 2386 00d0 00000000 		.word	exti_obj_list
 2387 00d4 00000000 		.word	.LC0
 2388 00d8 00000000 		.word	exti_callback
 2389              		.cfi_endproc
 2390              	.LFE191:
 2392              		.section	.text.zf_exti_set_interrupt_priority,"ax",%progbits
 2393              		.align	1
 2394              		.p2align 4,,15
 2395              		.global	zf_exti_set_interrupt_priority
 2396              		.syntax unified
 2397              		.thumb
 2398              		.thumb_func
 2400              	zf_exti_set_interrupt_priority:
 2401              	.LFB192:
 721:libraries/zf_driver/zf_driver_exti.c **** 
 722:libraries/zf_driver/zf_driver_exti.c **** //-------------------------------------------------------------------------------------------------
 723:libraries/zf_driver/zf_driver_exti.c **** // ÂáΩÊï∞ÁÆÄ‰ªã     EXTI ‰∏≠Êñ≠ËÆæÁΩÆ‰ºòÂÖàÁ∫ß
 724:libraries/zf_driver/zf_driver_exti.c **** // ÂèÇÊï∞ËØ¥Êòé     channel             ÈÄâÊã© EXTI ÂºïËÑö  (ËØ¶ËßÅ zf_driver_exti.h ÂÜÖ zf_exti_ch
 725:libraries/zf_driver/zf_driver_exti.c **** // ÂèÇÊï∞ËØ¥Êòé     priority            ‰∏≠Êñ≠‰ºòÂÖàÁ∫ß
 726:libraries/zf_driver/zf_driver_exti.c **** // ËøîÂõûÂèÇÊï∞     uint8               Êìç‰ΩúÁä∂ÊÄÅ ZF_NO_ERROR / EXTI_OPERATION_DONE - ÂÆåÊàê ÂÖ∂
 727:libraries/zf_driver/zf_driver_exti.c **** // ‰ΩøÁî®Á§∫‰æã     zf_exti_set_interrupt_priority(channel, priority);
 728:libraries/zf_driver/zf_driver_exti.c **** // Â§áÊ≥®‰ø°ÊÅØ     
 729:libraries/zf_driver/zf_driver_exti.c **** //-------------------------------------------------------------------------------------------------
 730:libraries/zf_driver/zf_driver_exti.c **** uint8 zf_exti_set_interrupt_priority (zf_exti_channel_pin_enum channel, uint8 priority)
 731:libraries/zf_driver/zf_driver_exti.c **** {
 2402              		.loc 1 731 1
 2403              		.cfi_startproc
 2404              		@ args = 0, pretend = 0, frame = 16
 2405              		@ frame_needed = 0, uses_anonymous_args = 0
 2406 0000 00B5     		push	{lr}
 2407              		.cfi_def_cfa_offset 4
 2408              		.cfi_offset 14, -4
 2409 0002 85B0     		sub	sp, sp, #20
 2410              		.cfi_def_cfa_offset 24
 2411 0004 0190     		str	r0, [sp, #4]
 2412 0006 0B46     		mov	r3, r1
 2413 0008 8DF80330 		strb	r3, [sp, #3]
 732:libraries/zf_driver/zf_driver_exti.c ****     zf_exti_operation_state_enum return_state = EXTI_ERROR_UNKNOW;
 2414              		.loc 1 732 34
 2415 000c 0123     		movs	r3, #1
 2416 000e 8DF80F30 		strb	r3, [sp, #15]
 2417              	.LBB108:
 733:libraries/zf_driver/zf_driver_exti.c **** 
 734:libraries/zf_driver/zf_driver_exti.c ****     do
 735:libraries/zf_driver/zf_driver_exti.c ****     {
 736:libraries/zf_driver/zf_driver_exti.c ****         uint8   exti_index      = ((channel >> EXTI_INDEX_OFFSET) & EXTI_INDEX_MASK);
 2418              		.loc 1 736 45
 2419 0012 019B     		ldr	r3, [sp, #4]
 2420 0014 1B0B     		lsrs	r3, r3, #12
 2421              		.loc 1 736 67
 2422 0016 DBB2     		uxtb	r3, r3
 2423              		.loc 1 736 17
 2424 0018 03F00F03 		and	r3, r3, #15
 2425 001c 8DF80E30 		strb	r3, [sp, #14]
 737:libraries/zf_driver/zf_driver_exti.c ****         uint8   exti_channel    = ((channel >> EXTI_CHANNEL_OFFSET) & EXTI_CHANNEL_MASK);
 2426              		.loc 1 737 45
 2427 0020 019B     		ldr	r3, [sp, #4]
 2428 0022 1B0C     		lsrs	r3, r3, #16
 2429              		.loc 1 737 69
 2430 0024 DBB2     		uxtb	r3, r3
 2431              		.loc 1 737 17
 2432 0026 03F00F03 		and	r3, r3, #15
 2433 002a 8DF80D30 		strb	r3, [sp, #13]
 738:libraries/zf_driver/zf_driver_exti.c **** 
 739:libraries/zf_driver/zf_driver_exti.c ****         zf_interrupt_set_priority(exti_irq_index_list[exti_index][exti_channel], priority);
 2434              		.loc 1 739 9
 2435 002e 9DF80E20 		ldrb	r2, [sp, #14]	@ zero_extendqisi2
 2436 0032 9DF80D30 		ldrb	r3, [sp, #13]	@ zero_extendqisi2
 2437 0036 0A49     		ldr	r1, .L157
 2438 0038 1201     		lsls	r2, r2, #4
 2439 003a 0A44     		add	r2, r2, r1
 2440 003c 1344     		add	r3, r3, r2
 2441 003e 1B78     		ldrb	r3, [r3]	@ zero_extendqisi2
 2442 0040 9DF80320 		ldrb	r2, [sp, #3]	@ zero_extendqisi2
 2443 0044 1146     		mov	r1, r2
 2444 0046 1846     		mov	r0, r3
 2445 0048 FFF7FEFF 		bl	zf_interrupt_set_priority
 740:libraries/zf_driver/zf_driver_exti.c **** 
 741:libraries/zf_driver/zf_driver_exti.c ****         return_state = EXTI_OPERATION_DONE;
 2446              		.loc 1 741 22
 2447 004c 0023     		movs	r3, #0
 2448 004e 8DF80F30 		strb	r3, [sp, #15]
 2449              	.LBE108:
 742:libraries/zf_driver/zf_driver_exti.c ****     }while(0);
 743:libraries/zf_driver/zf_driver_exti.c **** 
 744:libraries/zf_driver/zf_driver_exti.c ****     return return_state;
 2450              		.loc 1 744 12
 2451 0052 9DF80F30 		ldrb	r3, [sp, #15]	@ zero_extendqisi2
 745:libraries/zf_driver/zf_driver_exti.c **** }
 2452              		.loc 1 745 1
 2453 0056 1846     		mov	r0, r3
 2454 0058 05B0     		add	sp, sp, #20
 2455              		.cfi_def_cfa_offset 4
 2456              		@ sp needed
 2457 005a 5DF804FB 		ldr	pc, [sp], #4
 2458              	.L158:
 2459 005e 00BF     		.align	2
 2460              	.L157:
 2461 0060 00000000 		.word	exti_irq_index_list
 2462              		.cfi_endproc
 2463              	.LFE192:
 2465              		.section	.text.zf_exti_channel_deinit,"ax",%progbits
 2466              		.align	1
 2467              		.p2align 4,,15
 2468              		.global	zf_exti_channel_deinit
 2469              		.syntax unified
 2470              		.thumb
 2471              		.thumb_func
 2473              	zf_exti_channel_deinit:
 2474              	.LFB193:
 746:libraries/zf_driver/zf_driver_exti.c **** 
 747:libraries/zf_driver/zf_driver_exti.c **** //-------------------------------------------------------------------------------------------------
 748:libraries/zf_driver/zf_driver_exti.c **** // ÂáΩÊï∞ÁÆÄ‰ªã     EXTI ‰∏≠Êñ≠Ê≥®ÈîÄÂàùÂßãÂåñ
 749:libraries/zf_driver/zf_driver_exti.c **** // ÂèÇÊï∞ËØ¥Êòé     channel             ÈÄâÊã© EXTI ÂºïËÑö  (ËØ¶ËßÅ zf_driver_exti.h ÂÜÖ zf_exti_ch
 750:libraries/zf_driver/zf_driver_exti.c **** // ËøîÂõûÂèÇÊï∞     uint8               Êìç‰ΩúÁä∂ÊÄÅ ZF_NO_ERROR / EXTI_OPERATION_DONE - ÂÆåÊàê ÂÖ∂
 751:libraries/zf_driver/zf_driver_exti.c **** // ‰ΩøÁî®Á§∫‰æã     zf_exti_deinit(channel);
 752:libraries/zf_driver/zf_driver_exti.c **** // Â§áÊ≥®‰ø°ÊÅØ     
 753:libraries/zf_driver/zf_driver_exti.c **** //-------------------------------------------------------------------------------------------------
 754:libraries/zf_driver/zf_driver_exti.c **** uint8 zf_exti_channel_deinit (zf_exti_channel_pin_enum channel)
 755:libraries/zf_driver/zf_driver_exti.c **** {
 2475              		.loc 1 755 1
 2476              		.cfi_startproc
 2477              		@ args = 0, pretend = 0, frame = 16
 2478              		@ frame_needed = 0, uses_anonymous_args = 0
 2479 0000 00B5     		push	{lr}
 2480              		.cfi_def_cfa_offset 4
 2481              		.cfi_offset 14, -4
 2482 0002 85B0     		sub	sp, sp, #20
 2483              		.cfi_def_cfa_offset 24
 2484 0004 0190     		str	r0, [sp, #4]
 756:libraries/zf_driver/zf_driver_exti.c ****     zf_exti_operation_state_enum return_state = EXTI_ERROR_UNKNOW;
 2485              		.loc 1 756 34
 2486 0006 0123     		movs	r3, #1
 2487 0008 8DF80F30 		strb	r3, [sp, #15]
 757:libraries/zf_driver/zf_driver_exti.c **** 
 758:libraries/zf_driver/zf_driver_exti.c ****     uint8   exti_index      = ((channel >> EXTI_INDEX_OFFSET) & EXTI_INDEX_MASK);
 2488              		.loc 1 758 41
 2489 000c 019B     		ldr	r3, [sp, #4]
 2490 000e 1B0B     		lsrs	r3, r3, #12
 2491              		.loc 1 758 63
 2492 0010 DBB2     		uxtb	r3, r3
 2493              		.loc 1 758 13
 2494 0012 03F00F03 		and	r3, r3, #15
 2495 0016 8DF80E30 		strb	r3, [sp, #14]
 759:libraries/zf_driver/zf_driver_exti.c ****     uint8   exti_channel    = ((channel >> EXTI_CHANNEL_OFFSET) & EXTI_CHANNEL_MASK);
 2496              		.loc 1 759 41
 2497 001a 019B     		ldr	r3, [sp, #4]
 2498 001c 1B0C     		lsrs	r3, r3, #16
 2499              		.loc 1 759 65
 2500 001e DBB2     		uxtb	r3, r3
 2501              		.loc 1 759 13
 2502 0020 03F00F03 		and	r3, r3, #15
 2503 0024 8DF80D30 		strb	r3, [sp, #13]
 2504              	.LBB109:
 760:libraries/zf_driver/zf_driver_exti.c **** 
 761:libraries/zf_driver/zf_driver_exti.c ****     do
 762:libraries/zf_driver/zf_driver_exti.c ****     {
 763:libraries/zf_driver/zf_driver_exti.c ****         zf_gpio_pin_enum pin = (zf_gpio_pin_enum)(channel & EXTI_PIN_INDEX_MASK);
 2505              		.loc 1 763 32
 2506 0028 019B     		ldr	r3, [sp, #4]
 2507 002a 9BB2     		uxth	r3, r3
 2508              		.loc 1 763 26
 2509 002c C3F30B03 		ubfx	r3, r3, #0, #12
 2510 0030 ADF80A30 		strh	r3, [sp, #10]	@ movhi
 764:libraries/zf_driver/zf_driver_exti.c **** 
 765:libraries/zf_driver/zf_driver_exti.c ****         if(zf_exti_assert(PIN_NULL !=                                           // Ê£ÄÊü• ÂØπÂ∫îÈÄö
 2511              		.loc 1 765 12
 2512 0034 9DF80E20 		ldrb	r2, [sp, #14]	@ zero_extendqisi2
 2513 0038 9DF80D10 		ldrb	r1, [sp, #13]	@ zero_extendqisi2
 2514 003c C248     		ldr	r0, .L177
 2515 003e 1346     		mov	r3, r2
 2516 0040 9B00     		lsls	r3, r3, #2
 2517 0042 1344     		add	r3, r3, r2
 2518 0044 9B00     		lsls	r3, r3, #2
 2519 0046 0B44     		add	r3, r3, r1
 2520 0048 5B00     		lsls	r3, r3, #1
 2521 004a 0344     		add	r3, r3, r0
 2522 004c 9B88     		ldrh	r3, [r3, #4]
 2523              		.loc 1 765 11
 2524 004e 40F6FF72 		movw	r2, #4095
 2525 0052 9342     		cmp	r3, r2
 2526 0054 0CD1     		bne	.L160
 2527              		.loc 1 765 12 discriminator 1
 2528 0056 0022     		movs	r2, #0
 2529 0058 40F2FD21 		movw	r1, #765
 2530 005c BB48     		ldr	r0, .L177+4
 2531 005e FFF7FEFF 		bl	zf_exti_assert_handler
 2532 0062 0346     		mov	r3, r0
 2533 0064 002B     		cmp	r3, #0
 2534 0066 03D0     		beq	.L160
 766:libraries/zf_driver/zf_driver_exti.c ****             exti_obj_list[exti_index].pin_list[exti_channel]))
 767:libraries/zf_driver/zf_driver_exti.c ****         {
 768:libraries/zf_driver/zf_driver_exti.c ****             // Ê≠§Â§ÑÂ¶ÇÊûúÊñ≠Ë®ÄÊä•Èîô ÈÇ£‰πàËØÅÊòéÊú¨ÈÄöÈÅìÊ≤°ÊúâÂàùÂßãÂåñËøá ÊòØ‰∏çÂÖÅËÆ∏Áõ¥Êé•Ê
 769:libraries/zf_driver/zf_driver_exti.c ****             // Êú™ÂàùÂßãÂåñÊ®°ÂùóÂæàÂèØËÉΩÊ≤°ÊúâÂºÄÂêØÊ®°ÂùóÊó∂ÈíüÊàñËÄÖÊ≤°Êúâ‰ΩøËÉΩÊ®°Âùó
 770:libraries/zf_driver/zf_driver_exti.c ****             // ÂØπ‰∫éÈÉ®ÂàÜÂçïÁâáÊú∫Ê≤°Êúâ‰ΩøËÉΩÊ®°ÂùóÁõ¥Êé•Êìç‰Ωú‰ºöÂØºËá¥ÊÄªÁ∫øÂºÇÂ∏∏ÊàñËÄÖÁ°¨‰ª∂
 771:libraries/zf_driver/zf_driver_exti.c ****             return_state = EXTI_ERROR_MODULE_NOT_INIT;
 2535              		.loc 1 771 26
 2536 0068 2123     		movs	r3, #33
 2537 006a 8DF80F30 		strb	r3, [sp, #15]
 772:libraries/zf_driver/zf_driver_exti.c ****             break;
 2538              		.loc 1 772 13
 2539 006e 64E1     		b	.L161
 2540              	.L160:
 773:libraries/zf_driver/zf_driver_exti.c ****         }
 774:libraries/zf_driver/zf_driver_exti.c ****         if(zf_exti_assert(pin ==                                                // Ê£ÄÊü• ÂØπÂ∫îÈÄö
 2541              		.loc 1 774 12
 2542 0070 9DF80E20 		ldrb	r2, [sp, #14]	@ zero_extendqisi2
 2543 0074 9DF80D10 		ldrb	r1, [sp, #13]	@ zero_extendqisi2
 2544 0078 B348     		ldr	r0, .L177
 2545 007a 1346     		mov	r3, r2
 2546 007c 9B00     		lsls	r3, r3, #2
 2547 007e 1344     		add	r3, r3, r2
 2548 0080 9B00     		lsls	r3, r3, #2
 2549 0082 0B44     		add	r3, r3, r1
 2550 0084 5B00     		lsls	r3, r3, #1
 2551 0086 0344     		add	r3, r3, r0
 2552 0088 9B88     		ldrh	r3, [r3, #4]
 2553              		.loc 1 774 11
 2554 008a BDF80A20 		ldrh	r2, [sp, #10]
 2555 008e 9A42     		cmp	r2, r3
 2556 0090 0CD0     		beq	.L162
 2557              		.loc 1 774 12 discriminator 1
 2558 0092 0022     		movs	r2, #0
 2559 0094 40F20631 		movw	r1, #774
 2560 0098 AC48     		ldr	r0, .L177+4
 2561 009a FFF7FEFF 		bl	zf_exti_assert_handler
 2562 009e 0346     		mov	r3, r0
 2563 00a0 002B     		cmp	r3, #0
 2564 00a2 03D0     		beq	.L162
 775:libraries/zf_driver/zf_driver_exti.c ****             exti_obj_list[exti_index].pin_list[exti_channel]))
 776:libraries/zf_driver/zf_driver_exti.c ****         {
 777:libraries/zf_driver/zf_driver_exti.c ****             // Ê≠§Â§ÑÂ¶ÇÊûúÊñ≠Ë®ÄÊä•Èîô ÈÇ£‰πàËØÅÊòéÊú¨ÈÄöÈÅìÂéüÊú¨ÂàùÂßãÂåñÂºïËÑö‰∏éÊ≥®ÈîÄÁöÑÂºïËÑ
 778:libraries/zf_driver/zf_driver_exti.c ****             // ÂàùÂßãÂåñÁî®‰ªÄ‰πàÂºïËÑö Ê≥®ÈîÄÂ∞±Áî®‰ªÄ‰πàÂºïËÑö ‰∏çË¶ÅÈöè‰æø‰π±Â°´
 779:libraries/zf_driver/zf_driver_exti.c ****             return_state = EXTI_ERROR_PIN_MISMATCH;
 2565              		.loc 1 779 26
 2566 00a4 2223     		movs	r3, #34
 2567 00a6 8DF80F30 		strb	r3, [sp, #15]
 780:libraries/zf_driver/zf_driver_exti.c ****             break;
 2568              		.loc 1 780 13
 2569 00aa 46E1     		b	.L161
 2570              	.L162:
 781:libraries/zf_driver/zf_driver_exti.c ****         }
 782:libraries/zf_driver/zf_driver_exti.c **** 
 783:libraries/zf_driver/zf_driver_exti.c ****         exti_obj_list[exti_index].pin_list[0]    = PIN_NULL;
 2571              		.loc 1 783 43
 2572 00ac 9DF80E20 		ldrb	r2, [sp, #14]	@ zero_extendqisi2
 2573              		.loc 1 783 50
 2574 00b0 A549     		ldr	r1, .L177
 2575 00b2 1346     		mov	r3, r2
 2576 00b4 9B00     		lsls	r3, r3, #2
 2577 00b6 1344     		add	r3, r3, r2
 2578 00b8 DB00     		lsls	r3, r3, #3
 2579 00ba 0B44     		add	r3, r3, r1
 2580 00bc 0433     		adds	r3, r3, #4
 2581 00be 40F6FF72 		movw	r2, #4095
 2582 00c2 1A80     		strh	r2, [r3]	@ movhi
 784:libraries/zf_driver/zf_driver_exti.c ****         exti_obj_list[exti_index].config_info   &= ~(0x00000003 << (exti_channel * 2));
 2583              		.loc 1 784 49
 2584 00c4 9DF80E20 		ldrb	r2, [sp, #14]	@ zero_extendqisi2
 2585 00c8 9F49     		ldr	r1, .L177
 2586 00ca 1346     		mov	r3, r2
 2587 00cc 9B00     		lsls	r3, r3, #2
 2588 00ce 1344     		add	r3, r3, r2
 2589 00d0 DB00     		lsls	r3, r3, #3
 2590 00d2 0B44     		add	r3, r3, r1
 2591 00d4 2433     		adds	r3, r3, #36
 2592 00d6 1B68     		ldr	r3, [r3]
 2593              		.loc 1 784 82
 2594 00d8 9DF80D20 		ldrb	r2, [sp, #13]	@ zero_extendqisi2
 2595 00dc 5200     		lsls	r2, r2, #1
 2596              		.loc 1 784 65
 2597 00de 0321     		movs	r1, #3
 2598 00e0 01FA02F2 		lsl	r2, r1, r2
 2599              		.loc 1 784 52
 2600 00e4 D243     		mvns	r2, r2
 2601 00e6 1146     		mov	r1, r2
 2602              		.loc 1 784 49
 2603 00e8 9DF80E20 		ldrb	r2, [sp, #14]	@ zero_extendqisi2
 2604 00ec 1940     		ands	r1, r1, r3
 2605 00ee 9648     		ldr	r0, .L177
 2606 00f0 1346     		mov	r3, r2
 2607 00f2 9B00     		lsls	r3, r3, #2
 2608 00f4 1344     		add	r3, r3, r2
 2609 00f6 DB00     		lsls	r3, r3, #3
 2610 00f8 0344     		add	r3, r3, r0
 2611 00fa 2433     		adds	r3, r3, #36
 2612 00fc 1960     		str	r1, [r3]
 785:libraries/zf_driver/zf_driver_exti.c **** 
 786:libraries/zf_driver/zf_driver_exti.c ****         zf_exti_disable(channel);
 2613              		.loc 1 786 9
 2614 00fe 0198     		ldr	r0, [sp, #4]
 2615 0100 FFF7FEFF 		bl	zf_exti_disable
 787:libraries/zf_driver/zf_driver_exti.c ****         zf_gpio_deinit(pin);
 2616              		.loc 1 787 9
 2617 0104 BDF80A30 		ldrh	r3, [sp, #10]
 2618 0108 1846     		mov	r0, r3
 2619 010a FFF7FEFF 		bl	zf_gpio_deinit
 788:libraries/zf_driver/zf_driver_exti.c **** 
 789:libraries/zf_driver/zf_driver_exti.c ****         switch(exti_channel)
 2620              		.loc 1 789 9
 2621 010e 9DF80D30 		ldrb	r3, [sp, #13]	@ zero_extendqisi2
 2622 0112 013B     		subs	r3, r3, #1
 2623 0114 0E2B     		cmp	r3, #14
 2624 0116 21D8     		bhi	.L163
 2625 0118 01A2     		adr	r2, .L165
 2626 011a 52F823F0 		ldr	pc, [r2, r3, lsl #2]
 2627 011e 00BF     		.p2align 2
 2628              	.L165:
 2629 0120 71010000 		.word	.L170+1
 2630 0124 87010000 		.word	.L169+1
 2631 0128 9D010000 		.word	.L168+1
 2632 012c B3010000 		.word	.L167+1
 2633 0130 C9010000 		.word	.L166+1
 2634 0134 C9010000 		.word	.L166+1
 2635 0138 C9010000 		.word	.L166+1
 2636 013c C9010000 		.word	.L166+1
 2637 0140 C9010000 		.word	.L166+1
 2638 0144 71020000 		.word	.L164+1
 2639 0148 71020000 		.word	.L164+1
 2640 014c 71020000 		.word	.L164+1
 2641 0150 71020000 		.word	.L164+1
 2642 0154 71020000 		.word	.L164+1
 2643 0158 71020000 		.word	.L164+1
 2644              		.p2align 1
 2645              	.L163:
 790:libraries/zf_driver/zf_driver_exti.c ****         {
 791:libraries/zf_driver/zf_driver_exti.c ****             default :
 792:libraries/zf_driver/zf_driver_exti.c ****             case    EXTI_CH_0   :  zf_interrupt_disable(exti_irq_index_list[exti_index][0]);    bre
 2646              		.loc 1 792 36
 2647 015c 9DF80E30 		ldrb	r3, [sp, #14]	@ zero_extendqisi2
 2648 0160 7B4A     		ldr	r2, .L177+8
 2649 0162 1B01     		lsls	r3, r3, #4
 2650 0164 1344     		add	r3, r3, r2
 2651 0166 1B78     		ldrb	r3, [r3]	@ zero_extendqisi2
 2652 0168 1846     		mov	r0, r3
 2653 016a FFF7FEFF 		bl	zf_interrupt_disable
 2654              		.loc 1 792 13
 2655 016e E1E0     		b	.L171
 2656              	.L170:
 793:libraries/zf_driver/zf_driver_exti.c ****             case    EXTI_CH_1   :  zf_interrupt_disable(exti_irq_index_list[exti_index][1]);    bre
 2657              		.loc 1 793 36
 2658 0170 9DF80E30 		ldrb	r3, [sp, #14]	@ zero_extendqisi2
 2659 0174 764A     		ldr	r2, .L177+8
 2660 0176 1B01     		lsls	r3, r3, #4
 2661 0178 1344     		add	r3, r3, r2
 2662 017a 0133     		adds	r3, r3, #1
 2663 017c 1B78     		ldrb	r3, [r3]	@ zero_extendqisi2
 2664 017e 1846     		mov	r0, r3
 2665 0180 FFF7FEFF 		bl	zf_interrupt_disable
 2666              		.loc 1 793 13
 2667 0184 D6E0     		b	.L171
 2668              	.L169:
 794:libraries/zf_driver/zf_driver_exti.c ****             case    EXTI_CH_2   :  zf_interrupt_disable(exti_irq_index_list[exti_index][2]);    bre
 2669              		.loc 1 794 36
 2670 0186 9DF80E30 		ldrb	r3, [sp, #14]	@ zero_extendqisi2
 2671 018a 714A     		ldr	r2, .L177+8
 2672 018c 1B01     		lsls	r3, r3, #4
 2673 018e 1344     		add	r3, r3, r2
 2674 0190 0233     		adds	r3, r3, #2
 2675 0192 1B78     		ldrb	r3, [r3]	@ zero_extendqisi2
 2676 0194 1846     		mov	r0, r3
 2677 0196 FFF7FEFF 		bl	zf_interrupt_disable
 2678              		.loc 1 794 13
 2679 019a CBE0     		b	.L171
 2680              	.L168:
 795:libraries/zf_driver/zf_driver_exti.c ****             case    EXTI_CH_3   :  zf_interrupt_disable(exti_irq_index_list[exti_index][3]);    bre
 2681              		.loc 1 795 36
 2682 019c 9DF80E30 		ldrb	r3, [sp, #14]	@ zero_extendqisi2
 2683 01a0 6B4A     		ldr	r2, .L177+8
 2684 01a2 1B01     		lsls	r3, r3, #4
 2685 01a4 1344     		add	r3, r3, r2
 2686 01a6 0333     		adds	r3, r3, #3
 2687 01a8 1B78     		ldrb	r3, [r3]	@ zero_extendqisi2
 2688 01aa 1846     		mov	r0, r3
 2689 01ac FFF7FEFF 		bl	zf_interrupt_disable
 2690              		.loc 1 795 13
 2691 01b0 C0E0     		b	.L171
 2692              	.L167:
 796:libraries/zf_driver/zf_driver_exti.c ****             case    EXTI_CH_4   :  zf_interrupt_disable(exti_irq_index_list[exti_index][4]);    bre
 2693              		.loc 1 796 36
 2694 01b2 9DF80E30 		ldrb	r3, [sp, #14]	@ zero_extendqisi2
 2695 01b6 664A     		ldr	r2, .L177+8
 2696 01b8 1B01     		lsls	r3, r3, #4
 2697 01ba 1344     		add	r3, r3, r2
 2698 01bc 0433     		adds	r3, r3, #4
 2699 01be 1B78     		ldrb	r3, [r3]	@ zero_extendqisi2
 2700 01c0 1846     		mov	r0, r3
 2701 01c2 FFF7FEFF 		bl	zf_interrupt_disable
 2702              		.loc 1 796 13
 2703 01c6 B5E0     		b	.L171
 2704              	.L166:
 797:libraries/zf_driver/zf_driver_exti.c ****             case    EXTI_CH_5   :
 798:libraries/zf_driver/zf_driver_exti.c ****             case    EXTI_CH_6   :
 799:libraries/zf_driver/zf_driver_exti.c ****             case    EXTI_CH_7   :
 800:libraries/zf_driver/zf_driver_exti.c ****             case    EXTI_CH_8   :
 801:libraries/zf_driver/zf_driver_exti.c ****             case    EXTI_CH_9   :
 802:libraries/zf_driver/zf_driver_exti.c ****             {
 803:libraries/zf_driver/zf_driver_exti.c ****                 if(     PIN_NULL == exti_obj_list[exti_index].pin_list[5]
 2705              		.loc 1 803 71
 2706 01c8 9DF80E20 		ldrb	r2, [sp, #14]	@ zero_extendqisi2
 2707 01cc 5E49     		ldr	r1, .L177
 2708 01ce 1346     		mov	r3, r2
 2709 01d0 9B00     		lsls	r3, r3, #2
 2710 01d2 1344     		add	r3, r3, r2
 2711 01d4 DB00     		lsls	r3, r3, #3
 2712 01d6 0B44     		add	r3, r3, r1
 2713 01d8 0E33     		adds	r3, r3, #14
 2714 01da 1B88     		ldrh	r3, [r3]
 2715              		.loc 1 803 19
 2716 01dc 40F6FF72 		movw	r2, #4095
 2717 01e0 9342     		cmp	r3, r2
 2718 01e2 40F0A480 		bne	.L175
 804:libraries/zf_driver/zf_driver_exti.c ****                     &&  PIN_NULL == exti_obj_list[exti_index].pin_list[6]
 2719              		.loc 1 804 71
 2720 01e6 9DF80E20 		ldrb	r2, [sp, #14]	@ zero_extendqisi2
 2721 01ea 5749     		ldr	r1, .L177
 2722 01ec 1346     		mov	r3, r2
 2723 01ee 9B00     		lsls	r3, r3, #2
 2724 01f0 1344     		add	r3, r3, r2
 2725 01f2 DB00     		lsls	r3, r3, #3
 2726 01f4 0B44     		add	r3, r3, r1
 2727 01f6 1033     		adds	r3, r3, #16
 2728 01f8 1B88     		ldrh	r3, [r3]
 2729              		.loc 1 804 21
 2730 01fa 40F6FF72 		movw	r2, #4095
 2731 01fe 9342     		cmp	r3, r2
 2732 0200 40F09580 		bne	.L175
 805:libraries/zf_driver/zf_driver_exti.c ****                     &&  PIN_NULL == exti_obj_list[exti_index].pin_list[7]
 2733              		.loc 1 805 71
 2734 0204 9DF80E20 		ldrb	r2, [sp, #14]	@ zero_extendqisi2
 2735 0208 4F49     		ldr	r1, .L177
 2736 020a 1346     		mov	r3, r2
 2737 020c 9B00     		lsls	r3, r3, #2
 2738 020e 1344     		add	r3, r3, r2
 2739 0210 DB00     		lsls	r3, r3, #3
 2740 0212 0B44     		add	r3, r3, r1
 2741 0214 1233     		adds	r3, r3, #18
 2742 0216 1B88     		ldrh	r3, [r3]
 2743              		.loc 1 805 21
 2744 0218 40F6FF72 		movw	r2, #4095
 2745 021c 9342     		cmp	r3, r2
 2746 021e 40F08680 		bne	.L175
 806:libraries/zf_driver/zf_driver_exti.c ****                     &&  PIN_NULL == exti_obj_list[exti_index].pin_list[8]
 2747              		.loc 1 806 71
 2748 0222 9DF80E20 		ldrb	r2, [sp, #14]	@ zero_extendqisi2
 2749 0226 4849     		ldr	r1, .L177
 2750 0228 1346     		mov	r3, r2
 2751 022a 9B00     		lsls	r3, r3, #2
 2752 022c 1344     		add	r3, r3, r2
 2753 022e DB00     		lsls	r3, r3, #3
 2754 0230 0B44     		add	r3, r3, r1
 2755 0232 1433     		adds	r3, r3, #20
 2756 0234 1B88     		ldrh	r3, [r3]
 2757              		.loc 1 806 21
 2758 0236 40F6FF72 		movw	r2, #4095
 2759 023a 9342     		cmp	r3, r2
 2760 023c 77D1     		bne	.L175
 807:libraries/zf_driver/zf_driver_exti.c ****                     &&  PIN_NULL == exti_obj_list[exti_index].pin_list[9])
 2761              		.loc 1 807 71
 2762 023e 9DF80E20 		ldrb	r2, [sp, #14]	@ zero_extendqisi2
 2763 0242 4149     		ldr	r1, .L177
 2764 0244 1346     		mov	r3, r2
 2765 0246 9B00     		lsls	r3, r3, #2
 2766 0248 1344     		add	r3, r3, r2
 2767 024a DB00     		lsls	r3, r3, #3
 2768 024c 0B44     		add	r3, r3, r1
 2769 024e 1633     		adds	r3, r3, #22
 2770 0250 1B88     		ldrh	r3, [r3]
 2771              		.loc 1 807 21
 2772 0252 40F6FF72 		movw	r2, #4095
 2773 0256 9342     		cmp	r3, r2
 2774 0258 69D1     		bne	.L175
 808:libraries/zf_driver/zf_driver_exti.c ****                     {
 809:libraries/zf_driver/zf_driver_exti.c ****                         zf_interrupt_disable(exti_irq_index_list[exti_index][5]);
 2775              		.loc 1 809 25
 2776 025a 9DF80E30 		ldrb	r3, [sp, #14]	@ zero_extendqisi2
 2777 025e 3C4A     		ldr	r2, .L177+8
 2778 0260 1B01     		lsls	r3, r3, #4
 2779 0262 1344     		add	r3, r3, r2
 2780 0264 0533     		adds	r3, r3, #5
 2781 0266 1B78     		ldrb	r3, [r3]	@ zero_extendqisi2
 2782 0268 1846     		mov	r0, r3
 2783 026a FFF7FEFF 		bl	zf_interrupt_disable
 810:libraries/zf_driver/zf_driver_exti.c ****                     }
 811:libraries/zf_driver/zf_driver_exti.c ****             }break;
 2784              		.loc 1 811 13
 2785 026e 5EE0     		b	.L175
 2786              	.L164:
 812:libraries/zf_driver/zf_driver_exti.c ****             case    EXTI_CH_10  :
 813:libraries/zf_driver/zf_driver_exti.c ****             case    EXTI_CH_11  :
 814:libraries/zf_driver/zf_driver_exti.c ****             case    EXTI_CH_12  :
 815:libraries/zf_driver/zf_driver_exti.c ****             case    EXTI_CH_13  :
 816:libraries/zf_driver/zf_driver_exti.c ****             case    EXTI_CH_14  :
 817:libraries/zf_driver/zf_driver_exti.c ****             case    EXTI_CH_15  :
 818:libraries/zf_driver/zf_driver_exti.c ****             {
 819:libraries/zf_driver/zf_driver_exti.c ****                 if(     PIN_NULL == exti_obj_list[exti_index].pin_list[10]
 2787              		.loc 1 819 71
 2788 0270 9DF80E20 		ldrb	r2, [sp, #14]	@ zero_extendqisi2
 2789 0274 3449     		ldr	r1, .L177
 2790 0276 1346     		mov	r3, r2
 2791 0278 9B00     		lsls	r3, r3, #2
 2792 027a 1344     		add	r3, r3, r2
 2793 027c DB00     		lsls	r3, r3, #3
 2794 027e 0B44     		add	r3, r3, r1
 2795 0280 1833     		adds	r3, r3, #24
 2796 0282 1B88     		ldrh	r3, [r3]
 2797              		.loc 1 819 19
 2798 0284 40F6FF72 		movw	r2, #4095
 2799 0288 9342     		cmp	r3, r2
 2800 028a 52D1     		bne	.L176
 820:libraries/zf_driver/zf_driver_exti.c ****                     &&  PIN_NULL == exti_obj_list[exti_index].pin_list[11]
 2801              		.loc 1 820 71
 2802 028c 9DF80E20 		ldrb	r2, [sp, #14]	@ zero_extendqisi2
 2803 0290 2D49     		ldr	r1, .L177
 2804 0292 1346     		mov	r3, r2
 2805 0294 9B00     		lsls	r3, r3, #2
 2806 0296 1344     		add	r3, r3, r2
 2807 0298 DB00     		lsls	r3, r3, #3
 2808 029a 0B44     		add	r3, r3, r1
 2809 029c 1A33     		adds	r3, r3, #26
 2810 029e 1B88     		ldrh	r3, [r3]
 2811              		.loc 1 820 21
 2812 02a0 40F6FF72 		movw	r2, #4095
 2813 02a4 9342     		cmp	r3, r2
 2814 02a6 44D1     		bne	.L176
 821:libraries/zf_driver/zf_driver_exti.c ****                     &&  PIN_NULL == exti_obj_list[exti_index].pin_list[12]
 2815              		.loc 1 821 71
 2816 02a8 9DF80E20 		ldrb	r2, [sp, #14]	@ zero_extendqisi2
 2817 02ac 2649     		ldr	r1, .L177
 2818 02ae 1346     		mov	r3, r2
 2819 02b0 9B00     		lsls	r3, r3, #2
 2820 02b2 1344     		add	r3, r3, r2
 2821 02b4 DB00     		lsls	r3, r3, #3
 2822 02b6 0B44     		add	r3, r3, r1
 2823 02b8 1C33     		adds	r3, r3, #28
 2824 02ba 1B88     		ldrh	r3, [r3]
 2825              		.loc 1 821 21
 2826 02bc 40F6FF72 		movw	r2, #4095
 2827 02c0 9342     		cmp	r3, r2
 2828 02c2 36D1     		bne	.L176
 822:libraries/zf_driver/zf_driver_exti.c ****                     &&  PIN_NULL == exti_obj_list[exti_index].pin_list[13]
 2829              		.loc 1 822 71
 2830 02c4 9DF80E20 		ldrb	r2, [sp, #14]	@ zero_extendqisi2
 2831 02c8 1F49     		ldr	r1, .L177
 2832 02ca 1346     		mov	r3, r2
 2833 02cc 9B00     		lsls	r3, r3, #2
 2834 02ce 1344     		add	r3, r3, r2
 2835 02d0 DB00     		lsls	r3, r3, #3
 2836 02d2 0B44     		add	r3, r3, r1
 2837 02d4 1E33     		adds	r3, r3, #30
 2838 02d6 1B88     		ldrh	r3, [r3]
 2839              		.loc 1 822 21
 2840 02d8 40F6FF72 		movw	r2, #4095
 2841 02dc 9342     		cmp	r3, r2
 2842 02de 28D1     		bne	.L176
 823:libraries/zf_driver/zf_driver_exti.c ****                     &&  PIN_NULL == exti_obj_list[exti_index].pin_list[14]
 2843              		.loc 1 823 71
 2844 02e0 9DF80E20 		ldrb	r2, [sp, #14]	@ zero_extendqisi2
 2845 02e4 1849     		ldr	r1, .L177
 2846 02e6 1346     		mov	r3, r2
 2847 02e8 9B00     		lsls	r3, r3, #2
 2848 02ea 1344     		add	r3, r3, r2
 2849 02ec DB00     		lsls	r3, r3, #3
 2850 02ee 0B44     		add	r3, r3, r1
 2851 02f0 2033     		adds	r3, r3, #32
 2852 02f2 1B88     		ldrh	r3, [r3]
 2853              		.loc 1 823 21
 2854 02f4 40F6FF72 		movw	r2, #4095
 2855 02f8 9342     		cmp	r3, r2
 2856 02fa 1AD1     		bne	.L176
 824:libraries/zf_driver/zf_driver_exti.c ****                     &&  PIN_NULL == exti_obj_list[exti_index].pin_list[15])
 2857              		.loc 1 824 71
 2858 02fc 9DF80E20 		ldrb	r2, [sp, #14]	@ zero_extendqisi2
 2859 0300 1149     		ldr	r1, .L177
 2860 0302 1346     		mov	r3, r2
 2861 0304 9B00     		lsls	r3, r3, #2
 2862 0306 1344     		add	r3, r3, r2
 2863 0308 DB00     		lsls	r3, r3, #3
 2864 030a 0B44     		add	r3, r3, r1
 2865 030c 2233     		adds	r3, r3, #34
 2866 030e 1B88     		ldrh	r3, [r3]
 2867              		.loc 1 824 21
 2868 0310 40F6FF72 		movw	r2, #4095
 2869 0314 9342     		cmp	r3, r2
 2870 0316 0CD1     		bne	.L176
 825:libraries/zf_driver/zf_driver_exti.c ****                     {
 826:libraries/zf_driver/zf_driver_exti.c ****                         zf_interrupt_disable(exti_irq_index_list[exti_index][10]);
 2871              		.loc 1 826 25
 2872 0318 9DF80E30 		ldrb	r3, [sp, #14]	@ zero_extendqisi2
 2873 031c 0C4A     		ldr	r2, .L177+8
 2874 031e 1B01     		lsls	r3, r3, #4
 2875 0320 1344     		add	r3, r3, r2
 2876 0322 0A33     		adds	r3, r3, #10
 2877 0324 1B78     		ldrb	r3, [r3]	@ zero_extendqisi2
 2878 0326 1846     		mov	r0, r3
 2879 0328 FFF7FEFF 		bl	zf_interrupt_disable
 827:libraries/zf_driver/zf_driver_exti.c ****                     }
 828:libraries/zf_driver/zf_driver_exti.c ****             }break;
 2880              		.loc 1 828 13
 2881 032c 01E0     		b	.L176
 2882              	.L175:
 811:libraries/zf_driver/zf_driver_exti.c ****             case    EXTI_CH_10  :
 2883              		.loc 1 811 13
 2884 032e 00BF     		nop
 2885 0330 00E0     		b	.L171
 2886              	.L176:
 2887              		.loc 1 828 13
 2888 0332 00BF     		nop
 2889              	.L171:
 829:libraries/zf_driver/zf_driver_exti.c ****         }
 830:libraries/zf_driver/zf_driver_exti.c **** 
 831:libraries/zf_driver/zf_driver_exti.c ****         return_state = EXTI_OPERATION_DONE;
 2890              		.loc 1 831 22
 2891 0334 0023     		movs	r3, #0
 2892 0336 8DF80F30 		strb	r3, [sp, #15]
 2893              	.L161:
 2894              	.LBE109:
 832:libraries/zf_driver/zf_driver_exti.c ****     }while(0);
 833:libraries/zf_driver/zf_driver_exti.c **** 
 834:libraries/zf_driver/zf_driver_exti.c ****     return return_state;
 2895              		.loc 1 834 12
 2896 033a 9DF80F30 		ldrb	r3, [sp, #15]	@ zero_extendqisi2
 835:libraries/zf_driver/zf_driver_exti.c **** }
 2897              		.loc 1 835 1
 2898 033e 1846     		mov	r0, r3
 2899 0340 05B0     		add	sp, sp, #20
 2900              		.cfi_def_cfa_offset 4
 2901              		@ sp needed
 2902 0342 5DF804FB 		ldr	pc, [sp], #4
 2903              	.L178:
 2904 0346 00BF     		.align	2
 2905              	.L177:
 2906 0348 00000000 		.word	exti_obj_list
 2907 034c 00000000 		.word	.LC0
 2908 0350 00000000 		.word	exti_irq_index_list
 2909              		.cfi_endproc
 2910              	.LFE193:
 2912              		.section	.text.zf_exti_channel_init,"ax",%progbits
 2913              		.align	1
 2914              		.p2align 4,,15
 2915              		.global	zf_exti_channel_init
 2916              		.syntax unified
 2917              		.thumb
 2918              		.thumb_func
 2920              	zf_exti_channel_init:
 2921              	.LFB194:
 836:libraries/zf_driver/zf_driver_exti.c **** 
 837:libraries/zf_driver/zf_driver_exti.c **** //-------------------------------------------------------------------------------------------------
 838:libraries/zf_driver/zf_driver_exti.c **** // ÂáΩÊï∞ÁÆÄ‰ªã     EXTI ‰∏≠Êñ≠ÂàùÂßãÂåñ
 839:libraries/zf_driver/zf_driver_exti.c **** // ÂèÇÊï∞ËØ¥Êòé     channel             ÈÄâÊã© EXTI ÂºïËÑö  (ËØ¶ËßÅ zf_driver_exti.h ÂÜÖ zf_exti_ch
 840:libraries/zf_driver/zf_driver_exti.c **** // ÂèÇÊï∞ËØ¥Êòé     trigger             Ëß¶Âèë‰ø°Âè∑ÊñπÂºè    (ËØ¶ËßÅ zf_driver_exti.h ÂÜÖ zf_exti_
 841:libraries/zf_driver/zf_driver_exti.c **** // ÂèÇÊï∞ËØ¥Êòé     callback            ÂõûË∞ÉÂáΩÊï∞ ‰∏∫Êó†ËøîÂõûÂÄº uint32 ptr ‰∏§‰∏™ÂèÇÊï∞ÁöÑÂáΩÊ
 842:libraries/zf_driver/zf_driver_exti.c **** // ÂèÇÊï∞ËØ¥Êòé     *ptr                ÂõûË∞ÉÂèÇÊï∞ Áî®Êà∑Ëá™ÊãüÂÆöÁöÑÂèÇÊï∞ÊåáÈíà ‰∏çÈúÄË¶ÅÁöÑËØù
 843:libraries/zf_driver/zf_driver_exti.c **** // ËøîÂõûÂèÇÊï∞     uint8               Êìç‰ΩúÁä∂ÊÄÅ ZF_NO_ERROR / EXTI_OPERATION_DONE - ÂÆåÊàê ÂÖ∂
 844:libraries/zf_driver/zf_driver_exti.c **** // ‰ΩøÁî®Á§∫‰æã     zf_exti_channel_init(channel, trigger, callback, ptr);
 845:libraries/zf_driver/zf_driver_exti.c **** // Â§áÊ≥®‰ø°ÊÅØ     ÂàùÂßãÂåñ A0 ‰ΩøÁî®ÂÆå‰πãÂêé Â∫îÂΩìÊ≥®ÈîÄ A0 ÂàùÂßãÂåñ
 846:libraries/zf_driver/zf_driver_exti.c **** //              ‰πãÂêéÂÜçËøõË°å B0 ÁöÑÂàùÂßãÂåñ Áõ¥Êé•Â∞±ËøõË°å B0 ÂàùÂßãÂåñ‰ºöÊñ≠Ë®ÄÊä•Èîô
 847:libraries/zf_driver/zf_driver_exti.c **** //-------------------------------------------------------------------------------------------------
 848:libraries/zf_driver/zf_driver_exti.c **** uint8 zf_exti_channel_init (zf_exti_channel_pin_enum channel, zf_exti_trigger_enum trigger, void_ca
 849:libraries/zf_driver/zf_driver_exti.c **** {
 2922              		.loc 1 849 1
 2923              		.cfi_startproc
 2924              		@ args = 0, pretend = 0, frame = 40
 2925              		@ frame_needed = 0, uses_anonymous_args = 0
 2926 0000 00B5     		push	{lr}
 2927              		.cfi_def_cfa_offset 4
 2928              		.cfi_offset 14, -4
 2929 0002 8BB0     		sub	sp, sp, #44
 2930              		.cfi_def_cfa_offset 48
 2931 0004 0390     		str	r0, [sp, #12]
 2932 0006 0192     		str	r2, [sp, #4]
 2933 0008 0093     		str	r3, [sp]
 2934 000a 0B46     		mov	r3, r1
 2935 000c 8DF80B30 		strb	r3, [sp, #11]
 850:libraries/zf_driver/zf_driver_exti.c ****     zf_exti_operation_state_enum return_state = EXTI_ERROR_UNKNOW;
 2936              		.loc 1 850 34
 2937 0010 0123     		movs	r3, #1
 2938 0012 8DF82730 		strb	r3, [sp, #39]
 851:libraries/zf_driver/zf_driver_exti.c **** 
 852:libraries/zf_driver/zf_driver_exti.c ****     uint8   exti_index      = ((channel >> EXTI_INDEX_OFFSET) & EXTI_INDEX_MASK);
 2939              		.loc 1 852 41
 2940 0016 039B     		ldr	r3, [sp, #12]
 2941 0018 1B0B     		lsrs	r3, r3, #12
 2942              		.loc 1 852 63
 2943 001a DBB2     		uxtb	r3, r3
 2944              		.loc 1 852 13
 2945 001c 03F00F03 		and	r3, r3, #15
 2946 0020 8DF81B30 		strb	r3, [sp, #27]
 853:libraries/zf_driver/zf_driver_exti.c ****     uint8   exti_channel    = ((channel >> EXTI_CHANNEL_OFFSET) & EXTI_CHANNEL_MASK);
 2947              		.loc 1 853 41
 2948 0024 039B     		ldr	r3, [sp, #12]
 2949 0026 1B0C     		lsrs	r3, r3, #16
 2950              		.loc 1 853 65
 2951 0028 DBB2     		uxtb	r3, r3
 2952              		.loc 1 853 13
 2953 002a 03F00F03 		and	r3, r3, #15
 2954 002e 8DF81A30 		strb	r3, [sp, #26]
 2955              	.LBB110:
 854:libraries/zf_driver/zf_driver_exti.c **** 
 855:libraries/zf_driver/zf_driver_exti.c ****     do
 856:libraries/zf_driver/zf_driver_exti.c ****     {
 857:libraries/zf_driver/zf_driver_exti.c ****         if(zf_exti_assert(PIN_NULL ==                                           // Ê£ÄÊü• ÂØπÂ∫îÈÄö
 2956              		.loc 1 857 12
 2957 0032 9DF81B20 		ldrb	r2, [sp, #27]	@ zero_extendqisi2
 2958 0036 9DF81A10 		ldrb	r1, [sp, #26]	@ zero_extendqisi2
 2959 003a 9848     		ldr	r0, .L188
 2960 003c 1346     		mov	r3, r2
 2961 003e 9B00     		lsls	r3, r3, #2
 2962 0040 1344     		add	r3, r3, r2
 2963 0042 9B00     		lsls	r3, r3, #2
 2964 0044 0B44     		add	r3, r3, r1
 2965 0046 5B00     		lsls	r3, r3, #1
 2966 0048 0344     		add	r3, r3, r0
 2967 004a 9B88     		ldrh	r3, [r3, #4]
 2968              		.loc 1 857 11
 2969 004c 40F6FF72 		movw	r2, #4095
 2970 0050 9342     		cmp	r3, r2
 2971 0052 0CD0     		beq	.L180
 2972              		.loc 1 857 12 discriminator 1
 2973 0054 0022     		movs	r2, #0
 2974 0056 40F25931 		movw	r1, #857
 2975 005a 9148     		ldr	r0, .L188+4
 2976 005c FFF7FEFF 		bl	zf_exti_assert_handler
 2977 0060 0346     		mov	r3, r0
 2978 0062 002B     		cmp	r3, #0
 2979 0064 03D0     		beq	.L180
 858:libraries/zf_driver/zf_driver_exti.c ****             exti_obj_list[exti_index].pin_list[exti_channel]))
 859:libraries/zf_driver/zf_driver_exti.c ****         {
 860:libraries/zf_driver/zf_driver_exti.c ****             // Ê≠§Â§ÑÂ¶ÇÊûúÊñ≠Ë®ÄÊä•Èîô ÈÇ£‰πàËØÅÊòéÊú¨ÈÄöÈÅìÂ∑≤ÁªèÂàùÂßãÂåñËøá‰∫Ü ÊòØ‰∏çÂÖÅËÆ∏Ë¶ÜÁ
 861:libraries/zf_driver/zf_driver_exti.c ****             // Â¶ÇÊûúË¶ÅÊõ¥ÊîπÊú¨ÈÄöÈÅìÁöÑÂºïËÑö Â∫îËØ•ÂÖàË∞ÉÁî®Ê≥®ÈîÄÂàùÂßãÂåñ ‰πãÂêéÂÜçÈáçÊñ∞ÂàùÂ
 862:libraries/zf_driver/zf_driver_exti.c ****             return_state = EXTI_ERROR_MODULE_OCCUPIED;
 2980              		.loc 1 862 26
 2981 0066 2023     		movs	r3, #32
 2982 0068 8DF82730 		strb	r3, [sp, #39]
 863:libraries/zf_driver/zf_driver_exti.c ****             break;
 2983              		.loc 1 863 13
 2984 006c 10E1     		b	.L181
 2985              	.L180:
 864:libraries/zf_driver/zf_driver_exti.c ****         }
 865:libraries/zf_driver/zf_driver_exti.c ****         if(zf_exti_assert(NULL != callback))                                    // Ê£ÄÊü• ÂõûË∞ÉÂáΩ
 2986              		.loc 1 865 11
 2987 006e 019B     		ldr	r3, [sp, #4]
 2988 0070 002B     		cmp	r3, #0
 2989 0072 0CD1     		bne	.L182
 2990              		.loc 1 865 12 discriminator 1
 2991 0074 0022     		movs	r2, #0
 2992 0076 40F26131 		movw	r1, #865
 2993 007a 8948     		ldr	r0, .L188+4
 2994 007c FFF7FEFF 		bl	zf_exti_assert_handler
 2995 0080 0346     		mov	r3, r0
 2996 0082 002B     		cmp	r3, #0
 2997 0084 03D0     		beq	.L182
 866:libraries/zf_driver/zf_driver_exti.c ****         {
 867:libraries/zf_driver/zf_driver_exti.c ****             // Ê≠§Â§ÑÂ¶ÇÊûúÊñ≠Ë®ÄÊä•Èîô ÈÇ£‰πàËØÅÊòéÂõûË∞ÉÂáΩÊï∞‰∏∫Á©∫ÊåáÈíà ÊòØ‰∏çÂÖÅËÆ∏ÁöÑ
 868:libraries/zf_driver/zf_driver_exti.c ****             // ‰∏≠Êñ≠ÂøÖÈ°ªËÆæÁΩÆÊúâÊïàÁöÑÂõûË∞ÉÂáΩÊï∞ Âê¶Âàô‰ºöÂØºËá¥Á®ãÂ∫èÂºÇÂ∏∏
 869:libraries/zf_driver/zf_driver_exti.c ****             return_state = EXTI_ERROR_INTERRUPT_CALLBACK_ILLEGAL;
 2998              		.loc 1 869 26
 2999 0086 2323     		movs	r3, #35
 3000 0088 8DF82730 		strb	r3, [sp, #39]
 870:libraries/zf_driver/zf_driver_exti.c ****             break;
 3001              		.loc 1 870 13
 3002 008c 00E1     		b	.L181
 3003              	.L182:
 871:libraries/zf_driver/zf_driver_exti.c ****         }
 872:libraries/zf_driver/zf_driver_exti.c **** 
 873:libraries/zf_driver/zf_driver_exti.c ****         zf_gpio_pin_enum    pin             = (zf_gpio_pin_enum)(channel & EXTI_PIN_INDEX_MASK);
 3004              		.loc 1 873 47
 3005 008e 039B     		ldr	r3, [sp, #12]
 3006 0090 9BB2     		uxth	r3, r3
 3007              		.loc 1 873 29
 3008 0092 C3F30B03 		ubfx	r3, r3, #0, #12
 3009 0096 ADF81830 		strh	r3, [sp, #24]	@ movhi
 874:libraries/zf_driver/zf_driver_exti.c ****         uint8               io_group        = (pin >> GPIO_GROUP_INDEX_OFFSET); // ÊèêÂèñIOÂàÜÁªÑ
 3010              		.loc 1 874 29
 3011 009a BDF81830 		ldrh	r3, [sp, #24]
 3012 009e 5B09     		lsrs	r3, r3, #5
 3013 00a0 9BB2     		uxth	r3, r3
 3014 00a2 8DF81730 		strb	r3, [sp, #23]
 875:libraries/zf_driver/zf_driver_exti.c ****         uint8               io_pin          = (pin & GPIO_PIN_INDEX_MASK);      // ÊèêÂèñIOÂºïËÑö‰∏
 3015              		.loc 1 875 52
 3016 00a6 BDF81830 		ldrh	r3, [sp, #24]	@ movhi
 3017 00aa DBB2     		uxtb	r3, r3
 3018              		.loc 1 875 29
 3019 00ac 03F01F03 		and	r3, r3, #31
 3020 00b0 8DF81630 		strb	r3, [sp, #22]
 876:libraries/zf_driver/zf_driver_exti.c ****         uint32              register_temp   = 0;
 3021              		.loc 1 876 29
 3022 00b4 0023     		movs	r3, #0
 3023 00b6 0493     		str	r3, [sp, #16]
 877:libraries/zf_driver/zf_driver_exti.c **** 
 878:libraries/zf_driver/zf_driver_exti.c ****         exti_obj_list[exti_index].pin_list[exti_channel]     =  pin;
 3024              		.loc 1 878 43
 3025 00b8 9DF81B20 		ldrb	r2, [sp, #27]	@ zero_extendqisi2
 3026 00bc 9DF81A10 		ldrb	r1, [sp, #26]	@ zero_extendqisi2
 3027              		.loc 1 878 62
 3028 00c0 7648     		ldr	r0, .L188
 3029 00c2 1346     		mov	r3, r2
 3030 00c4 9B00     		lsls	r3, r3, #2
 3031 00c6 1344     		add	r3, r3, r2
 3032 00c8 9B00     		lsls	r3, r3, #2
 3033 00ca 0B44     		add	r3, r3, r1
 3034 00cc 5B00     		lsls	r3, r3, #1
 3035 00ce 0344     		add	r3, r3, r0
 3036 00d0 BDF81820 		ldrh	r2, [sp, #24]	@ movhi
 3037 00d4 9A80     		strh	r2, [r3, #4]	@ movhi
 879:libraries/zf_driver/zf_driver_exti.c ****         exti_obj_list[exti_index].config_info               |=  (((uint32)trigger)   << (exti_chann
 3038              		.loc 1 879 61
 3039 00d6 9DF81B20 		ldrb	r2, [sp, #27]	@ zero_extendqisi2
 3040 00da 7049     		ldr	r1, .L188
 3041 00dc 1346     		mov	r3, r2
 3042 00de 9B00     		lsls	r3, r3, #2
 3043 00e0 1344     		add	r3, r3, r2
 3044 00e2 DB00     		lsls	r3, r3, #3
 3045 00e4 0B44     		add	r3, r3, r1
 3046 00e6 2433     		adds	r3, r3, #36
 3047 00e8 1968     		ldr	r1, [r3]
 3048              		.loc 1 879 67
 3049 00ea 9DF80B20 		ldrb	r2, [sp, #11]	@ zero_extendqisi2
 3050              		.loc 1 879 103
 3051 00ee 9DF81A30 		ldrb	r3, [sp, #26]	@ zero_extendqisi2
 3052 00f2 5B00     		lsls	r3, r3, #1
 3053              		.loc 1 879 86
 3054 00f4 02FA03F3 		lsl	r3, r2, r3
 3055              		.loc 1 879 61
 3056 00f8 9DF81B20 		ldrb	r2, [sp, #27]	@ zero_extendqisi2
 3057 00fc 1943     		orrs	r1, r1, r3
 3058 00fe 6748     		ldr	r0, .L188
 3059 0100 1346     		mov	r3, r2
 3060 0102 9B00     		lsls	r3, r3, #2
 3061 0104 1344     		add	r3, r3, r2
 3062 0106 DB00     		lsls	r3, r3, #3
 3063 0108 0344     		add	r3, r3, r0
 3064 010a 2433     		adds	r3, r3, #36
 3065 010c 1960     		str	r1, [r3]
 880:libraries/zf_driver/zf_driver_exti.c **** 
 881:libraries/zf_driver/zf_driver_exti.c ****         zf_rcc_clock_enable(RCC_INDEX_SYSCFG);
 3066              		.loc 1 881 9
 3067 010e 0520     		movs	r0, #5
 3068 0110 FFF7FEFF 		bl	zf_rcc_clock_enable
 882:libraries/zf_driver/zf_driver_exti.c **** 
 883:libraries/zf_driver/zf_driver_exti.c ****         register_temp  = SYSCFG->EXTICR[io_pin / 4];
 3069              		.loc 1 883 32
 3070 0114 4FF08442 		mov	r2, #1107296256
 3071              		.loc 1 883 48
 3072 0118 9DF81630 		ldrb	r3, [sp, #22]	@ zero_extendqisi2
 3073 011c 9B08     		lsrs	r3, r3, #2
 3074 011e DBB2     		uxtb	r3, r3
 3075              		.loc 1 883 24
 3076 0120 0233     		adds	r3, r3, #2
 3077 0122 52F82330 		ldr	r3, [r2, r3, lsl #2]
 3078 0126 0493     		str	r3, [sp, #16]
 884:libraries/zf_driver/zf_driver_exti.c ****         register_temp &= ~(0x0000000F << ((io_pin % 4) * 4));
 3079              		.loc 1 884 51
 3080 0128 9DF81630 		ldrb	r3, [sp, #22]	@ zero_extendqisi2
 3081 012c 03F00303 		and	r3, r3, #3
 3082              		.loc 1 884 56
 3083 0130 9B00     		lsls	r3, r3, #2
 3084              		.loc 1 884 39
 3085 0132 0F22     		movs	r2, #15
 3086 0134 02FA03F3 		lsl	r3, r2, r3
 3087              		.loc 1 884 26
 3088 0138 DB43     		mvns	r3, r3
 3089 013a 1A46     		mov	r2, r3
 3090              		.loc 1 884 23
 3091 013c 049B     		ldr	r3, [sp, #16]
 3092 013e 1340     		ands	r3, r3, r2
 3093 0140 0493     		str	r3, [sp, #16]
 885:libraries/zf_driver/zf_driver_exti.c ****         register_temp |= (io_group << ((io_pin % 4) * 4));
 3094              		.loc 1 885 36
 3095 0142 9DF81720 		ldrb	r2, [sp, #23]	@ zero_extendqisi2
 3096              		.loc 1 885 48
 3097 0146 9DF81630 		ldrb	r3, [sp, #22]	@ zero_extendqisi2
 3098 014a 03F00303 		and	r3, r3, #3
 3099              		.loc 1 885 53
 3100 014e 9B00     		lsls	r3, r3, #2
 3101              		.loc 1 885 36
 3102 0150 02FA03F3 		lsl	r3, r2, r3
 3103 0154 1A46     		mov	r2, r3
 3104              		.loc 1 885 23
 3105 0156 049B     		ldr	r3, [sp, #16]
 3106 0158 1343     		orrs	r3, r3, r2
 3107 015a 0493     		str	r3, [sp, #16]
 886:libraries/zf_driver/zf_driver_exti.c ****         SYSCFG->EXTICR[io_pin / 4] = register_temp;
 3108              		.loc 1 886 15
 3109 015c 4FF08441 		mov	r1, #1107296256
 3110              		.loc 1 886 31
 3111 0160 9DF81630 		ldrb	r3, [sp, #22]	@ zero_extendqisi2
 3112 0164 9B08     		lsrs	r3, r3, #2
 3113 0166 DBB2     		uxtb	r3, r3
 3114              		.loc 1 886 36
 3115 0168 0233     		adds	r3, r3, #2
 3116 016a 049A     		ldr	r2, [sp, #16]
 3117 016c 41F82320 		str	r2, [r1, r3, lsl #2]
 887:libraries/zf_driver/zf_driver_exti.c **** 
 888:libraries/zf_driver/zf_driver_exti.c ****         zf_gpio_init(pin, GPI_PULL_UP, GPIO_HIGH);
 3118              		.loc 1 888 9
 3119 0170 BDF81830 		ldrh	r3, [sp, #24]
 3120 0174 0122     		movs	r2, #1
 3121 0176 0321     		movs	r1, #3
 3122 0178 1846     		mov	r0, r3
 3123 017a FFF7FEFF 		bl	zf_gpio_init
 889:libraries/zf_driver/zf_driver_exti.c **** 
 890:libraries/zf_driver/zf_driver_exti.c ****         uint32 register_rtsr1 = exti_obj_list[exti_index].exti_ptr->RTSR1;
 3124              		.loc 1 890 58
 3125 017e 9DF81B20 		ldrb	r2, [sp, #27]	@ zero_extendqisi2
 3126 0182 4649     		ldr	r1, .L188
 3127 0184 1346     		mov	r3, r2
 3128 0186 9B00     		lsls	r3, r3, #2
 3129 0188 1344     		add	r3, r3, r2
 3130 018a DB00     		lsls	r3, r3, #3
 3131 018c 0B44     		add	r3, r3, r1
 3132 018e 1B68     		ldr	r3, [r3]
 3133              		.loc 1 890 16
 3134 0190 1B68     		ldr	r3, [r3]
 3135 0192 0893     		str	r3, [sp, #32]
 891:libraries/zf_driver/zf_driver_exti.c ****         uint32 register_ftsr1 = exti_obj_list[exti_index].exti_ptr->FTSR1;
 3136              		.loc 1 891 58
 3137 0194 9DF81B20 		ldrb	r2, [sp, #27]	@ zero_extendqisi2
 3138 0198 4049     		ldr	r1, .L188
 3139 019a 1346     		mov	r3, r2
 3140 019c 9B00     		lsls	r3, r3, #2
 3141 019e 1344     		add	r3, r3, r2
 3142 01a0 DB00     		lsls	r3, r3, #3
 3143 01a2 0B44     		add	r3, r3, r1
 3144 01a4 1B68     		ldr	r3, [r3]
 3145              		.loc 1 891 16
 3146 01a6 5B68     		ldr	r3, [r3, #4]
 3147 01a8 0793     		str	r3, [sp, #28]
 892:libraries/zf_driver/zf_driver_exti.c ****         switch(trigger)
 3148              		.loc 1 892 9
 3149 01aa 9DF80B30 		ldrb	r3, [sp, #11]	@ zero_extendqisi2
 3150 01ae 032B     		cmp	r3, #3
 3151 01b0 2ED0     		beq	.L183
 3152 01b2 032B     		cmp	r3, #3
 3153 01b4 3FDC     		bgt	.L184
 3154 01b6 012B     		cmp	r3, #1
 3155 01b8 02D0     		beq	.L185
 3156 01ba 022B     		cmp	r3, #2
 3157 01bc 14D0     		beq	.L186
 3158 01be 3AE0     		b	.L184
 3159              	.L185:
 893:libraries/zf_driver/zf_driver_exti.c ****         {
 894:libraries/zf_driver/zf_driver_exti.c ****             case EXTI_TRIGGER_TYPE_RISING:
 895:libraries/zf_driver/zf_driver_exti.c ****             {
 896:libraries/zf_driver/zf_driver_exti.c ****                 register_rtsr1 |=  (0x00000001 << io_pin);
 3160              		.loc 1 896 48
 3161 01c0 9DF81630 		ldrb	r3, [sp, #22]	@ zero_extendqisi2
 3162 01c4 0122     		movs	r2, #1
 3163 01c6 02FA03F3 		lsl	r3, r2, r3
 3164 01ca 1A46     		mov	r2, r3
 3165              		.loc 1 896 32
 3166 01cc 089B     		ldr	r3, [sp, #32]
 3167 01ce 1343     		orrs	r3, r3, r2
 3168 01d0 0893     		str	r3, [sp, #32]
 897:libraries/zf_driver/zf_driver_exti.c ****                 register_ftsr1 &= ~(0x00000001 << io_pin);
 3169              		.loc 1 897 48
 3170 01d2 9DF81630 		ldrb	r3, [sp, #22]	@ zero_extendqisi2
 3171 01d6 0122     		movs	r2, #1
 3172 01d8 02FA03F3 		lsl	r3, r2, r3
 3173              		.loc 1 897 35
 3174 01dc DB43     		mvns	r3, r3
 3175 01de 1A46     		mov	r2, r3
 3176              		.loc 1 897 32
 3177 01e0 079B     		ldr	r3, [sp, #28]
 3178 01e2 1340     		ands	r3, r3, r2
 3179 01e4 0793     		str	r3, [sp, #28]
 898:libraries/zf_driver/zf_driver_exti.c ****             }break;
 3180              		.loc 1 898 13
 3181 01e6 26E0     		b	.L184
 3182              	.L186:
 899:libraries/zf_driver/zf_driver_exti.c ****             case EXTI_TRIGGER_TYPE_FALLING:
 900:libraries/zf_driver/zf_driver_exti.c ****             {
 901:libraries/zf_driver/zf_driver_exti.c ****                 register_rtsr1 &= ~(0x00000001 << io_pin);
 3183              		.loc 1 901 48
 3184 01e8 9DF81630 		ldrb	r3, [sp, #22]	@ zero_extendqisi2
 3185 01ec 0122     		movs	r2, #1
 3186 01ee 02FA03F3 		lsl	r3, r2, r3
 3187              		.loc 1 901 35
 3188 01f2 DB43     		mvns	r3, r3
 3189 01f4 1A46     		mov	r2, r3
 3190              		.loc 1 901 32
 3191 01f6 089B     		ldr	r3, [sp, #32]
 3192 01f8 1340     		ands	r3, r3, r2
 3193 01fa 0893     		str	r3, [sp, #32]
 902:libraries/zf_driver/zf_driver_exti.c ****                 register_ftsr1 |=  (0x00000001 << io_pin);
 3194              		.loc 1 902 48
 3195 01fc 9DF81630 		ldrb	r3, [sp, #22]	@ zero_extendqisi2
 3196 0200 0122     		movs	r2, #1
 3197 0202 02FA03F3 		lsl	r3, r2, r3
 3198 0206 1A46     		mov	r2, r3
 3199              		.loc 1 902 32
 3200 0208 079B     		ldr	r3, [sp, #28]
 3201 020a 1343     		orrs	r3, r3, r2
 3202 020c 0793     		str	r3, [sp, #28]
 903:libraries/zf_driver/zf_driver_exti.c ****             }break;
 3203              		.loc 1 903 13
 3204 020e 12E0     		b	.L184
 3205              	.L183:
 904:libraries/zf_driver/zf_driver_exti.c ****             case EXTI_TRIGGER_TYPE_BOTH:
 905:libraries/zf_driver/zf_driver_exti.c ****             {
 906:libraries/zf_driver/zf_driver_exti.c ****                 register_rtsr1 |=  (0x00000001 << io_pin);
 3206              		.loc 1 906 48
 3207 0210 9DF81630 		ldrb	r3, [sp, #22]	@ zero_extendqisi2
 3208 0214 0122     		movs	r2, #1
 3209 0216 02FA03F3 		lsl	r3, r2, r3
 3210 021a 1A46     		mov	r2, r3
 3211              		.loc 1 906 32
 3212 021c 089B     		ldr	r3, [sp, #32]
 3213 021e 1343     		orrs	r3, r3, r2
 3214 0220 0893     		str	r3, [sp, #32]
 907:libraries/zf_driver/zf_driver_exti.c ****                 register_ftsr1 |=  (0x00000001 << io_pin);
 3215              		.loc 1 907 48
 3216 0222 9DF81630 		ldrb	r3, [sp, #22]	@ zero_extendqisi2
 3217 0226 0122     		movs	r2, #1
 3218 0228 02FA03F3 		lsl	r3, r2, r3
 3219 022c 1A46     		mov	r2, r3
 3220              		.loc 1 907 32
 3221 022e 079B     		ldr	r3, [sp, #28]
 3222 0230 1343     		orrs	r3, r3, r2
 3223 0232 0793     		str	r3, [sp, #28]
 908:libraries/zf_driver/zf_driver_exti.c ****             }break;
 3224              		.loc 1 908 13
 3225 0234 00BF     		nop
 3226              	.L184:
 909:libraries/zf_driver/zf_driver_exti.c ****         }
 910:libraries/zf_driver/zf_driver_exti.c ****         exti_obj_list[exti_index].exti_ptr->RTSR1 = register_rtsr1;
 3227              		.loc 1 910 34
 3228 0236 9DF81B20 		ldrb	r2, [sp, #27]	@ zero_extendqisi2
 3229 023a 1849     		ldr	r1, .L188
 3230 023c 1346     		mov	r3, r2
 3231 023e 9B00     		lsls	r3, r3, #2
 3232 0240 1344     		add	r3, r3, r2
 3233 0242 DB00     		lsls	r3, r3, #3
 3234 0244 0B44     		add	r3, r3, r1
 3235 0246 1B68     		ldr	r3, [r3]
 3236              		.loc 1 910 51
 3237 0248 089A     		ldr	r2, [sp, #32]
 3238 024a 1A60     		str	r2, [r3]
 911:libraries/zf_driver/zf_driver_exti.c ****         exti_obj_list[exti_index].exti_ptr->FTSR1 = register_ftsr1;
 3239              		.loc 1 911 34
 3240 024c 9DF81B20 		ldrb	r2, [sp, #27]	@ zero_extendqisi2
 3241 0250 1249     		ldr	r1, .L188
 3242 0252 1346     		mov	r3, r2
 3243 0254 9B00     		lsls	r3, r3, #2
 3244 0256 1344     		add	r3, r3, r2
 3245 0258 DB00     		lsls	r3, r3, #3
 3246 025a 0B44     		add	r3, r3, r1
 3247 025c 1B68     		ldr	r3, [r3]
 3248              		.loc 1 911 51
 3249 025e 079A     		ldr	r2, [sp, #28]
 3250 0260 5A60     		str	r2, [r3, #4]
 912:libraries/zf_driver/zf_driver_exti.c **** 
 913:libraries/zf_driver/zf_driver_exti.c ****         zf_exti_set_callback(channel, callback, ptr);
 3251              		.loc 1 913 9
 3252 0262 009A     		ldr	r2, [sp]
 3253 0264 0199     		ldr	r1, [sp, #4]
 3254 0266 0398     		ldr	r0, [sp, #12]
 3255 0268 FFF7FEFF 		bl	zf_exti_set_callback
 914:libraries/zf_driver/zf_driver_exti.c ****         zf_exti_enable(channel);
 3256              		.loc 1 914 9
 3257 026c 0398     		ldr	r0, [sp, #12]
 3258 026e FFF7FEFF 		bl	zf_exti_enable
 915:libraries/zf_driver/zf_driver_exti.c **** 
 916:libraries/zf_driver/zf_driver_exti.c ****         zf_interrupt_enable(exti_irq_index_list[exti_index][io_pin]);
 3259              		.loc 1 916 9
 3260 0272 9DF81B20 		ldrb	r2, [sp, #27]	@ zero_extendqisi2
 3261 0276 9DF81630 		ldrb	r3, [sp, #22]	@ zero_extendqisi2
 3262 027a 0A49     		ldr	r1, .L188+8
 3263 027c 1201     		lsls	r2, r2, #4
 3264 027e 0A44     		add	r2, r2, r1
 3265 0280 1344     		add	r3, r3, r2
 3266 0282 1B78     		ldrb	r3, [r3]	@ zero_extendqisi2
 3267 0284 1846     		mov	r0, r3
 3268 0286 FFF7FEFF 		bl	zf_interrupt_enable
 917:libraries/zf_driver/zf_driver_exti.c **** 
 918:libraries/zf_driver/zf_driver_exti.c ****         return_state = EXTI_OPERATION_DONE;
 3269              		.loc 1 918 22
 3270 028a 0023     		movs	r3, #0
 3271 028c 8DF82730 		strb	r3, [sp, #39]
 3272              	.L181:
 3273              	.LBE110:
 919:libraries/zf_driver/zf_driver_exti.c ****     }while(0);
 920:libraries/zf_driver/zf_driver_exti.c **** 
 921:libraries/zf_driver/zf_driver_exti.c ****     return return_state;
 3274              		.loc 1 921 12
 3275 0290 9DF82730 		ldrb	r3, [sp, #39]	@ zero_extendqisi2
 922:libraries/zf_driver/zf_driver_exti.c **** }
 3276              		.loc 1 922 1
 3277 0294 1846     		mov	r0, r3
 3278 0296 0BB0     		add	sp, sp, #44
 3279              		.cfi_def_cfa_offset 4
 3280              		@ sp needed
 3281 0298 5DF804FB 		ldr	pc, [sp], #4
 3282              	.L189:
 3283              		.align	2
 3284              	.L188:
 3285 029c 00000000 		.word	exti_obj_list
 3286 02a0 00000000 		.word	.LC0
 3287 02a4 00000000 		.word	exti_irq_index_list
 3288              		.cfi_endproc
 3289              	.LFE194:
 3291              		.text
 3292              	.Letext0:
 3293              		.file 3 "c:\\stellarstudio-7.0\\sdks\\tools-1.4.0\\toolchain\\arm\\mingw64_nt\\10.3-2021.10\\arm-n
 3294              		.file 4 "c:\\stellarstudio-7.0\\sdks\\tools-1.4.0\\toolchain\\arm\\mingw64_nt\\10.3-2021.10\\arm-n
 3295              		.file 5 "libraries/zf_common/zf_common_typedef.h"
 3296              		.file 6 "C:/StellarStudio-7.0/SDKS/StellarESDK-1.7.0/Modules/Platform/MCU/include/sr5e1/SR5E1_EXTI
 3297              		.file 7 "C:/StellarStudio-7.0/SDKS/StellarESDK-1.7.0/Modules/Platform/MCU/include/sr5e1/SR5E1_SYSC
 3298              		.file 8 "C:/StellarStudio-7.0/SDKS/StellarESDK-1.7.0/Modules/Platform/MCU/include/sr5e1/sr5e1xx.h"
 3299              		.file 9 "libraries/zf_driver/zf_driver_interrupt.h"
 3300              		.file 10 "libraries/zf_driver/zf_driver_rcc.h"
 3301              		.file 11 "C:/StellarStudio-7.0/SDKS/StellarESDK-1.7.0/Modules/Drivers/System/EXTI/include/exti.h"
 3302              		.file 12 "libraries/zf_driver/zf_driver_gpio.h"
 3303              		.file 13 "libraries/zf_driver/zf_driver_exti.h"