   1              		.cpu cortex-m7
   2              		.arch armv7e-m
   3              		.fpu fpv5-d16
   4              		.eabi_attribute 28, 1
   5              		.eabi_attribute 20, 1
   6              		.eabi_attribute 21, 1
   7              		.eabi_attribute 23, 3
   8              		.eabi_attribute 24, 1
   9              		.eabi_attribute 25, 1
  10              		.eabi_attribute 26, 1
  11              		.eabi_attribute 30, 6
  12              		.eabi_attribute 34, 1
  13              		.eabi_attribute 18, 4
  14              		.file	"zf_driver_soft_iic.c"
  15              		.text
  16              	.Ltext0:
  17              		.cfi_sections	.debug_frame
  18              		.global	soft_iic_obj_list
  19              		.section	.data.soft_iic_obj_list,"aw"
  20              		.align	2
  23              	soft_iic_obj_list:
  24 0000 FF0F     		.short	4095
  25 0002 FF0F     		.short	4095
  26 0004 00000000 		.word	0
  27 0008 00000000 		.word	0
  28 000c FF0F     		.short	4095
  29 000e FF0F     		.short	4095
  30 0010 00000000 		.word	0
  31 0014 00000000 		.word	0
  32 0018 FF0F     		.short	4095
  33 001a FF0F     		.short	4095
  34 001c 00000000 		.word	0
  35 0020 00000000 		.word	0
  36 0024 FF0F     		.short	4095
  37 0026 FF0F     		.short	4095
  38 0028 00000000 		.word	0
  39 002c 00000000 		.word	0
  40 0030 FF0F     		.short	4095
  41 0032 FF0F     		.short	4095
  42 0034 00000000 		.word	0
  43 0038 00000000 		.word	0
  44 003c FF0F     		.short	4095
  45 003e FF0F     		.short	4095
  46 0040 00000000 		.word	0
  47 0044 00000000 		.word	0
  48 0048 FF0F     		.short	4095
  49 004a FF0F     		.short	4095
  50 004c 00000000 		.word	0
  51 0050 00000000 		.word	0
  52 0054 FF0F     		.short	4095
  53 0056 FF0F     		.short	4095
  54 0058 00000000 		.word	0
  55 005c 00000000 		.word	0
  56              		.section	.text.zf_soft_iic_assert_handler,"ax",%progbits
  57              		.align	1
  58              		.p2align 4,,15
  59              		.global	zf_soft_iic_assert_handler
  60              		.syntax unified
  61              		.thumb
  62              		.thumb_func
  64              	zf_soft_iic_assert_handler:
  65              	.LFB172:
  66              		.file 1 "libraries/zf_driver/zf_driver_soft_iic.c"
   1:libraries/zf_driver/zf_driver_soft_iic.c **** /**************************************************************************************************
   2:libraries/zf_driver/zf_driver_soft_iic.c **** * Stellar-SR5E1E3 Opensource Library å³ï¼ˆStellar-SR5E1E3 å¼€æºåº“ï¼‰æ˜¯ä¸€ä¸ªåŸºäºå®˜æ–¹ SDK æ
   3:libraries/zf_driver/zf_driver_soft_iic.c **** * Copyright (c) 2022 SEEKFREE é€é£ç§‘æŠ€
   4:libraries/zf_driver/zf_driver_soft_iic.c **** *
   5:libraries/zf_driver/zf_driver_soft_iic.c **** * æœ¬æ–‡ä»¶æ˜¯ Stellar-SR5E1E3 å¼€æºåº“çš„ä¸€éƒ¨åˆ†
   6:libraries/zf_driver/zf_driver_soft_iic.c **** *
   7:libraries/zf_driver/zf_driver_soft_iic.c **** * Stellar-SR5E1E3 å¼€æºåº“ æ˜¯å…è´¹è½¯ä»¶
   8:libraries/zf_driver/zf_driver_soft_iic.c **** * æ‚¨å¯ä»¥æ ¹æ®è‡ªç”±è½¯ä»¶åŸºé‡‘ä¼šå‘å¸ƒçš„ GPLï¼ˆGNU General Public Licenseï¼Œå³ GNUé€šç”¨å…¬
   9:libraries/zf_driver/zf_driver_soft_iic.c **** * å³ GPL çš„ç¬¬3ç‰ˆï¼ˆå³ GPL3.0ï¼‰æˆ–ï¼ˆæ‚¨é€‰æ‹©çš„ï¼‰ä»»ä½•åæ¥çš„ç‰ˆæœ¬ï¼Œé‡æ–°å‘å¸ƒå’Œ/æˆ
  10:libraries/zf_driver/zf_driver_soft_iic.c **** *
  11:libraries/zf_driver/zf_driver_soft_iic.c **** * æœ¬å¼€æºåº“çš„å‘å¸ƒæ˜¯å¸Œæœ›å®ƒèƒ½å‘æŒ¥ä½œç”¨ï¼Œä½†å¹¶æœªå¯¹å…¶ä½œä»»ä½•çš„ä¿è¯
  12:libraries/zf_driver/zf_driver_soft_iic.c **** * ç”šè‡³æ²¡æœ‰éšå«çš„é€‚é”€æ€§æˆ–é€‚åˆç‰¹å®šç”¨é€”çš„ä¿è¯
  13:libraries/zf_driver/zf_driver_soft_iic.c **** * æ›´å¤šç»†èŠ‚è¯·å‚è§ GPL
  14:libraries/zf_driver/zf_driver_soft_iic.c **** *
  15:libraries/zf_driver/zf_driver_soft_iic.c **** * æ‚¨åº”è¯¥åœ¨æ”¶åˆ°æœ¬å¼€æºåº“çš„åŒæ—¶æ”¶åˆ°ä¸€ä»½ GPL çš„å‰¯æœ¬
  16:libraries/zf_driver/zf_driver_soft_iic.c **** * å¦‚æœæ²¡æœ‰ï¼Œè¯·å‚é˜…<https://www.gnu.org/licenses/>
  17:libraries/zf_driver/zf_driver_soft_iic.c **** *
  18:libraries/zf_driver/zf_driver_soft_iic.c **** * é¢å¤–æ³¨æ˜ï¼š
  19:libraries/zf_driver/zf_driver_soft_iic.c **** * æœ¬å¼€æºåº“ä½¿ç”¨ GPL3.0 å¼€æºè®¸å¯è¯åè®® ä»¥ä¸Šè®¸å¯ç”³æ˜ä¸ºè¯‘æ–‡ç‰ˆæœ¬
  20:libraries/zf_driver/zf_driver_soft_iic.c **** * è®¸å¯ç”³æ˜è‹±æ–‡ç‰ˆåœ¨ libraries/doc æ–‡ä»¶å¤¹ä¸‹çš„ GPL3_permission_statement.txt æ–‡ä»¶ä¸­
  21:libraries/zf_driver/zf_driver_soft_iic.c **** * è®¸å¯è¯å‰¯æœ¬åœ¨ libraries æ–‡ä»¶å¤¹ä¸‹ å³è¯¥æ–‡ä»¶å¤¹ä¸‹çš„ LICENSE æ–‡ä»¶
  22:libraries/zf_driver/zf_driver_soft_iic.c **** * æ¬¢è¿å„ä½ä½¿ç”¨å¹¶ä¼ æ’­æœ¬ç¨‹åº ä½†ä¿®æ”¹å†…å®¹æ—¶å¿…é¡»ä¿ç•™é€é£ç§‘æŠ€çš„ç‰ˆæƒå£°æ˜ï¼ˆ
  23:libraries/zf_driver/zf_driver_soft_iic.c **** *
  24:libraries/zf_driver/zf_driver_soft_iic.c **** * æ–‡ä»¶åç§°          zf_driver_soft_iic
  25:libraries/zf_driver/zf_driver_soft_iic.c **** * å…¬å¸åç§°          æˆéƒ½é€é£ç§‘æŠ€æœ‰é™å…¬å¸
  26:libraries/zf_driver/zf_driver_soft_iic.c **** * ç‰ˆæœ¬ä¿¡æ¯          æŸ¥çœ‹ libraries/doc æ–‡ä»¶å¤¹å†… version æ–‡ä»¶ ç‰ˆæœ¬è¯´æ˜
  27:libraries/zf_driver/zf_driver_soft_iic.c **** * å¼€å‘ç¯å¢ƒ          StellarStudio 7.0.0
  28:libraries/zf_driver/zf_driver_soft_iic.c **** * é€‚ç”¨å¹³å°          Stellar-SR5E1E3
  29:libraries/zf_driver/zf_driver_soft_iic.c **** * åº—é“ºé“¾æ¥          https://www.seekfree.cn/
  30:libraries/zf_driver/zf_driver_soft_iic.c **** ***************************************************************************************************
  31:libraries/zf_driver/zf_driver_soft_iic.c **** 
  32:libraries/zf_driver/zf_driver_soft_iic.c **** // zf_common å±‚å¼•ç”¨
  33:libraries/zf_driver/zf_driver_soft_iic.c **** #include "zf_common_debug.h"
  34:libraries/zf_driver/zf_driver_soft_iic.c **** #include "zf_common_memory.h"
  35:libraries/zf_driver/zf_driver_soft_iic.c **** 
  36:libraries/zf_driver/zf_driver_soft_iic.c **** // zf_driver å±‚å¼•ç”¨
  37:libraries/zf_driver/zf_driver_soft_iic.c **** #include "zf_driver_gpio.h"
  38:libraries/zf_driver/zf_driver_soft_iic.c **** 
  39:libraries/zf_driver/zf_driver_soft_iic.c **** // è‡ªèº«å¤´æ–‡ä»¶
  40:libraries/zf_driver/zf_driver_soft_iic.c **** #include "zf_driver_soft_iic.h"
  41:libraries/zf_driver/zf_driver_soft_iic.c **** 
  42:libraries/zf_driver/zf_driver_soft_iic.c **** // æ­¤å¤„å®šä¹‰ æœ¬æ–‡ä»¶ç”¨ä½¿ç”¨çš„å˜é‡ä¸å¯¹è±¡ç­‰ è¿™é‡Œä¸å…è®¸ç”¨æˆ·ä¿®æ”¹
  43:libraries/zf_driver/zf_driver_soft_iic.c **** // >>>>>>>>>>>>>>>>>>>>>>>>>>>>>>>>>>>>>>>>> Part Start >>>>>>>>>>>>>>>>>>>>>>>>>>>>>>>>>>>>>>>>>
  44:libraries/zf_driver/zf_driver_soft_iic.c **** AT_ZF_LIB_SECTION_START
  45:libraries/zf_driver/zf_driver_soft_iic.c **** // å­˜å‚¨äºé¢„å¼€è¾Ÿçš„å†…å­˜æ± ä¸­çš„ç®¡ç†ä¿¡æ¯ æœ¬éƒ¨åˆ†å¯¹äºç”¨æˆ·æ¥è¯´æ˜¯ä¸å¼€æ”¾çš„
  46:libraries/zf_driver/zf_driver_soft_iic.c **** AT_ZF_LIB_SECTION zf_soft_iic_obj_struct soft_iic_obj_list[SOFT_IIC_MAX] =
  47:libraries/zf_driver/zf_driver_soft_iic.c **** {
  48:libraries/zf_driver/zf_driver_soft_iic.c ****     {.scl_pin = PIN_NULL, .sda_pin = PIN_NULL, .delay = 0, .enable = 0},
  49:libraries/zf_driver/zf_driver_soft_iic.c ****     {.scl_pin = PIN_NULL, .sda_pin = PIN_NULL, .delay = 0, .enable = 0},
  50:libraries/zf_driver/zf_driver_soft_iic.c ****     {.scl_pin = PIN_NULL, .sda_pin = PIN_NULL, .delay = 0, .enable = 0},
  51:libraries/zf_driver/zf_driver_soft_iic.c ****     {.scl_pin = PIN_NULL, .sda_pin = PIN_NULL, .delay = 0, .enable = 0},
  52:libraries/zf_driver/zf_driver_soft_iic.c ****     {.scl_pin = PIN_NULL, .sda_pin = PIN_NULL, .delay = 0, .enable = 0},
  53:libraries/zf_driver/zf_driver_soft_iic.c ****     {.scl_pin = PIN_NULL, .sda_pin = PIN_NULL, .delay = 0, .enable = 0},
  54:libraries/zf_driver/zf_driver_soft_iic.c ****     {.scl_pin = PIN_NULL, .sda_pin = PIN_NULL, .delay = 0, .enable = 0},
  55:libraries/zf_driver/zf_driver_soft_iic.c ****     {.scl_pin = PIN_NULL, .sda_pin = PIN_NULL, .delay = 0, .enable = 0}
  56:libraries/zf_driver/zf_driver_soft_iic.c **** };
  57:libraries/zf_driver/zf_driver_soft_iic.c **** AT_ZF_LIB_SECTION_END
  58:libraries/zf_driver/zf_driver_soft_iic.c **** // <<<<<<<<<<<<<<<<<<<<<<<<<<<<<<<<<<<<<<<<< Part   End <<<<<<<<<<<<<<<<<<<<<<<<<<<<<<<<<<<<<<<<<
  59:libraries/zf_driver/zf_driver_soft_iic.c **** 
  60:libraries/zf_driver/zf_driver_soft_iic.c **** // æ­¤å¤„å®šä¹‰ æœ¬æ–‡ä»¶çš„æ‰€æœ‰å‡½æ•°å…·ä½“å®šä¹‰ è¿™é‡Œä¸å…è®¸ç”¨æˆ·ä¿®æ”¹
  61:libraries/zf_driver/zf_driver_soft_iic.c **** // >>>>>>>>>>>>>>>>>>>>>>>>>>>>>>>>>>>>>>>>> Part Start >>>>>>>>>>>>>>>>>>>>>>>>>>>>>>>>>>>>>>>>>
  62:libraries/zf_driver/zf_driver_soft_iic.c **** #define SOFT_IIC_SDA_IO_SWITCH          (0)                                     // æ˜¯å¦éœ€è¦ SDA
  63:libraries/zf_driver/zf_driver_soft_iic.c **** 
  64:libraries/zf_driver/zf_driver_soft_iic.c **** //-------------------------------------------------------------------------------------------------
  65:libraries/zf_driver/zf_driver_soft_iic.c **** // å‡½æ•°ç®€ä»‹     SOFT_IIC è®¾ç½® SDA ä¸ºè¾“å…¥
  66:libraries/zf_driver/zf_driver_soft_iic.c **** // å‚æ•°è¯´æ˜     io                  å¼•è„š
  67:libraries/zf_driver/zf_driver_soft_iic.c **** // è¿”å›å‚æ•°     void
  68:libraries/zf_driver/zf_driver_soft_iic.c **** // ä½¿ç”¨ç¤ºä¾‹     zf_soft_iic_io_in(soft_iic_obj_list[soft_iic_index].sda_pin);
  69:libraries/zf_driver/zf_driver_soft_iic.c **** // å¤‡æ³¨ä¿¡æ¯     å†…éƒ¨è°ƒç”¨
  70:libraries/zf_driver/zf_driver_soft_iic.c **** //-------------------------------------------------------------------------------------------------
  71:libraries/zf_driver/zf_driver_soft_iic.c **** #define zf_soft_iic_io_in(io)       (zf_gpio_set_dir((zf_gpio_pin_enum)io, GPI_FLOATING_IN))
  72:libraries/zf_driver/zf_driver_soft_iic.c **** 
  73:libraries/zf_driver/zf_driver_soft_iic.c **** //-------------------------------------------------------------------------------------------------
  74:libraries/zf_driver/zf_driver_soft_iic.c **** // å‡½æ•°ç®€ä»‹     SOFT_IIC è®¾ç½® SDA ä¸ºè¾“å‡º
  75:libraries/zf_driver/zf_driver_soft_iic.c **** // å‚æ•°è¯´æ˜     io                  å¼•è„š
  76:libraries/zf_driver/zf_driver_soft_iic.c **** // è¿”å›å‚æ•°     void
  77:libraries/zf_driver/zf_driver_soft_iic.c **** // ä½¿ç”¨ç¤ºä¾‹     zf_soft_iic_io_out(soft_iic_obj_list[soft_iic_index].sda_pin);
  78:libraries/zf_driver/zf_driver_soft_iic.c **** // å¤‡æ³¨ä¿¡æ¯     å†…éƒ¨è°ƒç”¨
  79:libraries/zf_driver/zf_driver_soft_iic.c **** //-------------------------------------------------------------------------------------------------
  80:libraries/zf_driver/zf_driver_soft_iic.c **** #define zf_soft_iic_io_out(io)      (zf_gpio_set_dir((zf_gpio_pin_enum)io, GPO_OPEN_DTAIN))
  81:libraries/zf_driver/zf_driver_soft_iic.c **** 
  82:libraries/zf_driver/zf_driver_soft_iic.c **** //-------------------------------------------------------------------------------------------------
  83:libraries/zf_driver/zf_driver_soft_iic.c **** // å‡½æ•°ç®€ä»‹     SOFT_IIC è®¾ç½®å¼•è„šç”µå¹³ä¸ºé«˜
  84:libraries/zf_driver/zf_driver_soft_iic.c **** // å‚æ•°è¯´æ˜     io                  å¼•è„š
  85:libraries/zf_driver/zf_driver_soft_iic.c **** // è¿”å›å‚æ•°     void
  86:libraries/zf_driver/zf_driver_soft_iic.c **** // ä½¿ç”¨ç¤ºä¾‹     zf_soft_iic_io_high(soft_iic_obj_list[soft_iic_index].scl_pin);
  87:libraries/zf_driver/zf_driver_soft_iic.c **** // å¤‡æ³¨ä¿¡æ¯     å†…éƒ¨è°ƒç”¨
  88:libraries/zf_driver/zf_driver_soft_iic.c **** //-------------------------------------------------------------------------------------------------
  89:libraries/zf_driver/zf_driver_soft_iic.c **** #define zf_soft_iic_io_high(io)     (zf_gpio_high((zf_gpio_pin_enum)io))
  90:libraries/zf_driver/zf_driver_soft_iic.c **** 
  91:libraries/zf_driver/zf_driver_soft_iic.c **** //-------------------------------------------------------------------------------------------------
  92:libraries/zf_driver/zf_driver_soft_iic.c **** // å‡½æ•°ç®€ä»‹     SOFT_IIC è®¾ç½®å¼•è„šç”µå¹³ä¸ºä½
  93:libraries/zf_driver/zf_driver_soft_iic.c **** // å‚æ•°è¯´æ˜     io                  å¼•è„š
  94:libraries/zf_driver/zf_driver_soft_iic.c **** // è¿”å›å‚æ•°     void
  95:libraries/zf_driver/zf_driver_soft_iic.c **** // ä½¿ç”¨ç¤ºä¾‹     zf_soft_iic_io_low(soft_iic_obj_list[soft_iic_index].scl_pin);
  96:libraries/zf_driver/zf_driver_soft_iic.c **** // å¤‡æ³¨ä¿¡æ¯     å†…éƒ¨è°ƒç”¨
  97:libraries/zf_driver/zf_driver_soft_iic.c **** //-------------------------------------------------------------------------------------------------
  98:libraries/zf_driver/zf_driver_soft_iic.c **** #define zf_soft_iic_io_low(io)      (zf_gpio_low ((zf_gpio_pin_enum)io))
  99:libraries/zf_driver/zf_driver_soft_iic.c **** 
 100:libraries/zf_driver/zf_driver_soft_iic.c **** //-------------------------------------------------------------------------------------------------
 101:libraries/zf_driver/zf_driver_soft_iic.c **** // å‡½æ•°ç®€ä»‹     SOFT_IIC å»¶æ—¶
 102:libraries/zf_driver/zf_driver_soft_iic.c **** // å‚æ•°è¯´æ˜     delay               å»¶æ—¶æ¬¡æ•°
 103:libraries/zf_driver/zf_driver_soft_iic.c **** // è¿”å›å‚æ•°     void
 104:libraries/zf_driver/zf_driver_soft_iic.c **** // ä½¿ç”¨ç¤ºä¾‹     zf_soft_iic_delay(1);
 105:libraries/zf_driver/zf_driver_soft_iic.c **** // å¤‡æ³¨ä¿¡æ¯     å†…éƒ¨è°ƒç”¨
 106:libraries/zf_driver/zf_driver_soft_iic.c **** //-------------------------------------------------------------------------------------------------
 107:libraries/zf_driver/zf_driver_soft_iic.c **** //static void zf_soft_iic_delay (vuint32 delay)
 108:libraries/zf_driver/zf_driver_soft_iic.c **** //{
 109:libraries/zf_driver/zf_driver_soft_iic.c **** //    volatile uint32 count = delay;
 110:libraries/zf_driver/zf_driver_soft_iic.c **** //    while(count --);
 111:libraries/zf_driver/zf_driver_soft_iic.c **** //}
 112:libraries/zf_driver/zf_driver_soft_iic.c **** #define zf_soft_iic_delay(x)  for(vuint32 i = x; i --; )
 113:libraries/zf_driver/zf_driver_soft_iic.c **** 
 114:libraries/zf_driver/zf_driver_soft_iic.c **** //-------------------------------------------------------------------------------------------------
 115:libraries/zf_driver/zf_driver_soft_iic.c **** // å‡½æ•°ç®€ä»‹     SOFT_IIC æ–­è¨€å¤„ç†
 116:libraries/zf_driver/zf_driver_soft_iic.c **** // å‚æ•°è¯´æ˜     *file               æ–‡ä»¶è·¯å¾„
 117:libraries/zf_driver/zf_driver_soft_iic.c **** // å‚æ•°è¯´æ˜     line                æŠ¥é”™è¡Œ
 118:libraries/zf_driver/zf_driver_soft_iic.c **** // å‚æ•°è¯´æ˜     *tips               è¾“å‡ºä¿¡æ¯
 119:libraries/zf_driver/zf_driver_soft_iic.c **** // è¿”å›å‚æ•°     uint8               æ“ä½œçŠ¶æ€ ZF_NO_ERROR / GPIO_OPERATION_DONE - å®Œæˆ å…¶
 120:libraries/zf_driver/zf_driver_soft_iic.c **** // ä½¿ç”¨ç¤ºä¾‹     zf_soft_iic_assert_handler(file, line, tips);
 121:libraries/zf_driver/zf_driver_soft_iic.c **** // å¤‡æ³¨ä¿¡æ¯     
 122:libraries/zf_driver/zf_driver_soft_iic.c **** //-------------------------------------------------------------------------------------------------
 123:libraries/zf_driver/zf_driver_soft_iic.c **** uint8 zf_soft_iic_assert_handler (char *file, int line, char *tips)
 124:libraries/zf_driver/zf_driver_soft_iic.c **** {
  67              		.loc 1 124 1
  68              		.cfi_startproc
  69              		@ args = 0, pretend = 0, frame = 16
  70              		@ frame_needed = 0, uses_anonymous_args = 0
  71 0000 00B5     		push	{lr}
  72              		.cfi_def_cfa_offset 4
  73              		.cfi_offset 14, -4
  74 0002 87B0     		sub	sp, sp, #28
  75              		.cfi_def_cfa_offset 32
  76 0004 0590     		str	r0, [sp, #20]
  77 0006 0491     		str	r1, [sp, #16]
  78 0008 0392     		str	r2, [sp, #12]
 125:libraries/zf_driver/zf_driver_soft_iic.c ****     debug_message_handler(DEBUG_OUTPUT_LEVEL_ASSERT, ZF_FALSE, tips, file, line);
  79              		.loc 1 125 5
  80 000a 049B     		ldr	r3, [sp, #16]
  81 000c 0093     		str	r3, [sp]
  82 000e 059B     		ldr	r3, [sp, #20]
  83 0010 039A     		ldr	r2, [sp, #12]
  84 0012 0021     		movs	r1, #0
  85 0014 0220     		movs	r0, #2
  86 0016 FFF7FEFF 		bl	debug_message_handler
  87              	.L2:
 126:libraries/zf_driver/zf_driver_soft_iic.c ****     while(1);
  88              		.loc 1 126 10 discriminator 1
  89 001a FEE7     		b	.L2
  90              		.cfi_endproc
  91              	.LFE172:
  93              		.section	.rodata
  94              		.align	2
  95              	.LC0:
  96 0000 6C696272 		.ascii	"libraries/zf_driver/zf_driver_soft_iic.c\000"
  96      61726965 
  96      732F7A66 
  96      5F647269 
  96      7665722F 
  97              		.section	.text.zf_soft_iic_start,"ax",%progbits
  98              		.align	1
  99              		.p2align 4,,15
 100              		.syntax unified
 101              		.thumb
 102              		.thumb_func
 104              	zf_soft_iic_start:
 105              	.LFB173:
 127:libraries/zf_driver/zf_driver_soft_iic.c ****     return ZF_ERROR;
 128:libraries/zf_driver/zf_driver_soft_iic.c **** }
 129:libraries/zf_driver/zf_driver_soft_iic.c **** 
 130:libraries/zf_driver/zf_driver_soft_iic.c **** //-------------------------------------------------------------------------------------------------
 131:libraries/zf_driver/zf_driver_soft_iic.c **** // å‡½æ•°ç®€ä»‹     SOFT_IIC START ä¿¡å·
 132:libraries/zf_driver/zf_driver_soft_iic.c **** // å‚æ•°è¯´æ˜     soft_iic_index      SOFT_IIC ç´¢å¼•   (è¯¦è§ zf_driver_soft_iic.h å†… zf_soft_
 133:libraries/zf_driver/zf_driver_soft_iic.c **** // è¿”å›å‚æ•°     void
 134:libraries/zf_driver/zf_driver_soft_iic.c **** // ä½¿ç”¨ç¤ºä¾‹     zf_soft_iic_start(soft_iic_index);
 135:libraries/zf_driver/zf_driver_soft_iic.c **** // å¤‡æ³¨ä¿¡æ¯     å†…éƒ¨è°ƒç”¨
 136:libraries/zf_driver/zf_driver_soft_iic.c **** //-------------------------------------------------------------------------------------------------
 137:libraries/zf_driver/zf_driver_soft_iic.c **** ZF_INLINE void zf_soft_iic_start (zf_soft_iic_index_enum soft_iic_index)
 138:libraries/zf_driver/zf_driver_soft_iic.c **** {
 106              		.loc 1 138 1
 107              		.cfi_startproc
 108              		@ args = 0, pretend = 0, frame = 24
 109              		@ frame_needed = 0, uses_anonymous_args = 0
 110 0000 10B5     		push	{r4, lr}
 111              		.cfi_def_cfa_offset 8
 112              		.cfi_offset 4, -8
 113              		.cfi_offset 14, -4
 114 0002 86B0     		sub	sp, sp, #24
 115              		.cfi_def_cfa_offset 32
 116 0004 0346     		mov	r3, r0
 117 0006 8DF80730 		strb	r3, [sp, #7]
 139:libraries/zf_driver/zf_driver_soft_iic.c ****     do
 140:libraries/zf_driver/zf_driver_soft_iic.c ****     {
 141:libraries/zf_driver/zf_driver_soft_iic.c ****         if(ZF_DISABLE == soft_iic_obj_list[soft_iic_index].enable)
 118              		.loc 1 141 59
 119 000a 9DF80720 		ldrb	r2, [sp, #7]	@ zero_extendqisi2
 120 000e AC49     		ldr	r1, .L19
 121 0010 1346     		mov	r3, r2
 122 0012 5B00     		lsls	r3, r3, #1
 123 0014 1344     		add	r3, r3, r2
 124 0016 9B00     		lsls	r3, r3, #2
 125 0018 0B44     		add	r3, r3, r1
 126 001a 0833     		adds	r3, r3, #8
 127 001c 1B68     		ldr	r3, [r3]
 128              		.loc 1 141 11
 129 001e 002B     		cmp	r3, #0
 130 0020 00F04A81 		beq	.L17
 142:libraries/zf_driver/zf_driver_soft_iic.c ****         {
 143:libraries/zf_driver/zf_driver_soft_iic.c ****             break;
 144:libraries/zf_driver/zf_driver_soft_iic.c ****         }
 145:libraries/zf_driver/zf_driver_soft_iic.c ****         zf_soft_iic_io_high (soft_iic_obj_list[soft_iic_index].scl_pin);        // SCL é«˜ç”µå¹³
 131              		.loc 1 145 9
 132 0024 9DF80720 		ldrb	r2, [sp, #7]	@ zero_extendqisi2
 133 0028 A549     		ldr	r1, .L19
 134 002a 1346     		mov	r3, r2
 135 002c 5B00     		lsls	r3, r3, #1
 136 002e 1344     		add	r3, r3, r2
 137 0030 9B00     		lsls	r3, r3, #2
 138 0032 0B44     		add	r3, r3, r1
 139 0034 1B88     		ldrh	r3, [r3]
 140 0036 40F6FF72 		movw	r2, #4095
 141 003a 9342     		cmp	r3, r2
 142 003c 30D0     		beq	.L6
 143              		.loc 1 145 9 is_stmt 0 discriminator 1
 144 003e 9DF80720 		ldrb	r2, [sp, #7]	@ zero_extendqisi2
 145 0042 9F49     		ldr	r1, .L19
 146 0044 1346     		mov	r3, r2
 147 0046 5B00     		lsls	r3, r3, #1
 148 0048 1344     		add	r3, r3, r2
 149 004a 9B00     		lsls	r3, r3, #2
 150 004c 0B44     		add	r3, r3, r1
 151 004e 1B88     		ldrh	r3, [r3]
 152 0050 5B09     		lsrs	r3, r3, #5
 153 0052 9BB2     		uxth	r3, r3
 154 0054 1A46     		mov	r2, r3
 155 0056 9B4B     		ldr	r3, .L19+4
 156 0058 53F82230 		ldr	r3, [r3, r2, lsl #2]
 157 005c 9869     		ldr	r0, [r3, #24]
 158 005e 9DF80720 		ldrb	r2, [sp, #7]	@ zero_extendqisi2
 159 0062 9749     		ldr	r1, .L19
 160 0064 1346     		mov	r3, r2
 161 0066 5B00     		lsls	r3, r3, #1
 162 0068 1344     		add	r3, r3, r2
 163 006a 9B00     		lsls	r3, r3, #2
 164 006c 0B44     		add	r3, r3, r1
 165 006e 1B88     		ldrh	r3, [r3]
 166 0070 03F01F03 		and	r3, r3, #31
 167 0074 0122     		movs	r2, #1
 168 0076 02FA03F1 		lsl	r1, r2, r3
 169 007a 9DF80720 		ldrb	r2, [sp, #7]	@ zero_extendqisi2
 170 007e 904C     		ldr	r4, .L19
 171 0080 1346     		mov	r3, r2
 172 0082 5B00     		lsls	r3, r3, #1
 173 0084 1344     		add	r3, r3, r2
 174 0086 9B00     		lsls	r3, r3, #2
 175 0088 2344     		add	r3, r3, r4
 176 008a 1B88     		ldrh	r3, [r3]
 177 008c 5B09     		lsrs	r3, r3, #5
 178 008e 9BB2     		uxth	r3, r3
 179 0090 1A46     		mov	r2, r3
 180 0092 8C4B     		ldr	r3, .L19+4
 181 0094 53F82230 		ldr	r3, [r3, r2, lsl #2]
 182 0098 40EA0102 		orr	r2, r0, r1
 183 009c 9A61     		str	r2, [r3, #24]
 184 009e 04E0     		b	.L7
 185              	.L6:
 186              		.loc 1 145 9 discriminator 2
 187 00a0 0022     		movs	r2, #0
 188 00a2 9121     		movs	r1, #145
 189 00a4 8848     		ldr	r0, .L19+8
 190 00a6 FFF7FEFF 		bl	zf_gpio_assert_handler
 191              	.L7:
 146:libraries/zf_driver/zf_driver_soft_iic.c ****         zf_soft_iic_io_high (soft_iic_obj_list[soft_iic_index].sda_pin);        // SDA é«˜ç”µå¹³
 192              		.loc 1 146 9 is_stmt 1
 193 00aa 9DF80720 		ldrb	r2, [sp, #7]	@ zero_extendqisi2
 194 00ae 8449     		ldr	r1, .L19
 195 00b0 1346     		mov	r3, r2
 196 00b2 5B00     		lsls	r3, r3, #1
 197 00b4 1344     		add	r3, r3, r2
 198 00b6 9B00     		lsls	r3, r3, #2
 199 00b8 0B44     		add	r3, r3, r1
 200 00ba 0233     		adds	r3, r3, #2
 201 00bc 1B88     		ldrh	r3, [r3]
 202 00be 40F6FF72 		movw	r2, #4095
 203 00c2 9342     		cmp	r3, r2
 204 00c4 33D0     		beq	.L8
 205              		.loc 1 146 9 is_stmt 0 discriminator 1
 206 00c6 9DF80720 		ldrb	r2, [sp, #7]	@ zero_extendqisi2
 207 00ca 7D49     		ldr	r1, .L19
 208 00cc 1346     		mov	r3, r2
 209 00ce 5B00     		lsls	r3, r3, #1
 210 00d0 1344     		add	r3, r3, r2
 211 00d2 9B00     		lsls	r3, r3, #2
 212 00d4 0B44     		add	r3, r3, r1
 213 00d6 0233     		adds	r3, r3, #2
 214 00d8 1B88     		ldrh	r3, [r3]
 215 00da 5B09     		lsrs	r3, r3, #5
 216 00dc 9BB2     		uxth	r3, r3
 217 00de 1A46     		mov	r2, r3
 218 00e0 784B     		ldr	r3, .L19+4
 219 00e2 53F82230 		ldr	r3, [r3, r2, lsl #2]
 220 00e6 9869     		ldr	r0, [r3, #24]
 221 00e8 9DF80720 		ldrb	r2, [sp, #7]	@ zero_extendqisi2
 222 00ec 7449     		ldr	r1, .L19
 223 00ee 1346     		mov	r3, r2
 224 00f0 5B00     		lsls	r3, r3, #1
 225 00f2 1344     		add	r3, r3, r2
 226 00f4 9B00     		lsls	r3, r3, #2
 227 00f6 0B44     		add	r3, r3, r1
 228 00f8 0233     		adds	r3, r3, #2
 229 00fa 1B88     		ldrh	r3, [r3]
 230 00fc 03F01F03 		and	r3, r3, #31
 231 0100 0122     		movs	r2, #1
 232 0102 02FA03F1 		lsl	r1, r2, r3
 233 0106 9DF80720 		ldrb	r2, [sp, #7]	@ zero_extendqisi2
 234 010a 6D4C     		ldr	r4, .L19
 235 010c 1346     		mov	r3, r2
 236 010e 5B00     		lsls	r3, r3, #1
 237 0110 1344     		add	r3, r3, r2
 238 0112 9B00     		lsls	r3, r3, #2
 239 0114 2344     		add	r3, r3, r4
 240 0116 0233     		adds	r3, r3, #2
 241 0118 1B88     		ldrh	r3, [r3]
 242 011a 5B09     		lsrs	r3, r3, #5
 243 011c 9BB2     		uxth	r3, r3
 244 011e 1A46     		mov	r2, r3
 245 0120 684B     		ldr	r3, .L19+4
 246 0122 53F82230 		ldr	r3, [r3, r2, lsl #2]
 247 0126 40EA0102 		orr	r2, r0, r1
 248 012a 9A61     		str	r2, [r3, #24]
 249 012c 04E0     		b	.L9
 250              	.L8:
 251              		.loc 1 146 9 discriminator 2
 252 012e 0022     		movs	r2, #0
 253 0130 9221     		movs	r1, #146
 254 0132 6548     		ldr	r0, .L19+8
 255 0134 FFF7FEFF 		bl	zf_gpio_assert_handler
 256              	.L9:
 257              	.LBB2:
 147:libraries/zf_driver/zf_driver_soft_iic.c **** 
 148:libraries/zf_driver/zf_driver_soft_iic.c ****         zf_soft_iic_delay   (soft_iic_obj_list[soft_iic_index].delay);
 258              		.loc 1 148 9 is_stmt 1
 259 0138 9DF80720 		ldrb	r2, [sp, #7]	@ zero_extendqisi2
 260 013c 6049     		ldr	r1, .L19
 261 013e 1346     		mov	r3, r2
 262 0140 5B00     		lsls	r3, r3, #1
 263 0142 1344     		add	r3, r3, r2
 264 0144 9B00     		lsls	r3, r3, #2
 265 0146 0B44     		add	r3, r3, r1
 266 0148 0433     		adds	r3, r3, #4
 267 014a 1B68     		ldr	r3, [r3]
 268 014c 0593     		str	r3, [sp, #20]
 269 014e 00BF     		nop
 270              	.L10:
 271              		.loc 1 148 9 is_stmt 0 discriminator 2
 272 0150 059B     		ldr	r3, [sp, #20]
 273 0152 5A1E     		subs	r2, r3, #1
 274 0154 0592     		str	r2, [sp, #20]
 275 0156 002B     		cmp	r3, #0
 276 0158 FAD1     		bne	.L10
 277              	.LBE2:
 149:libraries/zf_driver/zf_driver_soft_iic.c ****         zf_soft_iic_io_low  (soft_iic_obj_list[soft_iic_index].sda_pin);        // SDA å…ˆæ‹‰ä½
 278              		.loc 1 149 9 is_stmt 1
 279 015a 9DF80720 		ldrb	r2, [sp, #7]	@ zero_extendqisi2
 280 015e 5849     		ldr	r1, .L19
 281 0160 1346     		mov	r3, r2
 282 0162 5B00     		lsls	r3, r3, #1
 283 0164 1344     		add	r3, r3, r2
 284 0166 9B00     		lsls	r3, r3, #2
 285 0168 0B44     		add	r3, r3, r1
 286 016a 0233     		adds	r3, r3, #2
 287 016c 1B88     		ldrh	r3, [r3]
 288 016e 40F6FF72 		movw	r2, #4095
 289 0172 9342     		cmp	r3, r2
 290 0174 34D0     		beq	.L11
 291              		.loc 1 149 9 is_stmt 0 discriminator 1
 292 0176 9DF80720 		ldrb	r2, [sp, #7]	@ zero_extendqisi2
 293 017a 5149     		ldr	r1, .L19
 294 017c 1346     		mov	r3, r2
 295 017e 5B00     		lsls	r3, r3, #1
 296 0180 1344     		add	r3, r3, r2
 297 0182 9B00     		lsls	r3, r3, #2
 298 0184 0B44     		add	r3, r3, r1
 299 0186 0233     		adds	r3, r3, #2
 300 0188 1B88     		ldrh	r3, [r3]
 301 018a 5B09     		lsrs	r3, r3, #5
 302 018c 9BB2     		uxth	r3, r3
 303 018e 1A46     		mov	r2, r3
 304 0190 4C4B     		ldr	r3, .L19+4
 305 0192 53F82230 		ldr	r3, [r3, r2, lsl #2]
 306 0196 9869     		ldr	r0, [r3, #24]
 307 0198 9DF80720 		ldrb	r2, [sp, #7]	@ zero_extendqisi2
 308 019c 4849     		ldr	r1, .L19
 309 019e 1346     		mov	r3, r2
 310 01a0 5B00     		lsls	r3, r3, #1
 311 01a2 1344     		add	r3, r3, r2
 312 01a4 9B00     		lsls	r3, r3, #2
 313 01a6 0B44     		add	r3, r3, r1
 314 01a8 0233     		adds	r3, r3, #2
 315 01aa 1B88     		ldrh	r3, [r3]
 316 01ac 03F01F03 		and	r3, r3, #31
 317 01b0 4FF48032 		mov	r2, #65536
 318 01b4 02FA03F1 		lsl	r1, r2, r3
 319 01b8 9DF80720 		ldrb	r2, [sp, #7]	@ zero_extendqisi2
 320 01bc 404C     		ldr	r4, .L19
 321 01be 1346     		mov	r3, r2
 322 01c0 5B00     		lsls	r3, r3, #1
 323 01c2 1344     		add	r3, r3, r2
 324 01c4 9B00     		lsls	r3, r3, #2
 325 01c6 2344     		add	r3, r3, r4
 326 01c8 0233     		adds	r3, r3, #2
 327 01ca 1B88     		ldrh	r3, [r3]
 328 01cc 5B09     		lsrs	r3, r3, #5
 329 01ce 9BB2     		uxth	r3, r3
 330 01d0 1A46     		mov	r2, r3
 331 01d2 3C4B     		ldr	r3, .L19+4
 332 01d4 53F82230 		ldr	r3, [r3, r2, lsl #2]
 333 01d8 40EA0102 		orr	r2, r0, r1
 334 01dc 9A61     		str	r2, [r3, #24]
 335 01de 04E0     		b	.L12
 336              	.L11:
 337              		.loc 1 149 9 discriminator 2
 338 01e0 0022     		movs	r2, #0
 339 01e2 9521     		movs	r1, #149
 340 01e4 3848     		ldr	r0, .L19+8
 341 01e6 FFF7FEFF 		bl	zf_gpio_assert_handler
 342              	.L12:
 343              	.LBB3:
 150:libraries/zf_driver/zf_driver_soft_iic.c ****         zf_soft_iic_delay   (soft_iic_obj_list[soft_iic_index].delay);
 344              		.loc 1 150 9 is_stmt 1
 345 01ea 9DF80720 		ldrb	r2, [sp, #7]	@ zero_extendqisi2
 346 01ee 3449     		ldr	r1, .L19
 347 01f0 1346     		mov	r3, r2
 348 01f2 5B00     		lsls	r3, r3, #1
 349 01f4 1344     		add	r3, r3, r2
 350 01f6 9B00     		lsls	r3, r3, #2
 351 01f8 0B44     		add	r3, r3, r1
 352 01fa 0433     		adds	r3, r3, #4
 353 01fc 1B68     		ldr	r3, [r3]
 354 01fe 0493     		str	r3, [sp, #16]
 355 0200 00BF     		nop
 356              	.L13:
 357              		.loc 1 150 9 is_stmt 0 discriminator 2
 358 0202 049B     		ldr	r3, [sp, #16]
 359 0204 5A1E     		subs	r2, r3, #1
 360 0206 0492     		str	r2, [sp, #16]
 361 0208 002B     		cmp	r3, #0
 362 020a FAD1     		bne	.L13
 363              	.LBE3:
 151:libraries/zf_driver/zf_driver_soft_iic.c ****         zf_soft_iic_io_low  (soft_iic_obj_list[soft_iic_index].scl_pin);        // SCL å†æ‹‰ä½
 364              		.loc 1 151 9 is_stmt 1
 365 020c 9DF80720 		ldrb	r2, [sp, #7]	@ zero_extendqisi2
 366 0210 2B49     		ldr	r1, .L19
 367 0212 1346     		mov	r3, r2
 368 0214 5B00     		lsls	r3, r3, #1
 369 0216 1344     		add	r3, r3, r2
 370 0218 9B00     		lsls	r3, r3, #2
 371 021a 0B44     		add	r3, r3, r1
 372 021c 1B88     		ldrh	r3, [r3]
 373 021e 40F6FF72 		movw	r2, #4095
 374 0222 9342     		cmp	r3, r2
 375 0224 31D0     		beq	.L14
 376              		.loc 1 151 9 is_stmt 0 discriminator 1
 377 0226 9DF80720 		ldrb	r2, [sp, #7]	@ zero_extendqisi2
 378 022a 2549     		ldr	r1, .L19
 379 022c 1346     		mov	r3, r2
 380 022e 5B00     		lsls	r3, r3, #1
 381 0230 1344     		add	r3, r3, r2
 382 0232 9B00     		lsls	r3, r3, #2
 383 0234 0B44     		add	r3, r3, r1
 384 0236 1B88     		ldrh	r3, [r3]
 385 0238 5B09     		lsrs	r3, r3, #5
 386 023a 9BB2     		uxth	r3, r3
 387 023c 1A46     		mov	r2, r3
 388 023e 214B     		ldr	r3, .L19+4
 389 0240 53F82230 		ldr	r3, [r3, r2, lsl #2]
 390 0244 9869     		ldr	r0, [r3, #24]
 391 0246 9DF80720 		ldrb	r2, [sp, #7]	@ zero_extendqisi2
 392 024a 1D49     		ldr	r1, .L19
 393 024c 1346     		mov	r3, r2
 394 024e 5B00     		lsls	r3, r3, #1
 395 0250 1344     		add	r3, r3, r2
 396 0252 9B00     		lsls	r3, r3, #2
 397 0254 0B44     		add	r3, r3, r1
 398 0256 1B88     		ldrh	r3, [r3]
 399 0258 03F01F03 		and	r3, r3, #31
 400 025c 4FF48032 		mov	r2, #65536
 401 0260 02FA03F1 		lsl	r1, r2, r3
 402 0264 9DF80720 		ldrb	r2, [sp, #7]	@ zero_extendqisi2
 403 0268 154C     		ldr	r4, .L19
 404 026a 1346     		mov	r3, r2
 405 026c 5B00     		lsls	r3, r3, #1
 406 026e 1344     		add	r3, r3, r2
 407 0270 9B00     		lsls	r3, r3, #2
 408 0272 2344     		add	r3, r3, r4
 409 0274 1B88     		ldrh	r3, [r3]
 410 0276 5B09     		lsrs	r3, r3, #5
 411 0278 9BB2     		uxth	r3, r3
 412 027a 1A46     		mov	r2, r3
 413 027c 114B     		ldr	r3, .L19+4
 414 027e 53F82230 		ldr	r3, [r3, r2, lsl #2]
 415 0282 40EA0102 		orr	r2, r0, r1
 416 0286 9A61     		str	r2, [r3, #24]
 417 0288 04E0     		b	.L15
 418              	.L14:
 419              		.loc 1 151 9 discriminator 2
 420 028a 0022     		movs	r2, #0
 421 028c 9721     		movs	r1, #151
 422 028e 0E48     		ldr	r0, .L19+8
 423 0290 FFF7FEFF 		bl	zf_gpio_assert_handler
 424              	.L15:
 425              	.LBB4:
 152:libraries/zf_driver/zf_driver_soft_iic.c ****         zf_soft_iic_delay   (soft_iic_obj_list[soft_iic_index].delay);
 426              		.loc 1 152 9 is_stmt 1
 427 0294 9DF80720 		ldrb	r2, [sp, #7]	@ zero_extendqisi2
 428 0298 0949     		ldr	r1, .L19
 429 029a 1346     		mov	r3, r2
 430 029c 5B00     		lsls	r3, r3, #1
 431 029e 1344     		add	r3, r3, r2
 432 02a0 9B00     		lsls	r3, r3, #2
 433 02a2 0B44     		add	r3, r3, r1
 434 02a4 0433     		adds	r3, r3, #4
 435 02a6 1B68     		ldr	r3, [r3]
 436 02a8 0393     		str	r3, [sp, #12]
 437 02aa 00BF     		nop
 438              	.L16:
 439              		.loc 1 152 9 is_stmt 0 discriminator 2
 440 02ac 039B     		ldr	r3, [sp, #12]
 441 02ae 5A1E     		subs	r2, r3, #1
 442 02b0 0392     		str	r2, [sp, #12]
 443 02b2 002B     		cmp	r3, #0
 444 02b4 FAD1     		bne	.L16
 445              	.LBE4:
 153:libraries/zf_driver/zf_driver_soft_iic.c ****     }while(0);
 154:libraries/zf_driver/zf_driver_soft_iic.c **** }
 446              		.loc 1 154 1 is_stmt 1
 447 02b6 00E0     		b	.L18
 448              	.L17:
 143:libraries/zf_driver/zf_driver_soft_iic.c ****         }
 449              		.loc 1 143 13
 450 02b8 00BF     		nop
 451              	.L18:
 452              		.loc 1 154 1
 453 02ba 00BF     		nop
 454 02bc 06B0     		add	sp, sp, #24
 455              		.cfi_def_cfa_offset 8
 456              		@ sp needed
 457 02be 10BD     		pop	{r4, pc}
 458              	.L20:
 459              		.align	2
 460              	.L19:
 461 02c0 00000000 		.word	soft_iic_obj_list
 462 02c4 00000000 		.word	gpio_group_list
 463 02c8 00000000 		.word	.LC0
 464              		.cfi_endproc
 465              	.LFE173:
 467              		.section	.text.zf_soft_iic_stop,"ax",%progbits
 468              		.align	1
 469              		.p2align 4,,15
 470              		.syntax unified
 471              		.thumb
 472              		.thumb_func
 474              	zf_soft_iic_stop:
 475              	.LFB174:
 155:libraries/zf_driver/zf_driver_soft_iic.c **** 
 156:libraries/zf_driver/zf_driver_soft_iic.c **** //-------------------------------------------------------------------------------------------------
 157:libraries/zf_driver/zf_driver_soft_iic.c **** // å‡½æ•°ç®€ä»‹     SOFT_IIC STOP ä¿¡å·
 158:libraries/zf_driver/zf_driver_soft_iic.c **** // å‚æ•°è¯´æ˜     soft_iic_index      SOFT_IIC ç´¢å¼•   (è¯¦è§ zf_driver_soft_iic.h å†… zf_soft_
 159:libraries/zf_driver/zf_driver_soft_iic.c **** // è¿”å›å‚æ•°     void
 160:libraries/zf_driver/zf_driver_soft_iic.c **** // ä½¿ç”¨ç¤ºä¾‹     zf_soft_iic_stop(soft_iic_index);
 161:libraries/zf_driver/zf_driver_soft_iic.c **** // å¤‡æ³¨ä¿¡æ¯     å†…éƒ¨è°ƒç”¨
 162:libraries/zf_driver/zf_driver_soft_iic.c **** //-------------------------------------------------------------------------------------------------
 163:libraries/zf_driver/zf_driver_soft_iic.c **** ZF_INLINE void zf_soft_iic_stop (zf_soft_iic_index_enum soft_iic_index)
 164:libraries/zf_driver/zf_driver_soft_iic.c **** {
 476              		.loc 1 164 1
 477              		.cfi_startproc
 478              		@ args = 0, pretend = 0, frame = 24
 479              		@ frame_needed = 0, uses_anonymous_args = 0
 480 0000 10B5     		push	{r4, lr}
 481              		.cfi_def_cfa_offset 8
 482              		.cfi_offset 4, -8
 483              		.cfi_offset 14, -4
 484 0002 86B0     		sub	sp, sp, #24
 485              		.cfi_def_cfa_offset 32
 486 0004 0346     		mov	r3, r0
 487 0006 8DF80730 		strb	r3, [sp, #7]
 165:libraries/zf_driver/zf_driver_soft_iic.c ****     do
 166:libraries/zf_driver/zf_driver_soft_iic.c ****     {
 167:libraries/zf_driver/zf_driver_soft_iic.c ****         if(ZF_DISABLE == soft_iic_obj_list[soft_iic_index].enable)
 488              		.loc 1 167 59
 489 000a 9DF80720 		ldrb	r2, [sp, #7]	@ zero_extendqisi2
 490 000e AC49     		ldr	r1, .L37
 491 0010 1346     		mov	r3, r2
 492 0012 5B00     		lsls	r3, r3, #1
 493 0014 1344     		add	r3, r3, r2
 494 0016 9B00     		lsls	r3, r3, #2
 495 0018 0B44     		add	r3, r3, r1
 496 001a 0833     		adds	r3, r3, #8
 497 001c 1B68     		ldr	r3, [r3]
 498              		.loc 1 167 11
 499 001e 002B     		cmp	r3, #0
 500 0020 00F04A81 		beq	.L35
 168:libraries/zf_driver/zf_driver_soft_iic.c ****         {
 169:libraries/zf_driver/zf_driver_soft_iic.c ****             break;
 170:libraries/zf_driver/zf_driver_soft_iic.c ****         }
 171:libraries/zf_driver/zf_driver_soft_iic.c ****         zf_soft_iic_io_low  (soft_iic_obj_list[soft_iic_index].sda_pin);        // SDA ä½ç”µå¹³
 501              		.loc 1 171 9
 502 0024 9DF80720 		ldrb	r2, [sp, #7]	@ zero_extendqisi2
 503 0028 A549     		ldr	r1, .L37
 504 002a 1346     		mov	r3, r2
 505 002c 5B00     		lsls	r3, r3, #1
 506 002e 1344     		add	r3, r3, r2
 507 0030 9B00     		lsls	r3, r3, #2
 508 0032 0B44     		add	r3, r3, r1
 509 0034 0233     		adds	r3, r3, #2
 510 0036 1B88     		ldrh	r3, [r3]
 511 0038 40F6FF72 		movw	r2, #4095
 512 003c 9342     		cmp	r3, r2
 513 003e 34D0     		beq	.L24
 514              		.loc 1 171 9 is_stmt 0 discriminator 1
 515 0040 9DF80720 		ldrb	r2, [sp, #7]	@ zero_extendqisi2
 516 0044 9E49     		ldr	r1, .L37
 517 0046 1346     		mov	r3, r2
 518 0048 5B00     		lsls	r3, r3, #1
 519 004a 1344     		add	r3, r3, r2
 520 004c 9B00     		lsls	r3, r3, #2
 521 004e 0B44     		add	r3, r3, r1
 522 0050 0233     		adds	r3, r3, #2
 523 0052 1B88     		ldrh	r3, [r3]
 524 0054 5B09     		lsrs	r3, r3, #5
 525 0056 9BB2     		uxth	r3, r3
 526 0058 1A46     		mov	r2, r3
 527 005a 9A4B     		ldr	r3, .L37+4
 528 005c 53F82230 		ldr	r3, [r3, r2, lsl #2]
 529 0060 9869     		ldr	r0, [r3, #24]
 530 0062 9DF80720 		ldrb	r2, [sp, #7]	@ zero_extendqisi2
 531 0066 9649     		ldr	r1, .L37
 532 0068 1346     		mov	r3, r2
 533 006a 5B00     		lsls	r3, r3, #1
 534 006c 1344     		add	r3, r3, r2
 535 006e 9B00     		lsls	r3, r3, #2
 536 0070 0B44     		add	r3, r3, r1
 537 0072 0233     		adds	r3, r3, #2
 538 0074 1B88     		ldrh	r3, [r3]
 539 0076 03F01F03 		and	r3, r3, #31
 540 007a 4FF48032 		mov	r2, #65536
 541 007e 02FA03F1 		lsl	r1, r2, r3
 542 0082 9DF80720 		ldrb	r2, [sp, #7]	@ zero_extendqisi2
 543 0086 8E4C     		ldr	r4, .L37
 544 0088 1346     		mov	r3, r2
 545 008a 5B00     		lsls	r3, r3, #1
 546 008c 1344     		add	r3, r3, r2
 547 008e 9B00     		lsls	r3, r3, #2
 548 0090 2344     		add	r3, r3, r4
 549 0092 0233     		adds	r3, r3, #2
 550 0094 1B88     		ldrh	r3, [r3]
 551 0096 5B09     		lsrs	r3, r3, #5
 552 0098 9BB2     		uxth	r3, r3
 553 009a 1A46     		mov	r2, r3
 554 009c 894B     		ldr	r3, .L37+4
 555 009e 53F82230 		ldr	r3, [r3, r2, lsl #2]
 556 00a2 40EA0102 		orr	r2, r0, r1
 557 00a6 9A61     		str	r2, [r3, #24]
 558 00a8 04E0     		b	.L25
 559              	.L24:
 560              		.loc 1 171 9 discriminator 2
 561 00aa 0022     		movs	r2, #0
 562 00ac AB21     		movs	r1, #171
 563 00ae 8648     		ldr	r0, .L37+8
 564 00b0 FFF7FEFF 		bl	zf_gpio_assert_handler
 565              	.L25:
 172:libraries/zf_driver/zf_driver_soft_iic.c ****         zf_soft_iic_io_low  (soft_iic_obj_list[soft_iic_index].scl_pin);        // SCL ä½ç”µå¹³
 566              		.loc 1 172 9 is_stmt 1
 567 00b4 9DF80720 		ldrb	r2, [sp, #7]	@ zero_extendqisi2
 568 00b8 8149     		ldr	r1, .L37
 569 00ba 1346     		mov	r3, r2
 570 00bc 5B00     		lsls	r3, r3, #1
 571 00be 1344     		add	r3, r3, r2
 572 00c0 9B00     		lsls	r3, r3, #2
 573 00c2 0B44     		add	r3, r3, r1
 574 00c4 1B88     		ldrh	r3, [r3]
 575 00c6 40F6FF72 		movw	r2, #4095
 576 00ca 9342     		cmp	r3, r2
 577 00cc 31D0     		beq	.L26
 578              		.loc 1 172 9 is_stmt 0 discriminator 1
 579 00ce 9DF80720 		ldrb	r2, [sp, #7]	@ zero_extendqisi2
 580 00d2 7B49     		ldr	r1, .L37
 581 00d4 1346     		mov	r3, r2
 582 00d6 5B00     		lsls	r3, r3, #1
 583 00d8 1344     		add	r3, r3, r2
 584 00da 9B00     		lsls	r3, r3, #2
 585 00dc 0B44     		add	r3, r3, r1
 586 00de 1B88     		ldrh	r3, [r3]
 587 00e0 5B09     		lsrs	r3, r3, #5
 588 00e2 9BB2     		uxth	r3, r3
 589 00e4 1A46     		mov	r2, r3
 590 00e6 774B     		ldr	r3, .L37+4
 591 00e8 53F82230 		ldr	r3, [r3, r2, lsl #2]
 592 00ec 9869     		ldr	r0, [r3, #24]
 593 00ee 9DF80720 		ldrb	r2, [sp, #7]	@ zero_extendqisi2
 594 00f2 7349     		ldr	r1, .L37
 595 00f4 1346     		mov	r3, r2
 596 00f6 5B00     		lsls	r3, r3, #1
 597 00f8 1344     		add	r3, r3, r2
 598 00fa 9B00     		lsls	r3, r3, #2
 599 00fc 0B44     		add	r3, r3, r1
 600 00fe 1B88     		ldrh	r3, [r3]
 601 0100 03F01F03 		and	r3, r3, #31
 602 0104 4FF48032 		mov	r2, #65536
 603 0108 02FA03F1 		lsl	r1, r2, r3
 604 010c 9DF80720 		ldrb	r2, [sp, #7]	@ zero_extendqisi2
 605 0110 6B4C     		ldr	r4, .L37
 606 0112 1346     		mov	r3, r2
 607 0114 5B00     		lsls	r3, r3, #1
 608 0116 1344     		add	r3, r3, r2
 609 0118 9B00     		lsls	r3, r3, #2
 610 011a 2344     		add	r3, r3, r4
 611 011c 1B88     		ldrh	r3, [r3]
 612 011e 5B09     		lsrs	r3, r3, #5
 613 0120 9BB2     		uxth	r3, r3
 614 0122 1A46     		mov	r2, r3
 615 0124 674B     		ldr	r3, .L37+4
 616 0126 53F82230 		ldr	r3, [r3, r2, lsl #2]
 617 012a 40EA0102 		orr	r2, r0, r1
 618 012e 9A61     		str	r2, [r3, #24]
 619 0130 04E0     		b	.L27
 620              	.L26:
 621              		.loc 1 172 9 discriminator 2
 622 0132 0022     		movs	r2, #0
 623 0134 AC21     		movs	r1, #172
 624 0136 6448     		ldr	r0, .L37+8
 625 0138 FFF7FEFF 		bl	zf_gpio_assert_handler
 626              	.L27:
 627              	.LBB5:
 173:libraries/zf_driver/zf_driver_soft_iic.c **** 
 174:libraries/zf_driver/zf_driver_soft_iic.c ****         zf_soft_iic_delay   (soft_iic_obj_list[soft_iic_index].delay);
 628              		.loc 1 174 9 is_stmt 1
 629 013c 9DF80720 		ldrb	r2, [sp, #7]	@ zero_extendqisi2
 630 0140 5F49     		ldr	r1, .L37
 631 0142 1346     		mov	r3, r2
 632 0144 5B00     		lsls	r3, r3, #1
 633 0146 1344     		add	r3, r3, r2
 634 0148 9B00     		lsls	r3, r3, #2
 635 014a 0B44     		add	r3, r3, r1
 636 014c 0433     		adds	r3, r3, #4
 637 014e 1B68     		ldr	r3, [r3]
 638 0150 0593     		str	r3, [sp, #20]
 639 0152 00BF     		nop
 640              	.L28:
 641              		.loc 1 174 9 is_stmt 0 discriminator 2
 642 0154 059B     		ldr	r3, [sp, #20]
 643 0156 5A1E     		subs	r2, r3, #1
 644 0158 0592     		str	r2, [sp, #20]
 645 015a 002B     		cmp	r3, #0
 646 015c FAD1     		bne	.L28
 647              	.LBE5:
 175:libraries/zf_driver/zf_driver_soft_iic.c ****         zf_soft_iic_io_high (soft_iic_obj_list[soft_iic_index].scl_pin);        // SCL å…ˆæ‹‰é«˜
 648              		.loc 1 175 9 is_stmt 1
 649 015e 9DF80720 		ldrb	r2, [sp, #7]	@ zero_extendqisi2
 650 0162 5749     		ldr	r1, .L37
 651 0164 1346     		mov	r3, r2
 652 0166 5B00     		lsls	r3, r3, #1
 653 0168 1344     		add	r3, r3, r2
 654 016a 9B00     		lsls	r3, r3, #2
 655 016c 0B44     		add	r3, r3, r1
 656 016e 1B88     		ldrh	r3, [r3]
 657 0170 40F6FF72 		movw	r2, #4095
 658 0174 9342     		cmp	r3, r2
 659 0176 30D0     		beq	.L29
 660              		.loc 1 175 9 is_stmt 0 discriminator 1
 661 0178 9DF80720 		ldrb	r2, [sp, #7]	@ zero_extendqisi2
 662 017c 5049     		ldr	r1, .L37
 663 017e 1346     		mov	r3, r2
 664 0180 5B00     		lsls	r3, r3, #1
 665 0182 1344     		add	r3, r3, r2
 666 0184 9B00     		lsls	r3, r3, #2
 667 0186 0B44     		add	r3, r3, r1
 668 0188 1B88     		ldrh	r3, [r3]
 669 018a 5B09     		lsrs	r3, r3, #5
 670 018c 9BB2     		uxth	r3, r3
 671 018e 1A46     		mov	r2, r3
 672 0190 4C4B     		ldr	r3, .L37+4
 673 0192 53F82230 		ldr	r3, [r3, r2, lsl #2]
 674 0196 9869     		ldr	r0, [r3, #24]
 675 0198 9DF80720 		ldrb	r2, [sp, #7]	@ zero_extendqisi2
 676 019c 4849     		ldr	r1, .L37
 677 019e 1346     		mov	r3, r2
 678 01a0 5B00     		lsls	r3, r3, #1
 679 01a2 1344     		add	r3, r3, r2
 680 01a4 9B00     		lsls	r3, r3, #2
 681 01a6 0B44     		add	r3, r3, r1
 682 01a8 1B88     		ldrh	r3, [r3]
 683 01aa 03F01F03 		and	r3, r3, #31
 684 01ae 0122     		movs	r2, #1
 685 01b0 02FA03F1 		lsl	r1, r2, r3
 686 01b4 9DF80720 		ldrb	r2, [sp, #7]	@ zero_extendqisi2
 687 01b8 414C     		ldr	r4, .L37
 688 01ba 1346     		mov	r3, r2
 689 01bc 5B00     		lsls	r3, r3, #1
 690 01be 1344     		add	r3, r3, r2
 691 01c0 9B00     		lsls	r3, r3, #2
 692 01c2 2344     		add	r3, r3, r4
 693 01c4 1B88     		ldrh	r3, [r3]
 694 01c6 5B09     		lsrs	r3, r3, #5
 695 01c8 9BB2     		uxth	r3, r3
 696 01ca 1A46     		mov	r2, r3
 697 01cc 3D4B     		ldr	r3, .L37+4
 698 01ce 53F82230 		ldr	r3, [r3, r2, lsl #2]
 699 01d2 40EA0102 		orr	r2, r0, r1
 700 01d6 9A61     		str	r2, [r3, #24]
 701 01d8 04E0     		b	.L30
 702              	.L29:
 703              		.loc 1 175 9 discriminator 2
 704 01da 0022     		movs	r2, #0
 705 01dc AF21     		movs	r1, #175
 706 01de 3A48     		ldr	r0, .L37+8
 707 01e0 FFF7FEFF 		bl	zf_gpio_assert_handler
 708              	.L30:
 709              	.LBB6:
 176:libraries/zf_driver/zf_driver_soft_iic.c ****         zf_soft_iic_delay   (soft_iic_obj_list[soft_iic_index].delay);
 710              		.loc 1 176 9 is_stmt 1
 711 01e4 9DF80720 		ldrb	r2, [sp, #7]	@ zero_extendqisi2
 712 01e8 3549     		ldr	r1, .L37
 713 01ea 1346     		mov	r3, r2
 714 01ec 5B00     		lsls	r3, r3, #1
 715 01ee 1344     		add	r3, r3, r2
 716 01f0 9B00     		lsls	r3, r3, #2
 717 01f2 0B44     		add	r3, r3, r1
 718 01f4 0433     		adds	r3, r3, #4
 719 01f6 1B68     		ldr	r3, [r3]
 720 01f8 0493     		str	r3, [sp, #16]
 721 01fa 00BF     		nop
 722              	.L31:
 723              		.loc 1 176 9 is_stmt 0 discriminator 2
 724 01fc 049B     		ldr	r3, [sp, #16]
 725 01fe 5A1E     		subs	r2, r3, #1
 726 0200 0492     		str	r2, [sp, #16]
 727 0202 002B     		cmp	r3, #0
 728 0204 FAD1     		bne	.L31
 729              	.LBE6:
 177:libraries/zf_driver/zf_driver_soft_iic.c ****         zf_soft_iic_io_high (soft_iic_obj_list[soft_iic_index].sda_pin);        // SDA å†æ‹‰é«˜
 730              		.loc 1 177 9 is_stmt 1
 731 0206 9DF80720 		ldrb	r2, [sp, #7]	@ zero_extendqisi2
 732 020a 2D49     		ldr	r1, .L37
 733 020c 1346     		mov	r3, r2
 734 020e 5B00     		lsls	r3, r3, #1
 735 0210 1344     		add	r3, r3, r2
 736 0212 9B00     		lsls	r3, r3, #2
 737 0214 0B44     		add	r3, r3, r1
 738 0216 0233     		adds	r3, r3, #2
 739 0218 1B88     		ldrh	r3, [r3]
 740 021a 40F6FF72 		movw	r2, #4095
 741 021e 9342     		cmp	r3, r2
 742 0220 33D0     		beq	.L32
 743              		.loc 1 177 9 is_stmt 0 discriminator 1
 744 0222 9DF80720 		ldrb	r2, [sp, #7]	@ zero_extendqisi2
 745 0226 2649     		ldr	r1, .L37
 746 0228 1346     		mov	r3, r2
 747 022a 5B00     		lsls	r3, r3, #1
 748 022c 1344     		add	r3, r3, r2
 749 022e 9B00     		lsls	r3, r3, #2
 750 0230 0B44     		add	r3, r3, r1
 751 0232 0233     		adds	r3, r3, #2
 752 0234 1B88     		ldrh	r3, [r3]
 753 0236 5B09     		lsrs	r3, r3, #5
 754 0238 9BB2     		uxth	r3, r3
 755 023a 1A46     		mov	r2, r3
 756 023c 214B     		ldr	r3, .L37+4
 757 023e 53F82230 		ldr	r3, [r3, r2, lsl #2]
 758 0242 9869     		ldr	r0, [r3, #24]
 759 0244 9DF80720 		ldrb	r2, [sp, #7]	@ zero_extendqisi2
 760 0248 1D49     		ldr	r1, .L37
 761 024a 1346     		mov	r3, r2
 762 024c 5B00     		lsls	r3, r3, #1
 763 024e 1344     		add	r3, r3, r2
 764 0250 9B00     		lsls	r3, r3, #2
 765 0252 0B44     		add	r3, r3, r1
 766 0254 0233     		adds	r3, r3, #2
 767 0256 1B88     		ldrh	r3, [r3]
 768 0258 03F01F03 		and	r3, r3, #31
 769 025c 0122     		movs	r2, #1
 770 025e 02FA03F1 		lsl	r1, r2, r3
 771 0262 9DF80720 		ldrb	r2, [sp, #7]	@ zero_extendqisi2
 772 0266 164C     		ldr	r4, .L37
 773 0268 1346     		mov	r3, r2
 774 026a 5B00     		lsls	r3, r3, #1
 775 026c 1344     		add	r3, r3, r2
 776 026e 9B00     		lsls	r3, r3, #2
 777 0270 2344     		add	r3, r3, r4
 778 0272 0233     		adds	r3, r3, #2
 779 0274 1B88     		ldrh	r3, [r3]
 780 0276 5B09     		lsrs	r3, r3, #5
 781 0278 9BB2     		uxth	r3, r3
 782 027a 1A46     		mov	r2, r3
 783 027c 114B     		ldr	r3, .L37+4
 784 027e 53F82230 		ldr	r3, [r3, r2, lsl #2]
 785 0282 40EA0102 		orr	r2, r0, r1
 786 0286 9A61     		str	r2, [r3, #24]
 787 0288 04E0     		b	.L33
 788              	.L32:
 789              		.loc 1 177 9 discriminator 2
 790 028a 0022     		movs	r2, #0
 791 028c B121     		movs	r1, #177
 792 028e 0E48     		ldr	r0, .L37+8
 793 0290 FFF7FEFF 		bl	zf_gpio_assert_handler
 794              	.L33:
 795              	.LBB7:
 178:libraries/zf_driver/zf_driver_soft_iic.c ****         zf_soft_iic_delay   (soft_iic_obj_list[soft_iic_index].delay);
 796              		.loc 1 178 9 is_stmt 1
 797 0294 9DF80720 		ldrb	r2, [sp, #7]	@ zero_extendqisi2
 798 0298 0949     		ldr	r1, .L37
 799 029a 1346     		mov	r3, r2
 800 029c 5B00     		lsls	r3, r3, #1
 801 029e 1344     		add	r3, r3, r2
 802 02a0 9B00     		lsls	r3, r3, #2
 803 02a2 0B44     		add	r3, r3, r1
 804 02a4 0433     		adds	r3, r3, #4
 805 02a6 1B68     		ldr	r3, [r3]
 806 02a8 0393     		str	r3, [sp, #12]
 807 02aa 00BF     		nop
 808              	.L34:
 809              		.loc 1 178 9 is_stmt 0 discriminator 2
 810 02ac 039B     		ldr	r3, [sp, #12]
 811 02ae 5A1E     		subs	r2, r3, #1
 812 02b0 0392     		str	r2, [sp, #12]
 813 02b2 002B     		cmp	r3, #0
 814 02b4 FAD1     		bne	.L34
 815              	.LBE7:
 179:libraries/zf_driver/zf_driver_soft_iic.c ****     }while(0);
 180:libraries/zf_driver/zf_driver_soft_iic.c **** }
 816              		.loc 1 180 1 is_stmt 1
 817 02b6 00E0     		b	.L36
 818              	.L35:
 169:libraries/zf_driver/zf_driver_soft_iic.c ****         }
 819              		.loc 1 169 13
 820 02b8 00BF     		nop
 821              	.L36:
 822              		.loc 1 180 1
 823 02ba 00BF     		nop
 824 02bc 06B0     		add	sp, sp, #24
 825              		.cfi_def_cfa_offset 8
 826              		@ sp needed
 827 02be 10BD     		pop	{r4, pc}
 828              	.L38:
 829              		.align	2
 830              	.L37:
 831 02c0 00000000 		.word	soft_iic_obj_list
 832 02c4 00000000 		.word	gpio_group_list
 833 02c8 00000000 		.word	.LC0
 834              		.cfi_endproc
 835              	.LFE174:
 837              		.section	.text.zf_soft_iic_send_ack,"ax",%progbits
 838              		.align	1
 839              		.p2align 4,,15
 840              		.syntax unified
 841              		.thumb
 842              		.thumb_func
 844              	zf_soft_iic_send_ack:
 845              	.LFB175:
 181:libraries/zf_driver/zf_driver_soft_iic.c **** 
 182:libraries/zf_driver/zf_driver_soft_iic.c **** //-------------------------------------------------------------------------------------------------
 183:libraries/zf_driver/zf_driver_soft_iic.c **** // å‡½æ•°ç®€ä»‹     SOFT_IIC å‘é€ ACK/NAKC ä¿¡å· å†…éƒ¨è°ƒç”¨
 184:libraries/zf_driver/zf_driver_soft_iic.c **** // å‚æ•°è¯´æ˜     soft_iic_index      SOFT_IIC ç´¢å¼•   (è¯¦è§ zf_driver_soft_iic.h å†… zf_soft_
 185:libraries/zf_driver/zf_driver_soft_iic.c **** // å‚æ•°è¯´æ˜     ack                 ACK ç”µå¹³ è¡¨ç¤ºçš„æ˜¯å“åº”ç”µå¹³ è€Œä¸æ˜¯æ˜¯å¦å‘é€ A
 186:libraries/zf_driver/zf_driver_soft_iic.c **** // è¿”å›å‚æ•°     void
 187:libraries/zf_driver/zf_driver_soft_iic.c **** // ä½¿ç”¨ç¤ºä¾‹     zf_soft_iic_send_ack(soft_iic_index, 1);
 188:libraries/zf_driver/zf_driver_soft_iic.c **** // å¤‡æ³¨ä¿¡æ¯     å†…éƒ¨è°ƒç”¨
 189:libraries/zf_driver/zf_driver_soft_iic.c **** //-------------------------------------------------------------------------------------------------
 190:libraries/zf_driver/zf_driver_soft_iic.c **** ZF_INLINE void zf_soft_iic_send_ack (zf_soft_iic_index_enum soft_iic_index, uint8 ack)
 191:libraries/zf_driver/zf_driver_soft_iic.c **** {
 846              		.loc 1 191 1
 847              		.cfi_startproc
 848              		@ args = 0, pretend = 0, frame = 24
 849              		@ frame_needed = 0, uses_anonymous_args = 0
 850 0000 10B5     		push	{r4, lr}
 851              		.cfi_def_cfa_offset 8
 852              		.cfi_offset 4, -8
 853              		.cfi_offset 14, -4
 854 0002 86B0     		sub	sp, sp, #24
 855              		.cfi_def_cfa_offset 32
 856 0004 0346     		mov	r3, r0
 857 0006 0A46     		mov	r2, r1
 858 0008 8DF80730 		strb	r3, [sp, #7]
 859 000c 1346     		mov	r3, r2
 860 000e 8DF80630 		strb	r3, [sp, #6]
 192:libraries/zf_driver/zf_driver_soft_iic.c ****     do
 193:libraries/zf_driver/zf_driver_soft_iic.c ****     {
 194:libraries/zf_driver/zf_driver_soft_iic.c ****         if(ack)
 861              		.loc 1 194 11
 862 0012 9DF80630 		ldrb	r3, [sp, #6]	@ zero_extendqisi2
 863 0016 002B     		cmp	r3, #0
 864 0018 47D0     		beq	.L40
 195:libraries/zf_driver/zf_driver_soft_iic.c ****         {
 196:libraries/zf_driver/zf_driver_soft_iic.c ****             zf_soft_iic_io_high(soft_iic_obj_list[soft_iic_index].sda_pin);     // SDA æ‹‰é«˜
 865              		.loc 1 196 13
 866 001a 9DF80720 		ldrb	r2, [sp, #7]	@ zero_extendqisi2
 867 001e AA49     		ldr	r1, .L55
 868 0020 1346     		mov	r3, r2
 869 0022 5B00     		lsls	r3, r3, #1
 870 0024 1344     		add	r3, r3, r2
 871 0026 9B00     		lsls	r3, r3, #2
 872 0028 0B44     		add	r3, r3, r1
 873 002a 0233     		adds	r3, r3, #2
 874 002c 1B88     		ldrh	r3, [r3]
 875 002e 40F6FF72 		movw	r2, #4095
 876 0032 9342     		cmp	r3, r2
 877 0034 33D0     		beq	.L41
 878              		.loc 1 196 13 is_stmt 0 discriminator 1
 879 0036 9DF80720 		ldrb	r2, [sp, #7]	@ zero_extendqisi2
 880 003a A349     		ldr	r1, .L55
 881 003c 1346     		mov	r3, r2
 882 003e 5B00     		lsls	r3, r3, #1
 883 0040 1344     		add	r3, r3, r2
 884 0042 9B00     		lsls	r3, r3, #2
 885 0044 0B44     		add	r3, r3, r1
 886 0046 0233     		adds	r3, r3, #2
 887 0048 1B88     		ldrh	r3, [r3]
 888 004a 5B09     		lsrs	r3, r3, #5
 889 004c 9BB2     		uxth	r3, r3
 890 004e 1A46     		mov	r2, r3
 891 0050 9E4B     		ldr	r3, .L55+4
 892 0052 53F82230 		ldr	r3, [r3, r2, lsl #2]
 893 0056 9869     		ldr	r0, [r3, #24]
 894 0058 9DF80720 		ldrb	r2, [sp, #7]	@ zero_extendqisi2
 895 005c 9A49     		ldr	r1, .L55
 896 005e 1346     		mov	r3, r2
 897 0060 5B00     		lsls	r3, r3, #1
 898 0062 1344     		add	r3, r3, r2
 899 0064 9B00     		lsls	r3, r3, #2
 900 0066 0B44     		add	r3, r3, r1
 901 0068 0233     		adds	r3, r3, #2
 902 006a 1B88     		ldrh	r3, [r3]
 903 006c 03F01F03 		and	r3, r3, #31
 904 0070 0122     		movs	r2, #1
 905 0072 02FA03F1 		lsl	r1, r2, r3
 906 0076 9DF80720 		ldrb	r2, [sp, #7]	@ zero_extendqisi2
 907 007a 934C     		ldr	r4, .L55
 908 007c 1346     		mov	r3, r2
 909 007e 5B00     		lsls	r3, r3, #1
 910 0080 1344     		add	r3, r3, r2
 911 0082 9B00     		lsls	r3, r3, #2
 912 0084 2344     		add	r3, r3, r4
 913 0086 0233     		adds	r3, r3, #2
 914 0088 1B88     		ldrh	r3, [r3]
 915 008a 5B09     		lsrs	r3, r3, #5
 916 008c 9BB2     		uxth	r3, r3
 917 008e 1A46     		mov	r2, r3
 918 0090 8E4B     		ldr	r3, .L55+4
 919 0092 53F82230 		ldr	r3, [r3, r2, lsl #2]
 920 0096 40EA0102 		orr	r2, r0, r1
 921 009a 9A61     		str	r2, [r3, #24]
 922 009c 4DE0     		b	.L42
 923              	.L41:
 924              		.loc 1 196 13 discriminator 2
 925 009e 0022     		movs	r2, #0
 926 00a0 C421     		movs	r1, #196
 927 00a2 8B48     		ldr	r0, .L55+8
 928 00a4 FFF7FEFF 		bl	zf_gpio_assert_handler
 929 00a8 47E0     		b	.L42
 930              	.L40:
 197:libraries/zf_driver/zf_driver_soft_iic.c ****         }
 198:libraries/zf_driver/zf_driver_soft_iic.c ****         else
 199:libraries/zf_driver/zf_driver_soft_iic.c ****         {
 200:libraries/zf_driver/zf_driver_soft_iic.c ****             zf_soft_iic_io_low(soft_iic_obj_list[soft_iic_index].sda_pin);      // SDA æ‹‰ä½
 931              		.loc 1 200 13 is_stmt 1
 932 00aa 9DF80720 		ldrb	r2, [sp, #7]	@ zero_extendqisi2
 933 00ae 8649     		ldr	r1, .L55
 934 00b0 1346     		mov	r3, r2
 935 00b2 5B00     		lsls	r3, r3, #1
 936 00b4 1344     		add	r3, r3, r2
 937 00b6 9B00     		lsls	r3, r3, #2
 938 00b8 0B44     		add	r3, r3, r1
 939 00ba 0233     		adds	r3, r3, #2
 940 00bc 1B88     		ldrh	r3, [r3]
 941 00be 40F6FF72 		movw	r2, #4095
 942 00c2 9342     		cmp	r3, r2
 943 00c4 34D0     		beq	.L43
 944              		.loc 1 200 13 is_stmt 0 discriminator 1
 945 00c6 9DF80720 		ldrb	r2, [sp, #7]	@ zero_extendqisi2
 946 00ca 7F49     		ldr	r1, .L55
 947 00cc 1346     		mov	r3, r2
 948 00ce 5B00     		lsls	r3, r3, #1
 949 00d0 1344     		add	r3, r3, r2
 950 00d2 9B00     		lsls	r3, r3, #2
 951 00d4 0B44     		add	r3, r3, r1
 952 00d6 0233     		adds	r3, r3, #2
 953 00d8 1B88     		ldrh	r3, [r3]
 954 00da 5B09     		lsrs	r3, r3, #5
 955 00dc 9BB2     		uxth	r3, r3
 956 00de 1A46     		mov	r2, r3
 957 00e0 7A4B     		ldr	r3, .L55+4
 958 00e2 53F82230 		ldr	r3, [r3, r2, lsl #2]
 959 00e6 9869     		ldr	r0, [r3, #24]
 960 00e8 9DF80720 		ldrb	r2, [sp, #7]	@ zero_extendqisi2
 961 00ec 7649     		ldr	r1, .L55
 962 00ee 1346     		mov	r3, r2
 963 00f0 5B00     		lsls	r3, r3, #1
 964 00f2 1344     		add	r3, r3, r2
 965 00f4 9B00     		lsls	r3, r3, #2
 966 00f6 0B44     		add	r3, r3, r1
 967 00f8 0233     		adds	r3, r3, #2
 968 00fa 1B88     		ldrh	r3, [r3]
 969 00fc 03F01F03 		and	r3, r3, #31
 970 0100 4FF48032 		mov	r2, #65536
 971 0104 02FA03F1 		lsl	r1, r2, r3
 972 0108 9DF80720 		ldrb	r2, [sp, #7]	@ zero_extendqisi2
 973 010c 6E4C     		ldr	r4, .L55
 974 010e 1346     		mov	r3, r2
 975 0110 5B00     		lsls	r3, r3, #1
 976 0112 1344     		add	r3, r3, r2
 977 0114 9B00     		lsls	r3, r3, #2
 978 0116 2344     		add	r3, r3, r4
 979 0118 0233     		adds	r3, r3, #2
 980 011a 1B88     		ldrh	r3, [r3]
 981 011c 5B09     		lsrs	r3, r3, #5
 982 011e 9BB2     		uxth	r3, r3
 983 0120 1A46     		mov	r2, r3
 984 0122 6A4B     		ldr	r3, .L55+4
 985 0124 53F82230 		ldr	r3, [r3, r2, lsl #2]
 986 0128 40EA0102 		orr	r2, r0, r1
 987 012c 9A61     		str	r2, [r3, #24]
 988 012e 04E0     		b	.L42
 989              	.L43:
 990              		.loc 1 200 13 discriminator 2
 991 0130 0022     		movs	r2, #0
 992 0132 C821     		movs	r1, #200
 993 0134 6648     		ldr	r0, .L55+8
 994 0136 FFF7FEFF 		bl	zf_gpio_assert_handler
 995              	.L42:
 996              	.LBB8:
 201:libraries/zf_driver/zf_driver_soft_iic.c ****         }
 202:libraries/zf_driver/zf_driver_soft_iic.c ****         zf_soft_iic_delay   (soft_iic_obj_list[soft_iic_index].delay);
 997              		.loc 1 202 9 is_stmt 1
 998 013a 9DF80720 		ldrb	r2, [sp, #7]	@ zero_extendqisi2
 999 013e 6249     		ldr	r1, .L55
 1000 0140 1346     		mov	r3, r2
 1001 0142 5B00     		lsls	r3, r3, #1
 1002 0144 1344     		add	r3, r3, r2
 1003 0146 9B00     		lsls	r3, r3, #2
 1004 0148 0B44     		add	r3, r3, r1
 1005 014a 0433     		adds	r3, r3, #4
 1006 014c 1B68     		ldr	r3, [r3]
 1007 014e 0593     		str	r3, [sp, #20]
 1008 0150 00BF     		nop
 1009              	.L44:
 1010              		.loc 1 202 9 is_stmt 0 discriminator 2
 1011 0152 059B     		ldr	r3, [sp, #20]
 1012 0154 5A1E     		subs	r2, r3, #1
 1013 0156 0592     		str	r2, [sp, #20]
 1014 0158 002B     		cmp	r3, #0
 1015 015a FAD1     		bne	.L44
 1016              	.LBE8:
 1017              	.LBB9:
 203:libraries/zf_driver/zf_driver_soft_iic.c ****         zf_soft_iic_delay   (soft_iic_obj_list[soft_iic_index].delay);
 1018              		.loc 1 203 9 is_stmt 1
 1019 015c 9DF80720 		ldrb	r2, [sp, #7]	@ zero_extendqisi2
 1020 0160 5949     		ldr	r1, .L55
 1021 0162 1346     		mov	r3, r2
 1022 0164 5B00     		lsls	r3, r3, #1
 1023 0166 1344     		add	r3, r3, r2
 1024 0168 9B00     		lsls	r3, r3, #2
 1025 016a 0B44     		add	r3, r3, r1
 1026 016c 0433     		adds	r3, r3, #4
 1027 016e 1B68     		ldr	r3, [r3]
 1028 0170 0493     		str	r3, [sp, #16]
 1029 0172 00BF     		nop
 1030              	.L45:
 1031              		.loc 1 203 9 is_stmt 0 discriminator 2
 1032 0174 049B     		ldr	r3, [sp, #16]
 1033 0176 5A1E     		subs	r2, r3, #1
 1034 0178 0492     		str	r2, [sp, #16]
 1035 017a 002B     		cmp	r3, #0
 1036 017c FAD1     		bne	.L45
 1037              	.LBE9:
 204:libraries/zf_driver/zf_driver_soft_iic.c ****         zf_soft_iic_io_high (soft_iic_obj_list[soft_iic_index].scl_pin);        // SCL æ‹‰é«˜
 1038              		.loc 1 204 9 is_stmt 1
 1039 017e 9DF80720 		ldrb	r2, [sp, #7]	@ zero_extendqisi2
 1040 0182 5149     		ldr	r1, .L55
 1041 0184 1346     		mov	r3, r2
 1042 0186 5B00     		lsls	r3, r3, #1
 1043 0188 1344     		add	r3, r3, r2
 1044 018a 9B00     		lsls	r3, r3, #2
 1045 018c 0B44     		add	r3, r3, r1
 1046 018e 1B88     		ldrh	r3, [r3]
 1047 0190 40F6FF72 		movw	r2, #4095
 1048 0194 9342     		cmp	r3, r2
 1049 0196 30D0     		beq	.L46
 1050              		.loc 1 204 9 is_stmt 0 discriminator 1
 1051 0198 9DF80720 		ldrb	r2, [sp, #7]	@ zero_extendqisi2
 1052 019c 4A49     		ldr	r1, .L55
 1053 019e 1346     		mov	r3, r2
 1054 01a0 5B00     		lsls	r3, r3, #1
 1055 01a2 1344     		add	r3, r3, r2
 1056 01a4 9B00     		lsls	r3, r3, #2
 1057 01a6 0B44     		add	r3, r3, r1
 1058 01a8 1B88     		ldrh	r3, [r3]
 1059 01aa 5B09     		lsrs	r3, r3, #5
 1060 01ac 9BB2     		uxth	r3, r3
 1061 01ae 1A46     		mov	r2, r3
 1062 01b0 464B     		ldr	r3, .L55+4
 1063 01b2 53F82230 		ldr	r3, [r3, r2, lsl #2]
 1064 01b6 9869     		ldr	r0, [r3, #24]
 1065 01b8 9DF80720 		ldrb	r2, [sp, #7]	@ zero_extendqisi2
 1066 01bc 4249     		ldr	r1, .L55
 1067 01be 1346     		mov	r3, r2
 1068 01c0 5B00     		lsls	r3, r3, #1
 1069 01c2 1344     		add	r3, r3, r2
 1070 01c4 9B00     		lsls	r3, r3, #2
 1071 01c6 0B44     		add	r3, r3, r1
 1072 01c8 1B88     		ldrh	r3, [r3]
 1073 01ca 03F01F03 		and	r3, r3, #31
 1074 01ce 0122     		movs	r2, #1
 1075 01d0 02FA03F1 		lsl	r1, r2, r3
 1076 01d4 9DF80720 		ldrb	r2, [sp, #7]	@ zero_extendqisi2
 1077 01d8 3B4C     		ldr	r4, .L55
 1078 01da 1346     		mov	r3, r2
 1079 01dc 5B00     		lsls	r3, r3, #1
 1080 01de 1344     		add	r3, r3, r2
 1081 01e0 9B00     		lsls	r3, r3, #2
 1082 01e2 2344     		add	r3, r3, r4
 1083 01e4 1B88     		ldrh	r3, [r3]
 1084 01e6 5B09     		lsrs	r3, r3, #5
 1085 01e8 9BB2     		uxth	r3, r3
 1086 01ea 1A46     		mov	r2, r3
 1087 01ec 374B     		ldr	r3, .L55+4
 1088 01ee 53F82230 		ldr	r3, [r3, r2, lsl #2]
 1089 01f2 40EA0102 		orr	r2, r0, r1
 1090 01f6 9A61     		str	r2, [r3, #24]
 1091 01f8 04E0     		b	.L47
 1092              	.L46:
 1093              		.loc 1 204 9 discriminator 2
 1094 01fa 0022     		movs	r2, #0
 1095 01fc CC21     		movs	r1, #204
 1096 01fe 3448     		ldr	r0, .L55+8
 1097 0200 FFF7FEFF 		bl	zf_gpio_assert_handler
 1098              	.L47:
 1099              	.LBB10:
 205:libraries/zf_driver/zf_driver_soft_iic.c ****         zf_soft_iic_delay   (soft_iic_obj_list[soft_iic_index].delay);
 1100              		.loc 1 205 9 is_stmt 1
 1101 0204 9DF80720 		ldrb	r2, [sp, #7]	@ zero_extendqisi2
 1102 0208 2F49     		ldr	r1, .L55
 1103 020a 1346     		mov	r3, r2
 1104 020c 5B00     		lsls	r3, r3, #1
 1105 020e 1344     		add	r3, r3, r2
 1106 0210 9B00     		lsls	r3, r3, #2
 1107 0212 0B44     		add	r3, r3, r1
 1108 0214 0433     		adds	r3, r3, #4
 1109 0216 1B68     		ldr	r3, [r3]
 1110 0218 0393     		str	r3, [sp, #12]
 1111 021a 00BF     		nop
 1112              	.L48:
 1113              		.loc 1 205 9 is_stmt 0 discriminator 2
 1114 021c 039B     		ldr	r3, [sp, #12]
 1115 021e 5A1E     		subs	r2, r3, #1
 1116 0220 0392     		str	r2, [sp, #12]
 1117 0222 002B     		cmp	r3, #0
 1118 0224 FAD1     		bne	.L48
 1119              	.LBE10:
 1120              	.LBB11:
 206:libraries/zf_driver/zf_driver_soft_iic.c ****         zf_soft_iic_delay   (soft_iic_obj_list[soft_iic_index].delay);
 1121              		.loc 1 206 9 is_stmt 1
 1122 0226 9DF80720 		ldrb	r2, [sp, #7]	@ zero_extendqisi2
 1123 022a 2749     		ldr	r1, .L55
 1124 022c 1346     		mov	r3, r2
 1125 022e 5B00     		lsls	r3, r3, #1
 1126 0230 1344     		add	r3, r3, r2
 1127 0232 9B00     		lsls	r3, r3, #2
 1128 0234 0B44     		add	r3, r3, r1
 1129 0236 0433     		adds	r3, r3, #4
 1130 0238 1B68     		ldr	r3, [r3]
 1131 023a 0293     		str	r3, [sp, #8]
 1132 023c 00BF     		nop
 1133              	.L49:
 1134              		.loc 1 206 9 is_stmt 0 discriminator 2
 1135 023e 029B     		ldr	r3, [sp, #8]
 1136 0240 5A1E     		subs	r2, r3, #1
 1137 0242 0292     		str	r2, [sp, #8]
 1138 0244 002B     		cmp	r3, #0
 1139 0246 FAD1     		bne	.L49
 1140              	.LBE11:
 207:libraries/zf_driver/zf_driver_soft_iic.c ****         zf_soft_iic_io_low  (soft_iic_obj_list[soft_iic_index].scl_pin);        // SCL æ‹‰ä½
 1141              		.loc 1 207 9 is_stmt 1
 1142 0248 9DF80720 		ldrb	r2, [sp, #7]	@ zero_extendqisi2
 1143 024c 1E49     		ldr	r1, .L55
 1144 024e 1346     		mov	r3, r2
 1145 0250 5B00     		lsls	r3, r3, #1
 1146 0252 1344     		add	r3, r3, r2
 1147 0254 9B00     		lsls	r3, r3, #2
 1148 0256 0B44     		add	r3, r3, r1
 1149 0258 1B88     		ldrh	r3, [r3]
 1150 025a 40F6FF72 		movw	r2, #4095
 1151 025e 9342     		cmp	r3, r2
 1152 0260 38D0     		beq	.L50
 1153              		.loc 1 207 9 is_stmt 0 discriminator 1
 1154 0262 9DF80720 		ldrb	r2, [sp, #7]	@ zero_extendqisi2
 1155 0266 1849     		ldr	r1, .L55
 1156 0268 1346     		mov	r3, r2
 1157 026a 5B00     		lsls	r3, r3, #1
 1158 026c 1344     		add	r3, r3, r2
 1159 026e 9B00     		lsls	r3, r3, #2
 1160 0270 0B44     		add	r3, r3, r1
 1161 0272 1B88     		ldrh	r3, [r3]
 1162 0274 5B09     		lsrs	r3, r3, #5
 1163 0276 9BB2     		uxth	r3, r3
 1164 0278 1A46     		mov	r2, r3
 1165 027a 144B     		ldr	r3, .L55+4
 1166 027c 53F82230 		ldr	r3, [r3, r2, lsl #2]
 1167 0280 9869     		ldr	r0, [r3, #24]
 1168 0282 9DF80720 		ldrb	r2, [sp, #7]	@ zero_extendqisi2
 1169 0286 1049     		ldr	r1, .L55
 1170 0288 1346     		mov	r3, r2
 1171 028a 5B00     		lsls	r3, r3, #1
 1172 028c 1344     		add	r3, r3, r2
 1173 028e 9B00     		lsls	r3, r3, #2
 1174 0290 0B44     		add	r3, r3, r1
 1175 0292 1B88     		ldrh	r3, [r3]
 1176 0294 03F01F03 		and	r3, r3, #31
 1177 0298 4FF48032 		mov	r2, #65536
 1178 029c 02FA03F1 		lsl	r1, r2, r3
 1179 02a0 9DF80720 		ldrb	r2, [sp, #7]	@ zero_extendqisi2
 1180 02a4 084C     		ldr	r4, .L55
 1181 02a6 1346     		mov	r3, r2
 1182 02a8 5B00     		lsls	r3, r3, #1
 1183 02aa 1344     		add	r3, r3, r2
 1184 02ac 9B00     		lsls	r3, r3, #2
 1185 02ae 2344     		add	r3, r3, r4
 1186 02b0 1B88     		ldrh	r3, [r3]
 1187 02b2 5B09     		lsrs	r3, r3, #5
 1188 02b4 9BB2     		uxth	r3, r3
 1189 02b6 1A46     		mov	r2, r3
 1190 02b8 044B     		ldr	r3, .L55+4
 1191 02ba 53F82230 		ldr	r3, [r3, r2, lsl #2]
 1192 02be 40EA0102 		orr	r2, r0, r1
 1193 02c2 9A61     		str	r2, [r3, #24]
 1194 02c4 0BE0     		b	.L51
 1195              	.L56:
 1196 02c6 00BF     		.align	2
 1197              	.L55:
 1198 02c8 00000000 		.word	soft_iic_obj_list
 1199 02cc 00000000 		.word	gpio_group_list
 1200 02d0 00000000 		.word	.LC0
 1201              	.L50:
 1202              		.loc 1 207 9 discriminator 2
 1203 02d4 0022     		movs	r2, #0
 1204 02d6 CF21     		movs	r1, #207
 1205 02d8 2648     		ldr	r0, .L57
 1206 02da FFF7FEFF 		bl	zf_gpio_assert_handler
 1207              	.L51:
 208:libraries/zf_driver/zf_driver_soft_iic.c ****         zf_soft_iic_io_high (soft_iic_obj_list[soft_iic_index].sda_pin);        // SDA æ‹‰é«˜
 1208              		.loc 1 208 9 is_stmt 1
 1209 02de 9DF80720 		ldrb	r2, [sp, #7]	@ zero_extendqisi2
 1210 02e2 2549     		ldr	r1, .L57+4
 1211 02e4 1346     		mov	r3, r2
 1212 02e6 5B00     		lsls	r3, r3, #1
 1213 02e8 1344     		add	r3, r3, r2
 1214 02ea 9B00     		lsls	r3, r3, #2
 1215 02ec 0B44     		add	r3, r3, r1
 1216 02ee 0233     		adds	r3, r3, #2
 1217 02f0 1B88     		ldrh	r3, [r3]
 1218 02f2 40F6FF72 		movw	r2, #4095
 1219 02f6 9342     		cmp	r3, r2
 1220 02f8 33D0     		beq	.L52
 1221              		.loc 1 208 9 is_stmt 0 discriminator 1
 1222 02fa 9DF80720 		ldrb	r2, [sp, #7]	@ zero_extendqisi2
 1223 02fe 1E49     		ldr	r1, .L57+4
 1224 0300 1346     		mov	r3, r2
 1225 0302 5B00     		lsls	r3, r3, #1
 1226 0304 1344     		add	r3, r3, r2
 1227 0306 9B00     		lsls	r3, r3, #2
 1228 0308 0B44     		add	r3, r3, r1
 1229 030a 0233     		adds	r3, r3, #2
 1230 030c 1B88     		ldrh	r3, [r3]
 1231 030e 5B09     		lsrs	r3, r3, #5
 1232 0310 9BB2     		uxth	r3, r3
 1233 0312 1A46     		mov	r2, r3
 1234 0314 194B     		ldr	r3, .L57+8
 1235 0316 53F82230 		ldr	r3, [r3, r2, lsl #2]
 1236 031a 9869     		ldr	r0, [r3, #24]
 1237 031c 9DF80720 		ldrb	r2, [sp, #7]	@ zero_extendqisi2
 1238 0320 1549     		ldr	r1, .L57+4
 1239 0322 1346     		mov	r3, r2
 1240 0324 5B00     		lsls	r3, r3, #1
 1241 0326 1344     		add	r3, r3, r2
 1242 0328 9B00     		lsls	r3, r3, #2
 1243 032a 0B44     		add	r3, r3, r1
 1244 032c 0233     		adds	r3, r3, #2
 1245 032e 1B88     		ldrh	r3, [r3]
 1246 0330 03F01F03 		and	r3, r3, #31
 1247 0334 0122     		movs	r2, #1
 1248 0336 02FA03F1 		lsl	r1, r2, r3
 1249 033a 9DF80720 		ldrb	r2, [sp, #7]	@ zero_extendqisi2
 1250 033e 0E4C     		ldr	r4, .L57+4
 1251 0340 1346     		mov	r3, r2
 1252 0342 5B00     		lsls	r3, r3, #1
 1253 0344 1344     		add	r3, r3, r2
 1254 0346 9B00     		lsls	r3, r3, #2
 1255 0348 2344     		add	r3, r3, r4
 1256 034a 0233     		adds	r3, r3, #2
 1257 034c 1B88     		ldrh	r3, [r3]
 1258 034e 5B09     		lsrs	r3, r3, #5
 1259 0350 9BB2     		uxth	r3, r3
 1260 0352 1A46     		mov	r2, r3
 1261 0354 094B     		ldr	r3, .L57+8
 1262 0356 53F82230 		ldr	r3, [r3, r2, lsl #2]
 1263 035a 40EA0102 		orr	r2, r0, r1
 1264 035e 9A61     		str	r2, [r3, #24]
 209:libraries/zf_driver/zf_driver_soft_iic.c ****     }while(0);
 210:libraries/zf_driver/zf_driver_soft_iic.c **** }
 1265              		.loc 1 210 1 is_stmt 1 discriminator 1
 1266 0360 04E0     		b	.L54
 1267              	.L52:
 208:libraries/zf_driver/zf_driver_soft_iic.c ****         zf_soft_iic_io_high (soft_iic_obj_list[soft_iic_index].sda_pin);        // SDA æ‹‰é«˜
 1268              		.loc 1 208 9 discriminator 2
 1269 0362 0022     		movs	r2, #0
 1270 0364 D021     		movs	r1, #208
 1271 0366 0348     		ldr	r0, .L57
 1272 0368 FFF7FEFF 		bl	zf_gpio_assert_handler
 1273              	.L54:
 1274              		.loc 1 210 1
 1275 036c 00BF     		nop
 1276 036e 06B0     		add	sp, sp, #24
 1277              		.cfi_def_cfa_offset 8
 1278              		@ sp needed
 1279 0370 10BD     		pop	{r4, pc}
 1280              	.L58:
 1281 0372 00BF     		.align	2
 1282              	.L57:
 1283 0374 00000000 		.word	.LC0
 1284 0378 00000000 		.word	soft_iic_obj_list
 1285 037c 00000000 		.word	gpio_group_list
 1286              		.cfi_endproc
 1287              	.LFE175:
 1289              		.section	.text.zf_soft_iic_wait_ack,"ax",%progbits
 1290              		.align	1
 1291              		.p2align 4,,15
 1292              		.syntax unified
 1293              		.thumb
 1294              		.thumb_func
 1296              	zf_soft_iic_wait_ack:
 1297              	.LFB176:
 211:libraries/zf_driver/zf_driver_soft_iic.c **** 
 212:libraries/zf_driver/zf_driver_soft_iic.c **** //-------------------------------------------------------------------------------------------------
 213:libraries/zf_driver/zf_driver_soft_iic.c **** // å‡½æ•°ç®€ä»‹     SOFT_IIC è·å– ACK/NAKC ä¿¡å·
 214:libraries/zf_driver/zf_driver_soft_iic.c **** // å‚æ•°è¯´æ˜     soft_iic_index      SOFT_IIC ç´¢å¼•   (è¯¦è§ zf_driver_soft_iic.h å†… zf_soft_
 215:libraries/zf_driver/zf_driver_soft_iic.c **** // è¿”å›å‚æ•°     uint8               ACK çŠ¶æ€ è¡¨ç¤ºçš„æ˜¯å“åº”ç”µå¹³ è€Œä¸æ˜¯æ˜¯å¦æ”¶åˆ° A
 216:libraries/zf_driver/zf_driver_soft_iic.c **** // ä½¿ç”¨ç¤ºä¾‹     zf_soft_iic_wait_ack(soft_iic_index);
 217:libraries/zf_driver/zf_driver_soft_iic.c **** // å¤‡æ³¨ä¿¡æ¯     å†…éƒ¨è°ƒç”¨
 218:libraries/zf_driver/zf_driver_soft_iic.c **** //-------------------------------------------------------------------------------------------------
 219:libraries/zf_driver/zf_driver_soft_iic.c **** ZF_INLINE uint8 zf_soft_iic_wait_ack (zf_soft_iic_index_enum soft_iic_index)
 220:libraries/zf_driver/zf_driver_soft_iic.c **** {
 1298              		.loc 1 220 1
 1299              		.cfi_startproc
 1300              		@ args = 0, pretend = 0, frame = 32
 1301              		@ frame_needed = 0, uses_anonymous_args = 0
 1302 0000 10B5     		push	{r4, lr}
 1303              		.cfi_def_cfa_offset 8
 1304              		.cfi_offset 4, -8
 1305              		.cfi_offset 14, -4
 1306 0002 88B0     		sub	sp, sp, #32
 1307              		.cfi_def_cfa_offset 40
 1308 0004 0346     		mov	r3, r0
 1309 0006 8DF80730 		strb	r3, [sp, #7]
 221:libraries/zf_driver/zf_driver_soft_iic.c ****     uint8 temp = 1;
 1310              		.loc 1 221 11
 1311 000a 0123     		movs	r3, #1
 1312 000c 8DF81F30 		strb	r3, [sp, #31]
 222:libraries/zf_driver/zf_driver_soft_iic.c ****     do
 223:libraries/zf_driver/zf_driver_soft_iic.c ****     {
 224:libraries/zf_driver/zf_driver_soft_iic.c ****         zf_soft_iic_io_high (soft_iic_obj_list[soft_iic_index].sda_pin);        // SDA é«˜ç”µå¹³ é‡
 1313              		.loc 1 224 9
 1314 0010 9DF80720 		ldrb	r2, [sp, #7]	@ zero_extendqisi2
 1315 0014 9249     		ldr	r1, .L71
 1316 0016 1346     		mov	r3, r2
 1317 0018 5B00     		lsls	r3, r3, #1
 1318 001a 1344     		add	r3, r3, r2
 1319 001c 9B00     		lsls	r3, r3, #2
 1320 001e 0B44     		add	r3, r3, r1
 1321 0020 0233     		adds	r3, r3, #2
 1322 0022 1B88     		ldrh	r3, [r3]
 1323 0024 40F6FF72 		movw	r2, #4095
 1324 0028 9342     		cmp	r3, r2
 1325 002a 33D0     		beq	.L60
 1326              		.loc 1 224 9 is_stmt 0 discriminator 1
 1327 002c 9DF80720 		ldrb	r2, [sp, #7]	@ zero_extendqisi2
 1328 0030 8B49     		ldr	r1, .L71
 1329 0032 1346     		mov	r3, r2
 1330 0034 5B00     		lsls	r3, r3, #1
 1331 0036 1344     		add	r3, r3, r2
 1332 0038 9B00     		lsls	r3, r3, #2
 1333 003a 0B44     		add	r3, r3, r1
 1334 003c 0233     		adds	r3, r3, #2
 1335 003e 1B88     		ldrh	r3, [r3]
 1336 0040 5B09     		lsrs	r3, r3, #5
 1337 0042 9BB2     		uxth	r3, r3
 1338 0044 1A46     		mov	r2, r3
 1339 0046 874B     		ldr	r3, .L71+4
 1340 0048 53F82230 		ldr	r3, [r3, r2, lsl #2]
 1341 004c 9869     		ldr	r0, [r3, #24]
 1342 004e 9DF80720 		ldrb	r2, [sp, #7]	@ zero_extendqisi2
 1343 0052 8349     		ldr	r1, .L71
 1344 0054 1346     		mov	r3, r2
 1345 0056 5B00     		lsls	r3, r3, #1
 1346 0058 1344     		add	r3, r3, r2
 1347 005a 9B00     		lsls	r3, r3, #2
 1348 005c 0B44     		add	r3, r3, r1
 1349 005e 0233     		adds	r3, r3, #2
 1350 0060 1B88     		ldrh	r3, [r3]
 1351 0062 03F01F03 		and	r3, r3, #31
 1352 0066 0122     		movs	r2, #1
 1353 0068 02FA03F1 		lsl	r1, r2, r3
 1354 006c 9DF80720 		ldrb	r2, [sp, #7]	@ zero_extendqisi2
 1355 0070 7B4C     		ldr	r4, .L71
 1356 0072 1346     		mov	r3, r2
 1357 0074 5B00     		lsls	r3, r3, #1
 1358 0076 1344     		add	r3, r3, r2
 1359 0078 9B00     		lsls	r3, r3, #2
 1360 007a 2344     		add	r3, r3, r4
 1361 007c 0233     		adds	r3, r3, #2
 1362 007e 1B88     		ldrh	r3, [r3]
 1363 0080 5B09     		lsrs	r3, r3, #5
 1364 0082 9BB2     		uxth	r3, r3
 1365 0084 1A46     		mov	r2, r3
 1366 0086 774B     		ldr	r3, .L71+4
 1367 0088 53F82230 		ldr	r3, [r3, r2, lsl #2]
 1368 008c 40EA0102 		orr	r2, r0, r1
 1369 0090 9A61     		str	r2, [r3, #24]
 1370 0092 04E0     		b	.L61
 1371              	.L60:
 1372              		.loc 1 224 9 discriminator 2
 1373 0094 0022     		movs	r2, #0
 1374 0096 E021     		movs	r1, #224
 1375 0098 7348     		ldr	r0, .L71+8
 1376 009a FFF7FEFF 		bl	zf_gpio_assert_handler
 1377              	.L61:
 1378              	.LBB12:
 225:libraries/zf_driver/zf_driver_soft_iic.c **** #if SOFT_IIC_SDA_IO_SWITCH
 226:libraries/zf_driver/zf_driver_soft_iic.c ****         zf_soft_iic_io_in   (soft_iic_obj_list[soft_iic_index].sda_pin);
 227:libraries/zf_driver/zf_driver_soft_iic.c **** #endif
 228:libraries/zf_driver/zf_driver_soft_iic.c ****         zf_soft_iic_delay   (soft_iic_obj_list[soft_iic_index].delay);
 1379              		.loc 1 228 9 is_stmt 1
 1380 009e 9DF80720 		ldrb	r2, [sp, #7]	@ zero_extendqisi2
 1381 00a2 6F49     		ldr	r1, .L71
 1382 00a4 1346     		mov	r3, r2
 1383 00a6 5B00     		lsls	r3, r3, #1
 1384 00a8 1344     		add	r3, r3, r2
 1385 00aa 9B00     		lsls	r3, r3, #2
 1386 00ac 0B44     		add	r3, r3, r1
 1387 00ae 0433     		adds	r3, r3, #4
 1388 00b0 1B68     		ldr	r3, [r3]
 1389 00b2 0693     		str	r3, [sp, #24]
 1390 00b4 00BF     		nop
 1391              	.L62:
 1392              		.loc 1 228 9 is_stmt 0 discriminator 2
 1393 00b6 069B     		ldr	r3, [sp, #24]
 1394 00b8 5A1E     		subs	r2, r3, #1
 1395 00ba 0692     		str	r2, [sp, #24]
 1396 00bc 002B     		cmp	r3, #0
 1397 00be FAD1     		bne	.L62
 1398              	.LBE12:
 1399              	.LBB13:
 229:libraries/zf_driver/zf_driver_soft_iic.c ****         zf_soft_iic_delay   (soft_iic_obj_list[soft_iic_index].delay);
 1400              		.loc 1 229 9 is_stmt 1
 1401 00c0 9DF80720 		ldrb	r2, [sp, #7]	@ zero_extendqisi2
 1402 00c4 6649     		ldr	r1, .L71
 1403 00c6 1346     		mov	r3, r2
 1404 00c8 5B00     		lsls	r3, r3, #1
 1405 00ca 1344     		add	r3, r3, r2
 1406 00cc 9B00     		lsls	r3, r3, #2
 1407 00ce 0B44     		add	r3, r3, r1
 1408 00d0 0433     		adds	r3, r3, #4
 1409 00d2 1B68     		ldr	r3, [r3]
 1410 00d4 0593     		str	r3, [sp, #20]
 1411 00d6 00BF     		nop
 1412              	.L63:
 1413              		.loc 1 229 9 is_stmt 0 discriminator 2
 1414 00d8 059B     		ldr	r3, [sp, #20]
 1415 00da 5A1E     		subs	r2, r3, #1
 1416 00dc 0592     		str	r2, [sp, #20]
 1417 00de 002B     		cmp	r3, #0
 1418 00e0 FAD1     		bne	.L63
 1419              	.LBE13:
 230:libraries/zf_driver/zf_driver_soft_iic.c **** 
 231:libraries/zf_driver/zf_driver_soft_iic.c ****         zf_soft_iic_io_high (soft_iic_obj_list[soft_iic_index].scl_pin);        // SCL é«˜ç”µå¹³
 1420              		.loc 1 231 9 is_stmt 1
 1421 00e2 9DF80720 		ldrb	r2, [sp, #7]	@ zero_extendqisi2
 1422 00e6 5E49     		ldr	r1, .L71
 1423 00e8 1346     		mov	r3, r2
 1424 00ea 5B00     		lsls	r3, r3, #1
 1425 00ec 1344     		add	r3, r3, r2
 1426 00ee 9B00     		lsls	r3, r3, #2
 1427 00f0 0B44     		add	r3, r3, r1
 1428 00f2 1B88     		ldrh	r3, [r3]
 1429 00f4 40F6FF72 		movw	r2, #4095
 1430 00f8 9342     		cmp	r3, r2
 1431 00fa 30D0     		beq	.L64
 1432              		.loc 1 231 9 is_stmt 0 discriminator 1
 1433 00fc 9DF80720 		ldrb	r2, [sp, #7]	@ zero_extendqisi2
 1434 0100 5749     		ldr	r1, .L71
 1435 0102 1346     		mov	r3, r2
 1436 0104 5B00     		lsls	r3, r3, #1
 1437 0106 1344     		add	r3, r3, r2
 1438 0108 9B00     		lsls	r3, r3, #2
 1439 010a 0B44     		add	r3, r3, r1
 1440 010c 1B88     		ldrh	r3, [r3]
 1441 010e 5B09     		lsrs	r3, r3, #5
 1442 0110 9BB2     		uxth	r3, r3
 1443 0112 1A46     		mov	r2, r3
 1444 0114 534B     		ldr	r3, .L71+4
 1445 0116 53F82230 		ldr	r3, [r3, r2, lsl #2]
 1446 011a 9869     		ldr	r0, [r3, #24]
 1447 011c 9DF80720 		ldrb	r2, [sp, #7]	@ zero_extendqisi2
 1448 0120 4F49     		ldr	r1, .L71
 1449 0122 1346     		mov	r3, r2
 1450 0124 5B00     		lsls	r3, r3, #1
 1451 0126 1344     		add	r3, r3, r2
 1452 0128 9B00     		lsls	r3, r3, #2
 1453 012a 0B44     		add	r3, r3, r1
 1454 012c 1B88     		ldrh	r3, [r3]
 1455 012e 03F01F03 		and	r3, r3, #31
 1456 0132 0122     		movs	r2, #1
 1457 0134 02FA03F1 		lsl	r1, r2, r3
 1458 0138 9DF80720 		ldrb	r2, [sp, #7]	@ zero_extendqisi2
 1459 013c 484C     		ldr	r4, .L71
 1460 013e 1346     		mov	r3, r2
 1461 0140 5B00     		lsls	r3, r3, #1
 1462 0142 1344     		add	r3, r3, r2
 1463 0144 9B00     		lsls	r3, r3, #2
 1464 0146 2344     		add	r3, r3, r4
 1465 0148 1B88     		ldrh	r3, [r3]
 1466 014a 5B09     		lsrs	r3, r3, #5
 1467 014c 9BB2     		uxth	r3, r3
 1468 014e 1A46     		mov	r2, r3
 1469 0150 444B     		ldr	r3, .L71+4
 1470 0152 53F82230 		ldr	r3, [r3, r2, lsl #2]
 1471 0156 40EA0102 		orr	r2, r0, r1
 1472 015a 9A61     		str	r2, [r3, #24]
 1473 015c 04E0     		b	.L65
 1474              	.L64:
 1475              		.loc 1 231 9 discriminator 2
 1476 015e 0022     		movs	r2, #0
 1477 0160 E721     		movs	r1, #231
 1478 0162 4148     		ldr	r0, .L71+8
 1479 0164 FFF7FEFF 		bl	zf_gpio_assert_handler
 1480              	.L65:
 1481              	.LBB14:
 232:libraries/zf_driver/zf_driver_soft_iic.c ****         zf_soft_iic_delay   (soft_iic_obj_list[soft_iic_index].delay);
 1482              		.loc 1 232 9 is_stmt 1
 1483 0168 9DF80720 		ldrb	r2, [sp, #7]	@ zero_extendqisi2
 1484 016c 3C49     		ldr	r1, .L71
 1485 016e 1346     		mov	r3, r2
 1486 0170 5B00     		lsls	r3, r3, #1
 1487 0172 1344     		add	r3, r3, r2
 1488 0174 9B00     		lsls	r3, r3, #2
 1489 0176 0B44     		add	r3, r3, r1
 1490 0178 0433     		adds	r3, r3, #4
 1491 017a 1B68     		ldr	r3, [r3]
 1492 017c 0493     		str	r3, [sp, #16]
 1493 017e 00BF     		nop
 1494              	.L66:
 1495              		.loc 1 232 9 is_stmt 0 discriminator 2
 1496 0180 049B     		ldr	r3, [sp, #16]
 1497 0182 5A1E     		subs	r2, r3, #1
 1498 0184 0492     		str	r2, [sp, #16]
 1499 0186 002B     		cmp	r3, #0
 1500 0188 FAD1     		bne	.L66
 1501              	.LBE14:
 1502              	.LBB15:
 233:libraries/zf_driver/zf_driver_soft_iic.c ****         zf_soft_iic_delay   (soft_iic_obj_list[soft_iic_index].delay);
 1503              		.loc 1 233 9 is_stmt 1
 1504 018a 9DF80720 		ldrb	r2, [sp, #7]	@ zero_extendqisi2
 1505 018e 3449     		ldr	r1, .L71
 1506 0190 1346     		mov	r3, r2
 1507 0192 5B00     		lsls	r3, r3, #1
 1508 0194 1344     		add	r3, r3, r2
 1509 0196 9B00     		lsls	r3, r3, #2
 1510 0198 0B44     		add	r3, r3, r1
 1511 019a 0433     		adds	r3, r3, #4
 1512 019c 1B68     		ldr	r3, [r3]
 1513 019e 0393     		str	r3, [sp, #12]
 1514 01a0 00BF     		nop
 1515              	.L67:
 1516              		.loc 1 233 9 is_stmt 0 discriminator 2
 1517 01a2 039B     		ldr	r3, [sp, #12]
 1518 01a4 5A1E     		subs	r2, r3, #1
 1519 01a6 0392     		str	r2, [sp, #12]
 1520 01a8 002B     		cmp	r3, #0
 1521 01aa FAD1     		bne	.L67
 1522              	.LBE15:
 234:libraries/zf_driver/zf_driver_soft_iic.c **** 
 235:libraries/zf_driver/zf_driver_soft_iic.c ****         temp = zf_gpio_get_level(soft_iic_obj_list[soft_iic_index].sda_pin);
 1523              		.loc 1 235 16 is_stmt 1
 1524 01ac 9DF80720 		ldrb	r2, [sp, #7]	@ zero_extendqisi2
 1525 01b0 2B49     		ldr	r1, .L71
 1526 01b2 1346     		mov	r3, r2
 1527 01b4 5B00     		lsls	r3, r3, #1
 1528 01b6 1344     		add	r3, r3, r2
 1529 01b8 9B00     		lsls	r3, r3, #2
 1530 01ba 0B44     		add	r3, r3, r1
 1531 01bc 0233     		adds	r3, r3, #2
 1532 01be 1B88     		ldrh	r3, [r3]
 1533 01c0 1846     		mov	r0, r3
 1534 01c2 FFF7FEFF 		bl	zf_gpio_get_level
 1535 01c6 0346     		mov	r3, r0
 1536 01c8 8DF81F30 		strb	r3, [sp, #31]
 236:libraries/zf_driver/zf_driver_soft_iic.c ****         zf_soft_iic_io_low  (soft_iic_obj_list[soft_iic_index].scl_pin);        // SCL ä½ç”µå¹³
 1537              		.loc 1 236 9
 1538 01cc 9DF80720 		ldrb	r2, [sp, #7]	@ zero_extendqisi2
 1539 01d0 2349     		ldr	r1, .L71
 1540 01d2 1346     		mov	r3, r2
 1541 01d4 5B00     		lsls	r3, r3, #1
 1542 01d6 1344     		add	r3, r3, r2
 1543 01d8 9B00     		lsls	r3, r3, #2
 1544 01da 0B44     		add	r3, r3, r1
 1545 01dc 1B88     		ldrh	r3, [r3]
 1546 01de 40F6FF72 		movw	r2, #4095
 1547 01e2 9342     		cmp	r3, r2
 1548 01e4 31D0     		beq	.L68
 1549              		.loc 1 236 9 is_stmt 0 discriminator 1
 1550 01e6 9DF80720 		ldrb	r2, [sp, #7]	@ zero_extendqisi2
 1551 01ea 1D49     		ldr	r1, .L71
 1552 01ec 1346     		mov	r3, r2
 1553 01ee 5B00     		lsls	r3, r3, #1
 1554 01f0 1344     		add	r3, r3, r2
 1555 01f2 9B00     		lsls	r3, r3, #2
 1556 01f4 0B44     		add	r3, r3, r1
 1557 01f6 1B88     		ldrh	r3, [r3]
 1558 01f8 5B09     		lsrs	r3, r3, #5
 1559 01fa 9BB2     		uxth	r3, r3
 1560 01fc 1A46     		mov	r2, r3
 1561 01fe 194B     		ldr	r3, .L71+4
 1562 0200 53F82230 		ldr	r3, [r3, r2, lsl #2]
 1563 0204 9869     		ldr	r0, [r3, #24]
 1564 0206 9DF80720 		ldrb	r2, [sp, #7]	@ zero_extendqisi2
 1565 020a 1549     		ldr	r1, .L71
 1566 020c 1346     		mov	r3, r2
 1567 020e 5B00     		lsls	r3, r3, #1
 1568 0210 1344     		add	r3, r3, r2
 1569 0212 9B00     		lsls	r3, r3, #2
 1570 0214 0B44     		add	r3, r3, r1
 1571 0216 1B88     		ldrh	r3, [r3]
 1572 0218 03F01F03 		and	r3, r3, #31
 1573 021c 4FF48032 		mov	r2, #65536
 1574 0220 02FA03F1 		lsl	r1, r2, r3
 1575 0224 9DF80720 		ldrb	r2, [sp, #7]	@ zero_extendqisi2
 1576 0228 0D4C     		ldr	r4, .L71
 1577 022a 1346     		mov	r3, r2
 1578 022c 5B00     		lsls	r3, r3, #1
 1579 022e 1344     		add	r3, r3, r2
 1580 0230 9B00     		lsls	r3, r3, #2
 1581 0232 2344     		add	r3, r3, r4
 1582 0234 1B88     		ldrh	r3, [r3]
 1583 0236 5B09     		lsrs	r3, r3, #5
 1584 0238 9BB2     		uxth	r3, r3
 1585 023a 1A46     		mov	r2, r3
 1586 023c 094B     		ldr	r3, .L71+4
 1587 023e 53F82230 		ldr	r3, [r3, r2, lsl #2]
 1588 0242 40EA0102 		orr	r2, r0, r1
 1589 0246 9A61     		str	r2, [r3, #24]
 1590 0248 04E0     		b	.L69
 1591              	.L68:
 1592              		.loc 1 236 9 discriminator 2
 1593 024a 0022     		movs	r2, #0
 1594 024c EC21     		movs	r1, #236
 1595 024e 0648     		ldr	r0, .L71+8
 1596 0250 FFF7FEFF 		bl	zf_gpio_assert_handler
 1597              	.L69:
 237:libraries/zf_driver/zf_driver_soft_iic.c **** #if SOFT_IIC_SDA_IO_SWITCH
 238:libraries/zf_driver/zf_driver_soft_iic.c ****         zf_soft_iic_io_out  (soft_iic_obj_list[soft_iic_index].sda_pin);
 239:libraries/zf_driver/zf_driver_soft_iic.c **** #endif
 240:libraries/zf_driver/zf_driver_soft_iic.c ****     }while(0);
 241:libraries/zf_driver/zf_driver_soft_iic.c ****     return temp;
 1598              		.loc 1 241 12 is_stmt 1
 1599 0254 9DF81F30 		ldrb	r3, [sp, #31]	@ zero_extendqisi2
 242:libraries/zf_driver/zf_driver_soft_iic.c **** }
 1600              		.loc 1 242 1
 1601 0258 1846     		mov	r0, r3
 1602 025a 08B0     		add	sp, sp, #32
 1603              		.cfi_def_cfa_offset 8
 1604              		@ sp needed
 1605 025c 10BD     		pop	{r4, pc}
 1606              	.L72:
 1607 025e 00BF     		.align	2
 1608              	.L71:
 1609 0260 00000000 		.word	soft_iic_obj_list
 1610 0264 00000000 		.word	gpio_group_list
 1611 0268 00000000 		.word	.LC0
 1612              		.cfi_endproc
 1613              	.LFE176:
 1615              		.section	.text.zf_soft_iic_send_data,"ax",%progbits
 1616              		.align	1
 1617              		.p2align 4,,15
 1618              		.syntax unified
 1619              		.thumb
 1620              		.thumb_func
 1622              	zf_soft_iic_send_data:
 1623              	.LFB177:
 243:libraries/zf_driver/zf_driver_soft_iic.c **** 
 244:libraries/zf_driver/zf_driver_soft_iic.c **** //-------------------------------------------------------------------------------------------------
 245:libraries/zf_driver/zf_driver_soft_iic.c **** // å‡½æ•°ç®€ä»‹     SOFT_IIC å‘é€ 8bit æ•°æ®
 246:libraries/zf_driver/zf_driver_soft_iic.c **** // å‚æ•°è¯´æ˜     soft_iic_index      SOFT_IIC ç´¢å¼•   (è¯¦è§ zf_driver_soft_iic.h å†… zf_soft_
 247:libraries/zf_driver/zf_driver_soft_iic.c **** // å‚æ•°è¯´æ˜     data                æ•°æ®
 248:libraries/zf_driver/zf_driver_soft_iic.c **** // è¿”å›å‚æ•°     uint8               ACK çŠ¶æ€
 249:libraries/zf_driver/zf_driver_soft_iic.c **** // ä½¿ç”¨ç¤ºä¾‹     zf_soft_iic_send_data(soft_iic_index, data);
 250:libraries/zf_driver/zf_driver_soft_iic.c **** // å¤‡æ³¨ä¿¡æ¯     å†…éƒ¨è°ƒç”¨
 251:libraries/zf_driver/zf_driver_soft_iic.c **** //-------------------------------------------------------------------------------------------------
 252:libraries/zf_driver/zf_driver_soft_iic.c **** ZF_INLINE uint8 zf_soft_iic_send_data (zf_soft_iic_index_enum soft_iic_index, const uint8 data)
 253:libraries/zf_driver/zf_driver_soft_iic.c **** {
 1624              		.loc 1 253 1
 1625              		.cfi_startproc
 1626              		@ args = 0, pretend = 0, frame = 32
 1627              		@ frame_needed = 0, uses_anonymous_args = 0
 1628 0000 10B5     		push	{r4, lr}
 1629              		.cfi_def_cfa_offset 8
 1630              		.cfi_offset 4, -8
 1631              		.cfi_offset 14, -4
 1632 0002 88B0     		sub	sp, sp, #32
 1633              		.cfi_def_cfa_offset 40
 1634 0004 0346     		mov	r3, r0
 1635 0006 0A46     		mov	r2, r1
 1636 0008 8DF80730 		strb	r3, [sp, #7]
 1637 000c 1346     		mov	r3, r2
 1638 000e 8DF80630 		strb	r3, [sp, #6]
 254:libraries/zf_driver/zf_driver_soft_iic.c ****     uint8 temp = 1;
 1639              		.loc 1 254 11
 1640 0012 0123     		movs	r3, #1
 1641 0014 8DF81F30 		strb	r3, [sp, #31]
 255:libraries/zf_driver/zf_driver_soft_iic.c ****     do
 256:libraries/zf_driver/zf_driver_soft_iic.c ****     {
 257:libraries/zf_driver/zf_driver_soft_iic.c ****         if(ZF_DISABLE == soft_iic_obj_list[soft_iic_index].enable)
 1642              		.loc 1 257 59
 1643 0018 9DF80720 		ldrb	r2, [sp, #7]	@ zero_extendqisi2
 1644 001c C449     		ldr	r1, .L91
 1645 001e 1346     		mov	r3, r2
 1646 0020 5B00     		lsls	r3, r3, #1
 1647 0022 1344     		add	r3, r3, r2
 1648 0024 9B00     		lsls	r3, r3, #2
 1649 0026 0B44     		add	r3, r3, r1
 1650 0028 0833     		adds	r3, r3, #8
 1651 002a 1B68     		ldr	r3, [r3]
 1652              		.loc 1 257 11
 1653 002c 002B     		cmp	r3, #0
 1654 002e 00F08581 		beq	.L90
 258:libraries/zf_driver/zf_driver_soft_iic.c ****         {
 259:libraries/zf_driver/zf_driver_soft_iic.c ****             break;
 260:libraries/zf_driver/zf_driver_soft_iic.c ****         }
 261:libraries/zf_driver/zf_driver_soft_iic.c ****         temp = 0x80;
 1655              		.loc 1 261 14
 1656 0032 8023     		movs	r3, #128
 1657 0034 8DF81F30 		strb	r3, [sp, #31]
 262:libraries/zf_driver/zf_driver_soft_iic.c ****         while(temp)
 1658              		.loc 1 262 14
 1659 0038 6BE1     		b	.L76
 1660              	.L88:
 263:libraries/zf_driver/zf_driver_soft_iic.c ****         {
 264:libraries/zf_driver/zf_driver_soft_iic.c ****             if(data & temp)
 1661              		.loc 1 264 16
 1662 003a 9DF80620 		ldrb	r2, [sp, #6]
 1663 003e 9DF81F30 		ldrb	r3, [sp, #31]
 1664 0042 1340     		ands	r3, r3, r2
 1665 0044 DBB2     		uxtb	r3, r3
 1666              		.loc 1 264 15
 1667 0046 002B     		cmp	r3, #0
 1668 0048 48D0     		beq	.L77
 265:libraries/zf_driver/zf_driver_soft_iic.c ****             {
 266:libraries/zf_driver/zf_driver_soft_iic.c ****                 zf_soft_iic_io_high (soft_iic_obj_list[soft_iic_index].sda_pin);// SDA æ‹‰é«˜
 1669              		.loc 1 266 17
 1670 004a 9DF80720 		ldrb	r2, [sp, #7]	@ zero_extendqisi2
 1671 004e B849     		ldr	r1, .L91
 1672 0050 1346     		mov	r3, r2
 1673 0052 5B00     		lsls	r3, r3, #1
 1674 0054 1344     		add	r3, r3, r2
 1675 0056 9B00     		lsls	r3, r3, #2
 1676 0058 0B44     		add	r3, r3, r1
 1677 005a 0233     		adds	r3, r3, #2
 1678 005c 1B88     		ldrh	r3, [r3]
 1679 005e 40F6FF72 		movw	r2, #4095
 1680 0062 9342     		cmp	r3, r2
 1681 0064 33D0     		beq	.L78
 1682              		.loc 1 266 17 is_stmt 0 discriminator 1
 1683 0066 9DF80720 		ldrb	r2, [sp, #7]	@ zero_extendqisi2
 1684 006a B149     		ldr	r1, .L91
 1685 006c 1346     		mov	r3, r2
 1686 006e 5B00     		lsls	r3, r3, #1
 1687 0070 1344     		add	r3, r3, r2
 1688 0072 9B00     		lsls	r3, r3, #2
 1689 0074 0B44     		add	r3, r3, r1
 1690 0076 0233     		adds	r3, r3, #2
 1691 0078 1B88     		ldrh	r3, [r3]
 1692 007a 5B09     		lsrs	r3, r3, #5
 1693 007c 9BB2     		uxth	r3, r3
 1694 007e 1A46     		mov	r2, r3
 1695 0080 AC4B     		ldr	r3, .L91+4
 1696 0082 53F82230 		ldr	r3, [r3, r2, lsl #2]
 1697 0086 9869     		ldr	r0, [r3, #24]
 1698 0088 9DF80720 		ldrb	r2, [sp, #7]	@ zero_extendqisi2
 1699 008c A849     		ldr	r1, .L91
 1700 008e 1346     		mov	r3, r2
 1701 0090 5B00     		lsls	r3, r3, #1
 1702 0092 1344     		add	r3, r3, r2
 1703 0094 9B00     		lsls	r3, r3, #2
 1704 0096 0B44     		add	r3, r3, r1
 1705 0098 0233     		adds	r3, r3, #2
 1706 009a 1B88     		ldrh	r3, [r3]
 1707 009c 03F01F03 		and	r3, r3, #31
 1708 00a0 0122     		movs	r2, #1
 1709 00a2 02FA03F1 		lsl	r1, r2, r3
 1710 00a6 9DF80720 		ldrb	r2, [sp, #7]	@ zero_extendqisi2
 1711 00aa A14C     		ldr	r4, .L91
 1712 00ac 1346     		mov	r3, r2
 1713 00ae 5B00     		lsls	r3, r3, #1
 1714 00b0 1344     		add	r3, r3, r2
 1715 00b2 9B00     		lsls	r3, r3, #2
 1716 00b4 2344     		add	r3, r3, r4
 1717 00b6 0233     		adds	r3, r3, #2
 1718 00b8 1B88     		ldrh	r3, [r3]
 1719 00ba 5B09     		lsrs	r3, r3, #5
 1720 00bc 9BB2     		uxth	r3, r3
 1721 00be 1A46     		mov	r2, r3
 1722 00c0 9C4B     		ldr	r3, .L91+4
 1723 00c2 53F82230 		ldr	r3, [r3, r2, lsl #2]
 1724 00c6 40EA0102 		orr	r2, r0, r1
 1725 00ca 9A61     		str	r2, [r3, #24]
 1726 00cc 4FE0     		b	.L79
 1727              	.L78:
 1728              		.loc 1 266 17 discriminator 2
 1729 00ce 0022     		movs	r2, #0
 1730 00d0 4FF48571 		mov	r1, #266
 1731 00d4 9848     		ldr	r0, .L91+8
 1732 00d6 FFF7FEFF 		bl	zf_gpio_assert_handler
 1733 00da 48E0     		b	.L79
 1734              	.L77:
 267:libraries/zf_driver/zf_driver_soft_iic.c ****             }
 268:libraries/zf_driver/zf_driver_soft_iic.c ****             else
 269:libraries/zf_driver/zf_driver_soft_iic.c ****             {
 270:libraries/zf_driver/zf_driver_soft_iic.c ****                 zf_soft_iic_io_low  (soft_iic_obj_list[soft_iic_index].sda_pin);// SDA æ‹‰ä½
 1735              		.loc 1 270 17 is_stmt 1
 1736 00dc 9DF80720 		ldrb	r2, [sp, #7]	@ zero_extendqisi2
 1737 00e0 9349     		ldr	r1, .L91
 1738 00e2 1346     		mov	r3, r2
 1739 00e4 5B00     		lsls	r3, r3, #1
 1740 00e6 1344     		add	r3, r3, r2
 1741 00e8 9B00     		lsls	r3, r3, #2
 1742 00ea 0B44     		add	r3, r3, r1
 1743 00ec 0233     		adds	r3, r3, #2
 1744 00ee 1B88     		ldrh	r3, [r3]
 1745 00f0 40F6FF72 		movw	r2, #4095
 1746 00f4 9342     		cmp	r3, r2
 1747 00f6 34D0     		beq	.L80
 1748              		.loc 1 270 17 is_stmt 0 discriminator 1
 1749 00f8 9DF80720 		ldrb	r2, [sp, #7]	@ zero_extendqisi2
 1750 00fc 8C49     		ldr	r1, .L91
 1751 00fe 1346     		mov	r3, r2
 1752 0100 5B00     		lsls	r3, r3, #1
 1753 0102 1344     		add	r3, r3, r2
 1754 0104 9B00     		lsls	r3, r3, #2
 1755 0106 0B44     		add	r3, r3, r1
 1756 0108 0233     		adds	r3, r3, #2
 1757 010a 1B88     		ldrh	r3, [r3]
 1758 010c 5B09     		lsrs	r3, r3, #5
 1759 010e 9BB2     		uxth	r3, r3
 1760 0110 1A46     		mov	r2, r3
 1761 0112 884B     		ldr	r3, .L91+4
 1762 0114 53F82230 		ldr	r3, [r3, r2, lsl #2]
 1763 0118 9869     		ldr	r0, [r3, #24]
 1764 011a 9DF80720 		ldrb	r2, [sp, #7]	@ zero_extendqisi2
 1765 011e 8449     		ldr	r1, .L91
 1766 0120 1346     		mov	r3, r2
 1767 0122 5B00     		lsls	r3, r3, #1
 1768 0124 1344     		add	r3, r3, r2
 1769 0126 9B00     		lsls	r3, r3, #2
 1770 0128 0B44     		add	r3, r3, r1
 1771 012a 0233     		adds	r3, r3, #2
 1772 012c 1B88     		ldrh	r3, [r3]
 1773 012e 03F01F03 		and	r3, r3, #31
 1774 0132 4FF48032 		mov	r2, #65536
 1775 0136 02FA03F1 		lsl	r1, r2, r3
 1776 013a 9DF80720 		ldrb	r2, [sp, #7]	@ zero_extendqisi2
 1777 013e 7C4C     		ldr	r4, .L91
 1778 0140 1346     		mov	r3, r2
 1779 0142 5B00     		lsls	r3, r3, #1
 1780 0144 1344     		add	r3, r3, r2
 1781 0146 9B00     		lsls	r3, r3, #2
 1782 0148 2344     		add	r3, r3, r4
 1783 014a 0233     		adds	r3, r3, #2
 1784 014c 1B88     		ldrh	r3, [r3]
 1785 014e 5B09     		lsrs	r3, r3, #5
 1786 0150 9BB2     		uxth	r3, r3
 1787 0152 1A46     		mov	r2, r3
 1788 0154 774B     		ldr	r3, .L91+4
 1789 0156 53F82230 		ldr	r3, [r3, r2, lsl #2]
 1790 015a 40EA0102 		orr	r2, r0, r1
 1791 015e 9A61     		str	r2, [r3, #24]
 1792 0160 05E0     		b	.L79
 1793              	.L80:
 1794              		.loc 1 270 17 discriminator 2
 1795 0162 0022     		movs	r2, #0
 1796 0164 4FF48771 		mov	r1, #270
 1797 0168 7348     		ldr	r0, .L91+8
 1798 016a FFF7FEFF 		bl	zf_gpio_assert_handler
 1799              	.L79:
 271:libraries/zf_driver/zf_driver_soft_iic.c ****             }
 272:libraries/zf_driver/zf_driver_soft_iic.c ****             temp >>= 1;
 1800              		.loc 1 272 18 is_stmt 1
 1801 016e 9DF81F30 		ldrb	r3, [sp, #31]	@ zero_extendqisi2
 1802 0172 5B08     		lsrs	r3, r3, #1
 1803 0174 8DF81F30 		strb	r3, [sp, #31]
 1804              	.LBB16:
 273:libraries/zf_driver/zf_driver_soft_iic.c **** 
 274:libraries/zf_driver/zf_driver_soft_iic.c ****             zf_soft_iic_delay   (soft_iic_obj_list[soft_iic_index].delay);
 1805              		.loc 1 274 13
 1806 0178 9DF80720 		ldrb	r2, [sp, #7]	@ zero_extendqisi2
 1807 017c 6C49     		ldr	r1, .L91
 1808 017e 1346     		mov	r3, r2
 1809 0180 5B00     		lsls	r3, r3, #1
 1810 0182 1344     		add	r3, r3, r2
 1811 0184 9B00     		lsls	r3, r3, #2
 1812 0186 0B44     		add	r3, r3, r1
 1813 0188 0433     		adds	r3, r3, #4
 1814 018a 1B68     		ldr	r3, [r3]
 1815 018c 0693     		str	r3, [sp, #24]
 1816 018e 00BF     		nop
 1817              	.L81:
 1818              		.loc 1 274 13 is_stmt 0 discriminator 2
 1819 0190 069B     		ldr	r3, [sp, #24]
 1820 0192 5A1E     		subs	r2, r3, #1
 1821 0194 0692     		str	r2, [sp, #24]
 1822 0196 002B     		cmp	r3, #0
 1823 0198 FAD1     		bne	.L81
 1824              	.LBE16:
 1825              	.LBB17:
 275:libraries/zf_driver/zf_driver_soft_iic.c ****             zf_soft_iic_delay   (soft_iic_obj_list[soft_iic_index].delay);
 1826              		.loc 1 275 13 is_stmt 1
 1827 019a 9DF80720 		ldrb	r2, [sp, #7]	@ zero_extendqisi2
 1828 019e 6449     		ldr	r1, .L91
 1829 01a0 1346     		mov	r3, r2
 1830 01a2 5B00     		lsls	r3, r3, #1
 1831 01a4 1344     		add	r3, r3, r2
 1832 01a6 9B00     		lsls	r3, r3, #2
 1833 01a8 0B44     		add	r3, r3, r1
 1834 01aa 0433     		adds	r3, r3, #4
 1835 01ac 1B68     		ldr	r3, [r3]
 1836 01ae 0593     		str	r3, [sp, #20]
 1837 01b0 00BF     		nop
 1838              	.L82:
 1839              		.loc 1 275 13 is_stmt 0 discriminator 2
 1840 01b2 059B     		ldr	r3, [sp, #20]
 1841 01b4 5A1E     		subs	r2, r3, #1
 1842 01b6 0592     		str	r2, [sp, #20]
 1843 01b8 002B     		cmp	r3, #0
 1844 01ba FAD1     		bne	.L82
 1845              	.LBE17:
 276:libraries/zf_driver/zf_driver_soft_iic.c ****             zf_soft_iic_io_high (soft_iic_obj_list[soft_iic_index].scl_pin);    // SCL æ‹‰é«˜
 1846              		.loc 1 276 13 is_stmt 1
 1847 01bc 9DF80720 		ldrb	r2, [sp, #7]	@ zero_extendqisi2
 1848 01c0 5B49     		ldr	r1, .L91
 1849 01c2 1346     		mov	r3, r2
 1850 01c4 5B00     		lsls	r3, r3, #1
 1851 01c6 1344     		add	r3, r3, r2
 1852 01c8 9B00     		lsls	r3, r3, #2
 1853 01ca 0B44     		add	r3, r3, r1
 1854 01cc 1B88     		ldrh	r3, [r3]
 1855 01ce 40F6FF72 		movw	r2, #4095
 1856 01d2 9342     		cmp	r3, r2
 1857 01d4 30D0     		beq	.L83
 1858              		.loc 1 276 13 is_stmt 0 discriminator 1
 1859 01d6 9DF80720 		ldrb	r2, [sp, #7]	@ zero_extendqisi2
 1860 01da 5549     		ldr	r1, .L91
 1861 01dc 1346     		mov	r3, r2
 1862 01de 5B00     		lsls	r3, r3, #1
 1863 01e0 1344     		add	r3, r3, r2
 1864 01e2 9B00     		lsls	r3, r3, #2
 1865 01e4 0B44     		add	r3, r3, r1
 1866 01e6 1B88     		ldrh	r3, [r3]
 1867 01e8 5B09     		lsrs	r3, r3, #5
 1868 01ea 9BB2     		uxth	r3, r3
 1869 01ec 1A46     		mov	r2, r3
 1870 01ee 514B     		ldr	r3, .L91+4
 1871 01f0 53F82230 		ldr	r3, [r3, r2, lsl #2]
 1872 01f4 9869     		ldr	r0, [r3, #24]
 1873 01f6 9DF80720 		ldrb	r2, [sp, #7]	@ zero_extendqisi2
 1874 01fa 4D49     		ldr	r1, .L91
 1875 01fc 1346     		mov	r3, r2
 1876 01fe 5B00     		lsls	r3, r3, #1
 1877 0200 1344     		add	r3, r3, r2
 1878 0202 9B00     		lsls	r3, r3, #2
 1879 0204 0B44     		add	r3, r3, r1
 1880 0206 1B88     		ldrh	r3, [r3]
 1881 0208 03F01F03 		and	r3, r3, #31
 1882 020c 0122     		movs	r2, #1
 1883 020e 02FA03F1 		lsl	r1, r2, r3
 1884 0212 9DF80720 		ldrb	r2, [sp, #7]	@ zero_extendqisi2
 1885 0216 464C     		ldr	r4, .L91
 1886 0218 1346     		mov	r3, r2
 1887 021a 5B00     		lsls	r3, r3, #1
 1888 021c 1344     		add	r3, r3, r2
 1889 021e 9B00     		lsls	r3, r3, #2
 1890 0220 2344     		add	r3, r3, r4
 1891 0222 1B88     		ldrh	r3, [r3]
 1892 0224 5B09     		lsrs	r3, r3, #5
 1893 0226 9BB2     		uxth	r3, r3
 1894 0228 1A46     		mov	r2, r3
 1895 022a 424B     		ldr	r3, .L91+4
 1896 022c 53F82230 		ldr	r3, [r3, r2, lsl #2]
 1897 0230 40EA0102 		orr	r2, r0, r1
 1898 0234 9A61     		str	r2, [r3, #24]
 1899 0236 05E0     		b	.L84
 1900              	.L83:
 1901              		.loc 1 276 13 discriminator 2
 1902 0238 0022     		movs	r2, #0
 1903 023a 4FF48A71 		mov	r1, #276
 1904 023e 3E48     		ldr	r0, .L91+8
 1905 0240 FFF7FEFF 		bl	zf_gpio_assert_handler
 1906              	.L84:
 1907              	.LBB18:
 277:libraries/zf_driver/zf_driver_soft_iic.c **** 
 278:libraries/zf_driver/zf_driver_soft_iic.c ****             zf_soft_iic_delay   (soft_iic_obj_list[soft_iic_index].delay);
 1908              		.loc 1 278 13 is_stmt 1
 1909 0244 9DF80720 		ldrb	r2, [sp, #7]	@ zero_extendqisi2
 1910 0248 3949     		ldr	r1, .L91
 1911 024a 1346     		mov	r3, r2
 1912 024c 5B00     		lsls	r3, r3, #1
 1913 024e 1344     		add	r3, r3, r2
 1914 0250 9B00     		lsls	r3, r3, #2
 1915 0252 0B44     		add	r3, r3, r1
 1916 0254 0433     		adds	r3, r3, #4
 1917 0256 1B68     		ldr	r3, [r3]
 1918 0258 0493     		str	r3, [sp, #16]
 1919 025a 00BF     		nop
 1920              	.L85:
 1921              		.loc 1 278 13 is_stmt 0 discriminator 2
 1922 025c 049B     		ldr	r3, [sp, #16]
 1923 025e 5A1E     		subs	r2, r3, #1
 1924 0260 0492     		str	r2, [sp, #16]
 1925 0262 002B     		cmp	r3, #0
 1926 0264 FAD1     		bne	.L85
 1927              	.LBE18:
 1928              	.LBB19:
 279:libraries/zf_driver/zf_driver_soft_iic.c ****             zf_soft_iic_delay   (soft_iic_obj_list[soft_iic_index].delay);
 1929              		.loc 1 279 13 is_stmt 1
 1930 0266 9DF80720 		ldrb	r2, [sp, #7]	@ zero_extendqisi2
 1931 026a 3149     		ldr	r1, .L91
 1932 026c 1346     		mov	r3, r2
 1933 026e 5B00     		lsls	r3, r3, #1
 1934 0270 1344     		add	r3, r3, r2
 1935 0272 9B00     		lsls	r3, r3, #2
 1936 0274 0B44     		add	r3, r3, r1
 1937 0276 0433     		adds	r3, r3, #4
 1938 0278 1B68     		ldr	r3, [r3]
 1939 027a 0393     		str	r3, [sp, #12]
 1940 027c 00BF     		nop
 1941              	.L86:
 1942              		.loc 1 279 13 is_stmt 0 discriminator 2
 1943 027e 039B     		ldr	r3, [sp, #12]
 1944 0280 5A1E     		subs	r2, r3, #1
 1945 0282 0392     		str	r2, [sp, #12]
 1946 0284 002B     		cmp	r3, #0
 1947 0286 FAD1     		bne	.L86
 1948              	.LBE19:
 280:libraries/zf_driver/zf_driver_soft_iic.c ****             zf_soft_iic_io_low  (soft_iic_obj_list[soft_iic_index].scl_pin);    // SCL æ‹‰ä½
 1949              		.loc 1 280 13 is_stmt 1
 1950 0288 9DF80720 		ldrb	r2, [sp, #7]	@ zero_extendqisi2
 1951 028c 2849     		ldr	r1, .L91
 1952 028e 1346     		mov	r3, r2
 1953 0290 5B00     		lsls	r3, r3, #1
 1954 0292 1344     		add	r3, r3, r2
 1955 0294 9B00     		lsls	r3, r3, #2
 1956 0296 0B44     		add	r3, r3, r1
 1957 0298 1B88     		ldrh	r3, [r3]
 1958 029a 40F6FF72 		movw	r2, #4095
 1959 029e 9342     		cmp	r3, r2
 1960 02a0 31D0     		beq	.L87
 1961              		.loc 1 280 13 is_stmt 0 discriminator 1
 1962 02a2 9DF80720 		ldrb	r2, [sp, #7]	@ zero_extendqisi2
 1963 02a6 2249     		ldr	r1, .L91
 1964 02a8 1346     		mov	r3, r2
 1965 02aa 5B00     		lsls	r3, r3, #1
 1966 02ac 1344     		add	r3, r3, r2
 1967 02ae 9B00     		lsls	r3, r3, #2
 1968 02b0 0B44     		add	r3, r3, r1
 1969 02b2 1B88     		ldrh	r3, [r3]
 1970 02b4 5B09     		lsrs	r3, r3, #5
 1971 02b6 9BB2     		uxth	r3, r3
 1972 02b8 1A46     		mov	r2, r3
 1973 02ba 1E4B     		ldr	r3, .L91+4
 1974 02bc 53F82230 		ldr	r3, [r3, r2, lsl #2]
 1975 02c0 9869     		ldr	r0, [r3, #24]
 1976 02c2 9DF80720 		ldrb	r2, [sp, #7]	@ zero_extendqisi2
 1977 02c6 1A49     		ldr	r1, .L91
 1978 02c8 1346     		mov	r3, r2
 1979 02ca 5B00     		lsls	r3, r3, #1
 1980 02cc 1344     		add	r3, r3, r2
 1981 02ce 9B00     		lsls	r3, r3, #2
 1982 02d0 0B44     		add	r3, r3, r1
 1983 02d2 1B88     		ldrh	r3, [r3]
 1984 02d4 03F01F03 		and	r3, r3, #31
 1985 02d8 4FF48032 		mov	r2, #65536
 1986 02dc 02FA03F1 		lsl	r1, r2, r3
 1987 02e0 9DF80720 		ldrb	r2, [sp, #7]	@ zero_extendqisi2
 1988 02e4 124C     		ldr	r4, .L91
 1989 02e6 1346     		mov	r3, r2
 1990 02e8 5B00     		lsls	r3, r3, #1
 1991 02ea 1344     		add	r3, r3, r2
 1992 02ec 9B00     		lsls	r3, r3, #2
 1993 02ee 2344     		add	r3, r3, r4
 1994 02f0 1B88     		ldrh	r3, [r3]
 1995 02f2 5B09     		lsrs	r3, r3, #5
 1996 02f4 9BB2     		uxth	r3, r3
 1997 02f6 1A46     		mov	r2, r3
 1998 02f8 0E4B     		ldr	r3, .L91+4
 1999 02fa 53F82230 		ldr	r3, [r3, r2, lsl #2]
 2000 02fe 40EA0102 		orr	r2, r0, r1
 2001 0302 9A61     		str	r2, [r3, #24]
 2002 0304 05E0     		b	.L76
 2003              	.L87:
 2004              		.loc 1 280 13 discriminator 2
 2005 0306 0022     		movs	r2, #0
 2006 0308 4FF48C71 		mov	r1, #280
 2007 030c 0A48     		ldr	r0, .L91+8
 2008 030e FFF7FEFF 		bl	zf_gpio_assert_handler
 2009              	.L76:
 262:libraries/zf_driver/zf_driver_soft_iic.c ****         {
 2010              		.loc 1 262 14 is_stmt 1
 2011 0312 9DF81F30 		ldrb	r3, [sp, #31]	@ zero_extendqisi2
 2012 0316 002B     		cmp	r3, #0
 2013 0318 7FF48FAE 		bne	.L88
 281:libraries/zf_driver/zf_driver_soft_iic.c ****         }
 282:libraries/zf_driver/zf_driver_soft_iic.c ****         temp = zf_soft_iic_wait_ack(soft_iic_index);
 2014              		.loc 1 282 16
 2015 031c 9DF80730 		ldrb	r3, [sp, #7]	@ zero_extendqisi2
 2016 0320 1846     		mov	r0, r3
 2017 0322 FFF7FEFF 		bl	zf_soft_iic_wait_ack
 2018 0326 0346     		mov	r3, r0
 2019 0328 8DF81F30 		strb	r3, [sp, #31]
 2020 032c 07E0     		b	.L75
 2021              	.L92:
 2022 032e 00BF     		.align	2
 2023              	.L91:
 2024 0330 00000000 		.word	soft_iic_obj_list
 2025 0334 00000000 		.word	gpio_group_list
 2026 0338 00000000 		.word	.LC0
 2027              	.L90:
 259:libraries/zf_driver/zf_driver_soft_iic.c ****         }
 2028              		.loc 1 259 13
 2029 033c 00BF     		nop
 2030              	.L75:
 283:libraries/zf_driver/zf_driver_soft_iic.c ****     }while(0);
 284:libraries/zf_driver/zf_driver_soft_iic.c ****     return temp;
 2031              		.loc 1 284 12
 2032 033e 9DF81F30 		ldrb	r3, [sp, #31]	@ zero_extendqisi2
 285:libraries/zf_driver/zf_driver_soft_iic.c **** }
 2033              		.loc 1 285 1
 2034 0342 1846     		mov	r0, r3
 2035 0344 08B0     		add	sp, sp, #32
 2036              		.cfi_def_cfa_offset 8
 2037              		@ sp needed
 2038 0346 10BD     		pop	{r4, pc}
 2039              		.cfi_endproc
 2040              	.LFE177:
 2042              		.section	.text.zf_soft_iic_read_data,"ax",%progbits
 2043              		.align	1
 2044              		.p2align 4,,15
 2045              		.syntax unified
 2046              		.thumb
 2047              		.thumb_func
 2049              	zf_soft_iic_read_data:
 2050              	.LFB178:
 286:libraries/zf_driver/zf_driver_soft_iic.c **** 
 287:libraries/zf_driver/zf_driver_soft_iic.c **** //-------------------------------------------------------------------------------------------------
 288:libraries/zf_driver/zf_driver_soft_iic.c **** // å‡½æ•°ç®€ä»‹     SOFT_IIC è¯»å– 8bit æ•°æ®
 289:libraries/zf_driver/zf_driver_soft_iic.c **** // å‚æ•°è¯´æ˜     soft_iic_index      SOFT_IIC ç´¢å¼•   (è¯¦è§ zf_driver_soft_iic.h å†… zf_soft_
 290:libraries/zf_driver/zf_driver_soft_iic.c **** // å‚æ•°è¯´æ˜     ack                 ACK æˆ– NACK
 291:libraries/zf_driver/zf_driver_soft_iic.c **** // è¿”å›å‚æ•°     uint8               æ•°æ®
 292:libraries/zf_driver/zf_driver_soft_iic.c **** // ä½¿ç”¨ç¤ºä¾‹     zf_soft_iic_read_data(soft_iic_index, ack);
 293:libraries/zf_driver/zf_driver_soft_iic.c **** // å¤‡æ³¨ä¿¡æ¯     å†…éƒ¨è°ƒç”¨
 294:libraries/zf_driver/zf_driver_soft_iic.c **** //-------------------------------------------------------------------------------------------------
 295:libraries/zf_driver/zf_driver_soft_iic.c **** ZF_INLINE uint8 zf_soft_iic_read_data (zf_soft_iic_index_enum soft_iic_index, uint8 ack)
 296:libraries/zf_driver/zf_driver_soft_iic.c **** {
 2051              		.loc 1 296 1
 2052              		.cfi_startproc
 2053              		@ args = 0, pretend = 0, frame = 32
 2054              		@ frame_needed = 0, uses_anonymous_args = 0
 2055 0000 10B5     		push	{r4, lr}
 2056              		.cfi_def_cfa_offset 8
 2057              		.cfi_offset 4, -8
 2058              		.cfi_offset 14, -4
 2059 0002 88B0     		sub	sp, sp, #32
 2060              		.cfi_def_cfa_offset 40
 2061 0004 0346     		mov	r3, r0
 2062 0006 0A46     		mov	r2, r1
 2063 0008 8DF80730 		strb	r3, [sp, #7]
 2064 000c 1346     		mov	r3, r2
 2065 000e 8DF80630 		strb	r3, [sp, #6]
 297:libraries/zf_driver/zf_driver_soft_iic.c ****     uint8 data = 0x00;
 2066              		.loc 1 297 11
 2067 0012 0023     		movs	r3, #0
 2068 0014 8DF81F30 		strb	r3, [sp, #31]
 298:libraries/zf_driver/zf_driver_soft_iic.c ****     uint8 temp = 8;
 2069              		.loc 1 298 11
 2070 0018 0823     		movs	r3, #8
 2071 001a 8DF81E30 		strb	r3, [sp, #30]
 299:libraries/zf_driver/zf_driver_soft_iic.c ****     do
 300:libraries/zf_driver/zf_driver_soft_iic.c ****     {
 301:libraries/zf_driver/zf_driver_soft_iic.c ****         if(ZF_DISABLE == soft_iic_obj_list[soft_iic_index].enable)
 2072              		.loc 1 301 59
 2073 001e 9DF80720 		ldrb	r2, [sp, #7]	@ zero_extendqisi2
 2074 0022 A749     		ldr	r1, .L115
 2075 0024 1346     		mov	r3, r2
 2076 0026 5B00     		lsls	r3, r3, #1
 2077 0028 1344     		add	r3, r3, r2
 2078 002a 9B00     		lsls	r3, r3, #2
 2079 002c 0B44     		add	r3, r3, r1
 2080 002e 0833     		adds	r3, r3, #8
 2081 0030 1B68     		ldr	r3, [r3]
 2082              		.loc 1 301 11
 2083 0032 002B     		cmp	r3, #0
 2084 0034 00F0DF81 		beq	.L114
 302:libraries/zf_driver/zf_driver_soft_iic.c ****         {
 303:libraries/zf_driver/zf_driver_soft_iic.c ****             break;
 304:libraries/zf_driver/zf_driver_soft_iic.c ****         }
 305:libraries/zf_driver/zf_driver_soft_iic.c ****         zf_soft_iic_io_low      (soft_iic_obj_list[soft_iic_index].scl_pin);    // SCL ä½ç”µå¹³
 2085              		.loc 1 305 9
 2086 0038 9DF80720 		ldrb	r2, [sp, #7]	@ zero_extendqisi2
 2087 003c A049     		ldr	r1, .L115
 2088 003e 1346     		mov	r3, r2
 2089 0040 5B00     		lsls	r3, r3, #1
 2090 0042 1344     		add	r3, r3, r2
 2091 0044 9B00     		lsls	r3, r3, #2
 2092 0046 0B44     		add	r3, r3, r1
 2093 0048 1B88     		ldrh	r3, [r3]
 2094 004a 40F6FF72 		movw	r2, #4095
 2095 004e 9342     		cmp	r3, r2
 2096 0050 31D0     		beq	.L96
 2097              		.loc 1 305 9 is_stmt 0 discriminator 1
 2098 0052 9DF80720 		ldrb	r2, [sp, #7]	@ zero_extendqisi2
 2099 0056 9A49     		ldr	r1, .L115
 2100 0058 1346     		mov	r3, r2
 2101 005a 5B00     		lsls	r3, r3, #1
 2102 005c 1344     		add	r3, r3, r2
 2103 005e 9B00     		lsls	r3, r3, #2
 2104 0060 0B44     		add	r3, r3, r1
 2105 0062 1B88     		ldrh	r3, [r3]
 2106 0064 5B09     		lsrs	r3, r3, #5
 2107 0066 9BB2     		uxth	r3, r3
 2108 0068 1A46     		mov	r2, r3
 2109 006a 964B     		ldr	r3, .L115+4
 2110 006c 53F82230 		ldr	r3, [r3, r2, lsl #2]
 2111 0070 9869     		ldr	r0, [r3, #24]
 2112 0072 9DF80720 		ldrb	r2, [sp, #7]	@ zero_extendqisi2
 2113 0076 9249     		ldr	r1, .L115
 2114 0078 1346     		mov	r3, r2
 2115 007a 5B00     		lsls	r3, r3, #1
 2116 007c 1344     		add	r3, r3, r2
 2117 007e 9B00     		lsls	r3, r3, #2
 2118 0080 0B44     		add	r3, r3, r1
 2119 0082 1B88     		ldrh	r3, [r3]
 2120 0084 03F01F03 		and	r3, r3, #31
 2121 0088 4FF48032 		mov	r2, #65536
 2122 008c 02FA03F1 		lsl	r1, r2, r3
 2123 0090 9DF80720 		ldrb	r2, [sp, #7]	@ zero_extendqisi2
 2124 0094 8A4C     		ldr	r4, .L115
 2125 0096 1346     		mov	r3, r2
 2126 0098 5B00     		lsls	r3, r3, #1
 2127 009a 1344     		add	r3, r3, r2
 2128 009c 9B00     		lsls	r3, r3, #2
 2129 009e 2344     		add	r3, r3, r4
 2130 00a0 1B88     		ldrh	r3, [r3]
 2131 00a2 5B09     		lsrs	r3, r3, #5
 2132 00a4 9BB2     		uxth	r3, r3
 2133 00a6 1A46     		mov	r2, r3
 2134 00a8 864B     		ldr	r3, .L115+4
 2135 00aa 53F82230 		ldr	r3, [r3, r2, lsl #2]
 2136 00ae 40EA0102 		orr	r2, r0, r1
 2137 00b2 9A61     		str	r2, [r3, #24]
 2138 00b4 05E0     		b	.L97
 2139              	.L96:
 2140              		.loc 1 305 9 discriminator 2
 2141 00b6 0022     		movs	r2, #0
 2142 00b8 40F23111 		movw	r1, #305
 2143 00bc 8248     		ldr	r0, .L115+8
 2144 00be FFF7FEFF 		bl	zf_gpio_assert_handler
 2145              	.L97:
 2146              	.LBB20:
 306:libraries/zf_driver/zf_driver_soft_iic.c ****         zf_soft_iic_delay       (soft_iic_obj_list[soft_iic_index].delay);
 2147              		.loc 1 306 9 is_stmt 1
 2148 00c2 9DF80720 		ldrb	r2, [sp, #7]	@ zero_extendqisi2
 2149 00c6 7E49     		ldr	r1, .L115
 2150 00c8 1346     		mov	r3, r2
 2151 00ca 5B00     		lsls	r3, r3, #1
 2152 00cc 1344     		add	r3, r3, r2
 2153 00ce 9B00     		lsls	r3, r3, #2
 2154 00d0 0B44     		add	r3, r3, r1
 2155 00d2 0433     		adds	r3, r3, #4
 2156 00d4 1B68     		ldr	r3, [r3]
 2157 00d6 0693     		str	r3, [sp, #24]
 2158 00d8 00BF     		nop
 2159              	.L98:
 2160              		.loc 1 306 9 is_stmt 0 discriminator 2
 2161 00da 069B     		ldr	r3, [sp, #24]
 2162 00dc 5A1E     		subs	r2, r3, #1
 2163 00de 0692     		str	r2, [sp, #24]
 2164 00e0 002B     		cmp	r3, #0
 2165 00e2 FAD1     		bne	.L98
 2166              	.LBE20:
 307:libraries/zf_driver/zf_driver_soft_iic.c ****         zf_soft_iic_io_high     (soft_iic_obj_list[soft_iic_index].sda_pin);    // SDA é«˜ç”µå¹³ é‡
 2167              		.loc 1 307 9 is_stmt 1
 2168 00e4 9DF80720 		ldrb	r2, [sp, #7]	@ zero_extendqisi2
 2169 00e8 7549     		ldr	r1, .L115
 2170 00ea 1346     		mov	r3, r2
 2171 00ec 5B00     		lsls	r3, r3, #1
 2172 00ee 1344     		add	r3, r3, r2
 2173 00f0 9B00     		lsls	r3, r3, #2
 2174 00f2 0B44     		add	r3, r3, r1
 2175 00f4 0233     		adds	r3, r3, #2
 2176 00f6 1B88     		ldrh	r3, [r3]
 2177 00f8 40F6FF72 		movw	r2, #4095
 2178 00fc 9342     		cmp	r3, r2
 2179 00fe 33D0     		beq	.L99
 2180              		.loc 1 307 9 is_stmt 0 discriminator 1
 2181 0100 9DF80720 		ldrb	r2, [sp, #7]	@ zero_extendqisi2
 2182 0104 6E49     		ldr	r1, .L115
 2183 0106 1346     		mov	r3, r2
 2184 0108 5B00     		lsls	r3, r3, #1
 2185 010a 1344     		add	r3, r3, r2
 2186 010c 9B00     		lsls	r3, r3, #2
 2187 010e 0B44     		add	r3, r3, r1
 2188 0110 0233     		adds	r3, r3, #2
 2189 0112 1B88     		ldrh	r3, [r3]
 2190 0114 5B09     		lsrs	r3, r3, #5
 2191 0116 9BB2     		uxth	r3, r3
 2192 0118 1A46     		mov	r2, r3
 2193 011a 6A4B     		ldr	r3, .L115+4
 2194 011c 53F82230 		ldr	r3, [r3, r2, lsl #2]
 2195 0120 9869     		ldr	r0, [r3, #24]
 2196 0122 9DF80720 		ldrb	r2, [sp, #7]	@ zero_extendqisi2
 2197 0126 6649     		ldr	r1, .L115
 2198 0128 1346     		mov	r3, r2
 2199 012a 5B00     		lsls	r3, r3, #1
 2200 012c 1344     		add	r3, r3, r2
 2201 012e 9B00     		lsls	r3, r3, #2
 2202 0130 0B44     		add	r3, r3, r1
 2203 0132 0233     		adds	r3, r3, #2
 2204 0134 1B88     		ldrh	r3, [r3]
 2205 0136 03F01F03 		and	r3, r3, #31
 2206 013a 0122     		movs	r2, #1
 2207 013c 02FA03F1 		lsl	r1, r2, r3
 2208 0140 9DF80720 		ldrb	r2, [sp, #7]	@ zero_extendqisi2
 2209 0144 5E4C     		ldr	r4, .L115
 2210 0146 1346     		mov	r3, r2
 2211 0148 5B00     		lsls	r3, r3, #1
 2212 014a 1344     		add	r3, r3, r2
 2213 014c 9B00     		lsls	r3, r3, #2
 2214 014e 2344     		add	r3, r3, r4
 2215 0150 0233     		adds	r3, r3, #2
 2216 0152 1B88     		ldrh	r3, [r3]
 2217 0154 5B09     		lsrs	r3, r3, #5
 2218 0156 9BB2     		uxth	r3, r3
 2219 0158 1A46     		mov	r2, r3
 2220 015a 5A4B     		ldr	r3, .L115+4
 2221 015c 53F82230 		ldr	r3, [r3, r2, lsl #2]
 2222 0160 40EA0102 		orr	r2, r0, r1
 2223 0164 9A61     		str	r2, [r3, #24]
 2224 0166 F0E0     		b	.L101
 2225              	.L99:
 2226              		.loc 1 307 9 discriminator 2
 2227 0168 0022     		movs	r2, #0
 2228 016a 40F23311 		movw	r1, #307
 2229 016e 5648     		ldr	r0, .L115+8
 2230 0170 FFF7FEFF 		bl	zf_gpio_assert_handler
 308:libraries/zf_driver/zf_driver_soft_iic.c **** #if SOFT_IIC_SDA_IO_SWITCH
 309:libraries/zf_driver/zf_driver_soft_iic.c ****         zf_soft_iic_io_in       (soft_iic_obj_list[soft_iic_index].sda_pin);
 310:libraries/zf_driver/zf_driver_soft_iic.c **** #endif
 311:libraries/zf_driver/zf_driver_soft_iic.c **** 
 312:libraries/zf_driver/zf_driver_soft_iic.c ****         while(temp --)
 2231              		.loc 1 312 14 is_stmt 1 discriminator 2
 2232 0174 E9E0     		b	.L101
 2233              	.L110:
 313:libraries/zf_driver/zf_driver_soft_iic.c ****         {
 314:libraries/zf_driver/zf_driver_soft_iic.c ****             zf_soft_iic_io_low  (soft_iic_obj_list[soft_iic_index].scl_pin);    // SCL æ‹‰ä½
 2234              		.loc 1 314 13
 2235 0176 9DF80720 		ldrb	r2, [sp, #7]	@ zero_extendqisi2
 2236 017a 5149     		ldr	r1, .L115
 2237 017c 1346     		mov	r3, r2
 2238 017e 5B00     		lsls	r3, r3, #1
 2239 0180 1344     		add	r3, r3, r2
 2240 0182 9B00     		lsls	r3, r3, #2
 2241 0184 0B44     		add	r3, r3, r1
 2242 0186 1B88     		ldrh	r3, [r3]
 2243 0188 40F6FF72 		movw	r2, #4095
 2244 018c 9342     		cmp	r3, r2
 2245 018e 31D0     		beq	.L102
 2246              		.loc 1 314 13 is_stmt 0 discriminator 1
 2247 0190 9DF80720 		ldrb	r2, [sp, #7]	@ zero_extendqisi2
 2248 0194 4A49     		ldr	r1, .L115
 2249 0196 1346     		mov	r3, r2
 2250 0198 5B00     		lsls	r3, r3, #1
 2251 019a 1344     		add	r3, r3, r2
 2252 019c 9B00     		lsls	r3, r3, #2
 2253 019e 0B44     		add	r3, r3, r1
 2254 01a0 1B88     		ldrh	r3, [r3]
 2255 01a2 5B09     		lsrs	r3, r3, #5
 2256 01a4 9BB2     		uxth	r3, r3
 2257 01a6 1A46     		mov	r2, r3
 2258 01a8 464B     		ldr	r3, .L115+4
 2259 01aa 53F82230 		ldr	r3, [r3, r2, lsl #2]
 2260 01ae 9869     		ldr	r0, [r3, #24]
 2261 01b0 9DF80720 		ldrb	r2, [sp, #7]	@ zero_extendqisi2
 2262 01b4 4249     		ldr	r1, .L115
 2263 01b6 1346     		mov	r3, r2
 2264 01b8 5B00     		lsls	r3, r3, #1
 2265 01ba 1344     		add	r3, r3, r2
 2266 01bc 9B00     		lsls	r3, r3, #2
 2267 01be 0B44     		add	r3, r3, r1
 2268 01c0 1B88     		ldrh	r3, [r3]
 2269 01c2 03F01F03 		and	r3, r3, #31
 2270 01c6 4FF48032 		mov	r2, #65536
 2271 01ca 02FA03F1 		lsl	r1, r2, r3
 2272 01ce 9DF80720 		ldrb	r2, [sp, #7]	@ zero_extendqisi2
 2273 01d2 3B4C     		ldr	r4, .L115
 2274 01d4 1346     		mov	r3, r2
 2275 01d6 5B00     		lsls	r3, r3, #1
 2276 01d8 1344     		add	r3, r3, r2
 2277 01da 9B00     		lsls	r3, r3, #2
 2278 01dc 2344     		add	r3, r3, r4
 2279 01de 1B88     		ldrh	r3, [r3]
 2280 01e0 5B09     		lsrs	r3, r3, #5
 2281 01e2 9BB2     		uxth	r3, r3
 2282 01e4 1A46     		mov	r2, r3
 2283 01e6 374B     		ldr	r3, .L115+4
 2284 01e8 53F82230 		ldr	r3, [r3, r2, lsl #2]
 2285 01ec 40EA0102 		orr	r2, r0, r1
 2286 01f0 9A61     		str	r2, [r3, #24]
 2287 01f2 05E0     		b	.L103
 2288              	.L102:
 2289              		.loc 1 314 13 discriminator 2
 2290 01f4 0022     		movs	r2, #0
 2291 01f6 4FF49D71 		mov	r1, #314
 2292 01fa 3348     		ldr	r0, .L115+8
 2293 01fc FFF7FEFF 		bl	zf_gpio_assert_handler
 2294              	.L103:
 2295              	.LBB21:
 315:libraries/zf_driver/zf_driver_soft_iic.c ****             zf_soft_iic_delay   (soft_iic_obj_list[soft_iic_index].delay);
 2296              		.loc 1 315 13 is_stmt 1
 2297 0200 9DF80720 		ldrb	r2, [sp, #7]	@ zero_extendqisi2
 2298 0204 2E49     		ldr	r1, .L115
 2299 0206 1346     		mov	r3, r2
 2300 0208 5B00     		lsls	r3, r3, #1
 2301 020a 1344     		add	r3, r3, r2
 2302 020c 9B00     		lsls	r3, r3, #2
 2303 020e 0B44     		add	r3, r3, r1
 2304 0210 0433     		adds	r3, r3, #4
 2305 0212 1B68     		ldr	r3, [r3]
 2306 0214 0593     		str	r3, [sp, #20]
 2307 0216 00BF     		nop
 2308              	.L104:
 2309              		.loc 1 315 13 is_stmt 0 discriminator 2
 2310 0218 059B     		ldr	r3, [sp, #20]
 2311 021a 5A1E     		subs	r2, r3, #1
 2312 021c 0592     		str	r2, [sp, #20]
 2313 021e 002B     		cmp	r3, #0
 2314 0220 FAD1     		bne	.L104
 2315              	.LBE21:
 2316              	.LBB22:
 316:libraries/zf_driver/zf_driver_soft_iic.c ****             zf_soft_iic_delay   (soft_iic_obj_list[soft_iic_index].delay);
 2317              		.loc 1 316 13 is_stmt 1
 2318 0222 9DF80720 		ldrb	r2, [sp, #7]	@ zero_extendqisi2
 2319 0226 2649     		ldr	r1, .L115
 2320 0228 1346     		mov	r3, r2
 2321 022a 5B00     		lsls	r3, r3, #1
 2322 022c 1344     		add	r3, r3, r2
 2323 022e 9B00     		lsls	r3, r3, #2
 2324 0230 0B44     		add	r3, r3, r1
 2325 0232 0433     		adds	r3, r3, #4
 2326 0234 1B68     		ldr	r3, [r3]
 2327 0236 0493     		str	r3, [sp, #16]
 2328 0238 00BF     		nop
 2329              	.L105:
 2330              		.loc 1 316 13 is_stmt 0 discriminator 2
 2331 023a 049B     		ldr	r3, [sp, #16]
 2332 023c 5A1E     		subs	r2, r3, #1
 2333 023e 0492     		str	r2, [sp, #16]
 2334 0240 002B     		cmp	r3, #0
 2335 0242 FAD1     		bne	.L105
 2336              	.LBE22:
 317:libraries/zf_driver/zf_driver_soft_iic.c ****             zf_soft_iic_io_high (soft_iic_obj_list[soft_iic_index].scl_pin);    // SCL æ‹‰é«˜
 2337              		.loc 1 317 13 is_stmt 1
 2338 0244 9DF80720 		ldrb	r2, [sp, #7]	@ zero_extendqisi2
 2339 0248 1D49     		ldr	r1, .L115
 2340 024a 1346     		mov	r3, r2
 2341 024c 5B00     		lsls	r3, r3, #1
 2342 024e 1344     		add	r3, r3, r2
 2343 0250 9B00     		lsls	r3, r3, #2
 2344 0252 0B44     		add	r3, r3, r1
 2345 0254 1B88     		ldrh	r3, [r3]
 2346 0256 40F6FF72 		movw	r2, #4095
 2347 025a 9342     		cmp	r3, r2
 2348 025c 36D0     		beq	.L106
 2349              		.loc 1 317 13 is_stmt 0 discriminator 1
 2350 025e 9DF80720 		ldrb	r2, [sp, #7]	@ zero_extendqisi2
 2351 0262 1749     		ldr	r1, .L115
 2352 0264 1346     		mov	r3, r2
 2353 0266 5B00     		lsls	r3, r3, #1
 2354 0268 1344     		add	r3, r3, r2
 2355 026a 9B00     		lsls	r3, r3, #2
 2356 026c 0B44     		add	r3, r3, r1
 2357 026e 1B88     		ldrh	r3, [r3]
 2358 0270 5B09     		lsrs	r3, r3, #5
 2359 0272 9BB2     		uxth	r3, r3
 2360 0274 1A46     		mov	r2, r3
 2361 0276 134B     		ldr	r3, .L115+4
 2362 0278 53F82230 		ldr	r3, [r3, r2, lsl #2]
 2363 027c 9869     		ldr	r0, [r3, #24]
 2364 027e 9DF80720 		ldrb	r2, [sp, #7]	@ zero_extendqisi2
 2365 0282 0F49     		ldr	r1, .L115
 2366 0284 1346     		mov	r3, r2
 2367 0286 5B00     		lsls	r3, r3, #1
 2368 0288 1344     		add	r3, r3, r2
 2369 028a 9B00     		lsls	r3, r3, #2
 2370 028c 0B44     		add	r3, r3, r1
 2371 028e 1B88     		ldrh	r3, [r3]
 2372 0290 03F01F03 		and	r3, r3, #31
 2373 0294 0122     		movs	r2, #1
 2374 0296 02FA03F1 		lsl	r1, r2, r3
 2375 029a 9DF80720 		ldrb	r2, [sp, #7]	@ zero_extendqisi2
 2376 029e 084C     		ldr	r4, .L115
 2377 02a0 1346     		mov	r3, r2
 2378 02a2 5B00     		lsls	r3, r3, #1
 2379 02a4 1344     		add	r3, r3, r2
 2380 02a6 9B00     		lsls	r3, r3, #2
 2381 02a8 2344     		add	r3, r3, r4
 2382 02aa 1B88     		ldrh	r3, [r3]
 2383 02ac 5B09     		lsrs	r3, r3, #5
 2384 02ae 9BB2     		uxth	r3, r3
 2385 02b0 1A46     		mov	r2, r3
 2386 02b2 044B     		ldr	r3, .L115+4
 2387 02b4 53F82230 		ldr	r3, [r3, r2, lsl #2]
 2388 02b8 40EA0102 		orr	r2, r0, r1
 2389 02bc 9A61     		str	r2, [r3, #24]
 2390 02be 0BE0     		b	.L107
 2391              	.L116:
 2392              		.align	2
 2393              	.L115:
 2394 02c0 00000000 		.word	soft_iic_obj_list
 2395 02c4 00000000 		.word	gpio_group_list
 2396 02c8 00000000 		.word	.LC0
 2397              	.L106:
 2398              		.loc 1 317 13 discriminator 2
 2399 02cc 0022     		movs	r2, #0
 2400 02ce 40F23D11 		movw	r1, #317
 2401 02d2 4C48     		ldr	r0, .L117
 2402 02d4 FFF7FEFF 		bl	zf_gpio_assert_handler
 2403              	.L107:
 2404              	.LBB23:
 318:libraries/zf_driver/zf_driver_soft_iic.c ****             zf_soft_iic_delay   (soft_iic_obj_list[soft_iic_index].delay);
 2405              		.loc 1 318 13 is_stmt 1
 2406 02d8 9DF80720 		ldrb	r2, [sp, #7]	@ zero_extendqisi2
 2407 02dc 4A49     		ldr	r1, .L117+4
 2408 02de 1346     		mov	r3, r2
 2409 02e0 5B00     		lsls	r3, r3, #1
 2410 02e2 1344     		add	r3, r3, r2
 2411 02e4 9B00     		lsls	r3, r3, #2
 2412 02e6 0B44     		add	r3, r3, r1
 2413 02e8 0433     		adds	r3, r3, #4
 2414 02ea 1B68     		ldr	r3, [r3]
 2415 02ec 0393     		str	r3, [sp, #12]
 2416 02ee 00BF     		nop
 2417              	.L108:
 2418              		.loc 1 318 13 is_stmt 0 discriminator 2
 2419 02f0 039B     		ldr	r3, [sp, #12]
 2420 02f2 5A1E     		subs	r2, r3, #1
 2421 02f4 0392     		str	r2, [sp, #12]
 2422 02f6 002B     		cmp	r3, #0
 2423 02f8 FAD1     		bne	.L108
 2424              	.LBE23:
 319:libraries/zf_driver/zf_driver_soft_iic.c ****             data = ((data << 1) | zf_gpio_get_level(soft_iic_obj_list[soft_iic_index].sda_pin));
 2425              		.loc 1 319 27 is_stmt 1
 2426 02fa 9DF81F30 		ldrb	r3, [sp, #31]	@ zero_extendqisi2
 2427 02fe 5B00     		lsls	r3, r3, #1
 2428              		.loc 1 319 33
 2429 0300 5CB2     		sxtb	r4, r3
 2430              		.loc 1 319 35
 2431 0302 9DF80720 		ldrb	r2, [sp, #7]	@ zero_extendqisi2
 2432 0306 4049     		ldr	r1, .L117+4
 2433 0308 1346     		mov	r3, r2
 2434 030a 5B00     		lsls	r3, r3, #1
 2435 030c 1344     		add	r3, r3, r2
 2436 030e 9B00     		lsls	r3, r3, #2
 2437 0310 0B44     		add	r3, r3, r1
 2438 0312 0233     		adds	r3, r3, #2
 2439 0314 1B88     		ldrh	r3, [r3]
 2440 0316 1846     		mov	r0, r3
 2441 0318 FFF7FEFF 		bl	zf_gpio_get_level
 2442 031c 0346     		mov	r3, r0
 2443 031e 5BB2     		sxtb	r3, r3
 2444              		.loc 1 319 33
 2445 0320 2343     		orrs	r3, r3, r4
 2446 0322 5BB2     		sxtb	r3, r3
 2447              		.loc 1 319 18
 2448 0324 8DF81F30 		strb	r3, [sp, #31]
 2449              	.LBB24:
 320:libraries/zf_driver/zf_driver_soft_iic.c ****             zf_soft_iic_delay  (soft_iic_obj_list[soft_iic_index].delay);
 2450              		.loc 1 320 13
 2451 0328 9DF80720 		ldrb	r2, [sp, #7]	@ zero_extendqisi2
 2452 032c 3649     		ldr	r1, .L117+4
 2453 032e 1346     		mov	r3, r2
 2454 0330 5B00     		lsls	r3, r3, #1
 2455 0332 1344     		add	r3, r3, r2
 2456 0334 9B00     		lsls	r3, r3, #2
 2457 0336 0B44     		add	r3, r3, r1
 2458 0338 0433     		adds	r3, r3, #4
 2459 033a 1B68     		ldr	r3, [r3]
 2460 033c 0293     		str	r3, [sp, #8]
 2461 033e 00BF     		nop
 2462              	.L109:
 2463              		.loc 1 320 13 is_stmt 0 discriminator 2
 2464 0340 029B     		ldr	r3, [sp, #8]
 2465 0342 5A1E     		subs	r2, r3, #1
 2466 0344 0292     		str	r2, [sp, #8]
 2467 0346 002B     		cmp	r3, #0
 2468 0348 FAD1     		bne	.L109
 2469              	.L101:
 2470              	.LBE24:
 312:libraries/zf_driver/zf_driver_soft_iic.c ****         {
 2471              		.loc 1 312 20 is_stmt 1
 2472 034a 9DF81E30 		ldrb	r3, [sp, #30]	@ zero_extendqisi2
 2473 034e 5A1E     		subs	r2, r3, #1
 2474 0350 8DF81E20 		strb	r2, [sp, #30]
 312:libraries/zf_driver/zf_driver_soft_iic.c ****         {
 2475              		.loc 1 312 14
 2476 0354 002B     		cmp	r3, #0
 2477 0356 7FF40EAF 		bne	.L110
 321:libraries/zf_driver/zf_driver_soft_iic.c ****         }
 322:libraries/zf_driver/zf_driver_soft_iic.c ****         zf_soft_iic_io_low      (soft_iic_obj_list[soft_iic_index].scl_pin);    // SCL ä½ç”µå¹³
 2478              		.loc 1 322 9
 2479 035a 9DF80720 		ldrb	r2, [sp, #7]	@ zero_extendqisi2
 2480 035e 2A49     		ldr	r1, .L117+4
 2481 0360 1346     		mov	r3, r2
 2482 0362 5B00     		lsls	r3, r3, #1
 2483 0364 1344     		add	r3, r3, r2
 2484 0366 9B00     		lsls	r3, r3, #2
 2485 0368 0B44     		add	r3, r3, r1
 2486 036a 1B88     		ldrh	r3, [r3]
 2487 036c 40F6FF72 		movw	r2, #4095
 2488 0370 9342     		cmp	r3, r2
 2489 0372 31D0     		beq	.L111
 2490              		.loc 1 322 9 is_stmt 0 discriminator 1
 2491 0374 9DF80720 		ldrb	r2, [sp, #7]	@ zero_extendqisi2
 2492 0378 2349     		ldr	r1, .L117+4
 2493 037a 1346     		mov	r3, r2
 2494 037c 5B00     		lsls	r3, r3, #1
 2495 037e 1344     		add	r3, r3, r2
 2496 0380 9B00     		lsls	r3, r3, #2
 2497 0382 0B44     		add	r3, r3, r1
 2498 0384 1B88     		ldrh	r3, [r3]
 2499 0386 5B09     		lsrs	r3, r3, #5
 2500 0388 9BB2     		uxth	r3, r3
 2501 038a 1A46     		mov	r2, r3
 2502 038c 1F4B     		ldr	r3, .L117+8
 2503 038e 53F82230 		ldr	r3, [r3, r2, lsl #2]
 2504 0392 9869     		ldr	r0, [r3, #24]
 2505 0394 9DF80720 		ldrb	r2, [sp, #7]	@ zero_extendqisi2
 2506 0398 1B49     		ldr	r1, .L117+4
 2507 039a 1346     		mov	r3, r2
 2508 039c 5B00     		lsls	r3, r3, #1
 2509 039e 1344     		add	r3, r3, r2
 2510 03a0 9B00     		lsls	r3, r3, #2
 2511 03a2 0B44     		add	r3, r3, r1
 2512 03a4 1B88     		ldrh	r3, [r3]
 2513 03a6 03F01F03 		and	r3, r3, #31
 2514 03aa 4FF48032 		mov	r2, #65536
 2515 03ae 02FA03F1 		lsl	r1, r2, r3
 2516 03b2 9DF80720 		ldrb	r2, [sp, #7]	@ zero_extendqisi2
 2517 03b6 144C     		ldr	r4, .L117+4
 2518 03b8 1346     		mov	r3, r2
 2519 03ba 5B00     		lsls	r3, r3, #1
 2520 03bc 1344     		add	r3, r3, r2
 2521 03be 9B00     		lsls	r3, r3, #2
 2522 03c0 2344     		add	r3, r3, r4
 2523 03c2 1B88     		ldrh	r3, [r3]
 2524 03c4 5B09     		lsrs	r3, r3, #5
 2525 03c6 9BB2     		uxth	r3, r3
 2526 03c8 1A46     		mov	r2, r3
 2527 03ca 104B     		ldr	r3, .L117+8
 2528 03cc 53F82230 		ldr	r3, [r3, r2, lsl #2]
 2529 03d0 40EA0102 		orr	r2, r0, r1
 2530 03d4 9A61     		str	r2, [r3, #24]
 2531 03d6 05E0     		b	.L112
 2532              	.L111:
 2533              		.loc 1 322 9 discriminator 2
 2534 03d8 0022     		movs	r2, #0
 2535 03da 4FF4A171 		mov	r1, #322
 2536 03de 0948     		ldr	r0, .L117
 2537 03e0 FFF7FEFF 		bl	zf_gpio_assert_handler
 2538              	.L112:
 323:libraries/zf_driver/zf_driver_soft_iic.c **** #if SOFT_IIC_SDA_IO_SWITCH
 324:libraries/zf_driver/zf_driver_soft_iic.c ****         zf_soft_iic_io_out      (soft_iic_obj_list[soft_iic_index].sda_pin);
 325:libraries/zf_driver/zf_driver_soft_iic.c **** #endif
 326:libraries/zf_driver/zf_driver_soft_iic.c ****         zf_soft_iic_send_ack    (soft_iic_index,  ack);
 2539              		.loc 1 326 9 is_stmt 1
 2540 03e4 9DF80620 		ldrb	r2, [sp, #6]	@ zero_extendqisi2
 2541 03e8 9DF80730 		ldrb	r3, [sp, #7]	@ zero_extendqisi2
 2542 03ec 1146     		mov	r1, r2
 2543 03ee 1846     		mov	r0, r3
 2544 03f0 FFF7FEFF 		bl	zf_soft_iic_send_ack
 2545 03f4 00E0     		b	.L95
 2546              	.L114:
 303:libraries/zf_driver/zf_driver_soft_iic.c ****         }
 2547              		.loc 1 303 13
 2548 03f6 00BF     		nop
 2549              	.L95:
 327:libraries/zf_driver/zf_driver_soft_iic.c ****     }while(0);
 328:libraries/zf_driver/zf_driver_soft_iic.c ****     return data;
 2550              		.loc 1 328 12
 2551 03f8 9DF81F30 		ldrb	r3, [sp, #31]	@ zero_extendqisi2
 329:libraries/zf_driver/zf_driver_soft_iic.c **** }
 2552              		.loc 1 329 1
 2553 03fc 1846     		mov	r0, r3
 2554 03fe 08B0     		add	sp, sp, #32
 2555              		.cfi_def_cfa_offset 8
 2556              		@ sp needed
 2557 0400 10BD     		pop	{r4, pc}
 2558              	.L118:
 2559 0402 00BF     		.align	2
 2560              	.L117:
 2561 0404 00000000 		.word	.LC0
 2562 0408 00000000 		.word	soft_iic_obj_list
 2563 040c 00000000 		.word	gpio_group_list
 2564              		.cfi_endproc
 2565              	.LFE178:
 2567              		.section	.text.zf_soft_iic_write_8bit_splicing_array,"ax",%progbits
 2568              		.align	1
 2569              		.p2align 4,,15
 2570              		.global	zf_soft_iic_write_8bit_splicing_array
 2571              		.syntax unified
 2572              		.thumb
 2573              		.thumb_func
 2575              	zf_soft_iic_write_8bit_splicing_array:
 2576              	.LFB179:
 330:libraries/zf_driver/zf_driver_soft_iic.c **** 
 331:libraries/zf_driver/zf_driver_soft_iic.c **** //-------------------------------------------------------------------------------------------------
 332:libraries/zf_driver/zf_driver_soft_iic.c **** // å‡½æ•°ç®€ä»‹     SOFT_IIC æ¥å£ä¼ è¾“ 8bit æ•°ç»„ å†™ä¸¤ä¸ªæ•°ç»„
 333:libraries/zf_driver/zf_driver_soft_iic.c **** // å‚æ•°è¯´æ˜     soft_iic_index      SOFT_IIC ç´¢å¼•   (è¯¦è§ zf_driver_soft_iic.h å†… zf_soft_
 334:libraries/zf_driver/zf_driver_soft_iic.c **** // å‚æ•°è¯´æ˜     addr                å™¨ä»¶åœ°å€
 335:libraries/zf_driver/zf_driver_soft_iic.c **** // å‚æ•°è¯´æ˜     *part1_buffer       å‘é€æ•°æ®å­˜æ”¾ç¼“å†²åŒº
 336:libraries/zf_driver/zf_driver_soft_iic.c **** // å‚æ•°è¯´æ˜     part1_len           å‘é€ç¼“å†²åŒºé•¿åº¦
 337:libraries/zf_driver/zf_driver_soft_iic.c **** // å‚æ•°è¯´æ˜     *part2_buffer       è¯»å–æ•°æ®å­˜æ”¾ç¼“å†²åŒº
 338:libraries/zf_driver/zf_driver_soft_iic.c **** // å‚æ•°è¯´æ˜     part2_len           è¯»å–ç¼“å†²åŒºé•¿åº¦
 339:libraries/zf_driver/zf_driver_soft_iic.c **** // è¿”å›å‚æ•°     uint8               æ“ä½œçŠ¶æ€ ZF_NO_ERROR / SOFT_IIC_OPERATION_DONE - å®Œæˆ
 340:libraries/zf_driver/zf_driver_soft_iic.c **** // ä½¿ç”¨ç¤ºä¾‹     zf_soft_iic_write_8bit_splicing_array(soft_iic_index, addr, part1_buffer, part1
 341:libraries/zf_driver/zf_driver_soft_iic.c **** // å¤‡æ³¨ä¿¡æ¯     
 342:libraries/zf_driver/zf_driver_soft_iic.c **** //-------------------------------------------------------------------------------------------------
 343:libraries/zf_driver/zf_driver_soft_iic.c **** uint8 zf_soft_iic_write_8bit_splicing_array (zf_soft_iic_index_enum soft_iic_index, uint8 addr, con
 344:libraries/zf_driver/zf_driver_soft_iic.c **** {
 2577              		.loc 1 344 1
 2578              		.cfi_startproc
 2579              		@ args = 8, pretend = 0, frame = 24
 2580              		@ frame_needed = 0, uses_anonymous_args = 0
 2581 0000 00B5     		push	{lr}
 2582              		.cfi_def_cfa_offset 4
 2583              		.cfi_offset 14, -4
 2584 0002 87B0     		sub	sp, sp, #28
 2585              		.cfi_def_cfa_offset 32
 2586 0004 0292     		str	r2, [sp, #8]
 2587 0006 0193     		str	r3, [sp, #4]
 2588 0008 0346     		mov	r3, r0
 2589 000a 8DF80F30 		strb	r3, [sp, #15]
 2590 000e 0B46     		mov	r3, r1
 2591 0010 8DF80E30 		strb	r3, [sp, #14]
 345:libraries/zf_driver/zf_driver_soft_iic.c ****     zf_soft_iic_operation_state_enum return_state = SOFT_IIC_ERROR_UNKNOW;
 2592              		.loc 1 345 38
 2593 0014 0123     		movs	r3, #1
 2594 0016 8DF81730 		strb	r3, [sp, #23]
 346:libraries/zf_driver/zf_driver_soft_iic.c **** 
 347:libraries/zf_driver/zf_driver_soft_iic.c ****     do
 348:libraries/zf_driver/zf_driver_soft_iic.c ****     {
 349:libraries/zf_driver/zf_driver_soft_iic.c ****         if(zf_soft_iic_assert(soft_iic_obj_list[soft_iic_index].delay))
 2595              		.loc 1 349 12
 2596 001a 9DF80F20 		ldrb	r2, [sp, #15]	@ zero_extendqisi2
 2597 001e 4149     		ldr	r1, .L131
 2598 0020 1346     		mov	r3, r2
 2599 0022 5B00     		lsls	r3, r3, #1
 2600 0024 1344     		add	r3, r3, r2
 2601 0026 9B00     		lsls	r3, r3, #2
 2602 0028 0B44     		add	r3, r3, r1
 2603 002a 0433     		adds	r3, r3, #4
 2604 002c 1B68     		ldr	r3, [r3]
 2605              		.loc 1 349 11
 2606 002e 002B     		cmp	r3, #0
 2607 0030 0CD1     		bne	.L120
 2608              		.loc 1 349 12 discriminator 1
 2609 0032 0022     		movs	r2, #0
 2610 0034 40F25D11 		movw	r1, #349
 2611 0038 3B48     		ldr	r0, .L131+4
 2612 003a FFF7FEFF 		bl	zf_soft_iic_assert_handler
 2613 003e 0346     		mov	r3, r0
 2614 0040 002B     		cmp	r3, #0
 2615 0042 03D0     		beq	.L120
 350:libraries/zf_driver/zf_driver_soft_iic.c ****         {
 351:libraries/zf_driver/zf_driver_soft_iic.c ****             // æ­¤å¤„å¦‚æœæ–­è¨€æŠ¥é”™ é‚£ä¹ˆè¯æ˜æœ¬æ¨¡å—æ²¡æœ‰åˆå§‹åŒ–è¿‡ æ˜¯ä¸å…è®¸ç›´æ¥æ
 352:libraries/zf_driver/zf_driver_soft_iic.c ****             return_state = SOFT_IIC_ERROR_MODULE_NOT_INIT;                      // SOFT_IIC æ¨¡å—æ
 2616              		.loc 1 352 26
 2617 0044 2123     		movs	r3, #33
 2618 0046 8DF81730 		strb	r3, [sp, #23]
 353:libraries/zf_driver/zf_driver_soft_iic.c ****             break;
 2619              		.loc 1 353 13
 2620 004a 65E0     		b	.L121
 2621              	.L120:
 354:libraries/zf_driver/zf_driver_soft_iic.c ****         }
 355:libraries/zf_driver/zf_driver_soft_iic.c ****         if(zf_soft_iic_assert((NULL != part1_buffer) || (NULL != part2_buffer)))
 2622              		.loc 1 355 11
 2623 004c 029B     		ldr	r3, [sp, #8]
 2624 004e 002B     		cmp	r3, #0
 2625 0050 0FD1     		bne	.L122
 2626              		.loc 1 355 12 discriminator 1
 2627 0052 089B     		ldr	r3, [sp, #32]
 2628 0054 002B     		cmp	r3, #0
 2629 0056 0CD1     		bne	.L122
 2630              		.loc 1 355 12 is_stmt 0 discriminator 2
 2631 0058 0022     		movs	r2, #0
 2632 005a 40F26311 		movw	r1, #355
 2633 005e 3248     		ldr	r0, .L131+4
 2634 0060 FFF7FEFF 		bl	zf_soft_iic_assert_handler
 2635 0064 0346     		mov	r3, r0
 2636 0066 002B     		cmp	r3, #0
 2637 0068 03D0     		beq	.L122
 356:libraries/zf_driver/zf_driver_soft_iic.c ****         {
 357:libraries/zf_driver/zf_driver_soft_iic.c ****             // æ­¤å¤„å¦‚æœæ–­è¨€æŠ¥é”™ é‚£ä¹ˆè¯æ˜ä¼ å…¥æ•°æ®æŒ‡é’ˆä¸º NULL ç©ºæŒ‡é’ˆ
 358:libraries/zf_driver/zf_driver_soft_iic.c ****             // ä¸å¯ä»¥å¯¹ç©ºæŒ‡é’ˆè¿›è¡Œæ“ä½œ
 359:libraries/zf_driver/zf_driver_soft_iic.c ****             return_state = SOFT_IIC_ERROR_DATA_BUFFER_NULL;                     // IIC æ•°æ®æŒ‡é’ˆ
 2638              		.loc 1 359 26 is_stmt 1
 2639 006a 2423     		movs	r3, #36
 2640 006c 8DF81730 		strb	r3, [sp, #23]
 360:libraries/zf_driver/zf_driver_soft_iic.c ****             break;
 2641              		.loc 1 360 13
 2642 0070 52E0     		b	.L121
 2643              	.L122:
 361:libraries/zf_driver/zf_driver_soft_iic.c ****         }
 362:libraries/zf_driver/zf_driver_soft_iic.c ****         if(!soft_iic_obj_list[soft_iic_index].enable)
 2644              		.loc 1 362 46
 2645 0072 9DF80F20 		ldrb	r2, [sp, #15]	@ zero_extendqisi2
 2646 0076 2B49     		ldr	r1, .L131
 2647 0078 1346     		mov	r3, r2
 2648 007a 5B00     		lsls	r3, r3, #1
 2649 007c 1344     		add	r3, r3, r2
 2650 007e 9B00     		lsls	r3, r3, #2
 2651 0080 0B44     		add	r3, r3, r1
 2652 0082 0833     		adds	r3, r3, #8
 2653 0084 1B68     		ldr	r3, [r3]
 2654              		.loc 1 362 11
 2655 0086 002B     		cmp	r3, #0
 2656 0088 03D1     		bne	.L123
 363:libraries/zf_driver/zf_driver_soft_iic.c ****         {
 364:libraries/zf_driver/zf_driver_soft_iic.c ****             return_state = SOFT_IIC_WARNING_MODULE_DISABLE;                     // SOFT_IIC æ¨¡å—å
 2657              		.loc 1 364 26
 2658 008a 1023     		movs	r3, #16
 2659 008c 8DF81730 		strb	r3, [sp, #23]
 365:libraries/zf_driver/zf_driver_soft_iic.c ****             break;
 2660              		.loc 1 365 13
 2661 0090 42E0     		b	.L121
 2662              	.L123:
 366:libraries/zf_driver/zf_driver_soft_iic.c ****         }
 367:libraries/zf_driver/zf_driver_soft_iic.c **** 
 368:libraries/zf_driver/zf_driver_soft_iic.c ****         if(NULL != part1_buffer && 0 != part1_len)
 2663              		.loc 1 368 11
 2664 0092 029B     		ldr	r3, [sp, #8]
 2665 0094 002B     		cmp	r3, #0
 2666 0096 21D0     		beq	.L124
 2667              		.loc 1 368 33 discriminator 1
 2668 0098 019B     		ldr	r3, [sp, #4]
 2669 009a 002B     		cmp	r3, #0
 2670 009c 1ED0     		beq	.L124
 369:libraries/zf_driver/zf_driver_soft_iic.c ****         {
 370:libraries/zf_driver/zf_driver_soft_iic.c ****             zf_soft_iic_start       (soft_iic_index);
 2671              		.loc 1 370 13
 2672 009e 9DF80F30 		ldrb	r3, [sp, #15]	@ zero_extendqisi2
 2673 00a2 1846     		mov	r0, r3
 2674 00a4 FFF7FEFF 		bl	zf_soft_iic_start
 371:libraries/zf_driver/zf_driver_soft_iic.c ****             zf_soft_iic_send_data   (soft_iic_index, addr << 1);
 2675              		.loc 1 371 13
 2676 00a8 9DF80E30 		ldrb	r3, [sp, #14]
 2677 00ac 5B00     		lsls	r3, r3, #1
 2678 00ae DAB2     		uxtb	r2, r3
 2679 00b0 9DF80F30 		ldrb	r3, [sp, #15]	@ zero_extendqisi2
 2680 00b4 1146     		mov	r1, r2
 2681 00b6 1846     		mov	r0, r3
 2682 00b8 FFF7FEFF 		bl	zf_soft_iic_send_data
 372:libraries/zf_driver/zf_driver_soft_iic.c ****             while(part1_len --)
 2683              		.loc 1 372 18
 2684 00bc 09E0     		b	.L125
 2685              	.L126:
 373:libraries/zf_driver/zf_driver_soft_iic.c ****             {
 374:libraries/zf_driver/zf_driver_soft_iic.c ****                 zf_soft_iic_send_data(soft_iic_index, *part1_buffer ++);
 2686              		.loc 1 374 69
 2687 00be 029B     		ldr	r3, [sp, #8]
 2688 00c0 5A1C     		adds	r2, r3, #1
 2689 00c2 0292     		str	r2, [sp, #8]
 2690              		.loc 1 374 17
 2691 00c4 1A78     		ldrb	r2, [r3]	@ zero_extendqisi2
 2692 00c6 9DF80F30 		ldrb	r3, [sp, #15]	@ zero_extendqisi2
 2693 00ca 1146     		mov	r1, r2
 2694 00cc 1846     		mov	r0, r3
 2695 00ce FFF7FEFF 		bl	zf_soft_iic_send_data
 2696              	.L125:
 372:libraries/zf_driver/zf_driver_soft_iic.c ****             while(part1_len --)
 2697              		.loc 1 372 29
 2698 00d2 019B     		ldr	r3, [sp, #4]
 2699 00d4 5A1E     		subs	r2, r3, #1
 2700 00d6 0192     		str	r2, [sp, #4]
 372:libraries/zf_driver/zf_driver_soft_iic.c ****             while(part1_len --)
 2701              		.loc 1 372 18
 2702 00d8 002B     		cmp	r3, #0
 2703 00da F0D1     		bne	.L126
 2704              	.L124:
 375:libraries/zf_driver/zf_driver_soft_iic.c ****             }
 376:libraries/zf_driver/zf_driver_soft_iic.c ****         }
 377:libraries/zf_driver/zf_driver_soft_iic.c **** 
 378:libraries/zf_driver/zf_driver_soft_iic.c ****         if(NULL != part2_buffer && 0 != part2_len)
 2705              		.loc 1 378 11
 2706 00dc 089B     		ldr	r3, [sp, #32]
 2707 00de 002B     		cmp	r3, #0
 2708 00e0 12D0     		beq	.L127
 2709              		.loc 1 378 33 discriminator 1
 2710 00e2 099B     		ldr	r3, [sp, #36]
 2711 00e4 002B     		cmp	r3, #0
 2712 00e6 0FD0     		beq	.L127
 379:libraries/zf_driver/zf_driver_soft_iic.c ****         {
 380:libraries/zf_driver/zf_driver_soft_iic.c ****             while(part2_len --)
 2713              		.loc 1 380 18
 2714 00e8 09E0     		b	.L128
 2715              	.L129:
 381:libraries/zf_driver/zf_driver_soft_iic.c ****             {
 382:libraries/zf_driver/zf_driver_soft_iic.c ****                 zf_soft_iic_send_data(soft_iic_index, *part2_buffer ++);
 2716              		.loc 1 382 69
 2717 00ea 089B     		ldr	r3, [sp, #32]
 2718 00ec 5A1C     		adds	r2, r3, #1
 2719 00ee 0892     		str	r2, [sp, #32]
 2720              		.loc 1 382 17
 2721 00f0 1A78     		ldrb	r2, [r3]	@ zero_extendqisi2
 2722 00f2 9DF80F30 		ldrb	r3, [sp, #15]	@ zero_extendqisi2
 2723 00f6 1146     		mov	r1, r2
 2724 00f8 1846     		mov	r0, r3
 2725 00fa FFF7FEFF 		bl	zf_soft_iic_send_data
 2726              	.L128:
 380:libraries/zf_driver/zf_driver_soft_iic.c ****             {
 2727              		.loc 1 380 29
 2728 00fe 099B     		ldr	r3, [sp, #36]
 2729 0100 5A1E     		subs	r2, r3, #1
 2730 0102 0992     		str	r2, [sp, #36]
 380:libraries/zf_driver/zf_driver_soft_iic.c ****             {
 2731              		.loc 1 380 18
 2732 0104 002B     		cmp	r3, #0
 2733 0106 F0D1     		bne	.L129
 2734              	.L127:
 383:libraries/zf_driver/zf_driver_soft_iic.c ****             }
 384:libraries/zf_driver/zf_driver_soft_iic.c ****         }
 385:libraries/zf_driver/zf_driver_soft_iic.c **** 
 386:libraries/zf_driver/zf_driver_soft_iic.c ****         zf_soft_iic_stop(soft_iic_index);
 2735              		.loc 1 386 9
 2736 0108 9DF80F30 		ldrb	r3, [sp, #15]	@ zero_extendqisi2
 2737 010c 1846     		mov	r0, r3
 2738 010e FFF7FEFF 		bl	zf_soft_iic_stop
 387:libraries/zf_driver/zf_driver_soft_iic.c **** 
 388:libraries/zf_driver/zf_driver_soft_iic.c ****         return_state = SOFT_IIC_OPERATION_DONE;
 2739              		.loc 1 388 22
 2740 0112 0023     		movs	r3, #0
 2741 0114 8DF81730 		strb	r3, [sp, #23]
 2742              	.L121:
 389:libraries/zf_driver/zf_driver_soft_iic.c ****     }while(0);
 390:libraries/zf_driver/zf_driver_soft_iic.c **** 
 391:libraries/zf_driver/zf_driver_soft_iic.c ****     return return_state;
 2743              		.loc 1 391 12
 2744 0118 9DF81730 		ldrb	r3, [sp, #23]	@ zero_extendqisi2
 392:libraries/zf_driver/zf_driver_soft_iic.c **** }
 2745              		.loc 1 392 1
 2746 011c 1846     		mov	r0, r3
 2747 011e 07B0     		add	sp, sp, #28
 2748              		.cfi_def_cfa_offset 4
 2749              		@ sp needed
 2750 0120 5DF804FB 		ldr	pc, [sp], #4
 2751              	.L132:
 2752              		.align	2
 2753              	.L131:
 2754 0124 00000000 		.word	soft_iic_obj_list
 2755 0128 00000000 		.word	.LC0
 2756              		.cfi_endproc
 2757              	.LFE179:
 2759              		.section	.text.zf_soft_iic_write_16bit_splicing_array,"ax",%progbits
 2760              		.align	1
 2761              		.p2align 4,,15
 2762              		.global	zf_soft_iic_write_16bit_splicing_array
 2763              		.syntax unified
 2764              		.thumb
 2765              		.thumb_func
 2767              	zf_soft_iic_write_16bit_splicing_array:
 2768              	.LFB180:
 393:libraries/zf_driver/zf_driver_soft_iic.c **** 
 394:libraries/zf_driver/zf_driver_soft_iic.c **** //-------------------------------------------------------------------------------------------------
 395:libraries/zf_driver/zf_driver_soft_iic.c **** // å‡½æ•°ç®€ä»‹     SOFT_IIC æ¥å£ä¼ è¾“ 16bit æ•°ç»„ å†™ä¸¤ä¸ªæ•°ç»„
 396:libraries/zf_driver/zf_driver_soft_iic.c **** // å‚æ•°è¯´æ˜     soft_iic_index      SOFT_IIC ç´¢å¼•   (è¯¦è§ zf_driver_soft_iic.h å†… zf_soft_
 397:libraries/zf_driver/zf_driver_soft_iic.c **** // å‚æ•°è¯´æ˜     addr                å™¨ä»¶åœ°å€
 398:libraries/zf_driver/zf_driver_soft_iic.c **** // å‚æ•°è¯´æ˜     *part1_buffer       å‘é€æ•°æ®å­˜æ”¾ç¼“å†²åŒº
 399:libraries/zf_driver/zf_driver_soft_iic.c **** // å‚æ•°è¯´æ˜     part1_len           å‘é€ç¼“å†²åŒºé•¿åº¦
 400:libraries/zf_driver/zf_driver_soft_iic.c **** // å‚æ•°è¯´æ˜     *part2_buffer       è¯»å–æ•°æ®å­˜æ”¾ç¼“å†²åŒº
 401:libraries/zf_driver/zf_driver_soft_iic.c **** // å‚æ•°è¯´æ˜     part2_len           è¯»å–ç¼“å†²åŒºé•¿åº¦
 402:libraries/zf_driver/zf_driver_soft_iic.c **** // è¿”å›å‚æ•°     uint8               æ“ä½œçŠ¶æ€ ZF_NO_ERROR / SOFT_IIC_OPERATION_DONE - å®Œæˆ
 403:libraries/zf_driver/zf_driver_soft_iic.c **** // ä½¿ç”¨ç¤ºä¾‹     zf_soft_iic_write_16bit_splicing_array(soft_iic_index, addr, part1_buffer, part
 404:libraries/zf_driver/zf_driver_soft_iic.c **** // å¤‡æ³¨ä¿¡æ¯     
 405:libraries/zf_driver/zf_driver_soft_iic.c **** //-------------------------------------------------------------------------------------------------
 406:libraries/zf_driver/zf_driver_soft_iic.c **** uint8 zf_soft_iic_write_16bit_splicing_array (zf_soft_iic_index_enum soft_iic_index, uint8 addr, co
 407:libraries/zf_driver/zf_driver_soft_iic.c **** {
 2769              		.loc 1 407 1
 2770              		.cfi_startproc
 2771              		@ args = 8, pretend = 0, frame = 24
 2772              		@ frame_needed = 0, uses_anonymous_args = 0
 2773 0000 00B5     		push	{lr}
 2774              		.cfi_def_cfa_offset 4
 2775              		.cfi_offset 14, -4
 2776 0002 87B0     		sub	sp, sp, #28
 2777              		.cfi_def_cfa_offset 32
 2778 0004 0292     		str	r2, [sp, #8]
 2779 0006 0193     		str	r3, [sp, #4]
 2780 0008 0346     		mov	r3, r0
 2781 000a 8DF80F30 		strb	r3, [sp, #15]
 2782 000e 0B46     		mov	r3, r1
 2783 0010 8DF80E30 		strb	r3, [sp, #14]
 408:libraries/zf_driver/zf_driver_soft_iic.c ****     zf_soft_iic_operation_state_enum return_state = SOFT_IIC_ERROR_UNKNOW;
 2784              		.loc 1 408 38
 2785 0014 0123     		movs	r3, #1
 2786 0016 8DF81730 		strb	r3, [sp, #23]
 409:libraries/zf_driver/zf_driver_soft_iic.c **** 
 410:libraries/zf_driver/zf_driver_soft_iic.c ****     do
 411:libraries/zf_driver/zf_driver_soft_iic.c ****     {
 412:libraries/zf_driver/zf_driver_soft_iic.c ****         if(zf_soft_iic_assert(soft_iic_obj_list[soft_iic_index].delay))
 2787              		.loc 1 412 12
 2788 001a 9DF80F20 		ldrb	r2, [sp, #15]	@ zero_extendqisi2
 2789 001e 4D49     		ldr	r1, .L145
 2790 0020 1346     		mov	r3, r2
 2791 0022 5B00     		lsls	r3, r3, #1
 2792 0024 1344     		add	r3, r3, r2
 2793 0026 9B00     		lsls	r3, r3, #2
 2794 0028 0B44     		add	r3, r3, r1
 2795 002a 0433     		adds	r3, r3, #4
 2796 002c 1B68     		ldr	r3, [r3]
 2797              		.loc 1 412 11
 2798 002e 002B     		cmp	r3, #0
 2799 0030 0CD1     		bne	.L134
 2800              		.loc 1 412 12 discriminator 1
 2801 0032 0022     		movs	r2, #0
 2802 0034 4FF4CE71 		mov	r1, #412
 2803 0038 4748     		ldr	r0, .L145+4
 2804 003a FFF7FEFF 		bl	zf_soft_iic_assert_handler
 2805 003e 0346     		mov	r3, r0
 2806 0040 002B     		cmp	r3, #0
 2807 0042 03D0     		beq	.L134
 413:libraries/zf_driver/zf_driver_soft_iic.c ****         {
 414:libraries/zf_driver/zf_driver_soft_iic.c ****             // æ­¤å¤„å¦‚æœæ–­è¨€æŠ¥é”™ é‚£ä¹ˆè¯æ˜æœ¬æ¨¡å—æ²¡æœ‰åˆå§‹åŒ–è¿‡ æ˜¯ä¸å…è®¸ç›´æ¥æ
 415:libraries/zf_driver/zf_driver_soft_iic.c ****             return_state = SOFT_IIC_ERROR_MODULE_NOT_INIT;                      // SOFT_IIC æ¨¡å—æ
 2808              		.loc 1 415 26
 2809 0044 2123     		movs	r3, #33
 2810 0046 8DF81730 		strb	r3, [sp, #23]
 416:libraries/zf_driver/zf_driver_soft_iic.c ****             break;
 2811              		.loc 1 416 13
 2812 004a 7DE0     		b	.L135
 2813              	.L134:
 417:libraries/zf_driver/zf_driver_soft_iic.c ****         }
 418:libraries/zf_driver/zf_driver_soft_iic.c ****         if(zf_soft_iic_assert((NULL != part1_buffer) || (NULL != part2_buffer)))
 2814              		.loc 1 418 11
 2815 004c 029B     		ldr	r3, [sp, #8]
 2816 004e 002B     		cmp	r3, #0
 2817 0050 0FD1     		bne	.L136
 2818              		.loc 1 418 12 discriminator 1
 2819 0052 089B     		ldr	r3, [sp, #32]
 2820 0054 002B     		cmp	r3, #0
 2821 0056 0CD1     		bne	.L136
 2822              		.loc 1 418 12 is_stmt 0 discriminator 2
 2823 0058 0022     		movs	r2, #0
 2824 005a 4FF4D171 		mov	r1, #418
 2825 005e 3E48     		ldr	r0, .L145+4
 2826 0060 FFF7FEFF 		bl	zf_soft_iic_assert_handler
 2827 0064 0346     		mov	r3, r0
 2828 0066 002B     		cmp	r3, #0
 2829 0068 03D0     		beq	.L136
 419:libraries/zf_driver/zf_driver_soft_iic.c ****         {
 420:libraries/zf_driver/zf_driver_soft_iic.c ****             // æ­¤å¤„å¦‚æœæ–­è¨€æŠ¥é”™ é‚£ä¹ˆè¯æ˜ä¼ å…¥æ•°æ®æŒ‡é’ˆä¸º NULL ç©ºæŒ‡é’ˆ
 421:libraries/zf_driver/zf_driver_soft_iic.c ****             // ä¸å¯ä»¥å¯¹ç©ºæŒ‡é’ˆè¿›è¡Œæ“ä½œ
 422:libraries/zf_driver/zf_driver_soft_iic.c ****             return_state = SOFT_IIC_ERROR_DATA_BUFFER_NULL;                     // IIC æ•°æ®æŒ‡é’ˆ
 2830              		.loc 1 422 26 is_stmt 1
 2831 006a 2423     		movs	r3, #36
 2832 006c 8DF81730 		strb	r3, [sp, #23]
 423:libraries/zf_driver/zf_driver_soft_iic.c ****             break;
 2833              		.loc 1 423 13
 2834 0070 6AE0     		b	.L135
 2835              	.L136:
 424:libraries/zf_driver/zf_driver_soft_iic.c ****         }
 425:libraries/zf_driver/zf_driver_soft_iic.c ****         if(!soft_iic_obj_list[soft_iic_index].enable)
 2836              		.loc 1 425 46
 2837 0072 9DF80F20 		ldrb	r2, [sp, #15]	@ zero_extendqisi2
 2838 0076 3749     		ldr	r1, .L145
 2839 0078 1346     		mov	r3, r2
 2840 007a 5B00     		lsls	r3, r3, #1
 2841 007c 1344     		add	r3, r3, r2
 2842 007e 9B00     		lsls	r3, r3, #2
 2843 0080 0B44     		add	r3, r3, r1
 2844 0082 0833     		adds	r3, r3, #8
 2845 0084 1B68     		ldr	r3, [r3]
 2846              		.loc 1 425 11
 2847 0086 002B     		cmp	r3, #0
 2848 0088 03D1     		bne	.L137
 426:libraries/zf_driver/zf_driver_soft_iic.c ****         {
 427:libraries/zf_driver/zf_driver_soft_iic.c ****             return_state = SOFT_IIC_WARNING_MODULE_DISABLE;                     // SOFT_IIC æ¨¡å—å
 2849              		.loc 1 427 26
 2850 008a 1023     		movs	r3, #16
 2851 008c 8DF81730 		strb	r3, [sp, #23]
 428:libraries/zf_driver/zf_driver_soft_iic.c ****             break;
 2852              		.loc 1 428 13
 2853 0090 5AE0     		b	.L135
 2854              	.L137:
 429:libraries/zf_driver/zf_driver_soft_iic.c ****         }
 430:libraries/zf_driver/zf_driver_soft_iic.c **** 
 431:libraries/zf_driver/zf_driver_soft_iic.c ****         if(NULL != part1_buffer && 0 != part1_len)
 2855              		.loc 1 431 11
 2856 0092 029B     		ldr	r3, [sp, #8]
 2857 0094 002B     		cmp	r3, #0
 2858 0096 2DD0     		beq	.L138
 2859              		.loc 1 431 33 discriminator 1
 2860 0098 019B     		ldr	r3, [sp, #4]
 2861 009a 002B     		cmp	r3, #0
 2862 009c 2AD0     		beq	.L138
 432:libraries/zf_driver/zf_driver_soft_iic.c ****         {
 433:libraries/zf_driver/zf_driver_soft_iic.c ****             zf_soft_iic_start       (soft_iic_index);
 2863              		.loc 1 433 13
 2864 009e 9DF80F30 		ldrb	r3, [sp, #15]	@ zero_extendqisi2
 2865 00a2 1846     		mov	r0, r3
 2866 00a4 FFF7FEFF 		bl	zf_soft_iic_start
 434:libraries/zf_driver/zf_driver_soft_iic.c ****             zf_soft_iic_send_data   (soft_iic_index, addr << 1);
 2867              		.loc 1 434 13
 2868 00a8 9DF80E30 		ldrb	r3, [sp, #14]
 2869 00ac 5B00     		lsls	r3, r3, #1
 2870 00ae DAB2     		uxtb	r2, r3
 2871 00b0 9DF80F30 		ldrb	r3, [sp, #15]	@ zero_extendqisi2
 2872 00b4 1146     		mov	r1, r2
 2873 00b6 1846     		mov	r0, r3
 2874 00b8 FFF7FEFF 		bl	zf_soft_iic_send_data
 435:libraries/zf_driver/zf_driver_soft_iic.c ****             while(part1_len --)
 2875              		.loc 1 435 18
 2876 00bc 15E0     		b	.L139
 2877              	.L140:
 436:libraries/zf_driver/zf_driver_soft_iic.c ****             {
 437:libraries/zf_driver/zf_driver_soft_iic.c ****                 zf_soft_iic_send_data   (soft_iic_index, (uint8)((*part1_buffer & 0xFF00) >> 8));
 2878              		.loc 1 437 67
 2879 00be 029B     		ldr	r3, [sp, #8]
 2880 00c0 1B88     		ldrh	r3, [r3]
 2881              		.loc 1 437 91
 2882 00c2 1B0A     		lsrs	r3, r3, #8
 2883 00c4 9BB2     		uxth	r3, r3
 2884              		.loc 1 437 17
 2885 00c6 DAB2     		uxtb	r2, r3
 2886 00c8 9DF80F30 		ldrb	r3, [sp, #15]	@ zero_extendqisi2
 2887 00cc 1146     		mov	r1, r2
 2888 00ce 1846     		mov	r0, r3
 2889 00d0 FFF7FEFF 		bl	zf_soft_iic_send_data
 438:libraries/zf_driver/zf_driver_soft_iic.c ****                 zf_soft_iic_send_data   (soft_iic_index, (uint8)(*part1_buffer ++ & 0x00FF));
 2890              		.loc 1 438 80
 2891 00d4 029B     		ldr	r3, [sp, #8]
 2892 00d6 9A1C     		adds	r2, r3, #2
 2893 00d8 0292     		str	r2, [sp, #8]
 2894              		.loc 1 438 66
 2895 00da 1B88     		ldrh	r3, [r3]
 2896              		.loc 1 438 17
 2897 00dc DAB2     		uxtb	r2, r3
 2898 00de 9DF80F30 		ldrb	r3, [sp, #15]	@ zero_extendqisi2
 2899 00e2 1146     		mov	r1, r2
 2900 00e4 1846     		mov	r0, r3
 2901 00e6 FFF7FEFF 		bl	zf_soft_iic_send_data
 2902              	.L139:
 435:libraries/zf_driver/zf_driver_soft_iic.c ****             while(part1_len --)
 2903              		.loc 1 435 29
 2904 00ea 019B     		ldr	r3, [sp, #4]
 2905 00ec 5A1E     		subs	r2, r3, #1
 2906 00ee 0192     		str	r2, [sp, #4]
 435:libraries/zf_driver/zf_driver_soft_iic.c ****             while(part1_len --)
 2907              		.loc 1 435 18
 2908 00f0 002B     		cmp	r3, #0
 2909 00f2 E4D1     		bne	.L140
 2910              	.L138:
 439:libraries/zf_driver/zf_driver_soft_iic.c ****             }
 440:libraries/zf_driver/zf_driver_soft_iic.c ****         }
 441:libraries/zf_driver/zf_driver_soft_iic.c **** 
 442:libraries/zf_driver/zf_driver_soft_iic.c ****         if(NULL != part2_buffer && 0 != part2_len)
 2911              		.loc 1 442 11
 2912 00f4 089B     		ldr	r3, [sp, #32]
 2913 00f6 002B     		cmp	r3, #0
 2914 00f8 1ED0     		beq	.L141
 2915              		.loc 1 442 33 discriminator 1
 2916 00fa 099B     		ldr	r3, [sp, #36]
 2917 00fc 002B     		cmp	r3, #0
 2918 00fe 1BD0     		beq	.L141
 443:libraries/zf_driver/zf_driver_soft_iic.c ****         {
 444:libraries/zf_driver/zf_driver_soft_iic.c ****             while(part2_len --)
 2919              		.loc 1 444 18
 2920 0100 15E0     		b	.L142
 2921              	.L143:
 445:libraries/zf_driver/zf_driver_soft_iic.c ****             {
 446:libraries/zf_driver/zf_driver_soft_iic.c ****                 zf_soft_iic_send_data   (soft_iic_index, (uint8)((*part2_buffer & 0xFF00) >> 8));
 2922              		.loc 1 446 67
 2923 0102 089B     		ldr	r3, [sp, #32]
 2924 0104 1B88     		ldrh	r3, [r3]
 2925              		.loc 1 446 91
 2926 0106 1B0A     		lsrs	r3, r3, #8
 2927 0108 9BB2     		uxth	r3, r3
 2928              		.loc 1 446 17
 2929 010a DAB2     		uxtb	r2, r3
 2930 010c 9DF80F30 		ldrb	r3, [sp, #15]	@ zero_extendqisi2
 2931 0110 1146     		mov	r1, r2
 2932 0112 1846     		mov	r0, r3
 2933 0114 FFF7FEFF 		bl	zf_soft_iic_send_data
 447:libraries/zf_driver/zf_driver_soft_iic.c ****                 zf_soft_iic_send_data   (soft_iic_index, (uint8)(*part2_buffer ++ & 0x00FF));
 2934              		.loc 1 447 80
 2935 0118 089B     		ldr	r3, [sp, #32]
 2936 011a 9A1C     		adds	r2, r3, #2
 2937 011c 0892     		str	r2, [sp, #32]
 2938              		.loc 1 447 66
 2939 011e 1B88     		ldrh	r3, [r3]
 2940              		.loc 1 447 17
 2941 0120 DAB2     		uxtb	r2, r3
 2942 0122 9DF80F30 		ldrb	r3, [sp, #15]	@ zero_extendqisi2
 2943 0126 1146     		mov	r1, r2
 2944 0128 1846     		mov	r0, r3
 2945 012a FFF7FEFF 		bl	zf_soft_iic_send_data
 2946              	.L142:
 444:libraries/zf_driver/zf_driver_soft_iic.c ****             {
 2947              		.loc 1 444 29
 2948 012e 099B     		ldr	r3, [sp, #36]
 2949 0130 5A1E     		subs	r2, r3, #1
 2950 0132 0992     		str	r2, [sp, #36]
 444:libraries/zf_driver/zf_driver_soft_iic.c ****             {
 2951              		.loc 1 444 18
 2952 0134 002B     		cmp	r3, #0
 2953 0136 E4D1     		bne	.L143
 2954              	.L141:
 448:libraries/zf_driver/zf_driver_soft_iic.c ****             }
 449:libraries/zf_driver/zf_driver_soft_iic.c ****         }
 450:libraries/zf_driver/zf_driver_soft_iic.c **** 
 451:libraries/zf_driver/zf_driver_soft_iic.c ****         zf_soft_iic_stop(soft_iic_index);
 2955              		.loc 1 451 9
 2956 0138 9DF80F30 		ldrb	r3, [sp, #15]	@ zero_extendqisi2
 2957 013c 1846     		mov	r0, r3
 2958 013e FFF7FEFF 		bl	zf_soft_iic_stop
 452:libraries/zf_driver/zf_driver_soft_iic.c **** 
 453:libraries/zf_driver/zf_driver_soft_iic.c ****         return_state = SOFT_IIC_OPERATION_DONE;
 2959              		.loc 1 453 22
 2960 0142 0023     		movs	r3, #0
 2961 0144 8DF81730 		strb	r3, [sp, #23]
 2962              	.L135:
 454:libraries/zf_driver/zf_driver_soft_iic.c ****     }while(0);
 455:libraries/zf_driver/zf_driver_soft_iic.c **** 
 456:libraries/zf_driver/zf_driver_soft_iic.c ****     return return_state;
 2963              		.loc 1 456 12
 2964 0148 9DF81730 		ldrb	r3, [sp, #23]	@ zero_extendqisi2
 457:libraries/zf_driver/zf_driver_soft_iic.c **** }
 2965              		.loc 1 457 1
 2966 014c 1846     		mov	r0, r3
 2967 014e 07B0     		add	sp, sp, #28
 2968              		.cfi_def_cfa_offset 4
 2969              		@ sp needed
 2970 0150 5DF804FB 		ldr	pc, [sp], #4
 2971              	.L146:
 2972              		.align	2
 2973              	.L145:
 2974 0154 00000000 		.word	soft_iic_obj_list
 2975 0158 00000000 		.word	.LC0
 2976              		.cfi_endproc
 2977              	.LFE180:
 2979              		.section	.text.zf_soft_iic_transfer_8bit_array,"ax",%progbits
 2980              		.align	1
 2981              		.p2align 4,,15
 2982              		.global	zf_soft_iic_transfer_8bit_array
 2983              		.syntax unified
 2984              		.thumb
 2985              		.thumb_func
 2987              	zf_soft_iic_transfer_8bit_array:
 2988              	.LFB181:
 458:libraries/zf_driver/zf_driver_soft_iic.c **** 
 459:libraries/zf_driver/zf_driver_soft_iic.c **** //-------------------------------------------------------------------------------------------------
 460:libraries/zf_driver/zf_driver_soft_iic.c **** // å‡½æ•°ç®€ä»‹     SOFT_IIC æ¥å£ä¼ è¾“ 8bit æ•°ç»„ å…ˆå†™åè¯»å–
 461:libraries/zf_driver/zf_driver_soft_iic.c **** // å‚æ•°è¯´æ˜     soft_iic_index      SOFT_IIC ç´¢å¼•   (è¯¦è§ zf_driver_soft_iic.h å†… zf_soft_
 462:libraries/zf_driver/zf_driver_soft_iic.c **** // å‚æ•°è¯´æ˜     addr                å™¨ä»¶åœ°å€
 463:libraries/zf_driver/zf_driver_soft_iic.c **** // å‚æ•°è¯´æ˜     *write_buffer       å‘é€æ•°æ®å­˜æ”¾ç¼“å†²åŒº
 464:libraries/zf_driver/zf_driver_soft_iic.c **** // å‚æ•°è¯´æ˜     write_len           å‘é€ç¼“å†²åŒºé•¿åº¦
 465:libraries/zf_driver/zf_driver_soft_iic.c **** // å‚æ•°è¯´æ˜     *read_buffer        è¯»å–æ•°æ®å­˜æ”¾ç¼“å†²åŒº
 466:libraries/zf_driver/zf_driver_soft_iic.c **** // å‚æ•°è¯´æ˜     read_len            è¯»å–ç¼“å†²åŒºé•¿åº¦
 467:libraries/zf_driver/zf_driver_soft_iic.c **** // è¿”å›å‚æ•°     uint8               æ“ä½œçŠ¶æ€ ZF_NO_ERROR / SOFT_IIC_OPERATION_DONE - å®Œæˆ
 468:libraries/zf_driver/zf_driver_soft_iic.c **** // ä½¿ç”¨ç¤ºä¾‹     zf_soft_iic_transfer_8bit_array(soft_iic_index, addr, write_buffer, write_len, 
 469:libraries/zf_driver/zf_driver_soft_iic.c **** // å¤‡æ³¨ä¿¡æ¯     
 470:libraries/zf_driver/zf_driver_soft_iic.c **** //-------------------------------------------------------------------------------------------------
 471:libraries/zf_driver/zf_driver_soft_iic.c **** uint8 zf_soft_iic_transfer_8bit_array (zf_soft_iic_index_enum soft_iic_index, uint8 addr, const uin
 472:libraries/zf_driver/zf_driver_soft_iic.c **** {
 2989              		.loc 1 472 1
 2990              		.cfi_startproc
 2991              		@ args = 8, pretend = 0, frame = 24
 2992              		@ frame_needed = 0, uses_anonymous_args = 0
 2993 0000 10B5     		push	{r4, lr}
 2994              		.cfi_def_cfa_offset 8
 2995              		.cfi_offset 4, -8
 2996              		.cfi_offset 14, -4
 2997 0002 86B0     		sub	sp, sp, #24
 2998              		.cfi_def_cfa_offset 32
 2999 0004 0292     		str	r2, [sp, #8]
 3000 0006 0193     		str	r3, [sp, #4]
 3001 0008 0346     		mov	r3, r0
 3002 000a 8DF80F30 		strb	r3, [sp, #15]
 3003 000e 0B46     		mov	r3, r1
 3004 0010 8DF80E30 		strb	r3, [sp, #14]
 473:libraries/zf_driver/zf_driver_soft_iic.c ****     zf_soft_iic_operation_state_enum return_state = SOFT_IIC_ERROR_UNKNOW;
 3005              		.loc 1 473 38
 3006 0014 0123     		movs	r3, #1
 3007 0016 8DF81730 		strb	r3, [sp, #23]
 474:libraries/zf_driver/zf_driver_soft_iic.c **** 
 475:libraries/zf_driver/zf_driver_soft_iic.c ****     do
 476:libraries/zf_driver/zf_driver_soft_iic.c ****     {
 477:libraries/zf_driver/zf_driver_soft_iic.c ****         if(zf_soft_iic_assert(soft_iic_obj_list[soft_iic_index].delay))
 3008              		.loc 1 477 12
 3009 001a 9DF80F20 		ldrb	r2, [sp, #15]	@ zero_extendqisi2
 3010 001e 4E49     		ldr	r1, .L159
 3011 0020 1346     		mov	r3, r2
 3012 0022 5B00     		lsls	r3, r3, #1
 3013 0024 1344     		add	r3, r3, r2
 3014 0026 9B00     		lsls	r3, r3, #2
 3015 0028 0B44     		add	r3, r3, r1
 3016 002a 0433     		adds	r3, r3, #4
 3017 002c 1B68     		ldr	r3, [r3]
 3018              		.loc 1 477 11
 3019 002e 002B     		cmp	r3, #0
 3020 0030 0CD1     		bne	.L148
 3021              		.loc 1 477 12 discriminator 1
 3022 0032 0022     		movs	r2, #0
 3023 0034 40F2DD11 		movw	r1, #477
 3024 0038 4848     		ldr	r0, .L159+4
 3025 003a FFF7FEFF 		bl	zf_soft_iic_assert_handler
 3026 003e 0346     		mov	r3, r0
 3027 0040 002B     		cmp	r3, #0
 3028 0042 03D0     		beq	.L148
 478:libraries/zf_driver/zf_driver_soft_iic.c ****         {
 479:libraries/zf_driver/zf_driver_soft_iic.c ****             // æ­¤å¤„å¦‚æœæ–­è¨€æŠ¥é”™ é‚£ä¹ˆè¯æ˜æœ¬æ¨¡å—æ²¡æœ‰åˆå§‹åŒ–è¿‡ æ˜¯ä¸å…è®¸ç›´æ¥æ
 480:libraries/zf_driver/zf_driver_soft_iic.c ****             return_state = SOFT_IIC_ERROR_MODULE_NOT_INIT;                      // SOFT_IIC æ¨¡å—æ
 3029              		.loc 1 480 26
 3030 0044 2123     		movs	r3, #33
 3031 0046 8DF81730 		strb	r3, [sp, #23]
 481:libraries/zf_driver/zf_driver_soft_iic.c ****             break;
 3032              		.loc 1 481 13
 3033 004a 80E0     		b	.L149
 3034              	.L148:
 482:libraries/zf_driver/zf_driver_soft_iic.c ****         }
 483:libraries/zf_driver/zf_driver_soft_iic.c ****         if(zf_soft_iic_assert((NULL != write_buffer) || (NULL != read_buffer)))
 3035              		.loc 1 483 11
 3036 004c 029B     		ldr	r3, [sp, #8]
 3037 004e 002B     		cmp	r3, #0
 3038 0050 0FD1     		bne	.L150
 3039              		.loc 1 483 12 discriminator 1
 3040 0052 089B     		ldr	r3, [sp, #32]
 3041 0054 002B     		cmp	r3, #0
 3042 0056 0CD1     		bne	.L150
 3043              		.loc 1 483 12 is_stmt 0 discriminator 2
 3044 0058 0022     		movs	r2, #0
 3045 005a 40F2E311 		movw	r1, #483
 3046 005e 3F48     		ldr	r0, .L159+4
 3047 0060 FFF7FEFF 		bl	zf_soft_iic_assert_handler
 3048 0064 0346     		mov	r3, r0
 3049 0066 002B     		cmp	r3, #0
 3050 0068 03D0     		beq	.L150
 484:libraries/zf_driver/zf_driver_soft_iic.c ****         {
 485:libraries/zf_driver/zf_driver_soft_iic.c ****             // æ­¤å¤„å¦‚æœæ–­è¨€æŠ¥é”™ é‚£ä¹ˆè¯æ˜ä¼ å…¥æ•°æ®æŒ‡é’ˆä¸º NULL ç©ºæŒ‡é’ˆ
 486:libraries/zf_driver/zf_driver_soft_iic.c ****             // ä¸å¯ä»¥å¯¹ç©ºæŒ‡é’ˆè¿›è¡Œæ“ä½œ
 487:libraries/zf_driver/zf_driver_soft_iic.c ****             return_state = SOFT_IIC_ERROR_DATA_BUFFER_NULL;                     // IIC æ•°æ®æŒ‡é’ˆ
 3051              		.loc 1 487 26 is_stmt 1
 3052 006a 2423     		movs	r3, #36
 3053 006c 8DF81730 		strb	r3, [sp, #23]
 488:libraries/zf_driver/zf_driver_soft_iic.c ****             break;
 3054              		.loc 1 488 13
 3055 0070 6DE0     		b	.L149
 3056              	.L150:
 489:libraries/zf_driver/zf_driver_soft_iic.c ****         }
 490:libraries/zf_driver/zf_driver_soft_iic.c ****         if(!soft_iic_obj_list[soft_iic_index].enable)
 3057              		.loc 1 490 46
 3058 0072 9DF80F20 		ldrb	r2, [sp, #15]	@ zero_extendqisi2
 3059 0076 3849     		ldr	r1, .L159
 3060 0078 1346     		mov	r3, r2
 3061 007a 5B00     		lsls	r3, r3, #1
 3062 007c 1344     		add	r3, r3, r2
 3063 007e 9B00     		lsls	r3, r3, #2
 3064 0080 0B44     		add	r3, r3, r1
 3065 0082 0833     		adds	r3, r3, #8
 3066 0084 1B68     		ldr	r3, [r3]
 3067              		.loc 1 490 11
 3068 0086 002B     		cmp	r3, #0
 3069 0088 03D1     		bne	.L151
 491:libraries/zf_driver/zf_driver_soft_iic.c ****         {
 492:libraries/zf_driver/zf_driver_soft_iic.c ****             return_state = SOFT_IIC_WARNING_MODULE_DISABLE;                     // SOFT_IIC æ¨¡å—å
 3070              		.loc 1 492 26
 3071 008a 1023     		movs	r3, #16
 3072 008c 8DF81730 		strb	r3, [sp, #23]
 493:libraries/zf_driver/zf_driver_soft_iic.c ****             break;
 3073              		.loc 1 493 13
 3074 0090 5DE0     		b	.L149
 3075              	.L151:
 494:libraries/zf_driver/zf_driver_soft_iic.c ****         }
 495:libraries/zf_driver/zf_driver_soft_iic.c **** 
 496:libraries/zf_driver/zf_driver_soft_iic.c ****         if(NULL != write_buffer && 0 != write_len)
 3076              		.loc 1 496 11
 3077 0092 029B     		ldr	r3, [sp, #8]
 3078 0094 002B     		cmp	r3, #0
 3079 0096 21D0     		beq	.L152
 3080              		.loc 1 496 33 discriminator 1
 3081 0098 019B     		ldr	r3, [sp, #4]
 3082 009a 002B     		cmp	r3, #0
 3083 009c 1ED0     		beq	.L152
 497:libraries/zf_driver/zf_driver_soft_iic.c ****         {
 498:libraries/zf_driver/zf_driver_soft_iic.c ****             zf_soft_iic_start       (soft_iic_index);
 3084              		.loc 1 498 13
 3085 009e 9DF80F30 		ldrb	r3, [sp, #15]	@ zero_extendqisi2
 3086 00a2 1846     		mov	r0, r3
 3087 00a4 FFF7FEFF 		bl	zf_soft_iic_start
 499:libraries/zf_driver/zf_driver_soft_iic.c ****             zf_soft_iic_send_data   (soft_iic_index, addr << 1);
 3088              		.loc 1 499 13
 3089 00a8 9DF80E30 		ldrb	r3, [sp, #14]
 3090 00ac 5B00     		lsls	r3, r3, #1
 3091 00ae DAB2     		uxtb	r2, r3
 3092 00b0 9DF80F30 		ldrb	r3, [sp, #15]	@ zero_extendqisi2
 3093 00b4 1146     		mov	r1, r2
 3094 00b6 1846     		mov	r0, r3
 3095 00b8 FFF7FEFF 		bl	zf_soft_iic_send_data
 500:libraries/zf_driver/zf_driver_soft_iic.c ****             while(write_len --)
 3096              		.loc 1 500 18
 3097 00bc 09E0     		b	.L153
 3098              	.L154:
 501:libraries/zf_driver/zf_driver_soft_iic.c ****             {
 502:libraries/zf_driver/zf_driver_soft_iic.c ****                 zf_soft_iic_send_data(soft_iic_index, *write_buffer ++);
 3099              		.loc 1 502 69
 3100 00be 029B     		ldr	r3, [sp, #8]
 3101 00c0 5A1C     		adds	r2, r3, #1
 3102 00c2 0292     		str	r2, [sp, #8]
 3103              		.loc 1 502 17
 3104 00c4 1A78     		ldrb	r2, [r3]	@ zero_extendqisi2
 3105 00c6 9DF80F30 		ldrb	r3, [sp, #15]	@ zero_extendqisi2
 3106 00ca 1146     		mov	r1, r2
 3107 00cc 1846     		mov	r0, r3
 3108 00ce FFF7FEFF 		bl	zf_soft_iic_send_data
 3109              	.L153:
 500:libraries/zf_driver/zf_driver_soft_iic.c ****             while(write_len --)
 3110              		.loc 1 500 29
 3111 00d2 019B     		ldr	r3, [sp, #4]
 3112 00d4 5A1E     		subs	r2, r3, #1
 3113 00d6 0192     		str	r2, [sp, #4]
 500:libraries/zf_driver/zf_driver_soft_iic.c ****             while(write_len --)
 3114              		.loc 1 500 18
 3115 00d8 002B     		cmp	r3, #0
 3116 00da F0D1     		bne	.L154
 3117              	.L152:
 503:libraries/zf_driver/zf_driver_soft_iic.c ****             }
 504:libraries/zf_driver/zf_driver_soft_iic.c ****         }
 505:libraries/zf_driver/zf_driver_soft_iic.c **** 
 506:libraries/zf_driver/zf_driver_soft_iic.c ****         if(NULL != read_buffer && 0 != read_len)
 3118              		.loc 1 506 11
 3119 00dc 089B     		ldr	r3, [sp, #32]
 3120 00de 002B     		cmp	r3, #0
 3121 00e0 2DD0     		beq	.L155
 3122              		.loc 1 506 32 discriminator 1
 3123 00e2 099B     		ldr	r3, [sp, #36]
 3124 00e4 002B     		cmp	r3, #0
 3125 00e6 2AD0     		beq	.L155
 507:libraries/zf_driver/zf_driver_soft_iic.c ****         {
 508:libraries/zf_driver/zf_driver_soft_iic.c ****             zf_soft_iic_start       (soft_iic_index);
 3126              		.loc 1 508 13
 3127 00e8 9DF80F30 		ldrb	r3, [sp, #15]	@ zero_extendqisi2
 3128 00ec 1846     		mov	r0, r3
 3129 00ee FFF7FEFF 		bl	zf_soft_iic_start
 509:libraries/zf_driver/zf_driver_soft_iic.c ****             zf_soft_iic_send_data   (soft_iic_index, addr << 1 | 0x01);
 3130              		.loc 1 509 59
 3131 00f2 9DF80E30 		ldrb	r3, [sp, #14]	@ zero_extendqisi2
 3132 00f6 5B00     		lsls	r3, r3, #1
 3133              		.loc 1 509 64
 3134 00f8 5BB2     		sxtb	r3, r3
 3135 00fa 43F00103 		orr	r3, r3, #1
 3136 00fe 5BB2     		sxtb	r3, r3
 3137              		.loc 1 509 13
 3138 0100 DAB2     		uxtb	r2, r3
 3139 0102 9DF80F30 		ldrb	r3, [sp, #15]	@ zero_extendqisi2
 3140 0106 1146     		mov	r1, r2
 3141 0108 1846     		mov	r0, r3
 3142 010a FFF7FEFF 		bl	zf_soft_iic_send_data
 510:libraries/zf_driver/zf_driver_soft_iic.c ****             while(read_len --)
 3143              		.loc 1 510 18
 3144 010e 11E0     		b	.L156
 3145              	.L157:
 511:libraries/zf_driver/zf_driver_soft_iic.c ****             {
 512:libraries/zf_driver/zf_driver_soft_iic.c ****                 *read_buffer ++ = zf_soft_iic_read_data(soft_iic_index, 0 == read_len);
 3146              		.loc 1 512 35
 3147 0110 099B     		ldr	r3, [sp, #36]
 3148 0112 002B     		cmp	r3, #0
 3149 0114 0CBF     		ite	eq
 3150 0116 0123     		moveq	r3, #1
 3151 0118 0023     		movne	r3, #0
 3152 011a DBB2     		uxtb	r3, r3
 3153 011c 1A46     		mov	r2, r3
 3154              		.loc 1 512 30
 3155 011e 089C     		ldr	r4, [sp, #32]
 3156 0120 631C     		adds	r3, r4, #1
 3157 0122 0893     		str	r3, [sp, #32]
 3158              		.loc 1 512 35
 3159 0124 9DF80F30 		ldrb	r3, [sp, #15]	@ zero_extendqisi2
 3160 0128 1146     		mov	r1, r2
 3161 012a 1846     		mov	r0, r3
 3162 012c FFF7FEFF 		bl	zf_soft_iic_read_data
 3163 0130 0346     		mov	r3, r0
 3164              		.loc 1 512 33
 3165 0132 2370     		strb	r3, [r4]
 3166              	.L156:
 510:libraries/zf_driver/zf_driver_soft_iic.c ****             while(read_len --)
 3167              		.loc 1 510 28
 3168 0134 099B     		ldr	r3, [sp, #36]
 3169 0136 5A1E     		subs	r2, r3, #1
 3170 0138 0992     		str	r2, [sp, #36]
 510:libraries/zf_driver/zf_driver_soft_iic.c ****             while(read_len --)
 3171              		.loc 1 510 18
 3172 013a 002B     		cmp	r3, #0
 3173 013c E8D1     		bne	.L157
 3174              	.L155:
 513:libraries/zf_driver/zf_driver_soft_iic.c ****             }
 514:libraries/zf_driver/zf_driver_soft_iic.c ****         }
 515:libraries/zf_driver/zf_driver_soft_iic.c ****         zf_soft_iic_stop(soft_iic_index);
 3175              		.loc 1 515 9
 3176 013e 9DF80F30 		ldrb	r3, [sp, #15]	@ zero_extendqisi2
 3177 0142 1846     		mov	r0, r3
 3178 0144 FFF7FEFF 		bl	zf_soft_iic_stop
 516:libraries/zf_driver/zf_driver_soft_iic.c **** 
 517:libraries/zf_driver/zf_driver_soft_iic.c ****         return_state = SOFT_IIC_OPERATION_DONE;
 3179              		.loc 1 517 22
 3180 0148 0023     		movs	r3, #0
 3181 014a 8DF81730 		strb	r3, [sp, #23]
 3182              	.L149:
 518:libraries/zf_driver/zf_driver_soft_iic.c ****     }while(0);
 519:libraries/zf_driver/zf_driver_soft_iic.c **** 
 520:libraries/zf_driver/zf_driver_soft_iic.c ****     return return_state;
 3183              		.loc 1 520 12
 3184 014e 9DF81730 		ldrb	r3, [sp, #23]	@ zero_extendqisi2
 521:libraries/zf_driver/zf_driver_soft_iic.c **** }
 3185              		.loc 1 521 1
 3186 0152 1846     		mov	r0, r3
 3187 0154 06B0     		add	sp, sp, #24
 3188              		.cfi_def_cfa_offset 8
 3189              		@ sp needed
 3190 0156 10BD     		pop	{r4, pc}
 3191              	.L160:
 3192              		.align	2
 3193              	.L159:
 3194 0158 00000000 		.word	soft_iic_obj_list
 3195 015c 00000000 		.word	.LC0
 3196              		.cfi_endproc
 3197              	.LFE181:
 3199              		.section	.text.zf_soft_iic_transfer_16bit_array,"ax",%progbits
 3200              		.align	1
 3201              		.p2align 4,,15
 3202              		.global	zf_soft_iic_transfer_16bit_array
 3203              		.syntax unified
 3204              		.thumb
 3205              		.thumb_func
 3207              	zf_soft_iic_transfer_16bit_array:
 3208              	.LFB182:
 522:libraries/zf_driver/zf_driver_soft_iic.c **** 
 523:libraries/zf_driver/zf_driver_soft_iic.c **** //-------------------------------------------------------------------------------------------------
 524:libraries/zf_driver/zf_driver_soft_iic.c **** // å‡½æ•°ç®€ä»‹     SOFT_IIC æ¥å£ä¼ è¾“ 16bit æ•°ç»„ å…ˆå†™åè¯»å–
 525:libraries/zf_driver/zf_driver_soft_iic.c **** // å‚æ•°è¯´æ˜     soft_iic_index      SOFT_IIC ç´¢å¼•   (è¯¦è§ zf_driver_soft_iic.h å†… zf_soft_
 526:libraries/zf_driver/zf_driver_soft_iic.c **** // å‚æ•°è¯´æ˜     addr                å™¨ä»¶åœ°å€
 527:libraries/zf_driver/zf_driver_soft_iic.c **** // å‚æ•°è¯´æ˜     *write_buffer       å‘é€æ•°æ®å­˜æ”¾ç¼“å†²åŒº
 528:libraries/zf_driver/zf_driver_soft_iic.c **** // å‚æ•°è¯´æ˜     write_len           å‘é€ç¼“å†²åŒºé•¿åº¦
 529:libraries/zf_driver/zf_driver_soft_iic.c **** // å‚æ•°è¯´æ˜     *read_buffer        è¯»å–æ•°æ®å­˜æ”¾ç¼“å†²åŒº
 530:libraries/zf_driver/zf_driver_soft_iic.c **** // å‚æ•°è¯´æ˜     read_len            è¯»å–ç¼“å†²åŒºé•¿åº¦
 531:libraries/zf_driver/zf_driver_soft_iic.c **** // è¿”å›å‚æ•°     uint8               æ“ä½œçŠ¶æ€ ZF_NO_ERROR / SOFT_IIC_OPERATION_DONE - å®Œæˆ
 532:libraries/zf_driver/zf_driver_soft_iic.c **** // ä½¿ç”¨ç¤ºä¾‹     zf_soft_iic_transfer_16bit_array(soft_iic_index, addr, write_buffer, write_len,
 533:libraries/zf_driver/zf_driver_soft_iic.c **** // å¤‡æ³¨ä¿¡æ¯     
 534:libraries/zf_driver/zf_driver_soft_iic.c **** //-------------------------------------------------------------------------------------------------
 535:libraries/zf_driver/zf_driver_soft_iic.c **** uint8 zf_soft_iic_transfer_16bit_array (zf_soft_iic_index_enum soft_iic_index, uint8 addr, const ui
 536:libraries/zf_driver/zf_driver_soft_iic.c **** {
 3209              		.loc 1 536 1
 3210              		.cfi_startproc
 3211              		@ args = 8, pretend = 0, frame = 24
 3212              		@ frame_needed = 0, uses_anonymous_args = 0
 3213 0000 10B5     		push	{r4, lr}
 3214              		.cfi_def_cfa_offset 8
 3215              		.cfi_offset 4, -8
 3216              		.cfi_offset 14, -4
 3217 0002 86B0     		sub	sp, sp, #24
 3218              		.cfi_def_cfa_offset 32
 3219 0004 0292     		str	r2, [sp, #8]
 3220 0006 0193     		str	r3, [sp, #4]
 3221 0008 0346     		mov	r3, r0
 3222 000a 8DF80F30 		strb	r3, [sp, #15]
 3223 000e 0B46     		mov	r3, r1
 3224 0010 8DF80E30 		strb	r3, [sp, #14]
 537:libraries/zf_driver/zf_driver_soft_iic.c ****     zf_soft_iic_operation_state_enum return_state = SOFT_IIC_ERROR_UNKNOW;
 3225              		.loc 1 537 38
 3226 0014 0123     		movs	r3, #1
 3227 0016 8DF81730 		strb	r3, [sp, #23]
 538:libraries/zf_driver/zf_driver_soft_iic.c **** 
 539:libraries/zf_driver/zf_driver_soft_iic.c ****     do
 540:libraries/zf_driver/zf_driver_soft_iic.c ****     {
 541:libraries/zf_driver/zf_driver_soft_iic.c ****         if(zf_soft_iic_assert(soft_iic_obj_list[soft_iic_index].delay))
 3228              		.loc 1 541 12
 3229 001a 9DF80F20 		ldrb	r2, [sp, #15]	@ zero_extendqisi2
 3230 001e 5E49     		ldr	r1, .L173
 3231 0020 1346     		mov	r3, r2
 3232 0022 5B00     		lsls	r3, r3, #1
 3233 0024 1344     		add	r3, r3, r2
 3234 0026 9B00     		lsls	r3, r3, #2
 3235 0028 0B44     		add	r3, r3, r1
 3236 002a 0433     		adds	r3, r3, #4
 3237 002c 1B68     		ldr	r3, [r3]
 3238              		.loc 1 541 11
 3239 002e 002B     		cmp	r3, #0
 3240 0030 0CD1     		bne	.L162
 3241              		.loc 1 541 12 discriminator 1
 3242 0032 0022     		movs	r2, #0
 3243 0034 40F21D21 		movw	r1, #541
 3244 0038 5848     		ldr	r0, .L173+4
 3245 003a FFF7FEFF 		bl	zf_soft_iic_assert_handler
 3246 003e 0346     		mov	r3, r0
 3247 0040 002B     		cmp	r3, #0
 3248 0042 03D0     		beq	.L162
 542:libraries/zf_driver/zf_driver_soft_iic.c ****         {
 543:libraries/zf_driver/zf_driver_soft_iic.c ****             // æ­¤å¤„å¦‚æœæ–­è¨€æŠ¥é”™ é‚£ä¹ˆè¯æ˜æœ¬æ¨¡å—æ²¡æœ‰åˆå§‹åŒ–è¿‡ æ˜¯ä¸å…è®¸ç›´æ¥æ
 544:libraries/zf_driver/zf_driver_soft_iic.c ****             return_state = SOFT_IIC_ERROR_MODULE_NOT_INIT;                      // SOFT_IIC æ¨¡å—æ
 3249              		.loc 1 544 26
 3250 0044 2123     		movs	r3, #33
 3251 0046 8DF81730 		strb	r3, [sp, #23]
 545:libraries/zf_driver/zf_driver_soft_iic.c ****             break;
 3252              		.loc 1 545 13
 3253 004a 9FE0     		b	.L163
 3254              	.L162:
 546:libraries/zf_driver/zf_driver_soft_iic.c ****         }
 547:libraries/zf_driver/zf_driver_soft_iic.c ****         if(zf_soft_iic_assert((NULL != write_buffer) || (NULL != read_buffer)))
 3255              		.loc 1 547 11
 3256 004c 029B     		ldr	r3, [sp, #8]
 3257 004e 002B     		cmp	r3, #0
 3258 0050 0FD1     		bne	.L164
 3259              		.loc 1 547 12 discriminator 1
 3260 0052 089B     		ldr	r3, [sp, #32]
 3261 0054 002B     		cmp	r3, #0
 3262 0056 0CD1     		bne	.L164
 3263              		.loc 1 547 12 is_stmt 0 discriminator 2
 3264 0058 0022     		movs	r2, #0
 3265 005a 40F22321 		movw	r1, #547
 3266 005e 4F48     		ldr	r0, .L173+4
 3267 0060 FFF7FEFF 		bl	zf_soft_iic_assert_handler
 3268 0064 0346     		mov	r3, r0
 3269 0066 002B     		cmp	r3, #0
 3270 0068 03D0     		beq	.L164
 548:libraries/zf_driver/zf_driver_soft_iic.c ****         {
 549:libraries/zf_driver/zf_driver_soft_iic.c ****             // æ­¤å¤„å¦‚æœæ–­è¨€æŠ¥é”™ é‚£ä¹ˆè¯æ˜ä¼ å…¥æ•°æ®æŒ‡é’ˆä¸º NULL ç©ºæŒ‡é’ˆ
 550:libraries/zf_driver/zf_driver_soft_iic.c ****             // ä¸å¯ä»¥å¯¹ç©ºæŒ‡é’ˆè¿›è¡Œæ“ä½œ
 551:libraries/zf_driver/zf_driver_soft_iic.c ****             return_state = SOFT_IIC_ERROR_DATA_BUFFER_NULL;                     // IIC æ•°æ®æŒ‡é’ˆ
 3271              		.loc 1 551 26 is_stmt 1
 3272 006a 2423     		movs	r3, #36
 3273 006c 8DF81730 		strb	r3, [sp, #23]
 552:libraries/zf_driver/zf_driver_soft_iic.c ****             break;
 3274              		.loc 1 552 13
 3275 0070 8CE0     		b	.L163
 3276              	.L164:
 553:libraries/zf_driver/zf_driver_soft_iic.c ****         }
 554:libraries/zf_driver/zf_driver_soft_iic.c ****         if(!soft_iic_obj_list[soft_iic_index].enable)
 3277              		.loc 1 554 46
 3278 0072 9DF80F20 		ldrb	r2, [sp, #15]	@ zero_extendqisi2
 3279 0076 4849     		ldr	r1, .L173
 3280 0078 1346     		mov	r3, r2
 3281 007a 5B00     		lsls	r3, r3, #1
 3282 007c 1344     		add	r3, r3, r2
 3283 007e 9B00     		lsls	r3, r3, #2
 3284 0080 0B44     		add	r3, r3, r1
 3285 0082 0833     		adds	r3, r3, #8
 3286 0084 1B68     		ldr	r3, [r3]
 3287              		.loc 1 554 11
 3288 0086 002B     		cmp	r3, #0
 3289 0088 03D1     		bne	.L165
 555:libraries/zf_driver/zf_driver_soft_iic.c ****         {
 556:libraries/zf_driver/zf_driver_soft_iic.c ****             return_state = SOFT_IIC_WARNING_MODULE_DISABLE;                     // SOFT_IIC æ¨¡å—å
 3290              		.loc 1 556 26
 3291 008a 1023     		movs	r3, #16
 3292 008c 8DF81730 		strb	r3, [sp, #23]
 557:libraries/zf_driver/zf_driver_soft_iic.c ****             break;
 3293              		.loc 1 557 13
 3294 0090 7CE0     		b	.L163
 3295              	.L165:
 558:libraries/zf_driver/zf_driver_soft_iic.c ****         }
 559:libraries/zf_driver/zf_driver_soft_iic.c **** 
 560:libraries/zf_driver/zf_driver_soft_iic.c ****         if(NULL != write_buffer && 0 != write_len)
 3296              		.loc 1 560 11
 3297 0092 029B     		ldr	r3, [sp, #8]
 3298 0094 002B     		cmp	r3, #0
 3299 0096 2DD0     		beq	.L166
 3300              		.loc 1 560 33 discriminator 1
 3301 0098 019B     		ldr	r3, [sp, #4]
 3302 009a 002B     		cmp	r3, #0
 3303 009c 2AD0     		beq	.L166
 561:libraries/zf_driver/zf_driver_soft_iic.c ****         {
 562:libraries/zf_driver/zf_driver_soft_iic.c ****             zf_soft_iic_start       (soft_iic_index);
 3304              		.loc 1 562 13
 3305 009e 9DF80F30 		ldrb	r3, [sp, #15]	@ zero_extendqisi2
 3306 00a2 1846     		mov	r0, r3
 3307 00a4 FFF7FEFF 		bl	zf_soft_iic_start
 563:libraries/zf_driver/zf_driver_soft_iic.c ****             zf_soft_iic_send_data   (soft_iic_index, addr << 1);
 3308              		.loc 1 563 13
 3309 00a8 9DF80E30 		ldrb	r3, [sp, #14]
 3310 00ac 5B00     		lsls	r3, r3, #1
 3311 00ae DAB2     		uxtb	r2, r3
 3312 00b0 9DF80F30 		ldrb	r3, [sp, #15]	@ zero_extendqisi2
 3313 00b4 1146     		mov	r1, r2
 3314 00b6 1846     		mov	r0, r3
 3315 00b8 FFF7FEFF 		bl	zf_soft_iic_send_data
 564:libraries/zf_driver/zf_driver_soft_iic.c ****             while(write_len --)
 3316              		.loc 1 564 18
 3317 00bc 15E0     		b	.L167
 3318              	.L168:
 565:libraries/zf_driver/zf_driver_soft_iic.c ****             {
 566:libraries/zf_driver/zf_driver_soft_iic.c ****                 zf_soft_iic_send_data   (soft_iic_index, (uint8)((*write_buffer & 0xFF00) >> 8));
 3319              		.loc 1 566 67
 3320 00be 029B     		ldr	r3, [sp, #8]
 3321 00c0 1B88     		ldrh	r3, [r3]
 3322              		.loc 1 566 91
 3323 00c2 1B0A     		lsrs	r3, r3, #8
 3324 00c4 9BB2     		uxth	r3, r3
 3325              		.loc 1 566 17
 3326 00c6 DAB2     		uxtb	r2, r3
 3327 00c8 9DF80F30 		ldrb	r3, [sp, #15]	@ zero_extendqisi2
 3328 00cc 1146     		mov	r1, r2
 3329 00ce 1846     		mov	r0, r3
 3330 00d0 FFF7FEFF 		bl	zf_soft_iic_send_data
 567:libraries/zf_driver/zf_driver_soft_iic.c ****                 zf_soft_iic_send_data   (soft_iic_index, (uint8)(*write_buffer ++ & 0x00FF));
 3331              		.loc 1 567 80
 3332 00d4 029B     		ldr	r3, [sp, #8]
 3333 00d6 9A1C     		adds	r2, r3, #2
 3334 00d8 0292     		str	r2, [sp, #8]
 3335              		.loc 1 567 66
 3336 00da 1B88     		ldrh	r3, [r3]
 3337              		.loc 1 567 17
 3338 00dc DAB2     		uxtb	r2, r3
 3339 00de 9DF80F30 		ldrb	r3, [sp, #15]	@ zero_extendqisi2
 3340 00e2 1146     		mov	r1, r2
 3341 00e4 1846     		mov	r0, r3
 3342 00e6 FFF7FEFF 		bl	zf_soft_iic_send_data
 3343              	.L167:
 564:libraries/zf_driver/zf_driver_soft_iic.c ****             while(write_len --)
 3344              		.loc 1 564 29
 3345 00ea 019B     		ldr	r3, [sp, #4]
 3346 00ec 5A1E     		subs	r2, r3, #1
 3347 00ee 0192     		str	r2, [sp, #4]
 564:libraries/zf_driver/zf_driver_soft_iic.c ****             while(write_len --)
 3348              		.loc 1 564 18
 3349 00f0 002B     		cmp	r3, #0
 3350 00f2 E4D1     		bne	.L168
 3351              	.L166:
 568:libraries/zf_driver/zf_driver_soft_iic.c ****             }
 569:libraries/zf_driver/zf_driver_soft_iic.c ****         }
 570:libraries/zf_driver/zf_driver_soft_iic.c **** 
 571:libraries/zf_driver/zf_driver_soft_iic.c ****         if(NULL != read_buffer && 0 != read_len)
 3352              		.loc 1 571 11
 3353 00f4 089B     		ldr	r3, [sp, #32]
 3354 00f6 002B     		cmp	r3, #0
 3355 00f8 40D0     		beq	.L169
 3356              		.loc 1 571 32 discriminator 1
 3357 00fa 099B     		ldr	r3, [sp, #36]
 3358 00fc 002B     		cmp	r3, #0
 3359 00fe 3DD0     		beq	.L169
 572:libraries/zf_driver/zf_driver_soft_iic.c ****         {
 573:libraries/zf_driver/zf_driver_soft_iic.c ****             zf_soft_iic_start       (soft_iic_index);
 3360              		.loc 1 573 13
 3361 0100 9DF80F30 		ldrb	r3, [sp, #15]	@ zero_extendqisi2
 3362 0104 1846     		mov	r0, r3
 3363 0106 FFF7FEFF 		bl	zf_soft_iic_start
 574:libraries/zf_driver/zf_driver_soft_iic.c ****             zf_soft_iic_send_data   (soft_iic_index, addr << 1 | 0x01);
 3364              		.loc 1 574 59
 3365 010a 9DF80E30 		ldrb	r3, [sp, #14]	@ zero_extendqisi2
 3366 010e 5B00     		lsls	r3, r3, #1
 3367              		.loc 1 574 64
 3368 0110 5BB2     		sxtb	r3, r3
 3369 0112 43F00103 		orr	r3, r3, #1
 3370 0116 5BB2     		sxtb	r3, r3
 3371              		.loc 1 574 13
 3372 0118 DAB2     		uxtb	r2, r3
 3373 011a 9DF80F30 		ldrb	r3, [sp, #15]	@ zero_extendqisi2
 3374 011e 1146     		mov	r1, r2
 3375 0120 1846     		mov	r0, r3
 3376 0122 FFF7FEFF 		bl	zf_soft_iic_send_data
 575:libraries/zf_driver/zf_driver_soft_iic.c ****             while(read_len --)
 3377              		.loc 1 575 18
 3378 0126 24E0     		b	.L170
 3379              	.L171:
 576:libraries/zf_driver/zf_driver_soft_iic.c ****             {
 577:libraries/zf_driver/zf_driver_soft_iic.c ****                 *read_buffer = zf_soft_iic_read_data(soft_iic_index, 0);
 3380              		.loc 1 577 32
 3381 0128 9DF80F30 		ldrb	r3, [sp, #15]	@ zero_extendqisi2
 3382 012c 0021     		movs	r1, #0
 3383 012e 1846     		mov	r0, r3
 3384 0130 FFF7FEFF 		bl	zf_soft_iic_read_data
 3385 0134 0346     		mov	r3, r0
 3386 0136 9AB2     		uxth	r2, r3
 3387              		.loc 1 577 30
 3388 0138 089B     		ldr	r3, [sp, #32]
 3389 013a 1A80     		strh	r2, [r3]	@ movhi
 578:libraries/zf_driver/zf_driver_soft_iic.c ****                 *read_buffer = ((*read_buffer << 8)| zf_soft_iic_read_data(soft_iic_index, 0 == rea
 3390              		.loc 1 578 34
 3391 013c 089B     		ldr	r3, [sp, #32]
 3392 013e 1B88     		ldrh	r3, [r3]
 3393              		.loc 1 578 47
 3394 0140 1B02     		lsls	r3, r3, #8
 3395              		.loc 1 578 52
 3396 0142 1CB2     		sxth	r4, r3
 3397              		.loc 1 578 54
 3398 0144 099B     		ldr	r3, [sp, #36]
 3399 0146 002B     		cmp	r3, #0
 3400 0148 0CBF     		ite	eq
 3401 014a 0123     		moveq	r3, #1
 3402 014c 0023     		movne	r3, #0
 3403 014e DBB2     		uxtb	r3, r3
 3404 0150 1A46     		mov	r2, r3
 3405 0152 9DF80F30 		ldrb	r3, [sp, #15]	@ zero_extendqisi2
 3406 0156 1146     		mov	r1, r2
 3407 0158 1846     		mov	r0, r3
 3408 015a FFF7FEFF 		bl	zf_soft_iic_read_data
 3409 015e 0346     		mov	r3, r0
 3410 0160 1BB2     		sxth	r3, r3
 3411              		.loc 1 578 52
 3412 0162 2343     		orrs	r3, r3, r4
 3413 0164 1BB2     		sxth	r3, r3
 3414 0166 9AB2     		uxth	r2, r3
 3415              		.loc 1 578 30
 3416 0168 089B     		ldr	r3, [sp, #32]
 3417 016a 1A80     		strh	r2, [r3]	@ movhi
 579:libraries/zf_driver/zf_driver_soft_iic.c ****                 read_buffer ++;
 3418              		.loc 1 579 29
 3419 016c 089B     		ldr	r3, [sp, #32]
 3420 016e 0233     		adds	r3, r3, #2
 3421 0170 0893     		str	r3, [sp, #32]
 3422              	.L170:
 575:libraries/zf_driver/zf_driver_soft_iic.c ****             {
 3423              		.loc 1 575 28
 3424 0172 099B     		ldr	r3, [sp, #36]
 3425 0174 5A1E     		subs	r2, r3, #1
 3426 0176 0992     		str	r2, [sp, #36]
 575:libraries/zf_driver/zf_driver_soft_iic.c ****             {
 3427              		.loc 1 575 18
 3428 0178 002B     		cmp	r3, #0
 3429 017a D5D1     		bne	.L171
 3430              	.L169:
 580:libraries/zf_driver/zf_driver_soft_iic.c ****             }
 581:libraries/zf_driver/zf_driver_soft_iic.c ****         }
 582:libraries/zf_driver/zf_driver_soft_iic.c ****         zf_soft_iic_stop(soft_iic_index);
 3431              		.loc 1 582 9
 3432 017c 9DF80F30 		ldrb	r3, [sp, #15]	@ zero_extendqisi2
 3433 0180 1846     		mov	r0, r3
 3434 0182 FFF7FEFF 		bl	zf_soft_iic_stop
 583:libraries/zf_driver/zf_driver_soft_iic.c **** 
 584:libraries/zf_driver/zf_driver_soft_iic.c ****         return_state = SOFT_IIC_OPERATION_DONE;
 3435              		.loc 1 584 22
 3436 0186 0023     		movs	r3, #0
 3437 0188 8DF81730 		strb	r3, [sp, #23]
 3438              	.L163:
 585:libraries/zf_driver/zf_driver_soft_iic.c ****     }while(0);
 586:libraries/zf_driver/zf_driver_soft_iic.c **** 
 587:libraries/zf_driver/zf_driver_soft_iic.c ****     return return_state;
 3439              		.loc 1 587 12
 3440 018c 9DF81730 		ldrb	r3, [sp, #23]	@ zero_extendqisi2
 588:libraries/zf_driver/zf_driver_soft_iic.c **** }
 3441              		.loc 1 588 1
 3442 0190 1846     		mov	r0, r3
 3443 0192 06B0     		add	sp, sp, #24
 3444              		.cfi_def_cfa_offset 8
 3445              		@ sp needed
 3446 0194 10BD     		pop	{r4, pc}
 3447              	.L174:
 3448 0196 00BF     		.align	2
 3449              	.L173:
 3450 0198 00000000 		.word	soft_iic_obj_list
 3451 019c 00000000 		.word	.LC0
 3452              		.cfi_endproc
 3453              	.LFE182:
 3455              		.section	.text.zf_soft_iic_sccb_write_register,"ax",%progbits
 3456              		.align	1
 3457              		.p2align 4,,15
 3458              		.global	zf_soft_iic_sccb_write_register
 3459              		.syntax unified
 3460              		.thumb
 3461              		.thumb_func
 3463              	zf_soft_iic_sccb_write_register:
 3464              	.LFB183:
 589:libraries/zf_driver/zf_driver_soft_iic.c **** 
 590:libraries/zf_driver/zf_driver_soft_iic.c **** //-------------------------------------------------------------------------------------------------
 591:libraries/zf_driver/zf_driver_soft_iic.c **** // å‡½æ•°ç®€ä»‹     SOFT_IIC æ¥å£ SCCB æ¨¡å¼å‘ä¼ æ„Ÿå™¨å¯„å­˜å™¨å†™ 8bit æ•°æ®
 592:libraries/zf_driver/zf_driver_soft_iic.c **** // å‚æ•°è¯´æ˜     soft_iic_index      SOFT_IIC ç´¢å¼•   (è¯¦è§ zf_driver_soft_iic.h å†… zf_soft_
 593:libraries/zf_driver/zf_driver_soft_iic.c **** // å‚æ•°è¯´æ˜     addr                å™¨ä»¶åœ°å€
 594:libraries/zf_driver/zf_driver_soft_iic.c **** // å‚æ•°è¯´æ˜     register_name       ä¼ æ„Ÿå™¨çš„å¯„å­˜å™¨åœ°å€
 595:libraries/zf_driver/zf_driver_soft_iic.c **** // å‚æ•°è¯´æ˜     data                è¦å†™å…¥çš„æ•°æ®
 596:libraries/zf_driver/zf_driver_soft_iic.c **** // è¿”å›å‚æ•°     uint8               æ“ä½œçŠ¶æ€ ZF_NO_ERROR / SOFT_IIC_OPERATION_DONE - å®Œæˆ
 597:libraries/zf_driver/zf_driver_soft_iic.c **** // ä½¿ç”¨ç¤ºä¾‹     zf_soft_iic_sccb_write_register(soft_iic_index, addr, register_name, data);
 598:libraries/zf_driver/zf_driver_soft_iic.c **** // å¤‡æ³¨ä¿¡æ¯     
 599:libraries/zf_driver/zf_driver_soft_iic.c **** //-------------------------------------------------------------------------------------------------
 600:libraries/zf_driver/zf_driver_soft_iic.c **** uint8 zf_soft_iic_sccb_write_register (zf_soft_iic_index_enum soft_iic_index, uint8 addr, const uin
 601:libraries/zf_driver/zf_driver_soft_iic.c **** {
 3465              		.loc 1 601 1
 3466              		.cfi_startproc
 3467              		@ args = 0, pretend = 0, frame = 16
 3468              		@ frame_needed = 0, uses_anonymous_args = 0
 3469 0000 10B5     		push	{r4, lr}
 3470              		.cfi_def_cfa_offset 8
 3471              		.cfi_offset 4, -8
 3472              		.cfi_offset 14, -4
 3473 0002 84B0     		sub	sp, sp, #16
 3474              		.cfi_def_cfa_offset 24
 3475 0004 0446     		mov	r4, r0
 3476 0006 0846     		mov	r0, r1
 3477 0008 1146     		mov	r1, r2
 3478 000a 1A46     		mov	r2, r3
 3479 000c 2346     		mov	r3, r4
 3480 000e 8DF80730 		strb	r3, [sp, #7]
 3481 0012 0346     		mov	r3, r0
 3482 0014 8DF80630 		strb	r3, [sp, #6]
 3483 0018 0B46     		mov	r3, r1
 3484 001a 8DF80530 		strb	r3, [sp, #5]
 3485 001e 1346     		mov	r3, r2
 3486 0020 8DF80430 		strb	r3, [sp, #4]
 602:libraries/zf_driver/zf_driver_soft_iic.c ****     zf_soft_iic_operation_state_enum return_state = SOFT_IIC_ERROR_UNKNOW;
 3487              		.loc 1 602 38
 3488 0024 0123     		movs	r3, #1
 3489 0026 8DF80F30 		strb	r3, [sp, #15]
 603:libraries/zf_driver/zf_driver_soft_iic.c **** 
 604:libraries/zf_driver/zf_driver_soft_iic.c ****     do
 605:libraries/zf_driver/zf_driver_soft_iic.c ****     {
 606:libraries/zf_driver/zf_driver_soft_iic.c ****         if(zf_soft_iic_assert(soft_iic_obj_list[soft_iic_index].delay))
 3490              		.loc 1 606 12
 3491 002a 9DF80720 		ldrb	r2, [sp, #7]	@ zero_extendqisi2
 3492 002e 2949     		ldr	r1, .L180
 3493 0030 1346     		mov	r3, r2
 3494 0032 5B00     		lsls	r3, r3, #1
 3495 0034 1344     		add	r3, r3, r2
 3496 0036 9B00     		lsls	r3, r3, #2
 3497 0038 0B44     		add	r3, r3, r1
 3498 003a 0433     		adds	r3, r3, #4
 3499 003c 1B68     		ldr	r3, [r3]
 3500              		.loc 1 606 11
 3501 003e 002B     		cmp	r3, #0
 3502 0040 0CD1     		bne	.L176
 3503              		.loc 1 606 12 discriminator 1
 3504 0042 0022     		movs	r2, #0
 3505 0044 40F25E21 		movw	r1, #606
 3506 0048 2348     		ldr	r0, .L180+4
 3507 004a FFF7FEFF 		bl	zf_soft_iic_assert_handler
 3508 004e 0346     		mov	r3, r0
 3509 0050 002B     		cmp	r3, #0
 3510 0052 03D0     		beq	.L176
 607:libraries/zf_driver/zf_driver_soft_iic.c ****         {
 608:libraries/zf_driver/zf_driver_soft_iic.c ****             // æ­¤å¤„å¦‚æœæ–­è¨€æŠ¥é”™ é‚£ä¹ˆè¯æ˜æœ¬æ¨¡å—æ²¡æœ‰åˆå§‹åŒ–è¿‡ æ˜¯ä¸å…è®¸ç›´æ¥æ
 609:libraries/zf_driver/zf_driver_soft_iic.c ****             return_state = SOFT_IIC_ERROR_MODULE_NOT_INIT;                      // SOFT_IIC æ¨¡å—æ
 3511              		.loc 1 609 26
 3512 0054 2123     		movs	r3, #33
 3513 0056 8DF80F30 		strb	r3, [sp, #15]
 610:libraries/zf_driver/zf_driver_soft_iic.c ****             break;
 3514              		.loc 1 610 13
 3515 005a 36E0     		b	.L177
 3516              	.L176:
 611:libraries/zf_driver/zf_driver_soft_iic.c ****         }
 612:libraries/zf_driver/zf_driver_soft_iic.c ****         if(!soft_iic_obj_list[soft_iic_index].enable)
 3517              		.loc 1 612 46
 3518 005c 9DF80720 		ldrb	r2, [sp, #7]	@ zero_extendqisi2
 3519 0060 1C49     		ldr	r1, .L180
 3520 0062 1346     		mov	r3, r2
 3521 0064 5B00     		lsls	r3, r3, #1
 3522 0066 1344     		add	r3, r3, r2
 3523 0068 9B00     		lsls	r3, r3, #2
 3524 006a 0B44     		add	r3, r3, r1
 3525 006c 0833     		adds	r3, r3, #8
 3526 006e 1B68     		ldr	r3, [r3]
 3527              		.loc 1 612 11
 3528 0070 002B     		cmp	r3, #0
 3529 0072 03D1     		bne	.L178
 613:libraries/zf_driver/zf_driver_soft_iic.c ****         {
 614:libraries/zf_driver/zf_driver_soft_iic.c ****             return_state = SOFT_IIC_WARNING_MODULE_DISABLE;                     // SOFT_IIC æ¨¡å—å
 3530              		.loc 1 614 26
 3531 0074 1023     		movs	r3, #16
 3532 0076 8DF80F30 		strb	r3, [sp, #15]
 615:libraries/zf_driver/zf_driver_soft_iic.c ****             break;
 3533              		.loc 1 615 13
 3534 007a 26E0     		b	.L177
 3535              	.L178:
 616:libraries/zf_driver/zf_driver_soft_iic.c ****         }
 617:libraries/zf_driver/zf_driver_soft_iic.c **** 
 618:libraries/zf_driver/zf_driver_soft_iic.c ****         zf_soft_iic_start       (soft_iic_index);
 3536              		.loc 1 618 9
 3537 007c 9DF80730 		ldrb	r3, [sp, #7]	@ zero_extendqisi2
 3538 0080 1846     		mov	r0, r3
 3539 0082 FFF7FEFF 		bl	zf_soft_iic_start
 619:libraries/zf_driver/zf_driver_soft_iic.c ****         zf_soft_iic_send_data   (soft_iic_index, addr << 1);
 3540              		.loc 1 619 9
 3541 0086 9DF80630 		ldrb	r3, [sp, #6]
 3542 008a 5B00     		lsls	r3, r3, #1
 3543 008c DAB2     		uxtb	r2, r3
 3544 008e 9DF80730 		ldrb	r3, [sp, #7]	@ zero_extendqisi2
 3545 0092 1146     		mov	r1, r2
 3546 0094 1846     		mov	r0, r3
 3547 0096 FFF7FEFF 		bl	zf_soft_iic_send_data
 620:libraries/zf_driver/zf_driver_soft_iic.c ****         zf_soft_iic_send_data   (soft_iic_index, register_name);
 3548              		.loc 1 620 9
 3549 009a 9DF80520 		ldrb	r2, [sp, #5]	@ zero_extendqisi2
 3550 009e 9DF80730 		ldrb	r3, [sp, #7]	@ zero_extendqisi2
 3551 00a2 1146     		mov	r1, r2
 3552 00a4 1846     		mov	r0, r3
 3553 00a6 FFF7FEFF 		bl	zf_soft_iic_send_data
 621:libraries/zf_driver/zf_driver_soft_iic.c ****         zf_soft_iic_send_data   (soft_iic_index, data);
 3554              		.loc 1 621 9
 3555 00aa 9DF80420 		ldrb	r2, [sp, #4]	@ zero_extendqisi2
 3556 00ae 9DF80730 		ldrb	r3, [sp, #7]	@ zero_extendqisi2
 3557 00b2 1146     		mov	r1, r2
 3558 00b4 1846     		mov	r0, r3
 3559 00b6 FFF7FEFF 		bl	zf_soft_iic_send_data
 622:libraries/zf_driver/zf_driver_soft_iic.c ****         zf_soft_iic_stop        (soft_iic_index);
 3560              		.loc 1 622 9
 3561 00ba 9DF80730 		ldrb	r3, [sp, #7]	@ zero_extendqisi2
 3562 00be 1846     		mov	r0, r3
 3563 00c0 FFF7FEFF 		bl	zf_soft_iic_stop
 623:libraries/zf_driver/zf_driver_soft_iic.c **** 
 624:libraries/zf_driver/zf_driver_soft_iic.c ****         return_state = SOFT_IIC_OPERATION_DONE;
 3564              		.loc 1 624 22
 3565 00c4 0023     		movs	r3, #0
 3566 00c6 8DF80F30 		strb	r3, [sp, #15]
 3567              	.L177:
 625:libraries/zf_driver/zf_driver_soft_iic.c ****     }while(0);
 626:libraries/zf_driver/zf_driver_soft_iic.c **** 
 627:libraries/zf_driver/zf_driver_soft_iic.c ****     return return_state;
 3568              		.loc 1 627 12
 3569 00ca 9DF80F30 		ldrb	r3, [sp, #15]	@ zero_extendqisi2
 628:libraries/zf_driver/zf_driver_soft_iic.c **** }
 3570              		.loc 1 628 1
 3571 00ce 1846     		mov	r0, r3
 3572 00d0 04B0     		add	sp, sp, #16
 3573              		.cfi_def_cfa_offset 8
 3574              		@ sp needed
 3575 00d2 10BD     		pop	{r4, pc}
 3576              	.L181:
 3577              		.align	2
 3578              	.L180:
 3579 00d4 00000000 		.word	soft_iic_obj_list
 3580 00d8 00000000 		.word	.LC0
 3581              		.cfi_endproc
 3582              	.LFE183:
 3584              		.section	.text.zf_soft_iic_sccb_read_register,"ax",%progbits
 3585              		.align	1
 3586              		.p2align 4,,15
 3587              		.global	zf_soft_iic_sccb_read_register
 3588              		.syntax unified
 3589              		.thumb
 3590              		.thumb_func
 3592              	zf_soft_iic_sccb_read_register:
 3593              	.LFB184:
 629:libraries/zf_driver/zf_driver_soft_iic.c **** 
 630:libraries/zf_driver/zf_driver_soft_iic.c **** //-------------------------------------------------------------------------------------------------
 631:libraries/zf_driver/zf_driver_soft_iic.c **** // å‡½æ•°ç®€ä»‹     SOFT_IIC æ¥å£ SCCB æ¨¡å¼ä»ä¼ æ„Ÿå™¨å¯„å­˜å™¨è¯»å– 8bit æ•°æ®
 632:libraries/zf_driver/zf_driver_soft_iic.c **** // å‚æ•°è¯´æ˜     soft_iic_index      SOFT_IIC ç´¢å¼•   (è¯¦è§ zf_driver_soft_iic.h å†… zf_soft_
 633:libraries/zf_driver/zf_driver_soft_iic.c **** // å‚æ•°è¯´æ˜     addr                å™¨ä»¶åœ°å€
 634:libraries/zf_driver/zf_driver_soft_iic.c **** // å‚æ•°è¯´æ˜     register_name       ä¼ æ„Ÿå™¨çš„å¯„å­˜å™¨åœ°å€
 635:libraries/zf_driver/zf_driver_soft_iic.c **** // å‚æ•°è¯´æ˜     *data               æ•°æ®å­˜æ”¾ç¼“å†²åŒº
 636:libraries/zf_driver/zf_driver_soft_iic.c **** // è¿”å›å‚æ•°     uint8               æ“ä½œçŠ¶æ€ ZF_NO_ERROR / SOFT_IIC_OPERATION_DONE - å®Œæˆ
 637:libraries/zf_driver/zf_driver_soft_iic.c **** // ä½¿ç”¨ç¤ºä¾‹     zf_soft_iic_sccb_read_register(soft_iic_index, addr, register_name, data);
 638:libraries/zf_driver/zf_driver_soft_iic.c **** // å¤‡æ³¨ä¿¡æ¯     
 639:libraries/zf_driver/zf_driver_soft_iic.c **** //-------------------------------------------------------------------------------------------------
 640:libraries/zf_driver/zf_driver_soft_iic.c **** uint8 zf_soft_iic_sccb_read_register (zf_soft_iic_index_enum soft_iic_index, uint8 addr, const uint
 641:libraries/zf_driver/zf_driver_soft_iic.c **** {
 3594              		.loc 1 641 1
 3595              		.cfi_startproc
 3596              		@ args = 0, pretend = 0, frame = 16
 3597              		@ frame_needed = 0, uses_anonymous_args = 0
 3598 0000 00B5     		push	{lr}
 3599              		.cfi_def_cfa_offset 4
 3600              		.cfi_offset 14, -4
 3601 0002 85B0     		sub	sp, sp, #20
 3602              		.cfi_def_cfa_offset 24
 3603 0004 0093     		str	r3, [sp]
 3604 0006 0346     		mov	r3, r0
 3605 0008 8DF80730 		strb	r3, [sp, #7]
 3606 000c 0B46     		mov	r3, r1
 3607 000e 8DF80630 		strb	r3, [sp, #6]
 3608 0012 1346     		mov	r3, r2
 3609 0014 8DF80530 		strb	r3, [sp, #5]
 642:libraries/zf_driver/zf_driver_soft_iic.c ****     zf_soft_iic_operation_state_enum return_state = SOFT_IIC_ERROR_UNKNOW;
 3610              		.loc 1 642 38
 3611 0018 0123     		movs	r3, #1
 3612 001a 8DF80F30 		strb	r3, [sp, #15]
 643:libraries/zf_driver/zf_driver_soft_iic.c **** 
 644:libraries/zf_driver/zf_driver_soft_iic.c ****     do
 645:libraries/zf_driver/zf_driver_soft_iic.c ****     {
 646:libraries/zf_driver/zf_driver_soft_iic.c ****         if(zf_soft_iic_assert(soft_iic_obj_list[soft_iic_index].delay))
 3613              		.loc 1 646 12
 3614 001e 9DF80720 		ldrb	r2, [sp, #7]	@ zero_extendqisi2
 3615 0022 3F49     		ldr	r1, .L188
 3616 0024 1346     		mov	r3, r2
 3617 0026 5B00     		lsls	r3, r3, #1
 3618 0028 1344     		add	r3, r3, r2
 3619 002a 9B00     		lsls	r3, r3, #2
 3620 002c 0B44     		add	r3, r3, r1
 3621 002e 0433     		adds	r3, r3, #4
 3622 0030 1B68     		ldr	r3, [r3]
 3623              		.loc 1 646 11
 3624 0032 002B     		cmp	r3, #0
 3625 0034 0CD1     		bne	.L183
 3626              		.loc 1 646 12 discriminator 1
 3627 0036 0022     		movs	r2, #0
 3628 0038 40F28621 		movw	r1, #646
 3629 003c 3948     		ldr	r0, .L188+4
 3630 003e FFF7FEFF 		bl	zf_soft_iic_assert_handler
 3631 0042 0346     		mov	r3, r0
 3632 0044 002B     		cmp	r3, #0
 3633 0046 03D0     		beq	.L183
 647:libraries/zf_driver/zf_driver_soft_iic.c ****         {
 648:libraries/zf_driver/zf_driver_soft_iic.c ****             // æ­¤å¤„å¦‚æœæ–­è¨€æŠ¥é”™ é‚£ä¹ˆè¯æ˜æœ¬æ¨¡å—æ²¡æœ‰åˆå§‹åŒ–è¿‡ æ˜¯ä¸å…è®¸ç›´æ¥æ
 649:libraries/zf_driver/zf_driver_soft_iic.c ****             return_state = SOFT_IIC_ERROR_MODULE_NOT_INIT;                      // SOFT_IIC æ¨¡å—æ
 3634              		.loc 1 649 26
 3635 0048 2123     		movs	r3, #33
 3636 004a 8DF80F30 		strb	r3, [sp, #15]
 650:libraries/zf_driver/zf_driver_soft_iic.c ****             break;
 3637              		.loc 1 650 13
 3638 004e 60E0     		b	.L184
 3639              	.L183:
 651:libraries/zf_driver/zf_driver_soft_iic.c ****         }
 652:libraries/zf_driver/zf_driver_soft_iic.c ****         if(zf_soft_iic_assert(NULL != data))
 3640              		.loc 1 652 11
 3641 0050 009B     		ldr	r3, [sp]
 3642 0052 002B     		cmp	r3, #0
 3643 0054 0CD1     		bne	.L185
 3644              		.loc 1 652 12 discriminator 1
 3645 0056 0022     		movs	r2, #0
 3646 0058 4FF42371 		mov	r1, #652
 3647 005c 3148     		ldr	r0, .L188+4
 3648 005e FFF7FEFF 		bl	zf_soft_iic_assert_handler
 3649 0062 0346     		mov	r3, r0
 3650 0064 002B     		cmp	r3, #0
 3651 0066 03D0     		beq	.L185
 653:libraries/zf_driver/zf_driver_soft_iic.c ****         {
 654:libraries/zf_driver/zf_driver_soft_iic.c ****             // æ­¤å¤„å¦‚æœæ–­è¨€æŠ¥é”™ é‚£ä¹ˆè¯æ˜ä¼ å…¥æ•°æ®æŒ‡é’ˆä¸º NULL ç©ºæŒ‡é’ˆ
 655:libraries/zf_driver/zf_driver_soft_iic.c ****             // ä¸å¯ä»¥å¯¹ç©ºæŒ‡é’ˆè¿›è¡Œæ“ä½œ
 656:libraries/zf_driver/zf_driver_soft_iic.c ****             return_state = SOFT_IIC_ERROR_DATA_BUFFER_NULL;                     // IIC æ•°æ®æŒ‡é’ˆ
 3652              		.loc 1 656 26
 3653 0068 2423     		movs	r3, #36
 3654 006a 8DF80F30 		strb	r3, [sp, #15]
 657:libraries/zf_driver/zf_driver_soft_iic.c ****             break;
 3655              		.loc 1 657 13
 3656 006e 50E0     		b	.L184
 3657              	.L185:
 658:libraries/zf_driver/zf_driver_soft_iic.c ****         }
 659:libraries/zf_driver/zf_driver_soft_iic.c ****         if(!soft_iic_obj_list[soft_iic_index].enable)
 3658              		.loc 1 659 46
 3659 0070 9DF80720 		ldrb	r2, [sp, #7]	@ zero_extendqisi2
 3660 0074 2A49     		ldr	r1, .L188
 3661 0076 1346     		mov	r3, r2
 3662 0078 5B00     		lsls	r3, r3, #1
 3663 007a 1344     		add	r3, r3, r2
 3664 007c 9B00     		lsls	r3, r3, #2
 3665 007e 0B44     		add	r3, r3, r1
 3666 0080 0833     		adds	r3, r3, #8
 3667 0082 1B68     		ldr	r3, [r3]
 3668              		.loc 1 659 11
 3669 0084 002B     		cmp	r3, #0
 3670 0086 03D1     		bne	.L186
 660:libraries/zf_driver/zf_driver_soft_iic.c ****         {
 661:libraries/zf_driver/zf_driver_soft_iic.c ****             return_state = SOFT_IIC_WARNING_MODULE_DISABLE;                     // SOFT_IIC æ¨¡å—å
 3671              		.loc 1 661 26
 3672 0088 1023     		movs	r3, #16
 3673 008a 8DF80F30 		strb	r3, [sp, #15]
 662:libraries/zf_driver/zf_driver_soft_iic.c ****             break;
 3674              		.loc 1 662 13
 3675 008e 40E0     		b	.L184
 3676              	.L186:
 663:libraries/zf_driver/zf_driver_soft_iic.c ****         }
 664:libraries/zf_driver/zf_driver_soft_iic.c **** 
 665:libraries/zf_driver/zf_driver_soft_iic.c ****         zf_soft_iic_start       (soft_iic_index);
 3677              		.loc 1 665 9
 3678 0090 9DF80730 		ldrb	r3, [sp, #7]	@ zero_extendqisi2
 3679 0094 1846     		mov	r0, r3
 3680 0096 FFF7FEFF 		bl	zf_soft_iic_start
 666:libraries/zf_driver/zf_driver_soft_iic.c ****         zf_soft_iic_send_data   (soft_iic_index, addr << 1);
 3681              		.loc 1 666 9
 3682 009a 9DF80630 		ldrb	r3, [sp, #6]
 3683 009e 5B00     		lsls	r3, r3, #1
 3684 00a0 DAB2     		uxtb	r2, r3
 3685 00a2 9DF80730 		ldrb	r3, [sp, #7]	@ zero_extendqisi2
 3686 00a6 1146     		mov	r1, r2
 3687 00a8 1846     		mov	r0, r3
 3688 00aa FFF7FEFF 		bl	zf_soft_iic_send_data
 667:libraries/zf_driver/zf_driver_soft_iic.c ****         zf_soft_iic_send_data   (soft_iic_index, register_name);
 3689              		.loc 1 667 9
 3690 00ae 9DF80520 		ldrb	r2, [sp, #5]	@ zero_extendqisi2
 3691 00b2 9DF80730 		ldrb	r3, [sp, #7]	@ zero_extendqisi2
 3692 00b6 1146     		mov	r1, r2
 3693 00b8 1846     		mov	r0, r3
 3694 00ba FFF7FEFF 		bl	zf_soft_iic_send_data
 668:libraries/zf_driver/zf_driver_soft_iic.c ****         zf_soft_iic_stop        (soft_iic_index);
 3695              		.loc 1 668 9
 3696 00be 9DF80730 		ldrb	r3, [sp, #7]	@ zero_extendqisi2
 3697 00c2 1846     		mov	r0, r3
 3698 00c4 FFF7FEFF 		bl	zf_soft_iic_stop
 669:libraries/zf_driver/zf_driver_soft_iic.c **** 
 670:libraries/zf_driver/zf_driver_soft_iic.c ****         zf_soft_iic_start       (soft_iic_index);
 3699              		.loc 1 670 9
 3700 00c8 9DF80730 		ldrb	r3, [sp, #7]	@ zero_extendqisi2
 3701 00cc 1846     		mov	r0, r3
 3702 00ce FFF7FEFF 		bl	zf_soft_iic_start
 671:libraries/zf_driver/zf_driver_soft_iic.c ****         zf_soft_iic_send_data   (soft_iic_index, addr << 1 | 0x01);
 3703              		.loc 1 671 55
 3704 00d2 9DF80630 		ldrb	r3, [sp, #6]	@ zero_extendqisi2
 3705 00d6 5B00     		lsls	r3, r3, #1
 3706              		.loc 1 671 60
 3707 00d8 5BB2     		sxtb	r3, r3
 3708 00da 43F00103 		orr	r3, r3, #1
 3709 00de 5BB2     		sxtb	r3, r3
 3710              		.loc 1 671 9
 3711 00e0 DAB2     		uxtb	r2, r3
 3712 00e2 9DF80730 		ldrb	r3, [sp, #7]	@ zero_extendqisi2
 3713 00e6 1146     		mov	r1, r2
 3714 00e8 1846     		mov	r0, r3
 3715 00ea FFF7FEFF 		bl	zf_soft_iic_send_data
 672:libraries/zf_driver/zf_driver_soft_iic.c **** 
 673:libraries/zf_driver/zf_driver_soft_iic.c ****         *data = zf_soft_iic_read_data(soft_iic_index, 1);
 3716              		.loc 1 673 17
 3717 00ee 9DF80730 		ldrb	r3, [sp, #7]	@ zero_extendqisi2
 3718 00f2 0121     		movs	r1, #1
 3719 00f4 1846     		mov	r0, r3
 3720 00f6 FFF7FEFF 		bl	zf_soft_iic_read_data
 3721 00fa 0346     		mov	r3, r0
 3722 00fc 1A46     		mov	r2, r3
 3723              		.loc 1 673 15
 3724 00fe 009B     		ldr	r3, [sp]
 3725 0100 1A70     		strb	r2, [r3]
 674:libraries/zf_driver/zf_driver_soft_iic.c **** 
 675:libraries/zf_driver/zf_driver_soft_iic.c ****         zf_soft_iic_stop        (soft_iic_index);
 3726              		.loc 1 675 9
 3727 0102 9DF80730 		ldrb	r3, [sp, #7]	@ zero_extendqisi2
 3728 0106 1846     		mov	r0, r3
 3729 0108 FFF7FEFF 		bl	zf_soft_iic_stop
 676:libraries/zf_driver/zf_driver_soft_iic.c **** 
 677:libraries/zf_driver/zf_driver_soft_iic.c ****         return_state = SOFT_IIC_OPERATION_DONE;
 3730              		.loc 1 677 22
 3731 010c 0023     		movs	r3, #0
 3732 010e 8DF80F30 		strb	r3, [sp, #15]
 3733              	.L184:
 678:libraries/zf_driver/zf_driver_soft_iic.c ****     }while(0);
 679:libraries/zf_driver/zf_driver_soft_iic.c **** 
 680:libraries/zf_driver/zf_driver_soft_iic.c ****     return return_state;
 3734              		.loc 1 680 12
 3735 0112 9DF80F30 		ldrb	r3, [sp, #15]	@ zero_extendqisi2
 681:libraries/zf_driver/zf_driver_soft_iic.c **** }
 3736              		.loc 1 681 1
 3737 0116 1846     		mov	r0, r3
 3738 0118 05B0     		add	sp, sp, #20
 3739              		.cfi_def_cfa_offset 4
 3740              		@ sp needed
 3741 011a 5DF804FB 		ldr	pc, [sp], #4
 3742              	.L189:
 3743 011e 00BF     		.align	2
 3744              	.L188:
 3745 0120 00000000 		.word	soft_iic_obj_list
 3746 0124 00000000 		.word	.LC0
 3747              		.cfi_endproc
 3748              	.LFE184:
 3750              		.section	.text.zf_soft_iic_set_speed,"ax",%progbits
 3751              		.align	1
 3752              		.p2align 4,,15
 3753              		.global	zf_soft_iic_set_speed
 3754              		.syntax unified
 3755              		.thumb
 3756              		.thumb_func
 3758              	zf_soft_iic_set_speed:
 3759              	.LFB185:
 682:libraries/zf_driver/zf_driver_soft_iic.c **** 
 683:libraries/zf_driver/zf_driver_soft_iic.c **** //-------------------------------------------------------------------------------------------------
 684:libraries/zf_driver/zf_driver_soft_iic.c **** // å‡½æ•°ç®€ä»‹     SOFT_IIC æ¥å£é…ç½®é€Ÿåº¦
 685:libraries/zf_driver/zf_driver_soft_iic.c **** // å‚æ•°è¯´æ˜     soft_iic_index      SOFT_IIC ç´¢å¼•   (è¯¦è§ zf_driver_soft_iic.h å†… zf_soft_
 686:libraries/zf_driver/zf_driver_soft_iic.c **** // å‚æ•°è¯´æ˜     delay               è½¯ä»¶ SPI å»¶æ—¶ å°±æ˜¯æ—¶é’Ÿé«˜ç”µå¹³æ—¶é—´ è¶ŠçŸ­ SPI é€
 687:libraries/zf_driver/zf_driver_soft_iic.c **** // è¿”å›å‚æ•°     uint8               æ“ä½œçŠ¶æ€ ZF_NO_ERROR / SOFT_IIC_OPERATION_DONE - å®Œæˆ
 688:libraries/zf_driver/zf_driver_soft_iic.c **** // ä½¿ç”¨ç¤ºä¾‹     zf_soft_iic_set_speed(soft_iic_index, delay);
 689:libraries/zf_driver/zf_driver_soft_iic.c **** // å¤‡æ³¨ä¿¡æ¯     
 690:libraries/zf_driver/zf_driver_soft_iic.c **** //-------------------------------------------------------------------------------------------------
 691:libraries/zf_driver/zf_driver_soft_iic.c **** uint8 zf_soft_iic_set_speed (zf_soft_iic_index_enum soft_iic_index, uint32 delay)
 692:libraries/zf_driver/zf_driver_soft_iic.c **** {
 3760              		.loc 1 692 1
 3761              		.cfi_startproc
 3762              		@ args = 0, pretend = 0, frame = 16
 3763              		@ frame_needed = 0, uses_anonymous_args = 0
 3764 0000 00B5     		push	{lr}
 3765              		.cfi_def_cfa_offset 4
 3766              		.cfi_offset 14, -4
 3767 0002 85B0     		sub	sp, sp, #20
 3768              		.cfi_def_cfa_offset 24
 3769 0004 0346     		mov	r3, r0
 3770 0006 0091     		str	r1, [sp]
 3771 0008 8DF80730 		strb	r3, [sp, #7]
 693:libraries/zf_driver/zf_driver_soft_iic.c ****     zf_soft_iic_operation_state_enum return_state = SOFT_IIC_ERROR_UNKNOW;
 3772              		.loc 1 693 38
 3773 000c 0123     		movs	r3, #1
 3774 000e 8DF80F30 		strb	r3, [sp, #15]
 694:libraries/zf_driver/zf_driver_soft_iic.c **** 
 695:libraries/zf_driver/zf_driver_soft_iic.c ****     do
 696:libraries/zf_driver/zf_driver_soft_iic.c ****     {
 697:libraries/zf_driver/zf_driver_soft_iic.c ****         if(zf_soft_iic_assert(soft_iic_obj_list[soft_iic_index].delay))
 3775              		.loc 1 697 12
 3776 0012 9DF80720 		ldrb	r2, [sp, #7]	@ zero_extendqisi2
 3777 0016 1D49     		ldr	r1, .L195
 3778 0018 1346     		mov	r3, r2
 3779 001a 5B00     		lsls	r3, r3, #1
 3780 001c 1344     		add	r3, r3, r2
 3781 001e 9B00     		lsls	r3, r3, #2
 3782 0020 0B44     		add	r3, r3, r1
 3783 0022 0433     		adds	r3, r3, #4
 3784 0024 1B68     		ldr	r3, [r3]
 3785              		.loc 1 697 11
 3786 0026 002B     		cmp	r3, #0
 3787 0028 0CD1     		bne	.L191
 3788              		.loc 1 697 12 discriminator 1
 3789 002a 0022     		movs	r2, #0
 3790 002c 40F2B921 		movw	r1, #697
 3791 0030 1748     		ldr	r0, .L195+4
 3792 0032 FFF7FEFF 		bl	zf_soft_iic_assert_handler
 3793 0036 0346     		mov	r3, r0
 3794 0038 002B     		cmp	r3, #0
 3795 003a 03D0     		beq	.L191
 698:libraries/zf_driver/zf_driver_soft_iic.c ****         {
 699:libraries/zf_driver/zf_driver_soft_iic.c ****             // æ­¤å¤„å¦‚æœæ–­è¨€æŠ¥é”™ é‚£ä¹ˆè¯æ˜æœ¬æ¨¡å—æ²¡æœ‰åˆå§‹åŒ–è¿‡ æ˜¯ä¸å…è®¸ç›´æ¥æ
 700:libraries/zf_driver/zf_driver_soft_iic.c ****             return_state = SOFT_IIC_ERROR_MODULE_NOT_INIT;                      // SOFT_IIC æ¨¡å—æ
 3796              		.loc 1 700 26
 3797 003c 2123     		movs	r3, #33
 3798 003e 8DF80F30 		strb	r3, [sp, #15]
 701:libraries/zf_driver/zf_driver_soft_iic.c ****             break;
 3799              		.loc 1 701 13
 3800 0042 1DE0     		b	.L192
 3801              	.L191:
 702:libraries/zf_driver/zf_driver_soft_iic.c ****         }
 703:libraries/zf_driver/zf_driver_soft_iic.c ****         if(zf_soft_iic_assert(0 != delay))
 3802              		.loc 1 703 11
 3803 0044 009B     		ldr	r3, [sp]
 3804 0046 002B     		cmp	r3, #0
 3805 0048 0CD1     		bne	.L193
 3806              		.loc 1 703 12 discriminator 1
 3807 004a 0022     		movs	r2, #0
 3808 004c 40F2BF21 		movw	r1, #703
 3809 0050 0F48     		ldr	r0, .L195+4
 3810 0052 FFF7FEFF 		bl	zf_soft_iic_assert_handler
 3811 0056 0346     		mov	r3, r0
 3812 0058 002B     		cmp	r3, #0
 3813 005a 03D0     		beq	.L193
 704:libraries/zf_driver/zf_driver_soft_iic.c ****         {
 705:libraries/zf_driver/zf_driver_soft_iic.c ****             // æ­¤å¤„å¦‚æœæ–­è¨€æŠ¥é”™ é‚£ä¹ˆè¯æ˜è¾“å…¥çš„ SOFT_IIC çš„è„‰å®½æ—¶é—´å•ä½ä¸º 0
 706:libraries/zf_driver/zf_driver_soft_iic.c ****             return_state = SOFT_IIC_ERROR_SPEED_UNSUPPORTED;                    // SOFT_IIC ä¼ è¾“é
 3814              		.loc 1 706 26
 3815 005c 2223     		movs	r3, #34
 3816 005e 8DF80F30 		strb	r3, [sp, #15]
 707:libraries/zf_driver/zf_driver_soft_iic.c ****             break;
 3817              		.loc 1 707 13
 3818 0062 0DE0     		b	.L192
 3819              	.L193:
 708:libraries/zf_driver/zf_driver_soft_iic.c ****         }
 709:libraries/zf_driver/zf_driver_soft_iic.c **** 
 710:libraries/zf_driver/zf_driver_soft_iic.c ****         soft_iic_obj_list[soft_iic_index].delay = delay;
 3820              		.loc 1 710 42
 3821 0064 9DF80720 		ldrb	r2, [sp, #7]	@ zero_extendqisi2
 3822              		.loc 1 710 49
 3823 0068 0849     		ldr	r1, .L195
 3824 006a 1346     		mov	r3, r2
 3825 006c 5B00     		lsls	r3, r3, #1
 3826 006e 1344     		add	r3, r3, r2
 3827 0070 9B00     		lsls	r3, r3, #2
 3828 0072 0B44     		add	r3, r3, r1
 3829 0074 0433     		adds	r3, r3, #4
 3830 0076 009A     		ldr	r2, [sp]
 3831 0078 1A60     		str	r2, [r3]
 711:libraries/zf_driver/zf_driver_soft_iic.c **** 
 712:libraries/zf_driver/zf_driver_soft_iic.c ****         return_state = SOFT_IIC_OPERATION_DONE;
 3832              		.loc 1 712 22
 3833 007a 0023     		movs	r3, #0
 3834 007c 8DF80F30 		strb	r3, [sp, #15]
 3835              	.L192:
 713:libraries/zf_driver/zf_driver_soft_iic.c ****     }while(0);
 714:libraries/zf_driver/zf_driver_soft_iic.c **** 
 715:libraries/zf_driver/zf_driver_soft_iic.c ****     return return_state;
 3836              		.loc 1 715 12
 3837 0080 9DF80F30 		ldrb	r3, [sp, #15]	@ zero_extendqisi2
 716:libraries/zf_driver/zf_driver_soft_iic.c **** }
 3838              		.loc 1 716 1
 3839 0084 1846     		mov	r0, r3
 3840 0086 05B0     		add	sp, sp, #20
 3841              		.cfi_def_cfa_offset 4
 3842              		@ sp needed
 3843 0088 5DF804FB 		ldr	pc, [sp], #4
 3844              	.L196:
 3845              		.align	2
 3846              	.L195:
 3847 008c 00000000 		.word	soft_iic_obj_list
 3848 0090 00000000 		.word	.LC0
 3849              		.cfi_endproc
 3850              	.LFE185:
 3852              		.section	.text.zf_soft_iic_enable,"ax",%progbits
 3853              		.align	1
 3854              		.p2align 4,,15
 3855              		.global	zf_soft_iic_enable
 3856              		.syntax unified
 3857              		.thumb
 3858              		.thumb_func
 3860              	zf_soft_iic_enable:
 3861              	.LFB186:
 717:libraries/zf_driver/zf_driver_soft_iic.c **** 
 718:libraries/zf_driver/zf_driver_soft_iic.c **** //-------------------------------------------------------------------------------------------------
 719:libraries/zf_driver/zf_driver_soft_iic.c **** // å‡½æ•°ç®€ä»‹     SOFT_IIC æ¥å£ ä½¿èƒ½
 720:libraries/zf_driver/zf_driver_soft_iic.c **** // å‚æ•°è¯´æ˜     soft_iic_index      SOFT_IIC ç´¢å¼•   (è¯¦è§ zf_driver_soft_iic.h å†… zf_soft_
 721:libraries/zf_driver/zf_driver_soft_iic.c **** // è¿”å›å‚æ•°     uint8               æ“ä½œçŠ¶æ€ ZF_NO_ERROR / SOFT_IIC_OPERATION_DONE - å®Œæˆ
 722:libraries/zf_driver/zf_driver_soft_iic.c **** // ä½¿ç”¨ç¤ºä¾‹     zf_soft_iic_enable(soft_iic_index);
 723:libraries/zf_driver/zf_driver_soft_iic.c **** // å¤‡æ³¨ä¿¡æ¯     
 724:libraries/zf_driver/zf_driver_soft_iic.c **** //-------------------------------------------------------------------------------------------------
 725:libraries/zf_driver/zf_driver_soft_iic.c **** uint8 zf_soft_iic_enable (zf_soft_iic_index_enum soft_iic_index)
 726:libraries/zf_driver/zf_driver_soft_iic.c **** {
 3862              		.loc 1 726 1
 3863              		.cfi_startproc
 3864              		@ args = 0, pretend = 0, frame = 16
 3865              		@ frame_needed = 0, uses_anonymous_args = 0
 3866 0000 00B5     		push	{lr}
 3867              		.cfi_def_cfa_offset 4
 3868              		.cfi_offset 14, -4
 3869 0002 85B0     		sub	sp, sp, #20
 3870              		.cfi_def_cfa_offset 24
 3871 0004 0346     		mov	r3, r0
 3872 0006 8DF80730 		strb	r3, [sp, #7]
 727:libraries/zf_driver/zf_driver_soft_iic.c ****     zf_soft_iic_operation_state_enum return_state = SOFT_IIC_ERROR_UNKNOW;
 3873              		.loc 1 727 38
 3874 000a 0123     		movs	r3, #1
 3875 000c 8DF80F30 		strb	r3, [sp, #15]
 728:libraries/zf_driver/zf_driver_soft_iic.c **** 
 729:libraries/zf_driver/zf_driver_soft_iic.c ****     do
 730:libraries/zf_driver/zf_driver_soft_iic.c ****     {
 731:libraries/zf_driver/zf_driver_soft_iic.c ****         if(zf_soft_iic_assert(soft_iic_obj_list[soft_iic_index].delay))
 3876              		.loc 1 731 12
 3877 0010 9DF80720 		ldrb	r2, [sp, #7]	@ zero_extendqisi2
 3878 0014 1549     		ldr	r1, .L201
 3879 0016 1346     		mov	r3, r2
 3880 0018 5B00     		lsls	r3, r3, #1
 3881 001a 1344     		add	r3, r3, r2
 3882 001c 9B00     		lsls	r3, r3, #2
 3883 001e 0B44     		add	r3, r3, r1
 3884 0020 0433     		adds	r3, r3, #4
 3885 0022 1B68     		ldr	r3, [r3]
 3886              		.loc 1 731 11
 3887 0024 002B     		cmp	r3, #0
 3888 0026 0CD1     		bne	.L198
 3889              		.loc 1 731 12 discriminator 1
 3890 0028 0022     		movs	r2, #0
 3891 002a 40F2DB21 		movw	r1, #731
 3892 002e 1048     		ldr	r0, .L201+4
 3893 0030 FFF7FEFF 		bl	zf_soft_iic_assert_handler
 3894 0034 0346     		mov	r3, r0
 3895 0036 002B     		cmp	r3, #0
 3896 0038 03D0     		beq	.L198
 732:libraries/zf_driver/zf_driver_soft_iic.c ****         {
 733:libraries/zf_driver/zf_driver_soft_iic.c ****             // æ­¤å¤„å¦‚æœæ–­è¨€æŠ¥é”™ é‚£ä¹ˆè¯æ˜æœ¬æ¨¡å—æ²¡æœ‰åˆå§‹åŒ–è¿‡ æ˜¯ä¸å…è®¸ç›´æ¥æ
 734:libraries/zf_driver/zf_driver_soft_iic.c ****             return_state = SOFT_IIC_ERROR_MODULE_NOT_INIT;                      // SOFT_IIC æ¨¡å—æ
 3897              		.loc 1 734 26
 3898 003a 2123     		movs	r3, #33
 3899 003c 8DF80F30 		strb	r3, [sp, #15]
 735:libraries/zf_driver/zf_driver_soft_iic.c ****             break;
 3900              		.loc 1 735 13
 3901 0040 0DE0     		b	.L199
 3902              	.L198:
 736:libraries/zf_driver/zf_driver_soft_iic.c ****         }
 737:libraries/zf_driver/zf_driver_soft_iic.c ****         soft_iic_obj_list[soft_iic_index].enable = ZF_ENABLE;
 3903              		.loc 1 737 42
 3904 0042 9DF80720 		ldrb	r2, [sp, #7]	@ zero_extendqisi2
 3905              		.loc 1 737 50
 3906 0046 0949     		ldr	r1, .L201
 3907 0048 1346     		mov	r3, r2
 3908 004a 5B00     		lsls	r3, r3, #1
 3909 004c 1344     		add	r3, r3, r2
 3910 004e 9B00     		lsls	r3, r3, #2
 3911 0050 0B44     		add	r3, r3, r1
 3912 0052 0833     		adds	r3, r3, #8
 3913 0054 0122     		movs	r2, #1
 3914 0056 1A60     		str	r2, [r3]
 738:libraries/zf_driver/zf_driver_soft_iic.c **** 
 739:libraries/zf_driver/zf_driver_soft_iic.c ****         return_state = SOFT_IIC_OPERATION_DONE;
 3915              		.loc 1 739 22
 3916 0058 0023     		movs	r3, #0
 3917 005a 8DF80F30 		strb	r3, [sp, #15]
 3918              	.L199:
 740:libraries/zf_driver/zf_driver_soft_iic.c ****     }while(0);
 741:libraries/zf_driver/zf_driver_soft_iic.c **** 
 742:libraries/zf_driver/zf_driver_soft_iic.c ****     return return_state;
 3919              		.loc 1 742 12
 3920 005e 9DF80F30 		ldrb	r3, [sp, #15]	@ zero_extendqisi2
 743:libraries/zf_driver/zf_driver_soft_iic.c **** }
 3921              		.loc 1 743 1
 3922 0062 1846     		mov	r0, r3
 3923 0064 05B0     		add	sp, sp, #20
 3924              		.cfi_def_cfa_offset 4
 3925              		@ sp needed
 3926 0066 5DF804FB 		ldr	pc, [sp], #4
 3927              	.L202:
 3928 006a 00BF     		.align	2
 3929              	.L201:
 3930 006c 00000000 		.word	soft_iic_obj_list
 3931 0070 00000000 		.word	.LC0
 3932              		.cfi_endproc
 3933              	.LFE186:
 3935              		.section	.text.zf_soft_iic_disable,"ax",%progbits
 3936              		.align	1
 3937              		.p2align 4,,15
 3938              		.global	zf_soft_iic_disable
 3939              		.syntax unified
 3940              		.thumb
 3941              		.thumb_func
 3943              	zf_soft_iic_disable:
 3944              	.LFB187:
 744:libraries/zf_driver/zf_driver_soft_iic.c **** 
 745:libraries/zf_driver/zf_driver_soft_iic.c **** //-------------------------------------------------------------------------------------------------
 746:libraries/zf_driver/zf_driver_soft_iic.c **** // å‡½æ•°ç®€ä»‹     SOFT_IIC æ¥å£ ç¦æ­¢
 747:libraries/zf_driver/zf_driver_soft_iic.c **** // å‚æ•°è¯´æ˜     soft_iic_index      SOFT_IIC ç´¢å¼•   (è¯¦è§ zf_driver_soft_iic.h å†… zf_soft_
 748:libraries/zf_driver/zf_driver_soft_iic.c **** // è¿”å›å‚æ•°     uint8               æ“ä½œçŠ¶æ€ ZF_NO_ERROR / SOFT_IIC_OPERATION_DONE - å®Œæˆ
 749:libraries/zf_driver/zf_driver_soft_iic.c **** // ä½¿ç”¨ç¤ºä¾‹     zf_soft_iic_disable(soft_iic_index);
 750:libraries/zf_driver/zf_driver_soft_iic.c **** // å¤‡æ³¨ä¿¡æ¯     
 751:libraries/zf_driver/zf_driver_soft_iic.c **** //-------------------------------------------------------------------------------------------------
 752:libraries/zf_driver/zf_driver_soft_iic.c **** uint8 zf_soft_iic_disable (zf_soft_iic_index_enum soft_iic_index)
 753:libraries/zf_driver/zf_driver_soft_iic.c **** {
 3945              		.loc 1 753 1
 3946              		.cfi_startproc
 3947              		@ args = 0, pretend = 0, frame = 16
 3948              		@ frame_needed = 0, uses_anonymous_args = 0
 3949 0000 00B5     		push	{lr}
 3950              		.cfi_def_cfa_offset 4
 3951              		.cfi_offset 14, -4
 3952 0002 85B0     		sub	sp, sp, #20
 3953              		.cfi_def_cfa_offset 24
 3954 0004 0346     		mov	r3, r0
 3955 0006 8DF80730 		strb	r3, [sp, #7]
 754:libraries/zf_driver/zf_driver_soft_iic.c ****     zf_soft_iic_operation_state_enum return_state = SOFT_IIC_ERROR_UNKNOW;
 3956              		.loc 1 754 38
 3957 000a 0123     		movs	r3, #1
 3958 000c 8DF80F30 		strb	r3, [sp, #15]
 755:libraries/zf_driver/zf_driver_soft_iic.c **** 
 756:libraries/zf_driver/zf_driver_soft_iic.c ****     do
 757:libraries/zf_driver/zf_driver_soft_iic.c ****     {
 758:libraries/zf_driver/zf_driver_soft_iic.c ****         if(zf_soft_iic_assert(soft_iic_obj_list[soft_iic_index].delay))
 3959              		.loc 1 758 12
 3960 0010 9DF80720 		ldrb	r2, [sp, #7]	@ zero_extendqisi2
 3961 0014 1549     		ldr	r1, .L207
 3962 0016 1346     		mov	r3, r2
 3963 0018 5B00     		lsls	r3, r3, #1
 3964 001a 1344     		add	r3, r3, r2
 3965 001c 9B00     		lsls	r3, r3, #2
 3966 001e 0B44     		add	r3, r3, r1
 3967 0020 0433     		adds	r3, r3, #4
 3968 0022 1B68     		ldr	r3, [r3]
 3969              		.loc 1 758 11
 3970 0024 002B     		cmp	r3, #0
 3971 0026 0CD1     		bne	.L204
 3972              		.loc 1 758 12 discriminator 1
 3973 0028 0022     		movs	r2, #0
 3974 002a 40F2F621 		movw	r1, #758
 3975 002e 1048     		ldr	r0, .L207+4
 3976 0030 FFF7FEFF 		bl	zf_soft_iic_assert_handler
 3977 0034 0346     		mov	r3, r0
 3978 0036 002B     		cmp	r3, #0
 3979 0038 03D0     		beq	.L204
 759:libraries/zf_driver/zf_driver_soft_iic.c ****         {
 760:libraries/zf_driver/zf_driver_soft_iic.c ****             // æ­¤å¤„å¦‚æœæ–­è¨€æŠ¥é”™ é‚£ä¹ˆè¯æ˜æœ¬æ¨¡å—æ²¡æœ‰åˆå§‹åŒ–è¿‡ æ˜¯ä¸å…è®¸ç›´æ¥æ
 761:libraries/zf_driver/zf_driver_soft_iic.c ****             return_state = SOFT_IIC_ERROR_MODULE_NOT_INIT;                      // SOFT_IIC æ¨¡å—æ
 3980              		.loc 1 761 26
 3981 003a 2123     		movs	r3, #33
 3982 003c 8DF80F30 		strb	r3, [sp, #15]
 762:libraries/zf_driver/zf_driver_soft_iic.c ****             break;
 3983              		.loc 1 762 13
 3984 0040 0DE0     		b	.L205
 3985              	.L204:
 763:libraries/zf_driver/zf_driver_soft_iic.c ****         }
 764:libraries/zf_driver/zf_driver_soft_iic.c ****         soft_iic_obj_list[soft_iic_index].enable = ZF_DISABLE;
 3986              		.loc 1 764 42
 3987 0042 9DF80720 		ldrb	r2, [sp, #7]	@ zero_extendqisi2
 3988              		.loc 1 764 50
 3989 0046 0949     		ldr	r1, .L207
 3990 0048 1346     		mov	r3, r2
 3991 004a 5B00     		lsls	r3, r3, #1
 3992 004c 1344     		add	r3, r3, r2
 3993 004e 9B00     		lsls	r3, r3, #2
 3994 0050 0B44     		add	r3, r3, r1
 3995 0052 0833     		adds	r3, r3, #8
 3996 0054 0022     		movs	r2, #0
 3997 0056 1A60     		str	r2, [r3]
 765:libraries/zf_driver/zf_driver_soft_iic.c **** 
 766:libraries/zf_driver/zf_driver_soft_iic.c ****         return_state = SOFT_IIC_OPERATION_DONE;
 3998              		.loc 1 766 22
 3999 0058 0023     		movs	r3, #0
 4000 005a 8DF80F30 		strb	r3, [sp, #15]
 4001              	.L205:
 767:libraries/zf_driver/zf_driver_soft_iic.c ****     }while(0);
 768:libraries/zf_driver/zf_driver_soft_iic.c **** 
 769:libraries/zf_driver/zf_driver_soft_iic.c ****     return return_state;
 4002              		.loc 1 769 12
 4003 005e 9DF80F30 		ldrb	r3, [sp, #15]	@ zero_extendqisi2
 770:libraries/zf_driver/zf_driver_soft_iic.c **** }
 4004              		.loc 1 770 1
 4005 0062 1846     		mov	r0, r3
 4006 0064 05B0     		add	sp, sp, #20
 4007              		.cfi_def_cfa_offset 4
 4008              		@ sp needed
 4009 0066 5DF804FB 		ldr	pc, [sp], #4
 4010              	.L208:
 4011 006a 00BF     		.align	2
 4012              	.L207:
 4013 006c 00000000 		.word	soft_iic_obj_list
 4014 0070 00000000 		.word	.LC0
 4015              		.cfi_endproc
 4016              	.LFE187:
 4018              		.section	.text.zf_soft_iic_deinit,"ax",%progbits
 4019              		.align	1
 4020              		.p2align 4,,15
 4021              		.global	zf_soft_iic_deinit
 4022              		.syntax unified
 4023              		.thumb
 4024              		.thumb_func
 4026              	zf_soft_iic_deinit:
 4027              	.LFB188:
 771:libraries/zf_driver/zf_driver_soft_iic.c **** 
 772:libraries/zf_driver/zf_driver_soft_iic.c **** //-------------------------------------------------------------------------------------------------
 773:libraries/zf_driver/zf_driver_soft_iic.c **** // å‡½æ•°ç®€ä»‹     SOFT_IIC æ¥å£æ³¨é”€åˆå§‹åŒ–
 774:libraries/zf_driver/zf_driver_soft_iic.c **** // å‚æ•°è¯´æ˜     soft_iic_index      SOFT_IIC ç´¢å¼•   (è¯¦è§ zf_driver_soft_iic.h å†… zf_soft_
 775:libraries/zf_driver/zf_driver_soft_iic.c **** // è¿”å›å‚æ•°     uint8               æ“ä½œçŠ¶æ€ ZF_NO_ERROR / SOFT_IIC_OPERATION_DONE - å®Œæˆ
 776:libraries/zf_driver/zf_driver_soft_iic.c **** // ä½¿ç”¨ç¤ºä¾‹     zf_soft_iic_deinit(soft_iic_index);
 777:libraries/zf_driver/zf_driver_soft_iic.c **** // å¤‡æ³¨ä¿¡æ¯     
 778:libraries/zf_driver/zf_driver_soft_iic.c **** //-------------------------------------------------------------------------------------------------
 779:libraries/zf_driver/zf_driver_soft_iic.c **** uint8 zf_soft_iic_deinit (zf_soft_iic_index_enum soft_iic_index)
 780:libraries/zf_driver/zf_driver_soft_iic.c **** {
 4028              		.loc 1 780 1
 4029              		.cfi_startproc
 4030              		@ args = 0, pretend = 0, frame = 16
 4031              		@ frame_needed = 0, uses_anonymous_args = 0
 4032 0000 00B5     		push	{lr}
 4033              		.cfi_def_cfa_offset 4
 4034              		.cfi_offset 14, -4
 4035 0002 85B0     		sub	sp, sp, #20
 4036              		.cfi_def_cfa_offset 24
 4037 0004 0346     		mov	r3, r0
 4038 0006 8DF80730 		strb	r3, [sp, #7]
 781:libraries/zf_driver/zf_driver_soft_iic.c ****     zf_soft_iic_operation_state_enum return_state = SOFT_IIC_ERROR_UNKNOW;
 4039              		.loc 1 781 38
 4040 000a 0123     		movs	r3, #1
 4041 000c 8DF80F30 		strb	r3, [sp, #15]
 782:libraries/zf_driver/zf_driver_soft_iic.c **** 
 783:libraries/zf_driver/zf_driver_soft_iic.c ****     do
 784:libraries/zf_driver/zf_driver_soft_iic.c ****     {
 785:libraries/zf_driver/zf_driver_soft_iic.c ****         if(zf_soft_iic_assert(soft_iic_obj_list[soft_iic_index].delay))
 4042              		.loc 1 785 12
 4043 0010 9DF80720 		ldrb	r2, [sp, #7]	@ zero_extendqisi2
 4044 0014 3249     		ldr	r1, .L213
 4045 0016 1346     		mov	r3, r2
 4046 0018 5B00     		lsls	r3, r3, #1
 4047 001a 1344     		add	r3, r3, r2
 4048 001c 9B00     		lsls	r3, r3, #2
 4049 001e 0B44     		add	r3, r3, r1
 4050 0020 0433     		adds	r3, r3, #4
 4051 0022 1B68     		ldr	r3, [r3]
 4052              		.loc 1 785 11
 4053 0024 002B     		cmp	r3, #0
 4054 0026 0CD1     		bne	.L210
 4055              		.loc 1 785 12 discriminator 1
 4056 0028 0022     		movs	r2, #0
 4057 002a 40F21131 		movw	r1, #785
 4058 002e 2D48     		ldr	r0, .L213+4
 4059 0030 FFF7FEFF 		bl	zf_soft_iic_assert_handler
 4060 0034 0346     		mov	r3, r0
 4061 0036 002B     		cmp	r3, #0
 4062 0038 03D0     		beq	.L210
 786:libraries/zf_driver/zf_driver_soft_iic.c ****         {
 787:libraries/zf_driver/zf_driver_soft_iic.c ****             // æ­¤å¤„å¦‚æœæ–­è¨€æŠ¥é”™ é‚£ä¹ˆè¯æ˜æœ¬æ¨¡å—æ²¡æœ‰åˆå§‹åŒ–è¿‡ æ˜¯ä¸å…è®¸ç›´æ¥æ
 788:libraries/zf_driver/zf_driver_soft_iic.c ****             return_state = SOFT_IIC_ERROR_MODULE_NOT_INIT;                      // SOFT_IIC æ¨¡å—æ
 4063              		.loc 1 788 26
 4064 003a 2123     		movs	r3, #33
 4065 003c 8DF80F30 		strb	r3, [sp, #15]
 789:libraries/zf_driver/zf_driver_soft_iic.c ****             break;
 4066              		.loc 1 789 13
 4067 0040 48E0     		b	.L211
 4068              	.L210:
 790:libraries/zf_driver/zf_driver_soft_iic.c ****         }
 791:libraries/zf_driver/zf_driver_soft_iic.c **** 
 792:libraries/zf_driver/zf_driver_soft_iic.c ****         zf_gpio_deinit((zf_gpio_pin_enum)soft_iic_obj_list[soft_iic_index].scl_pin);
 4069              		.loc 1 792 9
 4070 0042 9DF80720 		ldrb	r2, [sp, #7]	@ zero_extendqisi2
 4071              		.loc 1 792 75
 4072 0046 2649     		ldr	r1, .L213
 4073 0048 1346     		mov	r3, r2
 4074 004a 5B00     		lsls	r3, r3, #1
 4075 004c 1344     		add	r3, r3, r2
 4076 004e 9B00     		lsls	r3, r3, #2
 4077 0050 0B44     		add	r3, r3, r1
 4078 0052 1B88     		ldrh	r3, [r3]
 4079              		.loc 1 792 9
 4080 0054 1846     		mov	r0, r3
 4081 0056 FFF7FEFF 		bl	zf_gpio_deinit
 793:libraries/zf_driver/zf_driver_soft_iic.c ****         zf_gpio_deinit((zf_gpio_pin_enum)soft_iic_obj_list[soft_iic_index].sda_pin);
 4082              		.loc 1 793 9
 4083 005a 9DF80720 		ldrb	r2, [sp, #7]	@ zero_extendqisi2
 4084              		.loc 1 793 75
 4085 005e 2049     		ldr	r1, .L213
 4086 0060 1346     		mov	r3, r2
 4087 0062 5B00     		lsls	r3, r3, #1
 4088 0064 1344     		add	r3, r3, r2
 4089 0066 9B00     		lsls	r3, r3, #2
 4090 0068 0B44     		add	r3, r3, r1
 4091 006a 0233     		adds	r3, r3, #2
 4092 006c 1B88     		ldrh	r3, [r3]
 4093              		.loc 1 793 9
 4094 006e 1846     		mov	r0, r3
 4095 0070 FFF7FEFF 		bl	zf_gpio_deinit
 794:libraries/zf_driver/zf_driver_soft_iic.c ****         soft_iic_obj_list[soft_iic_index].scl_pin = PIN_NULL;
 4096              		.loc 1 794 42
 4097 0074 9DF80720 		ldrb	r2, [sp, #7]	@ zero_extendqisi2
 4098              		.loc 1 794 51
 4099 0078 1949     		ldr	r1, .L213
 4100 007a 1346     		mov	r3, r2
 4101 007c 5B00     		lsls	r3, r3, #1
 4102 007e 1344     		add	r3, r3, r2
 4103 0080 9B00     		lsls	r3, r3, #2
 4104 0082 0B44     		add	r3, r3, r1
 4105 0084 40F6FF72 		movw	r2, #4095
 4106 0088 1A80     		strh	r2, [r3]	@ movhi
 795:libraries/zf_driver/zf_driver_soft_iic.c ****         soft_iic_obj_list[soft_iic_index].sda_pin = PIN_NULL;
 4107              		.loc 1 795 42
 4108 008a 9DF80720 		ldrb	r2, [sp, #7]	@ zero_extendqisi2
 4109              		.loc 1 795 51
 4110 008e 1449     		ldr	r1, .L213
 4111 0090 1346     		mov	r3, r2
 4112 0092 5B00     		lsls	r3, r3, #1
 4113 0094 1344     		add	r3, r3, r2
 4114 0096 9B00     		lsls	r3, r3, #2
 4115 0098 0B44     		add	r3, r3, r1
 4116 009a 0233     		adds	r3, r3, #2
 4117 009c 40F6FF72 		movw	r2, #4095
 4118 00a0 1A80     		strh	r2, [r3]	@ movhi
 796:libraries/zf_driver/zf_driver_soft_iic.c ****         soft_iic_obj_list[soft_iic_index].delay = 0;
 4119              		.loc 1 796 42
 4120 00a2 9DF80720 		ldrb	r2, [sp, #7]	@ zero_extendqisi2
 4121              		.loc 1 796 49
 4122 00a6 0E49     		ldr	r1, .L213
 4123 00a8 1346     		mov	r3, r2
 4124 00aa 5B00     		lsls	r3, r3, #1
 4125 00ac 1344     		add	r3, r3, r2
 4126 00ae 9B00     		lsls	r3, r3, #2
 4127 00b0 0B44     		add	r3, r3, r1
 4128 00b2 0433     		adds	r3, r3, #4
 4129 00b4 0022     		movs	r2, #0
 4130 00b6 1A60     		str	r2, [r3]
 797:libraries/zf_driver/zf_driver_soft_iic.c ****         soft_iic_obj_list[soft_iic_index].enable = ZF_DISABLE;
 4131              		.loc 1 797 42
 4132 00b8 9DF80720 		ldrb	r2, [sp, #7]	@ zero_extendqisi2
 4133              		.loc 1 797 50
 4134 00bc 0849     		ldr	r1, .L213
 4135 00be 1346     		mov	r3, r2
 4136 00c0 5B00     		lsls	r3, r3, #1
 4137 00c2 1344     		add	r3, r3, r2
 4138 00c4 9B00     		lsls	r3, r3, #2
 4139 00c6 0B44     		add	r3, r3, r1
 4140 00c8 0833     		adds	r3, r3, #8
 4141 00ca 0022     		movs	r2, #0
 4142 00cc 1A60     		str	r2, [r3]
 798:libraries/zf_driver/zf_driver_soft_iic.c **** 
 799:libraries/zf_driver/zf_driver_soft_iic.c ****         return_state = SOFT_IIC_OPERATION_DONE;
 4143              		.loc 1 799 22
 4144 00ce 0023     		movs	r3, #0
 4145 00d0 8DF80F30 		strb	r3, [sp, #15]
 4146              	.L211:
 800:libraries/zf_driver/zf_driver_soft_iic.c ****     }while(0);
 801:libraries/zf_driver/zf_driver_soft_iic.c **** 
 802:libraries/zf_driver/zf_driver_soft_iic.c ****     return return_state;
 4147              		.loc 1 802 12
 4148 00d4 9DF80F30 		ldrb	r3, [sp, #15]	@ zero_extendqisi2
 803:libraries/zf_driver/zf_driver_soft_iic.c **** }
 4149              		.loc 1 803 1
 4150 00d8 1846     		mov	r0, r3
 4151 00da 05B0     		add	sp, sp, #20
 4152              		.cfi_def_cfa_offset 4
 4153              		@ sp needed
 4154 00dc 5DF804FB 		ldr	pc, [sp], #4
 4155              	.L214:
 4156              		.align	2
 4157              	.L213:
 4158 00e0 00000000 		.word	soft_iic_obj_list
 4159 00e4 00000000 		.word	.LC0
 4160              		.cfi_endproc
 4161              	.LFE188:
 4163              		.section	.text.zf_soft_iic_init,"ax",%progbits
 4164              		.align	1
 4165              		.p2align 4,,15
 4166              		.global	zf_soft_iic_init
 4167              		.syntax unified
 4168              		.thumb
 4169              		.thumb_func
 4171              	zf_soft_iic_init:
 4172              	.LFB189:
 804:libraries/zf_driver/zf_driver_soft_iic.c **** 
 805:libraries/zf_driver/zf_driver_soft_iic.c **** //-------------------------------------------------------------------------------------------------
 806:libraries/zf_driver/zf_driver_soft_iic.c **** // å‡½æ•°ç®€ä»‹     SOFT_IIC æ¥å£åˆå§‹åŒ– é»˜è®¤ MASTER æ¨¡å¼ ä¸æä¾› SLAVE æ¨¡å¼
 807:libraries/zf_driver/zf_driver_soft_iic.c **** // å‚æ•°è¯´æ˜     soft_iic_index      SOFT_IIC ç´¢å¼•   (è¯¦è§ zf_driver_soft_iic.h å†… zf_soft_
 808:libraries/zf_driver/zf_driver_soft_iic.c **** // å‚æ•°è¯´æ˜     delay               SOFT_IIC å»¶æ—¶ å°±æ˜¯æ—¶é’Ÿç”µå¹³ç»´æŒæ—¶é—´ è¶ŠçŸ­ IIC é
 809:libraries/zf_driver/zf_driver_soft_iic.c **** // å‚æ•°è¯´æ˜     scl_pin             SCL å¼•è„š å‚ç…§   (è¯¦è§ zf_driver_gpio.h å†… zf_gpio_pi
 810:libraries/zf_driver/zf_driver_soft_iic.c **** // å‚æ•°è¯´æ˜     sda_pin             SDA å¼•è„š å‚ç…§   (è¯¦è§ zf_driver_gpio.h å†… zf_gpio_pi
 811:libraries/zf_driver/zf_driver_soft_iic.c **** // è¿”å›å‚æ•°     uint8               æ“ä½œçŠ¶æ€ ZF_NO_ERROR / SOFT_IIC_OPERATION_DONE - å®Œæˆ
 812:libraries/zf_driver/zf_driver_soft_iic.c **** // ä½¿ç”¨ç¤ºä¾‹     zf_soft_iic_init(soft_iic_index, delay, scl_pin, sda_pin);
 813:libraries/zf_driver/zf_driver_soft_iic.c **** // å¤‡æ³¨ä¿¡æ¯     
 814:libraries/zf_driver/zf_driver_soft_iic.c **** //-------------------------------------------------------------------------------------------------
 815:libraries/zf_driver/zf_driver_soft_iic.c **** uint8 zf_soft_iic_init (zf_soft_iic_index_enum soft_iic_index, uint32 delay, zf_gpio_pin_enum scl_p
 816:libraries/zf_driver/zf_driver_soft_iic.c **** {
 4173              		.loc 1 816 1
 4174              		.cfi_startproc
 4175              		@ args = 0, pretend = 0, frame = 24
 4176              		@ frame_needed = 0, uses_anonymous_args = 0
 4177 0000 00B5     		push	{lr}
 4178              		.cfi_def_cfa_offset 4
 4179              		.cfi_offset 14, -4
 4180 0002 87B0     		sub	sp, sp, #28
 4181              		.cfi_def_cfa_offset 32
 4182 0004 0291     		str	r1, [sp, #8]
 4183 0006 1146     		mov	r1, r2
 4184 0008 1A46     		mov	r2, r3
 4185 000a 0346     		mov	r3, r0
 4186 000c 8DF80F30 		strb	r3, [sp, #15]
 4187 0010 0B46     		mov	r3, r1	@ movhi
 4188 0012 ADF80C30 		strh	r3, [sp, #12]	@ movhi
 4189 0016 1346     		mov	r3, r2	@ movhi
 4190 0018 ADF80630 		strh	r3, [sp, #6]	@ movhi
 817:libraries/zf_driver/zf_driver_soft_iic.c ****     zf_soft_iic_operation_state_enum return_state = SOFT_IIC_ERROR_UNKNOW;
 4191              		.loc 1 817 38
 4192 001c 0123     		movs	r3, #1
 4193 001e 8DF81730 		strb	r3, [sp, #23]
 818:libraries/zf_driver/zf_driver_soft_iic.c **** 
 819:libraries/zf_driver/zf_driver_soft_iic.c ****     do
 820:libraries/zf_driver/zf_driver_soft_iic.c ****     {
 821:libraries/zf_driver/zf_driver_soft_iic.c ****         if(zf_soft_iic_assert(!soft_iic_obj_list[soft_iic_index].delay))
 4194              		.loc 1 821 12
 4195 0022 9DF80F20 		ldrb	r2, [sp, #15]	@ zero_extendqisi2
 4196 0026 4749     		ldr	r1, .L224
 4197 0028 1346     		mov	r3, r2
 4198 002a 5B00     		lsls	r3, r3, #1
 4199 002c 1344     		add	r3, r3, r2
 4200 002e 9B00     		lsls	r3, r3, #2
 4201 0030 0B44     		add	r3, r3, r1
 4202 0032 0433     		adds	r3, r3, #4
 4203 0034 1B68     		ldr	r3, [r3]
 4204              		.loc 1 821 11
 4205 0036 002B     		cmp	r3, #0
 4206 0038 0CD0     		beq	.L216
 4207              		.loc 1 821 12 discriminator 1
 4208 003a 0022     		movs	r2, #0
 4209 003c 40F23531 		movw	r1, #821
 4210 0040 4148     		ldr	r0, .L224+4
 4211 0042 FFF7FEFF 		bl	zf_soft_iic_assert_handler
 4212 0046 0346     		mov	r3, r0
 4213 0048 002B     		cmp	r3, #0
 4214 004a 03D0     		beq	.L216
 822:libraries/zf_driver/zf_driver_soft_iic.c ****         {
 823:libraries/zf_driver/zf_driver_soft_iic.c ****             // æ­¤å¤„å¦‚æœæ–­è¨€æŠ¥é”™ é‚£ä¹ˆè¯æ˜æœ¬æ¨¡å—å·²ç»è¢«åˆå§‹åŒ–è¿‡ä¸€æ¬¡ é‡å¤åˆå
 824:libraries/zf_driver/zf_driver_soft_iic.c ****             return_state = SOFT_IIC_ERROR_MODULE_OCCUPIED;                      // SOFT_IIC æ¨¡å—å
 4215              		.loc 1 824 26
 4216 004c 2023     		movs	r3, #32
 4217 004e 8DF81730 		strb	r3, [sp, #23]
 825:libraries/zf_driver/zf_driver_soft_iic.c ****             break;
 4218              		.loc 1 825 13
 4219 0052 71E0     		b	.L217
 4220              	.L216:
 826:libraries/zf_driver/zf_driver_soft_iic.c ****         }
 827:libraries/zf_driver/zf_driver_soft_iic.c ****         if(zf_soft_iic_assert(0 != delay))
 4221              		.loc 1 827 11
 4222 0054 029B     		ldr	r3, [sp, #8]
 4223 0056 002B     		cmp	r3, #0
 4224 0058 0CD1     		bne	.L218
 4225              		.loc 1 827 12 discriminator 1
 4226 005a 0022     		movs	r2, #0
 4227 005c 40F23B31 		movw	r1, #827
 4228 0060 3948     		ldr	r0, .L224+4
 4229 0062 FFF7FEFF 		bl	zf_soft_iic_assert_handler
 4230 0066 0346     		mov	r3, r0
 4231 0068 002B     		cmp	r3, #0
 4232 006a 03D0     		beq	.L218
 828:libraries/zf_driver/zf_driver_soft_iic.c ****         {
 829:libraries/zf_driver/zf_driver_soft_iic.c ****             // æ­¤å¤„å¦‚æœæ–­è¨€æŠ¥é”™ é‚£ä¹ˆè¯æ˜è¾“å…¥çš„ SOFT_IIC çš„è„‰å®½æ—¶é—´å•ä½ä¸º 0
 830:libraries/zf_driver/zf_driver_soft_iic.c ****             return_state = SOFT_IIC_ERROR_SPEED_UNSUPPORTED;                    // SOFT_IIC ä¼ è¾“é
 4233              		.loc 1 830 26
 4234 006c 2223     		movs	r3, #34
 4235 006e 8DF81730 		strb	r3, [sp, #23]
 831:libraries/zf_driver/zf_driver_soft_iic.c ****             break;
 4236              		.loc 1 831 13
 4237 0072 61E0     		b	.L217
 4238              	.L218:
 832:libraries/zf_driver/zf_driver_soft_iic.c ****         }
 833:libraries/zf_driver/zf_driver_soft_iic.c ****         if(zf_soft_iic_assert(scl_pin != sda_pin && PIN_NULL != scl_pin && PIN_NULL != sda_pin))
 4239              		.loc 1 833 11
 4240 0074 BDF80C20 		ldrh	r2, [sp, #12]
 4241 0078 BDF80630 		ldrh	r3, [sp, #6]
 4242 007c 9A42     		cmp	r2, r3
 4243 007e 0BD0     		beq	.L219
 4244              		.loc 1 833 12 discriminator 2
 4245 0080 BDF80C30 		ldrh	r3, [sp, #12]
 4246 0084 40F6FF72 		movw	r2, #4095
 4247 0088 9342     		cmp	r3, r2
 4248 008a 05D0     		beq	.L219
 4249              		.loc 1 833 12 is_stmt 0 discriminator 4
 4250 008c BDF80630 		ldrh	r3, [sp, #6]
 4251 0090 40F6FF72 		movw	r2, #4095
 4252 0094 9342     		cmp	r3, r2
 4253 0096 0CD1     		bne	.L220
 4254              	.L219:
 4255              		.loc 1 833 12 discriminator 5
 4256 0098 0022     		movs	r2, #0
 4257 009a 40F24131 		movw	r1, #833
 4258 009e 2A48     		ldr	r0, .L224+4
 4259 00a0 FFF7FEFF 		bl	zf_soft_iic_assert_handler
 4260 00a4 0346     		mov	r3, r0
 4261 00a6 002B     		cmp	r3, #0
 4262 00a8 03D0     		beq	.L220
 834:libraries/zf_driver/zf_driver_soft_iic.c ****         {
 835:libraries/zf_driver/zf_driver_soft_iic.c ****             // æ­¤å¤„å¦‚æœæ–­è¨€æŠ¥é”™ é‚£ä¹ˆè¯æ˜ä¼ å…¥çš„ SCL å’Œ SDA å¼•è„šé‡å¤
 836:libraries/zf_driver/zf_driver_soft_iic.c ****             // æˆ–è€… SCL å’Œ SDA ä¸­æœ‰å¼•è„šæ˜¯ PIN_NULL
 837:libraries/zf_driver/zf_driver_soft_iic.c ****             return_state = SOFT_IIC_ERROR_PIN_ILLEGAL;                          // SOFT_IIC å¼•è„šå
 4263              		.loc 1 837 26 is_stmt 1
 4264 00aa 2323     		movs	r3, #35
 4265 00ac 8DF81730 		strb	r3, [sp, #23]
 838:libraries/zf_driver/zf_driver_soft_iic.c ****             break;
 4266              		.loc 1 838 13
 4267 00b0 42E0     		b	.L217
 4268              	.L220:
 839:libraries/zf_driver/zf_driver_soft_iic.c ****         }
 840:libraries/zf_driver/zf_driver_soft_iic.c ****         soft_iic_obj_list[soft_iic_index].scl_pin   = scl_pin;
 4269              		.loc 1 840 42
 4270 00b2 9DF80F20 		ldrb	r2, [sp, #15]	@ zero_extendqisi2
 4271              		.loc 1 840 53
 4272 00b6 2349     		ldr	r1, .L224
 4273 00b8 1346     		mov	r3, r2
 4274 00ba 5B00     		lsls	r3, r3, #1
 4275 00bc 1344     		add	r3, r3, r2
 4276 00be 9B00     		lsls	r3, r3, #2
 4277 00c0 0B44     		add	r3, r3, r1
 4278 00c2 BDF80C20 		ldrh	r2, [sp, #12]	@ movhi
 4279 00c6 1A80     		strh	r2, [r3]	@ movhi
 841:libraries/zf_driver/zf_driver_soft_iic.c ****         soft_iic_obj_list[soft_iic_index].sda_pin   = sda_pin;
 4280              		.loc 1 841 42
 4281 00c8 9DF80F20 		ldrb	r2, [sp, #15]	@ zero_extendqisi2
 4282              		.loc 1 841 53
 4283 00cc 1D49     		ldr	r1, .L224
 4284 00ce 1346     		mov	r3, r2
 4285 00d0 5B00     		lsls	r3, r3, #1
 4286 00d2 1344     		add	r3, r3, r2
 4287 00d4 9B00     		lsls	r3, r3, #2
 4288 00d6 0B44     		add	r3, r3, r1
 4289 00d8 0233     		adds	r3, r3, #2
 4290 00da BDF80620 		ldrh	r2, [sp, #6]	@ movhi
 4291 00de 1A80     		strh	r2, [r3]	@ movhi
 842:libraries/zf_driver/zf_driver_soft_iic.c ****         soft_iic_obj_list[soft_iic_index].delay     = (delay) ? (delay) : (1);  // é˜²æ­¢å…³é—­è°ƒè
 4292              		.loc 1 842 73
 4293 00e0 029B     		ldr	r3, [sp, #8]
 4294 00e2 002B     		cmp	r3, #0
 4295 00e4 01D0     		beq	.L221
 4296              		.loc 1 842 73 is_stmt 0 discriminator 1
 4297 00e6 029A     		ldr	r2, [sp, #8]
 4298 00e8 00E0     		b	.L222
 4299              	.L221:
 4300              		.loc 1 842 73 discriminator 2
 4301 00ea 0122     		movs	r2, #1
 4302              	.L222:
 4303              		.loc 1 842 42 is_stmt 1 discriminator 4
 4304 00ec 9DF80F10 		ldrb	r1, [sp, #15]	@ zero_extendqisi2
 4305              		.loc 1 842 53 discriminator 4
 4306 00f0 1448     		ldr	r0, .L224
 4307 00f2 0B46     		mov	r3, r1
 4308 00f4 5B00     		lsls	r3, r3, #1
 4309 00f6 0B44     		add	r3, r3, r1
 4310 00f8 9B00     		lsls	r3, r3, #2
 4311 00fa 0344     		add	r3, r3, r0
 4312 00fc 0433     		adds	r3, r3, #4
 4313 00fe 1A60     		str	r2, [r3]
 843:libraries/zf_driver/zf_driver_soft_iic.c ****         soft_iic_obj_list[soft_iic_index].enable    = ZF_ENABLE;
 4314              		.loc 1 843 42 discriminator 4
 4315 0100 9DF80F20 		ldrb	r2, [sp, #15]	@ zero_extendqisi2
 4316              		.loc 1 843 53 discriminator 4
 4317 0104 0F49     		ldr	r1, .L224
 4318 0106 1346     		mov	r3, r2
 4319 0108 5B00     		lsls	r3, r3, #1
 4320 010a 1344     		add	r3, r3, r2
 4321 010c 9B00     		lsls	r3, r3, #2
 4322 010e 0B44     		add	r3, r3, r1
 4323 0110 0833     		adds	r3, r3, #8
 4324 0112 0122     		movs	r2, #1
 4325 0114 1A60     		str	r2, [r3]
 844:libraries/zf_driver/zf_driver_soft_iic.c **** 
 845:libraries/zf_driver/zf_driver_soft_iic.c ****         zf_gpio_init(scl_pin, GPO_PUSH_PULL , GPIO_HIGH);                       // åˆå§‹åŒ–å¯¹åº” 
 4326              		.loc 1 845 9 discriminator 4
 4327 0116 BDF80C30 		ldrh	r3, [sp, #12]
 4328 011a 0122     		movs	r2, #1
 4329 011c 1021     		movs	r1, #16
 4330 011e 1846     		mov	r0, r3
 4331 0120 FFF7FEFF 		bl	zf_gpio_init
 846:libraries/zf_driver/zf_driver_soft_iic.c ****         zf_gpio_init(sda_pin, GPO_OPEN_DRAIN, GPIO_HIGH);                       // åˆå§‹åŒ–å¯¹åº” 
 4332              		.loc 1 846 9 discriminator 4
 4333 0124 BDF80630 		ldrh	r3, [sp, #6]
 4334 0128 0122     		movs	r2, #1
 4335 012a 1121     		movs	r1, #17
 4336 012c 1846     		mov	r0, r3
 4337 012e FFF7FEFF 		bl	zf_gpio_init
 847:libraries/zf_driver/zf_driver_soft_iic.c **** 
 848:libraries/zf_driver/zf_driver_soft_iic.c ****         return_state = SOFT_IIC_OPERATION_DONE;
 4338              		.loc 1 848 22 discriminator 4
 4339 0132 0023     		movs	r3, #0
 4340 0134 8DF81730 		strb	r3, [sp, #23]
 4341              	.L217:
 849:libraries/zf_driver/zf_driver_soft_iic.c ****     }while(0);
 850:libraries/zf_driver/zf_driver_soft_iic.c ****     return return_state;
 4342              		.loc 1 850 12
 4343 0138 9DF81730 		ldrb	r3, [sp, #23]	@ zero_extendqisi2
 851:libraries/zf_driver/zf_driver_soft_iic.c **** }
 4344              		.loc 1 851 1
 4345 013c 1846     		mov	r0, r3
 4346 013e 07B0     		add	sp, sp, #28
 4347              		.cfi_def_cfa_offset 4
 4348              		@ sp needed
 4349 0140 5DF804FB 		ldr	pc, [sp], #4
 4350              	.L225:
 4351              		.align	2
 4352              	.L224:
 4353 0144 00000000 		.word	soft_iic_obj_list
 4354 0148 00000000 		.word	.LC0
 4355              		.cfi_endproc
 4356              	.LFE189:
 4358              		.section	.text.VL53_IIC_ReadMultByteFromSlave,"ax",%progbits
 4359              		.align	1
 4360              		.p2align 4,,15
 4361              		.global	VL53_IIC_ReadMultByteFromSlave
 4362              		.syntax unified
 4363              		.thumb
 4364              		.thumb_func
 4366              	VL53_IIC_ReadMultByteFromSlave:
 4367              	.LFB190:
 852:libraries/zf_driver/zf_driver_soft_iic.c **** // <<<<<<<<<<<<<<<<<<<<<<<<<<<<<<<<<<<<<<<<< Part   End <<<<<<<<<<<<<<<<<<<<<<<<<<<<<<<<<<<<<<<<<
 853:libraries/zf_driver/zf_driver_soft_iic.c **** unsigned char VL53_IIC_ReadMultByteFromSlave(unsigned char dev, unsigned char reg, unsigned char le
 854:libraries/zf_driver/zf_driver_soft_iic.c **** {
 4368              		.loc 1 854 1
 4369              		.cfi_startproc
 4370              		@ args = 0, pretend = 0, frame = 16
 4371              		@ frame_needed = 0, uses_anonymous_args = 0
 4372 0000 00B5     		push	{lr}
 4373              		.cfi_def_cfa_offset 4
 4374              		.cfi_offset 14, -4
 4375 0002 85B0     		sub	sp, sp, #20
 4376              		.cfi_def_cfa_offset 24
 4377 0004 0093     		str	r3, [sp]
 4378 0006 0346     		mov	r3, r0
 4379 0008 8DF80730 		strb	r3, [sp, #7]
 4380 000c 0B46     		mov	r3, r1
 4381 000e 8DF80630 		strb	r3, [sp, #6]
 4382 0012 1346     		mov	r3, r2
 4383 0014 8DF80530 		strb	r3, [sp, #5]
 855:libraries/zf_driver/zf_driver_soft_iic.c ****     unsigned char  count = 0;
 4384              		.loc 1 855 20
 4385 0018 0023     		movs	r3, #0
 4386 001a 8DF80F30 		strb	r3, [sp, #15]
 856:libraries/zf_driver/zf_driver_soft_iic.c ****     unsigned char  temp;
 857:libraries/zf_driver/zf_driver_soft_iic.c ****     zf_soft_iic_start(SOFT_IIC_1);
 4387              		.loc 1 857 5
 4388 001e 0020     		movs	r0, #0
 4389 0020 FFF7FEFF 		bl	zf_soft_iic_start
 858:libraries/zf_driver/zf_driver_soft_iic.c ****     zf_soft_iic_send_data(SOFT_IIC_1,dev); //å‘é€ä»æœºåœ°å€
 4390              		.loc 1 858 5
 4391 0024 9DF80730 		ldrb	r3, [sp, #7]	@ zero_extendqisi2
 4392 0028 1946     		mov	r1, r3
 4393 002a 0020     		movs	r0, #0
 4394 002c FFF7FEFF 		bl	zf_soft_iic_send_data
 859:libraries/zf_driver/zf_driver_soft_iic.c ****     if(zf_soft_iic_wait_ack(SOFT_IIC_1))
 4395              		.loc 1 859 8
 4396 0030 0020     		movs	r0, #0
 4397 0032 FFF7FEFF 		bl	zf_soft_iic_wait_ack
 4398 0036 0346     		mov	r3, r0
 4399              		.loc 1 859 7
 4400 0038 002B     		cmp	r3, #0
