   1              		.cpu cortex-m7
   2              		.arch armv7e-m
   3              		.fpu fpv5-d16
   4              		.eabi_attribute 28, 1
   5              		.eabi_attribute 20, 1
   6              		.eabi_attribute 21, 1
   7              		.eabi_attribute 23, 3
   8              		.eabi_attribute 24, 1
   9              		.eabi_attribute 25, 1
  10              		.eabi_attribute 26, 1
  11              		.eabi_attribute 30, 6
  12              		.eabi_attribute 34, 1
  13              		.eabi_attribute 18, 4
  14              		.file	"zf_driver_rcc.c"
  15              		.text
  16              	.Ltext0:
  17              		.cfi_sections	.debug_frame
  18              		.global	rcc_reset_register
  19              		.section	.rodata.rcc_reset_register,"a"
  20              		.align	2
  23              	rcc_reset_register:
  24 0000 50000044 		.word	1140850768
  25 0004 54000044 		.word	1140850772
  26 0008 58000044 		.word	1140850776
  27 000c 5C000044 		.word	1140850780
  28 0010 60000044 		.word	1140850784
  29 0014 68000044 		.word	1140850792
  30 0018 6C000044 		.word	1140850796
  31              		.global	rcc_enable_register
  32              		.section	.rodata.rcc_enable_register,"a"
  33              		.align	2
  36              	rcc_enable_register:
  37 0000 70000044 		.word	1140850800
  38 0004 74000044 		.word	1140850804
  39 0008 78000044 		.word	1140850808
  40 000c 7C000044 		.word	1140850812
  41 0010 80000044 		.word	1140850816
  42 0014 88000044 		.word	1140850824
  43 0018 8C000044 		.word	1140850828
  44              		.section	.text.zf_rcc_peripheral_reset,"ax",%progbits
  45              		.align	1
  46              		.p2align 4,,15
  47              		.global	zf_rcc_peripheral_reset
  48              		.syntax unified
  49              		.thumb
  50              		.thumb_func
  52              	zf_rcc_peripheral_reset:
  53              	.LFB149:
  54              		.file 1 "libraries/zf_driver/zf_driver_rcc.c"
   1:libraries/zf_driver/zf_driver_rcc.c **** /**************************************************************************************************
   2:libraries/zf_driver/zf_driver_rcc.c **** * Stellar-SR5E1E3 Opensource Library å³ï¼ˆStellar-SR5E1E3 å¼€æºåº“ï¼‰æ˜¯ä¸€ä¸ªåŸºäºå®˜æ–¹ SDK æ
   3:libraries/zf_driver/zf_driver_rcc.c **** * Copyright (c) 2022 SEEKFREE é€é£ç§‘æŠ€
   4:libraries/zf_driver/zf_driver_rcc.c **** *
   5:libraries/zf_driver/zf_driver_rcc.c **** * æœ¬æ–‡ä»¶æ˜¯ Stellar-SR5E1E3 å¼€æºåº“çš„ä¸€éƒ¨åˆ†
   6:libraries/zf_driver/zf_driver_rcc.c **** *
   7:libraries/zf_driver/zf_driver_rcc.c **** * Stellar-SR5E1E3 å¼€æºåº“ æ˜¯å…è´¹è½¯ä»¶
   8:libraries/zf_driver/zf_driver_rcc.c **** * æ‚¨å¯ä»¥æ ¹æ®è‡ªç”±è½¯ä»¶åŸºé‡‘ä¼šå‘å¸ƒçš„ GPLï¼ˆGNU General Public Licenseï¼Œå³ GNUé€šç”¨å…¬
   9:libraries/zf_driver/zf_driver_rcc.c **** * å³ GPL çš„ç¬¬3ç‰ˆï¼ˆå³ GPL3.0ï¼‰æˆ–ï¼ˆæ‚¨é€‰æ‹©çš„ï¼‰ä»»ä½•åæ¥çš„ç‰ˆæœ¬ï¼Œé‡æ–°å‘å¸ƒå’Œ/æˆ
  10:libraries/zf_driver/zf_driver_rcc.c **** *
  11:libraries/zf_driver/zf_driver_rcc.c **** * æœ¬å¼€æºåº“çš„å‘å¸ƒæ˜¯å¸Œæœ›å®ƒèƒ½å‘æŒ¥ä½œç”¨ï¼Œä½†å¹¶æœªå¯¹å…¶ä½œä»»ä½•çš„ä¿è¯
  12:libraries/zf_driver/zf_driver_rcc.c **** * ç”šè‡³æ²¡æœ‰éšå«çš„é€‚é”€æ€§æˆ–é€‚åˆç‰¹å®šç”¨é€”çš„ä¿è¯
  13:libraries/zf_driver/zf_driver_rcc.c **** * æ›´å¤šç»†èŠ‚è¯·å‚è§ GPL
  14:libraries/zf_driver/zf_driver_rcc.c **** *
  15:libraries/zf_driver/zf_driver_rcc.c **** * æ‚¨åº”è¯¥åœ¨æ”¶åˆ°æœ¬å¼€æºåº“çš„åŒæ—¶æ”¶åˆ°ä¸€ä»½ GPL çš„å‰¯æœ¬
  16:libraries/zf_driver/zf_driver_rcc.c **** * å¦‚æœæ²¡æœ‰ï¼Œè¯·å‚é˜…<https://www.gnu.org/licenses/>
  17:libraries/zf_driver/zf_driver_rcc.c **** *
  18:libraries/zf_driver/zf_driver_rcc.c **** * é¢å¤–æ³¨æ˜ï¼š
  19:libraries/zf_driver/zf_driver_rcc.c **** * æœ¬å¼€æºåº“ä½¿ç”¨ GPL3.0 å¼€æºè®¸å¯è¯åè®® ä»¥ä¸Šè®¸å¯ç”³æ˜ä¸ºè¯‘æ–‡ç‰ˆæœ¬
  20:libraries/zf_driver/zf_driver_rcc.c **** * è®¸å¯ç”³æ˜è‹±æ–‡ç‰ˆåœ¨ libraries/doc æ–‡ä»¶å¤¹ä¸‹çš„ GPL3_permission_statement.txt æ–‡ä»¶ä¸­
  21:libraries/zf_driver/zf_driver_rcc.c **** * è®¸å¯è¯å‰¯æœ¬åœ¨ libraries æ–‡ä»¶å¤¹ä¸‹ å³è¯¥æ–‡ä»¶å¤¹ä¸‹çš„ LICENSE æ–‡ä»¶
  22:libraries/zf_driver/zf_driver_rcc.c **** * æ¬¢è¿å„ä½ä½¿ç”¨å¹¶ä¼ æ’­æœ¬ç¨‹åº ä½†ä¿®æ”¹å†…å®¹æ—¶å¿…é¡»ä¿ç•™é€é£ç§‘æŠ€çš„ç‰ˆæƒå£°æ˜ï¼ˆ
  23:libraries/zf_driver/zf_driver_rcc.c **** *
  24:libraries/zf_driver/zf_driver_rcc.c **** * æ–‡ä»¶åç§°          zf_driver_rcc
  25:libraries/zf_driver/zf_driver_rcc.c **** * å…¬å¸åç§°          æˆéƒ½é€é£ç§‘æŠ€æœ‰é™å…¬å¸
  26:libraries/zf_driver/zf_driver_rcc.c **** * ç‰ˆæœ¬ä¿¡æ¯          æŸ¥çœ‹ libraries/doc æ–‡ä»¶å¤¹å†… version æ–‡ä»¶ ç‰ˆæœ¬è¯´æ˜
  27:libraries/zf_driver/zf_driver_rcc.c **** * å¼€å‘ç¯å¢ƒ          StellarStudio 7.0.0
  28:libraries/zf_driver/zf_driver_rcc.c **** * é€‚ç”¨å¹³å°          Stellar-SR5E1E3
  29:libraries/zf_driver/zf_driver_rcc.c **** * åº—é“ºé“¾æ¥          https://www.seekfree.cn/
  30:libraries/zf_driver/zf_driver_rcc.c **** ***************************************************************************************************
  31:libraries/zf_driver/zf_driver_rcc.c **** 
  32:libraries/zf_driver/zf_driver_rcc.c **** // è‡ªèº«å¤´æ–‡ä»¶
  33:libraries/zf_driver/zf_driver_rcc.c **** #include "zf_driver_rcc.h"
  34:libraries/zf_driver/zf_driver_rcc.c **** 
  35:libraries/zf_driver/zf_driver_rcc.c **** // æ­¤å¤„å®šä¹‰ æœ¬æ–‡ä»¶ç”¨ä½¿ç”¨çš„æ¨¡å—ç®¡ç†æ•°æ® è¿™é‡Œä¸å…è®¸ç”¨æˆ·ä¿®æ”¹ è¿™é‡Œä¸å…è®¸
  36:libraries/zf_driver/zf_driver_rcc.c **** // >>>>>>>>>>>>>>>>>>>>>>>>>>>>>>>>>>>>>>>>> Part Start >>>>>>>>>>>>>>>>>>>>>>>>>>>>>>>>>>>>>>>>>
  37:libraries/zf_driver/zf_driver_rcc.c **** __IO uint32* const rcc_reset_register [] = RCC_RESET_REGISTER_LIST ;
  38:libraries/zf_driver/zf_driver_rcc.c **** __IO uint32* const rcc_enable_register[] = RCC_ENABLE_REGISTER_LIST;
  39:libraries/zf_driver/zf_driver_rcc.c **** // <<<<<<<<<<<<<<<<<<<<<<<<<<<<<<<<<<<<<<<<< Part   End <<<<<<<<<<<<<<<<<<<<<<<<<<<<<<<<<<<<<<<<<
  40:libraries/zf_driver/zf_driver_rcc.c **** 
  41:libraries/zf_driver/zf_driver_rcc.c **** // æ­¤å¤„å®šä¹‰ æœ¬æ–‡ä»¶çš„æ‰€æœ‰å‡½æ•°å…·ä½“å®šä¹‰ è¿™é‡Œä¸å…è®¸ç”¨æˆ·ä¿®æ”¹
  42:libraries/zf_driver/zf_driver_rcc.c **** // >>>>>>>>>>>>>>>>>>>>>>>>>>>>>>>>>>>>>>>>> Part Start >>>>>>>>>>>>>>>>>>>>>>>>>>>>>>>>>>>>>>>>>
  43:libraries/zf_driver/zf_driver_rcc.c **** //-------------------------------------------------------------------------------------------------
  44:libraries/zf_driver/zf_driver_rcc.c **** // å‡½æ•°ç®€ä»‹     å¤–è®¾æ¨¡å—å¤ä½
  45:libraries/zf_driver/zf_driver_rcc.c **** // å‚æ•°è¯´æ˜     rcc_index           å¤–è®¾æ—¶é’Ÿç´¢å¼•    (è¯¦è§ zf_driver_rcc.h å†… zf_rcc_in
  46:libraries/zf_driver/zf_driver_rcc.c **** // è¿”å›å‚æ•°     void
  47:libraries/zf_driver/zf_driver_rcc.c **** // ä½¿ç”¨ç¤ºä¾‹     zf_rcc_peripheral_reset(rcc_index);
  48:libraries/zf_driver/zf_driver_rcc.c **** //-------------------------------------------------------------------------------------------------
  49:libraries/zf_driver/zf_driver_rcc.c **** void zf_rcc_peripheral_reset (zf_rcc_index_enum rcc_index)
  50:libraries/zf_driver/zf_driver_rcc.c **** {
  55              		.loc 1 50 1
  56              		.cfi_startproc
  57              		@ args = 0, pretend = 0, frame = 8
  58              		@ frame_needed = 0, uses_anonymous_args = 0
  59              		@ link register save eliminated.
  60 0000 82B0     		sub	sp, sp, #8
  61              		.cfi_def_cfa_offset 8
  62 0002 0346     		mov	r3, r0
  63 0004 ADF80630 		strh	r3, [sp, #6]	@ movhi
  51:libraries/zf_driver/zf_driver_rcc.c ****     *rcc_reset_register[rcc_index & RCC_BUS_INDEX_MASK] |= (0x00000001 << ((rcc_index >> RCC_PERIPH
  64              		.loc 1 51 35
  65 0008 BDF80630 		ldrh	r3, [sp, #6]
  66 000c 03F00F03 		and	r3, r3, #15
  67              		.loc 1 51 24
  68 0010 1A4A     		ldr	r2, .L2
  69 0012 52F82330 		ldr	r3, [r2, r3, lsl #2]
  70              		.loc 1 51 57
  71 0016 1A68     		ldr	r2, [r3]
  72              		.loc 1 51 119
  73 0018 BDF80630 		ldrh	r3, [sp, #6]
  74 001c 1B09     		lsrs	r3, r3, #4
  75 001e 9BB2     		uxth	r3, r3
  76 0020 03F01F03 		and	r3, r3, #31
  77              		.loc 1 51 72
  78 0024 0121     		movs	r1, #1
  79 0026 01FA03F3 		lsl	r3, r1, r3
  80 002a 1846     		mov	r0, r3
  81              		.loc 1 51 35
  82 002c BDF80630 		ldrh	r3, [sp, #6]
  83 0030 03F00F03 		and	r3, r3, #15
  84              		.loc 1 51 24
  85 0034 1149     		ldr	r1, .L2
  86 0036 51F82330 		ldr	r3, [r1, r3, lsl #2]
  87              		.loc 1 51 57
  88 003a 0243     		orrs	r2, r2, r0
  89 003c 1A60     		str	r2, [r3]
  52:libraries/zf_driver/zf_driver_rcc.c ****     *rcc_reset_register[rcc_index & RCC_BUS_INDEX_MASK] &= ~(0x00000001 << ((rcc_index >> RCC_PERIP
  90              		.loc 1 52 35
  91 003e BDF80630 		ldrh	r3, [sp, #6]
  92 0042 03F00F03 		and	r3, r3, #15
  93              		.loc 1 52 24
  94 0046 0D4A     		ldr	r2, .L2
  95 0048 52F82330 		ldr	r3, [r2, r3, lsl #2]
  96              		.loc 1 52 57
  97 004c 1A68     		ldr	r2, [r3]
  98              		.loc 1 52 120
  99 004e BDF80630 		ldrh	r3, [sp, #6]
 100 0052 1B09     		lsrs	r3, r3, #4
 101 0054 9BB2     		uxth	r3, r3
 102 0056 03F01F03 		and	r3, r3, #31
 103              		.loc 1 52 73
 104 005a 0121     		movs	r1, #1
 105 005c 01FA03F3 		lsl	r3, r1, r3
 106              		.loc 1 52 60
 107 0060 DB43     		mvns	r3, r3
 108 0062 1846     		mov	r0, r3
 109              		.loc 1 52 35
 110 0064 BDF80630 		ldrh	r3, [sp, #6]
 111 0068 03F00F03 		and	r3, r3, #15
 112              		.loc 1 52 24
 113 006c 0349     		ldr	r1, .L2
 114 006e 51F82330 		ldr	r3, [r1, r3, lsl #2]
 115              		.loc 1 52 57
 116 0072 0240     		ands	r2, r2, r0
 117 0074 1A60     		str	r2, [r3]
  53:libraries/zf_driver/zf_driver_rcc.c **** }
 118              		.loc 1 53 1
 119 0076 00BF     		nop
 120 0078 02B0     		add	sp, sp, #8
 121              		.cfi_def_cfa_offset 0
 122              		@ sp needed
 123 007a 7047     		bx	lr
 124              	.L3:
 125              		.align	2
 126              	.L2:
 127 007c 00000000 		.word	rcc_reset_register
 128              		.cfi_endproc
 129              	.LFE149:
 131              		.section	.text.zf_rcc_clock_check,"ax",%progbits
 132              		.align	1
 133              		.p2align 4,,15
 134              		.global	zf_rcc_clock_check
 135              		.syntax unified
 136              		.thumb
 137              		.thumb_func
 139              	zf_rcc_clock_check:
 140              	.LFB150:
  54:libraries/zf_driver/zf_driver_rcc.c **** 
  55:libraries/zf_driver/zf_driver_rcc.c **** //-------------------------------------------------------------------------------------------------
  56:libraries/zf_driver/zf_driver_rcc.c **** // å‡½æ•°ç®€ä»‹     å¤–è®¾æ—¶é’ŸçŠ¶æ€æ£€æŸ¥
  57:libraries/zf_driver/zf_driver_rcc.c **** // å‚æ•°è¯´æ˜     rcc_index           å¤–è®¾æ—¶é’Ÿç´¢å¼•    (è¯¦è§ zf_driver_rcc.h å†… zf_rcc_in
  58:libraries/zf_driver/zf_driver_rcc.c **** // è¿”å›å‚æ•°     uint8               å¤–è®¾æ—¶é’ŸçŠ¶æ€
  59:libraries/zf_driver/zf_driver_rcc.c **** // ä½¿ç”¨ç¤ºä¾‹     zf_rcc_clock_check(rcc_index);
  60:libraries/zf_driver/zf_driver_rcc.c **** //-------------------------------------------------------------------------------------------------
  61:libraries/zf_driver/zf_driver_rcc.c **** uint8 zf_rcc_clock_check (zf_rcc_index_enum rcc_index)
  62:libraries/zf_driver/zf_driver_rcc.c **** {
 141              		.loc 1 62 1
 142              		.cfi_startproc
 143              		@ args = 0, pretend = 0, frame = 8
 144              		@ frame_needed = 0, uses_anonymous_args = 0
 145              		@ link register save eliminated.
 146 0000 82B0     		sub	sp, sp, #8
 147              		.cfi_def_cfa_offset 8
 148 0002 0346     		mov	r3, r0
 149 0004 ADF80630 		strh	r3, [sp, #6]	@ movhi
  63:libraries/zf_driver/zf_driver_rcc.c ****     return (*rcc_enable_register[rcc_index & RCC_BUS_INDEX_MASK] & (0x00000001 << ((rcc_index >> RC
 150              		.loc 1 63 44
 151 0008 BDF80630 		ldrh	r3, [sp, #6]
 152 000c 03F00F03 		and	r3, r3, #15
 153              		.loc 1 63 33
 154 0010 0A4A     		ldr	r2, .L6
 155 0012 52F82330 		ldr	r3, [r2, r3, lsl #2]
 156              		.loc 1 63 13
 157 0016 1B68     		ldr	r3, [r3]
 158              		.loc 1 63 127
 159 0018 BDF80620 		ldrh	r2, [sp, #6]
 160 001c 1209     		lsrs	r2, r2, #4
 161 001e 92B2     		uxth	r2, r2
 162 0020 02F01F02 		and	r2, r2, #31
 163              		.loc 1 63 80
 164 0024 0121     		movs	r1, #1
 165 0026 01FA02F2 		lsl	r2, r1, r2
 166              		.loc 1 63 66
 167 002a 1340     		ands	r3, r3, r2
 168              		.loc 1 63 164
 169 002c 002B     		cmp	r3, #0
 170 002e 14BF     		ite	ne
 171 0030 0123     		movne	r3, #1
 172 0032 0023     		moveq	r3, #0
 173 0034 DBB2     		uxtb	r3, r3
  64:libraries/zf_driver/zf_driver_rcc.c **** }
 174              		.loc 1 64 1
 175 0036 1846     		mov	r0, r3
 176 0038 02B0     		add	sp, sp, #8
 177              		.cfi_def_cfa_offset 0
 178              		@ sp needed
 179 003a 7047     		bx	lr
 180              	.L7:
 181              		.align	2
 182              	.L6:
 183 003c 00000000 		.word	rcc_enable_register
 184              		.cfi_endproc
 185              	.LFE150:
 187              		.section	.text.zf_rcc_clock_disable,"ax",%progbits
 188              		.align	1
 189              		.p2align 4,,15
 190              		.global	zf_rcc_clock_disable
 191              		.syntax unified
 192              		.thumb
 193              		.thumb_func
 195              	zf_rcc_clock_disable:
 196              	.LFB151:
  65:libraries/zf_driver/zf_driver_rcc.c **** 
  66:libraries/zf_driver/zf_driver_rcc.c **** //-------------------------------------------------------------------------------------------------
  67:libraries/zf_driver/zf_driver_rcc.c **** // å‡½æ•°ç®€ä»‹     å¤–è®¾æ—¶é’Ÿç¦æ­¢
  68:libraries/zf_driver/zf_driver_rcc.c **** // å‚æ•°è¯´æ˜     rcc_index           å¤–è®¾æ—¶é’Ÿç´¢å¼•    (è¯¦è§ zf_driver_rcc.h å†… zf_rcc_in
  69:libraries/zf_driver/zf_driver_rcc.c **** // è¿”å›å‚æ•°     void
  70:libraries/zf_driver/zf_driver_rcc.c **** // ä½¿ç”¨ç¤ºä¾‹     zf_rcc_clock_disable(rcc_index);
  71:libraries/zf_driver/zf_driver_rcc.c **** //-------------------------------------------------------------------------------------------------
  72:libraries/zf_driver/zf_driver_rcc.c **** void zf_rcc_clock_disable (zf_rcc_index_enum rcc_index)
  73:libraries/zf_driver/zf_driver_rcc.c **** {
 197              		.loc 1 73 1
 198              		.cfi_startproc
 199              		@ args = 0, pretend = 0, frame = 8
 200              		@ frame_needed = 0, uses_anonymous_args = 0
 201              		@ link register save eliminated.
 202 0000 82B0     		sub	sp, sp, #8
 203              		.cfi_def_cfa_offset 8
 204 0002 0346     		mov	r3, r0
 205 0004 ADF80630 		strh	r3, [sp, #6]	@ movhi
  74:libraries/zf_driver/zf_driver_rcc.c ****     *rcc_enable_register[rcc_index & RCC_BUS_INDEX_MASK] &= ~(0x00000001 << ((rcc_index >> RCC_PERI
 206              		.loc 1 74 36
 207 0008 BDF80630 		ldrh	r3, [sp, #6]
 208 000c 03F00F03 		and	r3, r3, #15
 209              		.loc 1 74 25
 210 0010 0D4A     		ldr	r2, .L9
 211 0012 52F82330 		ldr	r3, [r2, r3, lsl #2]
 212              		.loc 1 74 58
 213 0016 1A68     		ldr	r2, [r3]
 214              		.loc 1 74 121
 215 0018 BDF80630 		ldrh	r3, [sp, #6]
 216 001c 1B09     		lsrs	r3, r3, #4
 217 001e 9BB2     		uxth	r3, r3
 218 0020 03F01F03 		and	r3, r3, #31
 219              		.loc 1 74 74
 220 0024 0121     		movs	r1, #1
 221 0026 01FA03F3 		lsl	r3, r1, r3
 222              		.loc 1 74 61
 223 002a DB43     		mvns	r3, r3
 224 002c 1846     		mov	r0, r3
 225              		.loc 1 74 36
 226 002e BDF80630 		ldrh	r3, [sp, #6]
 227 0032 03F00F03 		and	r3, r3, #15
 228              		.loc 1 74 25
 229 0036 0449     		ldr	r1, .L9
 230 0038 51F82330 		ldr	r3, [r1, r3, lsl #2]
 231              		.loc 1 74 58
 232 003c 0240     		ands	r2, r2, r0
 233 003e 1A60     		str	r2, [r3]
  75:libraries/zf_driver/zf_driver_rcc.c **** }
 234              		.loc 1 75 1
 235 0040 00BF     		nop
 236 0042 02B0     		add	sp, sp, #8
 237              		.cfi_def_cfa_offset 0
 238              		@ sp needed
 239 0044 7047     		bx	lr
 240              	.L10:
 241 0046 00BF     		.align	2
 242              	.L9:
 243 0048 00000000 		.word	rcc_enable_register
 244              		.cfi_endproc
 245              	.LFE151:
 247              		.section	.text.zf_rcc_clock_enable,"ax",%progbits
 248              		.align	1
 249              		.p2align 4,,15
 250              		.global	zf_rcc_clock_enable
 251              		.syntax unified
 252              		.thumb
 253              		.thumb_func
 255              	zf_rcc_clock_enable:
 256              	.LFB152:
  76:libraries/zf_driver/zf_driver_rcc.c **** 
  77:libraries/zf_driver/zf_driver_rcc.c **** //-------------------------------------------------------------------------------------------------
  78:libraries/zf_driver/zf_driver_rcc.c **** // å‡½æ•°ç®€ä»‹     å¤–è®¾æ—¶é’Ÿä½¿èƒ½
  79:libraries/zf_driver/zf_driver_rcc.c **** // å‚æ•°è¯´æ˜     rcc_index           å¤–è®¾æ—¶é’Ÿç´¢å¼•    (è¯¦è§ zf_driver_rcc.h å†… zf_rcc_in
  80:libraries/zf_driver/zf_driver_rcc.c **** // è¿”å›å‚æ•°     void
  81:libraries/zf_driver/zf_driver_rcc.c **** // ä½¿ç”¨ç¤ºä¾‹     zf_rcc_clock_enable(rcc_index);
  82:libraries/zf_driver/zf_driver_rcc.c **** //-------------------------------------------------------------------------------------------------
  83:libraries/zf_driver/zf_driver_rcc.c **** void zf_rcc_clock_enable (zf_rcc_index_enum rcc_index)
  84:libraries/zf_driver/zf_driver_rcc.c **** {
 257              		.loc 1 84 1
 258              		.cfi_startproc
 259              		@ args = 0, pretend = 0, frame = 8
 260              		@ frame_needed = 0, uses_anonymous_args = 0
 261              		@ link register save eliminated.
 262 0000 82B0     		sub	sp, sp, #8
 263              		.cfi_def_cfa_offset 8
 264 0002 0346     		mov	r3, r0
 265 0004 ADF80630 		strh	r3, [sp, #6]	@ movhi
  85:libraries/zf_driver/zf_driver_rcc.c ****     *rcc_enable_register[rcc_index & RCC_BUS_INDEX_MASK] |= (0x00000001 << ((rcc_index >> RCC_PERIP
 266              		.loc 1 85 36
 267 0008 BDF80630 		ldrh	r3, [sp, #6]
 268 000c 03F00F03 		and	r3, r3, #15
 269              		.loc 1 85 25
 270 0010 0C4A     		ldr	r2, .L12
 271 0012 52F82330 		ldr	r3, [r2, r3, lsl #2]
 272              		.loc 1 85 58
 273 0016 1A68     		ldr	r2, [r3]
 274              		.loc 1 85 120
 275 0018 BDF80630 		ldrh	r3, [sp, #6]
 276 001c 1B09     		lsrs	r3, r3, #4
 277 001e 9BB2     		uxth	r3, r3
 278 0020 03F01F03 		and	r3, r3, #31
 279              		.loc 1 85 73
 280 0024 0121     		movs	r1, #1
 281 0026 01FA03F3 		lsl	r3, r1, r3
 282 002a 1846     		mov	r0, r3
 283              		.loc 1 85 36
 284 002c BDF80630 		ldrh	r3, [sp, #6]
 285 0030 03F00F03 		and	r3, r3, #15
 286              		.loc 1 85 25
 287 0034 0349     		ldr	r1, .L12
 288 0036 51F82330 		ldr	r3, [r1, r3, lsl #2]
 289              		.loc 1 85 58
 290 003a 0243     		orrs	r2, r2, r0
 291 003c 1A60     		str	r2, [r3]
  86:libraries/zf_driver/zf_driver_rcc.c **** }
 292              		.loc 1 86 1
 293 003e 00BF     		nop
 294 0040 02B0     		add	sp, sp, #8
 295              		.cfi_def_cfa_offset 0
 296              		@ sp needed
 297 0042 7047     		bx	lr
 298              	.L13:
 299              		.align	2
 300              	.L12:
 301 0044 00000000 		.word	rcc_enable_register
 302              		.cfi_endproc
 303              	.LFE152:
 305              		.text
 306              	.Letext0:
 307              		.file 2 "c:\\stellarstudio-7.0\\sdks\\tools-1.4.0\\toolchain\\arm\\mingw64_nt\\10.3-2021.10\\arm-n
 308              		.file 3 "c:\\stellarstudio-7.0\\sdks\\tools-1.4.0\\toolchain\\arm\\mingw64_nt\\10.3-2021.10\\arm-n
 309              		.file 4 "C:/StellarStudio-7.0/SDKS/StellarESDK-1.7.0/Modules/Platform/MCU/include/sr5e1/SR5E1_RCC.
 310              		.file 5 "libraries/zf_common/zf_common_typedef.h"
 311              		.file 6 "libraries/zf_driver/zf_driver_rcc.h"