   1              		.cpu cortex-m7
   2              		.arch armv7e-m
   3              		.fpu fpv5-d16
   4              		.eabi_attribute 28, 1
   5              		.eabi_attribute 20, 1
   6              		.eabi_attribute 21, 1
   7              		.eabi_attribute 23, 3
   8              		.eabi_attribute 24, 1
   9              		.eabi_attribute 25, 1
  10              		.eabi_attribute 26, 1
  11              		.eabi_attribute 30, 6
  12              		.eabi_attribute 34, 1
  13              		.eabi_attribute 18, 4
  14              		.file	"zf_driver_pit.c"
  15              		.text
  16              	.Ltext0:
  17              		.cfi_sections	.debug_frame
  18              		.section	.rodata.pit_irq_index_list,"a"
  19              		.align	2
  22              	pit_irq_index_list:
  23 0000 19       		.byte	25
  24 0001 2C       		.byte	44
  25 0002 1C       		.byte	28
  26 0003 2F       		.byte	47
  27 0004 1D       		.byte	29
  28 0005 1E       		.byte	30
  29 0006 13       		.byte	19
  30 0007 14       		.byte	20
  31 0008 30       		.byte	48
  32 0009 31       		.byte	49
  33              		.global	pit_obj_list
  34              		.section	.data.pit_obj_list,"aw"
  35              		.align	2
  38              	pit_obj_list:
  39 0000 00000000 		.word	timer_obj_list
  40 0004 00000000 		.word	0
  41 0008 14000000 		.word	timer_obj_list+20
  42 000c 00000000 		.word	0
  43 0010 28000000 		.word	timer_obj_list+40
  44 0014 00000000 		.word	0
  45 0018 3C000000 		.word	timer_obj_list+60
  46 001c 00000000 		.word	0
  47 0020 50000000 		.word	timer_obj_list+80
  48 0024 00000000 		.word	0
  49 0028 64000000 		.word	timer_obj_list+100
  50 002c 00000000 		.word	0
  51 0030 78000000 		.word	timer_obj_list+120
  52 0034 00000000 		.word	0
  53 0038 8C000000 		.word	timer_obj_list+140
  54 003c 00000000 		.word	0
  55 0040 A0000000 		.word	timer_obj_list+160
  56 0044 00000000 		.word	0
  57 0048 B4000000 		.word	timer_obj_list+180
  58 004c 00000000 		.word	0
  59              		.global	timer_pit_callback
  60              		.section	.data.timer_pit_callback,"aw"
  61              		.align	2
  64              	timer_pit_callback:
  65 0000 00000000 		.word	zf_pit_callbakc_defalut
  66 0004 00000000 		.word	0
  67 0008 00000000 		.word	zf_pit_callbakc_defalut
  68 000c 00000000 		.word	0
  69 0010 00000000 		.word	zf_pit_callbakc_defalut
  70 0014 00000000 		.word	0
  71 0018 00000000 		.word	zf_pit_callbakc_defalut
  72 001c 00000000 		.word	0
  73 0020 00000000 		.word	zf_pit_callbakc_defalut
  74 0024 00000000 		.word	0
  75 0028 00000000 		.word	zf_pit_callbakc_defalut
  76 002c 00000000 		.word	0
  77 0030 00000000 		.word	zf_pit_callbakc_defalut
  78 0034 00000000 		.word	0
  79 0038 00000000 		.word	zf_pit_callbakc_defalut
  80 003c 00000000 		.word	0
  81 0040 00000000 		.word	zf_pit_callbakc_defalut
  82 0044 00000000 		.word	0
  83 0048 00000000 		.word	zf_pit_callbakc_defalut
  84 004c 00000000 		.word	0
  85              		.section	.text.VectorA4,"ax",%progbits
  86              		.align	1
  87              		.p2align 4,,15
  88              		.global	VectorA4
  89              		.syntax unified
  90              		.thumb
  91              		.thumb_func
  93              	VectorA4:
  94              	.LFB459:
  95              		.file 1 "libraries/zf_driver/zf_driver_pit.c"
   1:libraries/zf_driver/zf_driver_pit.c **** /**************************************************************************************************
   2:libraries/zf_driver/zf_driver_pit.c **** * Stellar-SR5E1E3 Opensource Library Âç≥ÔºàStellar-SR5E1E3 ÂºÄÊ∫êÂ∫ìÔºâÊòØ‰∏Ä‰∏™Âü∫‰∫éÂÆòÊñπ SDK Êé
   3:libraries/zf_driver/zf_driver_pit.c **** * Copyright (c) 2022 SEEKFREE ÈÄêÈ£ûÁßëÊäÄ
   4:libraries/zf_driver/zf_driver_pit.c **** *
   5:libraries/zf_driver/zf_driver_pit.c **** * Êú¨Êñá‰ª∂ÊòØ Stellar-SR5E1E3 ÂºÄÊ∫êÂ∫ìÁöÑ‰∏ÄÈÉ®ÂàÜ
   6:libraries/zf_driver/zf_driver_pit.c **** *
   7:libraries/zf_driver/zf_driver_pit.c **** * Stellar-SR5E1E3 ÂºÄÊ∫êÂ∫ì ÊòØÂÖçË¥πËΩØ‰ª∂
   8:libraries/zf_driver/zf_driver_pit.c **** * ÊÇ®ÂèØ‰ª•Ê†πÊçÆËá™Áî±ËΩØ‰ª∂Âü∫Èáë‰ºöÂèëÂ∏ÉÁöÑ GPLÔºàGNU General Public LicenseÔºåÂç≥ GNUÈÄöÁî®ÂÖ¨
   9:libraries/zf_driver/zf_driver_pit.c **** * Âç≥ GPL ÁöÑÁ¨¨3ÁâàÔºàÂç≥ GPL3.0ÔºâÊàñÔºàÊÇ®ÈÄâÊã©ÁöÑÔºâ‰ªª‰ΩïÂêéÊù•ÁöÑÁâàÊú¨ÔºåÈáçÊñ∞ÂèëÂ∏ÉÂíå/Êà
  10:libraries/zf_driver/zf_driver_pit.c **** *
  11:libraries/zf_driver/zf_driver_pit.c **** * Êú¨ÂºÄÊ∫êÂ∫ìÁöÑÂèëÂ∏ÉÊòØÂ∏åÊúõÂÆÉËÉΩÂèëÊå•‰ΩúÁî®Ôºå‰ΩÜÂπ∂Êú™ÂØπÂÖ∂‰Ωú‰ªª‰ΩïÁöÑ‰øùËØÅ
  12:libraries/zf_driver/zf_driver_pit.c **** * ÁîöËá≥Ê≤°ÊúâÈöêÂê´ÁöÑÈÄÇÈîÄÊÄßÊàñÈÄÇÂêàÁâπÂÆöÁî®ÈÄîÁöÑ‰øùËØÅ
  13:libraries/zf_driver/zf_driver_pit.c **** * Êõ¥Â§öÁªÜËäÇËØ∑ÂèÇËßÅ GPL
  14:libraries/zf_driver/zf_driver_pit.c **** *
  15:libraries/zf_driver/zf_driver_pit.c **** * ÊÇ®Â∫îËØ•Âú®Êî∂Âà∞Êú¨ÂºÄÊ∫êÂ∫ìÁöÑÂêåÊó∂Êî∂Âà∞‰∏Ä‰ªΩ GPL ÁöÑÂâØÊú¨
  16:libraries/zf_driver/zf_driver_pit.c **** * Â¶ÇÊûúÊ≤°ÊúâÔºåËØ∑ÂèÇÈòÖ<https://www.gnu.org/licenses/>
  17:libraries/zf_driver/zf_driver_pit.c **** *
  18:libraries/zf_driver/zf_driver_pit.c **** * È¢ùÂ§ñÊ≥®ÊòéÔºö
  19:libraries/zf_driver/zf_driver_pit.c **** * Êú¨ÂºÄÊ∫êÂ∫ì‰ΩøÁî® GPL3.0 ÂºÄÊ∫êËÆ∏ÂèØËØÅÂçèËÆÆ ‰ª•‰∏äËÆ∏ÂèØÁî≥Êòé‰∏∫ËØëÊñáÁâàÊú¨
  20:libraries/zf_driver/zf_driver_pit.c **** * ËÆ∏ÂèØÁî≥ÊòéËã±ÊñáÁâàÂú® libraries/doc Êñá‰ª∂Â§π‰∏ãÁöÑ GPL3_permission_statement.txt Êñá‰ª∂‰∏≠
  21:libraries/zf_driver/zf_driver_pit.c **** * ËÆ∏ÂèØËØÅÂâØÊú¨Âú® libraries Êñá‰ª∂Â§π‰∏ã Âç≥ËØ•Êñá‰ª∂Â§π‰∏ãÁöÑ LICENSE Êñá‰ª∂
  22:libraries/zf_driver/zf_driver_pit.c **** * Ê¨¢ËøéÂêÑ‰Ωç‰ΩøÁî®Âπ∂‰º†Êí≠Êú¨Á®ãÂ∫è ‰ΩÜ‰øÆÊîπÂÜÖÂÆπÊó∂ÂøÖÈ°ª‰øùÁïôÈÄêÈ£ûÁßëÊäÄÁöÑÁâàÊùÉÂ£∞ÊòéÔºà
  23:libraries/zf_driver/zf_driver_pit.c **** *
  24:libraries/zf_driver/zf_driver_pit.c **** * Êñá‰ª∂ÂêçÁß∞          zf_driver_pit
  25:libraries/zf_driver/zf_driver_pit.c **** * ÂÖ¨Âè∏ÂêçÁß∞          ÊàêÈÉΩÈÄêÈ£ûÁßëÊäÄÊúâÈôêÂÖ¨Âè∏
  26:libraries/zf_driver/zf_driver_pit.c **** * ÁâàÊú¨‰ø°ÊÅØ          Êü•Áúã libraries/doc Êñá‰ª∂Â§πÂÜÖ version Êñá‰ª∂ ÁâàÊú¨ËØ¥Êòé
  27:libraries/zf_driver/zf_driver_pit.c **** * ÂºÄÂèëÁéØÂ¢É          StellarStudio 7.0.0
  28:libraries/zf_driver/zf_driver_pit.c **** * ÈÄÇÁî®Âπ≥Âè∞          Stellar-SR5E1E3
  29:libraries/zf_driver/zf_driver_pit.c **** * Â∫óÈì∫ÈìæÊé•          https://www.seekfree.cn/
  30:libraries/zf_driver/zf_driver_pit.c **** ***************************************************************************************************
  31:libraries/zf_driver/zf_driver_pit.c **** 
  32:libraries/zf_driver/zf_driver_pit.c **** // zf_common Â±ÇÂºïÁî®
  33:libraries/zf_driver/zf_driver_pit.c **** #include "zf_common_debug.h"
  34:libraries/zf_driver/zf_driver_pit.c **** #include "zf_common_memory.h"
  35:libraries/zf_driver/zf_driver_pit.c **** 
  36:libraries/zf_driver/zf_driver_pit.c **** // zf_driver Â±ÇÂºïÁî®
  37:libraries/zf_driver/zf_driver_pit.c **** #include "zf_driver_interrupt.h"
  38:libraries/zf_driver/zf_driver_pit.c **** #include "zf_driver_system.h"
  39:libraries/zf_driver/zf_driver_pit.c **** 
  40:libraries/zf_driver/zf_driver_pit.c **** // Ëá™Ë∫´Â§¥Êñá‰ª∂
  41:libraries/zf_driver/zf_driver_pit.c **** #include "zf_driver_pit.h"
  42:libraries/zf_driver/zf_driver_pit.c **** 
  43:libraries/zf_driver/zf_driver_pit.c **** // Ê≠§Â§ÑÂÆö‰πâ Êú¨Êñá‰ª∂Áî®‰ΩøÁî®ÁöÑÂèòÈáè‰∏éÂØπË±°Á≠â ËøôÈáå‰∏çÂÖÅËÆ∏Áî®Êà∑‰øÆÊîπ
  44:libraries/zf_driver/zf_driver_pit.c **** // >>>>>>>>>>>>>>>>>>>>>>>>>>>>>>>>>>>>>>>>> Part Start >>>>>>>>>>>>>>>>>>>>>>>>>>>>>>>>>>>>>>>>>
  45:libraries/zf_driver/zf_driver_pit.c **** // Áî®‰∫éÂõ∫ÂÆöÂÄºÊàñÊåáÂêëÁöÑÂÜÖÂÆπ ‰∏ªË¶ÅÊòØÁî®Â∞ëÈáèÂ≠òÂÇ®Âç†Áî®Êù•ÂáèÂ∞ëÊ†àÂºÄÈîÄ
  46:libraries/zf_driver/zf_driver_pit.c **** static const zf_interrupt_index_enum pit_irq_index_list[PIT_NUM_MAX] =
  47:libraries/zf_driver/zf_driver_pit.c **** {
  48:libraries/zf_driver/zf_driver_pit.c ****     INTERRUPT_INDEX_TIM1_PIT ,  INTERRUPT_INDEX_TIM8_PIT ,
  49:libraries/zf_driver/zf_driver_pit.c ****     INTERRUPT_INDEX_TIM2_PIT ,  INTERRUPT_INDEX_TIM5_PIT ,
  50:libraries/zf_driver/zf_driver_pit.c ****     INTERRUPT_INDEX_TIM3_PIT ,  INTERRUPT_INDEX_TIM4_PIT ,
  51:libraries/zf_driver/zf_driver_pit.c ****     INTERRUPT_INDEX_TIM15_PIT,  INTERRUPT_INDEX_TIM16_PIT,
  52:libraries/zf_driver/zf_driver_pit.c ****     INTERRUPT_INDEX_TIM6_PIT ,  INTERRUPT_INDEX_TIM7_PIT 
  53:libraries/zf_driver/zf_driver_pit.c **** };
  54:libraries/zf_driver/zf_driver_pit.c **** 
  55:libraries/zf_driver/zf_driver_pit.c **** static void zf_pit_callbakc_defalut (uint32 event, void *ptr);
  56:libraries/zf_driver/zf_driver_pit.c **** 
  57:libraries/zf_driver/zf_driver_pit.c **** // Â≠òÂÇ®‰∫éÈ¢ÑÂºÄËæüÁöÑÂÜÖÂ≠òÊ±†‰∏≠ÁöÑÁÆ°ÁêÜ‰ø°ÊÅØ Êú¨ÈÉ®ÂàÜÂØπ‰∫éÁî®Êà∑Êù•ËØ¥ÊòØ‰∏çÂºÄÊîæÁöÑ
  58:libraries/zf_driver/zf_driver_pit.c **** AT_ZF_LIB_SECTION_START
  59:libraries/zf_driver/zf_driver_pit.c **** AT_ZF_LIB_SECTION zf_pit_obj_struct pit_obj_list[PIT_NUM_MAX] =
  60:libraries/zf_driver/zf_driver_pit.c **** {
  61:libraries/zf_driver/zf_driver_pit.c ****     {.timer_obj = &timer_obj_list[TIM_1 ], .period_system_cycles = 0},
  62:libraries/zf_driver/zf_driver_pit.c ****     {.timer_obj = &timer_obj_list[TIM_8 ], .period_system_cycles = 0},
  63:libraries/zf_driver/zf_driver_pit.c ****     {.timer_obj = &timer_obj_list[TIM_2 ], .period_system_cycles = 0},
  64:libraries/zf_driver/zf_driver_pit.c ****     {.timer_obj = &timer_obj_list[TIM_5 ], .period_system_cycles = 0},
  65:libraries/zf_driver/zf_driver_pit.c ****     {.timer_obj = &timer_obj_list[TIM_3 ], .period_system_cycles = 0},
  66:libraries/zf_driver/zf_driver_pit.c ****     {.timer_obj = &timer_obj_list[TIM_4 ], .period_system_cycles = 0},
  67:libraries/zf_driver/zf_driver_pit.c ****     {.timer_obj = &timer_obj_list[TIM_15], .period_system_cycles = 0},
  68:libraries/zf_driver/zf_driver_pit.c ****     {.timer_obj = &timer_obj_list[TIM_16], .period_system_cycles = 0},
  69:libraries/zf_driver/zf_driver_pit.c ****     {.timer_obj = &timer_obj_list[TIM_6 ], .period_system_cycles = 0},
  70:libraries/zf_driver/zf_driver_pit.c ****     {.timer_obj = &timer_obj_list[TIM_7 ], .period_system_cycles = 0}
  71:libraries/zf_driver/zf_driver_pit.c **** };
  72:libraries/zf_driver/zf_driver_pit.c **** 
  73:libraries/zf_driver/zf_driver_pit.c **** // Âë®Êúü‰∏≠Êñ≠ ÂõûË∞ÉÂáΩÊï∞Á¨¨‰∏Ä‰∏™ÂèÇÊï∞Âõ∫ÂÆö‰∏∫ 0 Á¨¨‰∫å‰∏™ÂèÇÊï∞ÊòØÁî®Êà∑ÊåáÈíà
  74:libraries/zf_driver/zf_driver_pit.c **** AT_ZF_LIB_SECTION zf_interrupt_callback_struct timer_pit_callback[PIT_NUM_MAX] =
  75:libraries/zf_driver/zf_driver_pit.c **** {
  76:libraries/zf_driver/zf_driver_pit.c ****     {zf_pit_callbakc_defalut, NULL},   {zf_pit_callbakc_defalut, NULL},
  77:libraries/zf_driver/zf_driver_pit.c ****     {zf_pit_callbakc_defalut, NULL},   {zf_pit_callbakc_defalut, NULL},
  78:libraries/zf_driver/zf_driver_pit.c ****     {zf_pit_callbakc_defalut, NULL},   {zf_pit_callbakc_defalut, NULL},
  79:libraries/zf_driver/zf_driver_pit.c ****     {zf_pit_callbakc_defalut, NULL},   {zf_pit_callbakc_defalut, NULL},
  80:libraries/zf_driver/zf_driver_pit.c ****     {zf_pit_callbakc_defalut, NULL},   {zf_pit_callbakc_defalut, NULL}
  81:libraries/zf_driver/zf_driver_pit.c **** };
  82:libraries/zf_driver/zf_driver_pit.c **** AT_ZF_LIB_SECTION_END
  83:libraries/zf_driver/zf_driver_pit.c **** // <<<<<<<<<<<<<<<<<<<<<<<<<<<<<<<<<<<<<<<<< Part   End <<<<<<<<<<<<<<<<<<<<<<<<<<<<<<<<<<<<<<<<<
  84:libraries/zf_driver/zf_driver_pit.c **** 
  85:libraries/zf_driver/zf_driver_pit.c **** // Ê≠§Â§ÑÂÆö‰πâ Êú¨Êñá‰ª∂ÁöÑÂ§ñÈÉ®ÈáçËΩΩÂáΩÊï∞ ËøôÈáå‰∏çÂÖÅËÆ∏Áî®Êà∑‰øÆÊîπ
  86:libraries/zf_driver/zf_driver_pit.c **** // >>>>>>>>>>>>>>>>>>>>>>>>>>>>>>>>>>>>>>>>> Part Start >>>>>>>>>>>>>>>>>>>>>>>>>>>>>>>>>>>>>>>>>
  87:libraries/zf_driver/zf_driver_pit.c **** //-------------------------------------------------------------------------------------------------
  88:libraries/zf_driver/zf_driver_pit.c **** // ÂáΩÊï∞ÁÆÄ‰ªã     TIM1  ‰∏é TIM16 ÁöÑ‰∏≠Êñ≠ÊúçÂä°ÂáΩÊï∞
  89:libraries/zf_driver/zf_driver_pit.c **** // ÂèÇÊï∞ËØ¥Êòé     void
  90:libraries/zf_driver/zf_driver_pit.c **** // ËøîÂõûÂèÇÊï∞     void
  91:libraries/zf_driver/zf_driver_pit.c **** // ‰ΩøÁî®Á§∫‰æã     
  92:libraries/zf_driver/zf_driver_pit.c **** // Â§áÊ≥®‰ø°ÊÅØ     ÂêØÂä® .s Êñá‰ª∂ÂÆö‰πâ ‰∏çÂÖÅËÆ∏‰øÆÊîπÂáΩÊï∞ÂêçÁß∞
  93:libraries/zf_driver/zf_driver_pit.c **** //              pit_set_priority(pit_index, priority);
  94:libraries/zf_driver/zf_driver_pit.c **** //-------------------------------------------------------------------------------------------------
  95:libraries/zf_driver/zf_driver_pit.c **** void IRQ_TIM1_UP_HANDLER (void)
  96:libraries/zf_driver/zf_driver_pit.c **** {
  96              		.loc 1 96 1
  97              		.cfi_startproc
  98              		@ args = 0, pretend = 0, frame = 0
  99              		@ frame_needed = 0, uses_anonymous_args = 0
 100 0000 08B5     		push	{r3, lr}
 101              		.cfi_def_cfa_offset 8
 102              		.cfi_offset 3, -8
 103              		.cfi_offset 14, -4
  97:libraries/zf_driver/zf_driver_pit.c ****     if(pit_obj_list[PIT_TIM1].period_system_cycles)
 104              		.loc 1 97 30
 105 0002 0D4B     		ldr	r3, .L4
 106 0004 5B68     		ldr	r3, [r3, #4]
 107              		.loc 1 97 7
 108 0006 002B     		cmp	r3, #0
 109 0008 0DD0     		beq	.L2
  98:libraries/zf_driver/zf_driver_pit.c ****     {
  99:libraries/zf_driver/zf_driver_pit.c ****         TIM1->SR &= ~TIM_SR_UIF;
 110              		.loc 1 99 18
 111 000a 0C4B     		ldr	r3, .L4+4
 112 000c 1B69     		ldr	r3, [r3, #16]
 113 000e 0B4A     		ldr	r2, .L4+4
 114 0010 23F00103 		bic	r3, r3, #1
 115 0014 1361     		str	r3, [r2, #16]
 100:libraries/zf_driver/zf_driver_pit.c ****         timer_pit_callback[PIT_TIM1].callback(0, timer_pit_callback[PIT_TIM1].parameter_ptr);
 116              		.loc 1 100 37
 117 0016 0A4B     		ldr	r3, .L4+8
 118 0018 1B68     		ldr	r3, [r3]
 119              		.loc 1 100 9
 120 001a 094A     		ldr	r2, .L4+8
 121 001c 5268     		ldr	r2, [r2, #4]
 122 001e 1146     		mov	r1, r2
 123 0020 0020     		movs	r0, #0
 124 0022 9847     		blx	r3
 125              	.LVL0:
 126 0024 02E0     		b	.L3
 127              	.L2:
 101:libraries/zf_driver/zf_driver_pit.c ****     }
 102:libraries/zf_driver/zf_driver_pit.c ****     else
 103:libraries/zf_driver/zf_driver_pit.c ****     {
 104:libraries/zf_driver/zf_driver_pit.c ****         IRQ_PROLOGUE();
 105:libraries/zf_driver/zf_driver_pit.c ****         __tim_serve_interrupt(&DRV_TIM1);
 128              		.loc 1 105 9
 129 0026 0748     		ldr	r0, .L4+12
 130 0028 FFF7FEFF 		bl	__tim_serve_interrupt
 131              	.L3:
 132              	.LBB22:
 133              	.LBB23:
 134              		.file 2 "C:/StellarStudio-7.0/SDKS/StellarESDK-1.7.0/Modules/Platform/CMSIS/Core/Include/cmsis_gcc
   1:C:/StellarStudio-7.0/SDKS/StellarESDK-1.7.0/Modules/Platform/CMSIS/Core/Include\cmsis_gcc.h **** /**************************************************************************//**
   2:C:/StellarStudio-7.0/SDKS/StellarESDK-1.7.0/Modules/Platform/CMSIS/Core/Include\cmsis_gcc.h ****  * @file     cmsis_gcc.h
   3:C:/StellarStudio-7.0/SDKS/StellarESDK-1.7.0/Modules/Platform/CMSIS/Core/Include\cmsis_gcc.h ****  * @brief    CMSIS compiler GCC header file
   4:C:/StellarStudio-7.0/SDKS/StellarESDK-1.7.0/Modules/Platform/CMSIS/Core/Include\cmsis_gcc.h ****  * @version  V5.4.1
   5:C:/StellarStudio-7.0/SDKS/StellarESDK-1.7.0/Modules/Platform/CMSIS/Core/Include\cmsis_gcc.h ****  * @date     27. May 2021
   6:C:/StellarStudio-7.0/SDKS/StellarESDK-1.7.0/Modules/Platform/CMSIS/Core/Include\cmsis_gcc.h ****  ******************************************************************************/
   7:C:/StellarStudio-7.0/SDKS/StellarESDK-1.7.0/Modules/Platform/CMSIS/Core/Include\cmsis_gcc.h **** /*
   8:C:/StellarStudio-7.0/SDKS/StellarESDK-1.7.0/Modules/Platform/CMSIS/Core/Include\cmsis_gcc.h ****  * Copyright (c) 2009-2021 Arm Limited. All rights reserved.
   9:C:/StellarStudio-7.0/SDKS/StellarESDK-1.7.0/Modules/Platform/CMSIS/Core/Include\cmsis_gcc.h ****  *
  10:C:/StellarStudio-7.0/SDKS/StellarESDK-1.7.0/Modules/Platform/CMSIS/Core/Include\cmsis_gcc.h ****  * SPDX-License-Identifier: Apache-2.0
  11:C:/StellarStudio-7.0/SDKS/StellarESDK-1.7.0/Modules/Platform/CMSIS/Core/Include\cmsis_gcc.h ****  *
  12:C:/StellarStudio-7.0/SDKS/StellarESDK-1.7.0/Modules/Platform/CMSIS/Core/Include\cmsis_gcc.h ****  * Licensed under the Apache License, Version 2.0 (the License); you may
  13:C:/StellarStudio-7.0/SDKS/StellarESDK-1.7.0/Modules/Platform/CMSIS/Core/Include\cmsis_gcc.h ****  * not use this file except in compliance with the License.
  14:C:/StellarStudio-7.0/SDKS/StellarESDK-1.7.0/Modules/Platform/CMSIS/Core/Include\cmsis_gcc.h ****  * You may obtain a copy of the License at
  15:C:/StellarStudio-7.0/SDKS/StellarESDK-1.7.0/Modules/Platform/CMSIS/Core/Include\cmsis_gcc.h ****  *
  16:C:/StellarStudio-7.0/SDKS/StellarESDK-1.7.0/Modules/Platform/CMSIS/Core/Include\cmsis_gcc.h ****  * www.apache.org/licenses/LICENSE-2.0
  17:C:/StellarStudio-7.0/SDKS/StellarESDK-1.7.0/Modules/Platform/CMSIS/Core/Include\cmsis_gcc.h ****  *
  18:C:/StellarStudio-7.0/SDKS/StellarESDK-1.7.0/Modules/Platform/CMSIS/Core/Include\cmsis_gcc.h ****  * Unless required by applicable law or agreed to in writing, software
  19:C:/StellarStudio-7.0/SDKS/StellarESDK-1.7.0/Modules/Platform/CMSIS/Core/Include\cmsis_gcc.h ****  * distributed under the License is distributed on an AS IS BASIS, WITHOUT
  20:C:/StellarStudio-7.0/SDKS/StellarESDK-1.7.0/Modules/Platform/CMSIS/Core/Include\cmsis_gcc.h ****  * WARRANTIES OR CONDITIONS OF ANY KIND, either express or implied.
  21:C:/StellarStudio-7.0/SDKS/StellarESDK-1.7.0/Modules/Platform/CMSIS/Core/Include\cmsis_gcc.h ****  * See the License for the specific language governing permissions and
  22:C:/StellarStudio-7.0/SDKS/StellarESDK-1.7.0/Modules/Platform/CMSIS/Core/Include\cmsis_gcc.h ****  * limitations under the License.
  23:C:/StellarStudio-7.0/SDKS/StellarESDK-1.7.0/Modules/Platform/CMSIS/Core/Include\cmsis_gcc.h ****  */
  24:C:/StellarStudio-7.0/SDKS/StellarESDK-1.7.0/Modules/Platform/CMSIS/Core/Include\cmsis_gcc.h **** 
  25:C:/StellarStudio-7.0/SDKS/StellarESDK-1.7.0/Modules/Platform/CMSIS/Core/Include\cmsis_gcc.h **** #ifndef __CMSIS_GCC_H
  26:C:/StellarStudio-7.0/SDKS/StellarESDK-1.7.0/Modules/Platform/CMSIS/Core/Include\cmsis_gcc.h **** #define __CMSIS_GCC_H
  27:C:/StellarStudio-7.0/SDKS/StellarESDK-1.7.0/Modules/Platform/CMSIS/Core/Include\cmsis_gcc.h **** 
  28:C:/StellarStudio-7.0/SDKS/StellarESDK-1.7.0/Modules/Platform/CMSIS/Core/Include\cmsis_gcc.h **** /* ignore some GCC warnings */
  29:C:/StellarStudio-7.0/SDKS/StellarESDK-1.7.0/Modules/Platform/CMSIS/Core/Include\cmsis_gcc.h **** #pragma GCC diagnostic push
  30:C:/StellarStudio-7.0/SDKS/StellarESDK-1.7.0/Modules/Platform/CMSIS/Core/Include\cmsis_gcc.h **** #pragma GCC diagnostic ignored "-Wsign-conversion"
  31:C:/StellarStudio-7.0/SDKS/StellarESDK-1.7.0/Modules/Platform/CMSIS/Core/Include\cmsis_gcc.h **** #pragma GCC diagnostic ignored "-Wconversion"
  32:C:/StellarStudio-7.0/SDKS/StellarESDK-1.7.0/Modules/Platform/CMSIS/Core/Include\cmsis_gcc.h **** #pragma GCC diagnostic ignored "-Wunused-parameter"
  33:C:/StellarStudio-7.0/SDKS/StellarESDK-1.7.0/Modules/Platform/CMSIS/Core/Include\cmsis_gcc.h **** 
  34:C:/StellarStudio-7.0/SDKS/StellarESDK-1.7.0/Modules/Platform/CMSIS/Core/Include\cmsis_gcc.h **** /* Fallback for __has_builtin */
  35:C:/StellarStudio-7.0/SDKS/StellarESDK-1.7.0/Modules/Platform/CMSIS/Core/Include\cmsis_gcc.h **** #ifndef __has_builtin
  36:C:/StellarStudio-7.0/SDKS/StellarESDK-1.7.0/Modules/Platform/CMSIS/Core/Include\cmsis_gcc.h ****   #define __has_builtin(x) (0)
  37:C:/StellarStudio-7.0/SDKS/StellarESDK-1.7.0/Modules/Platform/CMSIS/Core/Include\cmsis_gcc.h **** #endif
  38:C:/StellarStudio-7.0/SDKS/StellarESDK-1.7.0/Modules/Platform/CMSIS/Core/Include\cmsis_gcc.h **** 
  39:C:/StellarStudio-7.0/SDKS/StellarESDK-1.7.0/Modules/Platform/CMSIS/Core/Include\cmsis_gcc.h **** /* CMSIS compiler specific defines */
  40:C:/StellarStudio-7.0/SDKS/StellarESDK-1.7.0/Modules/Platform/CMSIS/Core/Include\cmsis_gcc.h **** #ifndef   __ASM
  41:C:/StellarStudio-7.0/SDKS/StellarESDK-1.7.0/Modules/Platform/CMSIS/Core/Include\cmsis_gcc.h ****   #define __ASM                                  __asm
  42:C:/StellarStudio-7.0/SDKS/StellarESDK-1.7.0/Modules/Platform/CMSIS/Core/Include\cmsis_gcc.h **** #endif
  43:C:/StellarStudio-7.0/SDKS/StellarESDK-1.7.0/Modules/Platform/CMSIS/Core/Include\cmsis_gcc.h **** #ifndef   __INLINE
  44:C:/StellarStudio-7.0/SDKS/StellarESDK-1.7.0/Modules/Platform/CMSIS/Core/Include\cmsis_gcc.h ****   #define __INLINE                               inline
  45:C:/StellarStudio-7.0/SDKS/StellarESDK-1.7.0/Modules/Platform/CMSIS/Core/Include\cmsis_gcc.h **** #endif
  46:C:/StellarStudio-7.0/SDKS/StellarESDK-1.7.0/Modules/Platform/CMSIS/Core/Include\cmsis_gcc.h **** #ifndef   __STATIC_INLINE
  47:C:/StellarStudio-7.0/SDKS/StellarESDK-1.7.0/Modules/Platform/CMSIS/Core/Include\cmsis_gcc.h ****   #define __STATIC_INLINE                        static inline
  48:C:/StellarStudio-7.0/SDKS/StellarESDK-1.7.0/Modules/Platform/CMSIS/Core/Include\cmsis_gcc.h **** #endif
  49:C:/StellarStudio-7.0/SDKS/StellarESDK-1.7.0/Modules/Platform/CMSIS/Core/Include\cmsis_gcc.h **** #ifndef   __STATIC_FORCEINLINE
  50:C:/StellarStudio-7.0/SDKS/StellarESDK-1.7.0/Modules/Platform/CMSIS/Core/Include\cmsis_gcc.h ****   #define __STATIC_FORCEINLINE                   __attribute__((always_inline)) static inline
  51:C:/StellarStudio-7.0/SDKS/StellarESDK-1.7.0/Modules/Platform/CMSIS/Core/Include\cmsis_gcc.h **** #endif
  52:C:/StellarStudio-7.0/SDKS/StellarESDK-1.7.0/Modules/Platform/CMSIS/Core/Include\cmsis_gcc.h **** #ifndef   __NO_RETURN
  53:C:/StellarStudio-7.0/SDKS/StellarESDK-1.7.0/Modules/Platform/CMSIS/Core/Include\cmsis_gcc.h ****   #define __NO_RETURN                            __attribute__((__noreturn__))
  54:C:/StellarStudio-7.0/SDKS/StellarESDK-1.7.0/Modules/Platform/CMSIS/Core/Include\cmsis_gcc.h **** #endif
  55:C:/StellarStudio-7.0/SDKS/StellarESDK-1.7.0/Modules/Platform/CMSIS/Core/Include\cmsis_gcc.h **** #ifndef   __USED
  56:C:/StellarStudio-7.0/SDKS/StellarESDK-1.7.0/Modules/Platform/CMSIS/Core/Include\cmsis_gcc.h ****   #define __USED                                 __attribute__((used))
  57:C:/StellarStudio-7.0/SDKS/StellarESDK-1.7.0/Modules/Platform/CMSIS/Core/Include\cmsis_gcc.h **** #endif
  58:C:/StellarStudio-7.0/SDKS/StellarESDK-1.7.0/Modules/Platform/CMSIS/Core/Include\cmsis_gcc.h **** #ifndef   __WEAK
  59:C:/StellarStudio-7.0/SDKS/StellarESDK-1.7.0/Modules/Platform/CMSIS/Core/Include\cmsis_gcc.h ****   #define __WEAK                                 __attribute__((weak))
  60:C:/StellarStudio-7.0/SDKS/StellarESDK-1.7.0/Modules/Platform/CMSIS/Core/Include\cmsis_gcc.h **** #endif
  61:C:/StellarStudio-7.0/SDKS/StellarESDK-1.7.0/Modules/Platform/CMSIS/Core/Include\cmsis_gcc.h **** #ifndef   __PACKED
  62:C:/StellarStudio-7.0/SDKS/StellarESDK-1.7.0/Modules/Platform/CMSIS/Core/Include\cmsis_gcc.h ****   #define __PACKED                               __attribute__((packed, aligned(1)))
  63:C:/StellarStudio-7.0/SDKS/StellarESDK-1.7.0/Modules/Platform/CMSIS/Core/Include\cmsis_gcc.h **** #endif
  64:C:/StellarStudio-7.0/SDKS/StellarESDK-1.7.0/Modules/Platform/CMSIS/Core/Include\cmsis_gcc.h **** #ifndef   __PACKED_STRUCT
  65:C:/StellarStudio-7.0/SDKS/StellarESDK-1.7.0/Modules/Platform/CMSIS/Core/Include\cmsis_gcc.h ****   #define __PACKED_STRUCT                        struct __attribute__((packed, aligned(1)))
  66:C:/StellarStudio-7.0/SDKS/StellarESDK-1.7.0/Modules/Platform/CMSIS/Core/Include\cmsis_gcc.h **** #endif
  67:C:/StellarStudio-7.0/SDKS/StellarESDK-1.7.0/Modules/Platform/CMSIS/Core/Include\cmsis_gcc.h **** #ifndef   __PACKED_UNION
  68:C:/StellarStudio-7.0/SDKS/StellarESDK-1.7.0/Modules/Platform/CMSIS/Core/Include\cmsis_gcc.h ****   #define __PACKED_UNION                         union __attribute__((packed, aligned(1)))
  69:C:/StellarStudio-7.0/SDKS/StellarESDK-1.7.0/Modules/Platform/CMSIS/Core/Include\cmsis_gcc.h **** #endif
  70:C:/StellarStudio-7.0/SDKS/StellarESDK-1.7.0/Modules/Platform/CMSIS/Core/Include\cmsis_gcc.h **** #ifndef   __UNALIGNED_UINT32        /* deprecated */
  71:C:/StellarStudio-7.0/SDKS/StellarESDK-1.7.0/Modules/Platform/CMSIS/Core/Include\cmsis_gcc.h ****   #pragma GCC diagnostic push
  72:C:/StellarStudio-7.0/SDKS/StellarESDK-1.7.0/Modules/Platform/CMSIS/Core/Include\cmsis_gcc.h ****   #pragma GCC diagnostic ignored "-Wpacked"
  73:C:/StellarStudio-7.0/SDKS/StellarESDK-1.7.0/Modules/Platform/CMSIS/Core/Include\cmsis_gcc.h ****   #pragma GCC diagnostic ignored "-Wattributes"
  74:C:/StellarStudio-7.0/SDKS/StellarESDK-1.7.0/Modules/Platform/CMSIS/Core/Include\cmsis_gcc.h ****   struct __attribute__((packed)) T_UINT32 { uint32_t v; };
  75:C:/StellarStudio-7.0/SDKS/StellarESDK-1.7.0/Modules/Platform/CMSIS/Core/Include\cmsis_gcc.h ****   #pragma GCC diagnostic pop
  76:C:/StellarStudio-7.0/SDKS/StellarESDK-1.7.0/Modules/Platform/CMSIS/Core/Include\cmsis_gcc.h ****   #define __UNALIGNED_UINT32(x)                  (((struct T_UINT32 *)(x))->v)
  77:C:/StellarStudio-7.0/SDKS/StellarESDK-1.7.0/Modules/Platform/CMSIS/Core/Include\cmsis_gcc.h **** #endif
  78:C:/StellarStudio-7.0/SDKS/StellarESDK-1.7.0/Modules/Platform/CMSIS/Core/Include\cmsis_gcc.h **** #ifndef   __UNALIGNED_UINT16_WRITE
  79:C:/StellarStudio-7.0/SDKS/StellarESDK-1.7.0/Modules/Platform/CMSIS/Core/Include\cmsis_gcc.h ****   #pragma GCC diagnostic push
  80:C:/StellarStudio-7.0/SDKS/StellarESDK-1.7.0/Modules/Platform/CMSIS/Core/Include\cmsis_gcc.h ****   #pragma GCC diagnostic ignored "-Wpacked"
  81:C:/StellarStudio-7.0/SDKS/StellarESDK-1.7.0/Modules/Platform/CMSIS/Core/Include\cmsis_gcc.h ****   #pragma GCC diagnostic ignored "-Wattributes"
  82:C:/StellarStudio-7.0/SDKS/StellarESDK-1.7.0/Modules/Platform/CMSIS/Core/Include\cmsis_gcc.h ****   __PACKED_STRUCT T_UINT16_WRITE { uint16_t v; };
  83:C:/StellarStudio-7.0/SDKS/StellarESDK-1.7.0/Modules/Platform/CMSIS/Core/Include\cmsis_gcc.h ****   #pragma GCC diagnostic pop
  84:C:/StellarStudio-7.0/SDKS/StellarESDK-1.7.0/Modules/Platform/CMSIS/Core/Include\cmsis_gcc.h ****   #define __UNALIGNED_UINT16_WRITE(addr, val)    (void)((((struct T_UINT16_WRITE *)(void *)(addr))-
  85:C:/StellarStudio-7.0/SDKS/StellarESDK-1.7.0/Modules/Platform/CMSIS/Core/Include\cmsis_gcc.h **** #endif
  86:C:/StellarStudio-7.0/SDKS/StellarESDK-1.7.0/Modules/Platform/CMSIS/Core/Include\cmsis_gcc.h **** #ifndef   __UNALIGNED_UINT16_READ
  87:C:/StellarStudio-7.0/SDKS/StellarESDK-1.7.0/Modules/Platform/CMSIS/Core/Include\cmsis_gcc.h ****   #pragma GCC diagnostic push
  88:C:/StellarStudio-7.0/SDKS/StellarESDK-1.7.0/Modules/Platform/CMSIS/Core/Include\cmsis_gcc.h ****   #pragma GCC diagnostic ignored "-Wpacked"
  89:C:/StellarStudio-7.0/SDKS/StellarESDK-1.7.0/Modules/Platform/CMSIS/Core/Include\cmsis_gcc.h ****   #pragma GCC diagnostic ignored "-Wattributes"
  90:C:/StellarStudio-7.0/SDKS/StellarESDK-1.7.0/Modules/Platform/CMSIS/Core/Include\cmsis_gcc.h ****   __PACKED_STRUCT T_UINT16_READ { uint16_t v; };
  91:C:/StellarStudio-7.0/SDKS/StellarESDK-1.7.0/Modules/Platform/CMSIS/Core/Include\cmsis_gcc.h ****   #pragma GCC diagnostic pop
  92:C:/StellarStudio-7.0/SDKS/StellarESDK-1.7.0/Modules/Platform/CMSIS/Core/Include\cmsis_gcc.h ****   #define __UNALIGNED_UINT16_READ(addr)          (((const struct T_UINT16_READ *)(const void *)(add
  93:C:/StellarStudio-7.0/SDKS/StellarESDK-1.7.0/Modules/Platform/CMSIS/Core/Include\cmsis_gcc.h **** #endif
  94:C:/StellarStudio-7.0/SDKS/StellarESDK-1.7.0/Modules/Platform/CMSIS/Core/Include\cmsis_gcc.h **** #ifndef   __UNALIGNED_UINT32_WRITE
  95:C:/StellarStudio-7.0/SDKS/StellarESDK-1.7.0/Modules/Platform/CMSIS/Core/Include\cmsis_gcc.h ****   #pragma GCC diagnostic push
  96:C:/StellarStudio-7.0/SDKS/StellarESDK-1.7.0/Modules/Platform/CMSIS/Core/Include\cmsis_gcc.h ****   #pragma GCC diagnostic ignored "-Wpacked"
  97:C:/StellarStudio-7.0/SDKS/StellarESDK-1.7.0/Modules/Platform/CMSIS/Core/Include\cmsis_gcc.h ****   #pragma GCC diagnostic ignored "-Wattributes"
  98:C:/StellarStudio-7.0/SDKS/StellarESDK-1.7.0/Modules/Platform/CMSIS/Core/Include\cmsis_gcc.h ****   __PACKED_STRUCT T_UINT32_WRITE { uint32_t v; };
  99:C:/StellarStudio-7.0/SDKS/StellarESDK-1.7.0/Modules/Platform/CMSIS/Core/Include\cmsis_gcc.h ****   #pragma GCC diagnostic pop
 100:C:/StellarStudio-7.0/SDKS/StellarESDK-1.7.0/Modules/Platform/CMSIS/Core/Include\cmsis_gcc.h ****   #define __UNALIGNED_UINT32_WRITE(addr, val)    (void)((((struct T_UINT32_WRITE *)(void *)(addr))-
 101:C:/StellarStudio-7.0/SDKS/StellarESDK-1.7.0/Modules/Platform/CMSIS/Core/Include\cmsis_gcc.h **** #endif
 102:C:/StellarStudio-7.0/SDKS/StellarESDK-1.7.0/Modules/Platform/CMSIS/Core/Include\cmsis_gcc.h **** #ifndef   __UNALIGNED_UINT32_READ
 103:C:/StellarStudio-7.0/SDKS/StellarESDK-1.7.0/Modules/Platform/CMSIS/Core/Include\cmsis_gcc.h ****   #pragma GCC diagnostic push
 104:C:/StellarStudio-7.0/SDKS/StellarESDK-1.7.0/Modules/Platform/CMSIS/Core/Include\cmsis_gcc.h ****   #pragma GCC diagnostic ignored "-Wpacked"
 105:C:/StellarStudio-7.0/SDKS/StellarESDK-1.7.0/Modules/Platform/CMSIS/Core/Include\cmsis_gcc.h ****   #pragma GCC diagnostic ignored "-Wattributes"
 106:C:/StellarStudio-7.0/SDKS/StellarESDK-1.7.0/Modules/Platform/CMSIS/Core/Include\cmsis_gcc.h ****   __PACKED_STRUCT T_UINT32_READ { uint32_t v; };
 107:C:/StellarStudio-7.0/SDKS/StellarESDK-1.7.0/Modules/Platform/CMSIS/Core/Include\cmsis_gcc.h ****   #pragma GCC diagnostic pop
 108:C:/StellarStudio-7.0/SDKS/StellarESDK-1.7.0/Modules/Platform/CMSIS/Core/Include\cmsis_gcc.h ****   #define __UNALIGNED_UINT32_READ(addr)          (((const struct T_UINT32_READ *)(const void *)(add
 109:C:/StellarStudio-7.0/SDKS/StellarESDK-1.7.0/Modules/Platform/CMSIS/Core/Include\cmsis_gcc.h **** #endif
 110:C:/StellarStudio-7.0/SDKS/StellarESDK-1.7.0/Modules/Platform/CMSIS/Core/Include\cmsis_gcc.h **** #ifndef   __ALIGNED
 111:C:/StellarStudio-7.0/SDKS/StellarESDK-1.7.0/Modules/Platform/CMSIS/Core/Include\cmsis_gcc.h ****   #define __ALIGNED(x)                           __attribute__((aligned(x)))
 112:C:/StellarStudio-7.0/SDKS/StellarESDK-1.7.0/Modules/Platform/CMSIS/Core/Include\cmsis_gcc.h **** #endif
 113:C:/StellarStudio-7.0/SDKS/StellarESDK-1.7.0/Modules/Platform/CMSIS/Core/Include\cmsis_gcc.h **** #ifndef   __RESTRICT
 114:C:/StellarStudio-7.0/SDKS/StellarESDK-1.7.0/Modules/Platform/CMSIS/Core/Include\cmsis_gcc.h ****   #define __RESTRICT                             __restrict
 115:C:/StellarStudio-7.0/SDKS/StellarESDK-1.7.0/Modules/Platform/CMSIS/Core/Include\cmsis_gcc.h **** #endif
 116:C:/StellarStudio-7.0/SDKS/StellarESDK-1.7.0/Modules/Platform/CMSIS/Core/Include\cmsis_gcc.h **** #ifndef   __COMPILER_BARRIER
 117:C:/StellarStudio-7.0/SDKS/StellarESDK-1.7.0/Modules/Platform/CMSIS/Core/Include\cmsis_gcc.h ****   #define __COMPILER_BARRIER()                   __ASM volatile("":::"memory")
 118:C:/StellarStudio-7.0/SDKS/StellarESDK-1.7.0/Modules/Platform/CMSIS/Core/Include\cmsis_gcc.h **** #endif
 119:C:/StellarStudio-7.0/SDKS/StellarESDK-1.7.0/Modules/Platform/CMSIS/Core/Include\cmsis_gcc.h **** 
 120:C:/StellarStudio-7.0/SDKS/StellarESDK-1.7.0/Modules/Platform/CMSIS/Core/Include\cmsis_gcc.h **** /* #########################  Startup and Lowlevel Init  ######################## */
 121:C:/StellarStudio-7.0/SDKS/StellarESDK-1.7.0/Modules/Platform/CMSIS/Core/Include\cmsis_gcc.h **** 
 122:C:/StellarStudio-7.0/SDKS/StellarESDK-1.7.0/Modules/Platform/CMSIS/Core/Include\cmsis_gcc.h **** #ifndef __PROGRAM_START
 123:C:/StellarStudio-7.0/SDKS/StellarESDK-1.7.0/Modules/Platform/CMSIS/Core/Include\cmsis_gcc.h **** 
 124:C:/StellarStudio-7.0/SDKS/StellarESDK-1.7.0/Modules/Platform/CMSIS/Core/Include\cmsis_gcc.h **** /**
 125:C:/StellarStudio-7.0/SDKS/StellarESDK-1.7.0/Modules/Platform/CMSIS/Core/Include\cmsis_gcc.h ****   \brief   Initializes data and bss sections
 126:C:/StellarStudio-7.0/SDKS/StellarESDK-1.7.0/Modules/Platform/CMSIS/Core/Include\cmsis_gcc.h ****   \details This default implementations initialized all data and additional bss
 127:C:/StellarStudio-7.0/SDKS/StellarESDK-1.7.0/Modules/Platform/CMSIS/Core/Include\cmsis_gcc.h ****            sections relying on .copy.table and .zero.table specified properly
 128:C:/StellarStudio-7.0/SDKS/StellarESDK-1.7.0/Modules/Platform/CMSIS/Core/Include\cmsis_gcc.h ****            in the used linker script.
 129:C:/StellarStudio-7.0/SDKS/StellarESDK-1.7.0/Modules/Platform/CMSIS/Core/Include\cmsis_gcc.h **** 
 130:C:/StellarStudio-7.0/SDKS/StellarESDK-1.7.0/Modules/Platform/CMSIS/Core/Include\cmsis_gcc.h ****  */
 131:C:/StellarStudio-7.0/SDKS/StellarESDK-1.7.0/Modules/Platform/CMSIS/Core/Include\cmsis_gcc.h **** __STATIC_FORCEINLINE __NO_RETURN void __cmsis_start(void)
 132:C:/StellarStudio-7.0/SDKS/StellarESDK-1.7.0/Modules/Platform/CMSIS/Core/Include\cmsis_gcc.h **** {
 133:C:/StellarStudio-7.0/SDKS/StellarESDK-1.7.0/Modules/Platform/CMSIS/Core/Include\cmsis_gcc.h ****   extern void _start(void) __NO_RETURN;
 134:C:/StellarStudio-7.0/SDKS/StellarESDK-1.7.0/Modules/Platform/CMSIS/Core/Include\cmsis_gcc.h **** 
 135:C:/StellarStudio-7.0/SDKS/StellarESDK-1.7.0/Modules/Platform/CMSIS/Core/Include\cmsis_gcc.h ****   typedef struct {
 136:C:/StellarStudio-7.0/SDKS/StellarESDK-1.7.0/Modules/Platform/CMSIS/Core/Include\cmsis_gcc.h ****     uint32_t const* src;
 137:C:/StellarStudio-7.0/SDKS/StellarESDK-1.7.0/Modules/Platform/CMSIS/Core/Include\cmsis_gcc.h ****     uint32_t* dest;
 138:C:/StellarStudio-7.0/SDKS/StellarESDK-1.7.0/Modules/Platform/CMSIS/Core/Include\cmsis_gcc.h ****     uint32_t  wlen;
 139:C:/StellarStudio-7.0/SDKS/StellarESDK-1.7.0/Modules/Platform/CMSIS/Core/Include\cmsis_gcc.h ****   } __copy_table_t;
 140:C:/StellarStudio-7.0/SDKS/StellarESDK-1.7.0/Modules/Platform/CMSIS/Core/Include\cmsis_gcc.h **** 
 141:C:/StellarStudio-7.0/SDKS/StellarESDK-1.7.0/Modules/Platform/CMSIS/Core/Include\cmsis_gcc.h ****   typedef struct {
 142:C:/StellarStudio-7.0/SDKS/StellarESDK-1.7.0/Modules/Platform/CMSIS/Core/Include\cmsis_gcc.h ****     uint32_t* dest;
 143:C:/StellarStudio-7.0/SDKS/StellarESDK-1.7.0/Modules/Platform/CMSIS/Core/Include\cmsis_gcc.h ****     uint32_t  wlen;
 144:C:/StellarStudio-7.0/SDKS/StellarESDK-1.7.0/Modules/Platform/CMSIS/Core/Include\cmsis_gcc.h ****   } __zero_table_t;
 145:C:/StellarStudio-7.0/SDKS/StellarESDK-1.7.0/Modules/Platform/CMSIS/Core/Include\cmsis_gcc.h **** 
 146:C:/StellarStudio-7.0/SDKS/StellarESDK-1.7.0/Modules/Platform/CMSIS/Core/Include\cmsis_gcc.h ****   extern const __copy_table_t __copy_table_start__;
 147:C:/StellarStudio-7.0/SDKS/StellarESDK-1.7.0/Modules/Platform/CMSIS/Core/Include\cmsis_gcc.h ****   extern const __copy_table_t __copy_table_end__;
 148:C:/StellarStudio-7.0/SDKS/StellarESDK-1.7.0/Modules/Platform/CMSIS/Core/Include\cmsis_gcc.h ****   extern const __zero_table_t __zero_table_start__;
 149:C:/StellarStudio-7.0/SDKS/StellarESDK-1.7.0/Modules/Platform/CMSIS/Core/Include\cmsis_gcc.h ****   extern const __zero_table_t __zero_table_end__;
 150:C:/StellarStudio-7.0/SDKS/StellarESDK-1.7.0/Modules/Platform/CMSIS/Core/Include\cmsis_gcc.h **** 
 151:C:/StellarStudio-7.0/SDKS/StellarESDK-1.7.0/Modules/Platform/CMSIS/Core/Include\cmsis_gcc.h ****   for (__copy_table_t const* pTable = &__copy_table_start__; pTable < &__copy_table_end__; ++pTable
 152:C:/StellarStudio-7.0/SDKS/StellarESDK-1.7.0/Modules/Platform/CMSIS/Core/Include\cmsis_gcc.h ****     for(uint32_t i=0u; i<pTable->wlen; ++i) {
 153:C:/StellarStudio-7.0/SDKS/StellarESDK-1.7.0/Modules/Platform/CMSIS/Core/Include\cmsis_gcc.h ****       pTable->dest[i] = pTable->src[i];
 154:C:/StellarStudio-7.0/SDKS/StellarESDK-1.7.0/Modules/Platform/CMSIS/Core/Include\cmsis_gcc.h ****     }
 155:C:/StellarStudio-7.0/SDKS/StellarESDK-1.7.0/Modules/Platform/CMSIS/Core/Include\cmsis_gcc.h ****   }
 156:C:/StellarStudio-7.0/SDKS/StellarESDK-1.7.0/Modules/Platform/CMSIS/Core/Include\cmsis_gcc.h **** 
 157:C:/StellarStudio-7.0/SDKS/StellarESDK-1.7.0/Modules/Platform/CMSIS/Core/Include\cmsis_gcc.h ****   for (__zero_table_t const* pTable = &__zero_table_start__; pTable < &__zero_table_end__; ++pTable
 158:C:/StellarStudio-7.0/SDKS/StellarESDK-1.7.0/Modules/Platform/CMSIS/Core/Include\cmsis_gcc.h ****     for(uint32_t i=0u; i<pTable->wlen; ++i) {
 159:C:/StellarStudio-7.0/SDKS/StellarESDK-1.7.0/Modules/Platform/CMSIS/Core/Include\cmsis_gcc.h ****       pTable->dest[i] = 0u;
 160:C:/StellarStudio-7.0/SDKS/StellarESDK-1.7.0/Modules/Platform/CMSIS/Core/Include\cmsis_gcc.h ****     }
 161:C:/StellarStudio-7.0/SDKS/StellarESDK-1.7.0/Modules/Platform/CMSIS/Core/Include\cmsis_gcc.h ****   }
 162:C:/StellarStudio-7.0/SDKS/StellarESDK-1.7.0/Modules/Platform/CMSIS/Core/Include\cmsis_gcc.h **** 
 163:C:/StellarStudio-7.0/SDKS/StellarESDK-1.7.0/Modules/Platform/CMSIS/Core/Include\cmsis_gcc.h ****   _start();
 164:C:/StellarStudio-7.0/SDKS/StellarESDK-1.7.0/Modules/Platform/CMSIS/Core/Include\cmsis_gcc.h **** }
 165:C:/StellarStudio-7.0/SDKS/StellarESDK-1.7.0/Modules/Platform/CMSIS/Core/Include\cmsis_gcc.h **** 
 166:C:/StellarStudio-7.0/SDKS/StellarESDK-1.7.0/Modules/Platform/CMSIS/Core/Include\cmsis_gcc.h **** #define __PROGRAM_START           __cmsis_start
 167:C:/StellarStudio-7.0/SDKS/StellarESDK-1.7.0/Modules/Platform/CMSIS/Core/Include\cmsis_gcc.h **** #endif
 168:C:/StellarStudio-7.0/SDKS/StellarESDK-1.7.0/Modules/Platform/CMSIS/Core/Include\cmsis_gcc.h **** 
 169:C:/StellarStudio-7.0/SDKS/StellarESDK-1.7.0/Modules/Platform/CMSIS/Core/Include\cmsis_gcc.h **** #ifndef __INITIAL_SP
 170:C:/StellarStudio-7.0/SDKS/StellarESDK-1.7.0/Modules/Platform/CMSIS/Core/Include\cmsis_gcc.h **** #define __INITIAL_SP              __StackTop
 171:C:/StellarStudio-7.0/SDKS/StellarESDK-1.7.0/Modules/Platform/CMSIS/Core/Include\cmsis_gcc.h **** #endif
 172:C:/StellarStudio-7.0/SDKS/StellarESDK-1.7.0/Modules/Platform/CMSIS/Core/Include\cmsis_gcc.h **** 
 173:C:/StellarStudio-7.0/SDKS/StellarESDK-1.7.0/Modules/Platform/CMSIS/Core/Include\cmsis_gcc.h **** #ifndef __STACK_LIMIT
 174:C:/StellarStudio-7.0/SDKS/StellarESDK-1.7.0/Modules/Platform/CMSIS/Core/Include\cmsis_gcc.h **** #define __STACK_LIMIT             __StackLimit
 175:C:/StellarStudio-7.0/SDKS/StellarESDK-1.7.0/Modules/Platform/CMSIS/Core/Include\cmsis_gcc.h **** #endif
 176:C:/StellarStudio-7.0/SDKS/StellarESDK-1.7.0/Modules/Platform/CMSIS/Core/Include\cmsis_gcc.h **** 
 177:C:/StellarStudio-7.0/SDKS/StellarESDK-1.7.0/Modules/Platform/CMSIS/Core/Include\cmsis_gcc.h **** #ifndef __VECTOR_TABLE
 178:C:/StellarStudio-7.0/SDKS/StellarESDK-1.7.0/Modules/Platform/CMSIS/Core/Include\cmsis_gcc.h **** #define __VECTOR_TABLE            __Vectors
 179:C:/StellarStudio-7.0/SDKS/StellarESDK-1.7.0/Modules/Platform/CMSIS/Core/Include\cmsis_gcc.h **** #endif
 180:C:/StellarStudio-7.0/SDKS/StellarESDK-1.7.0/Modules/Platform/CMSIS/Core/Include\cmsis_gcc.h **** 
 181:C:/StellarStudio-7.0/SDKS/StellarESDK-1.7.0/Modules/Platform/CMSIS/Core/Include\cmsis_gcc.h **** #ifndef __VECTOR_TABLE_ATTRIBUTE
 182:C:/StellarStudio-7.0/SDKS/StellarESDK-1.7.0/Modules/Platform/CMSIS/Core/Include\cmsis_gcc.h **** #define __VECTOR_TABLE_ATTRIBUTE  __attribute__((used, section(".vectors")))
 183:C:/StellarStudio-7.0/SDKS/StellarESDK-1.7.0/Modules/Platform/CMSIS/Core/Include\cmsis_gcc.h **** #endif
 184:C:/StellarStudio-7.0/SDKS/StellarESDK-1.7.0/Modules/Platform/CMSIS/Core/Include\cmsis_gcc.h **** 
 185:C:/StellarStudio-7.0/SDKS/StellarESDK-1.7.0/Modules/Platform/CMSIS/Core/Include\cmsis_gcc.h **** #if defined (__ARM_FEATURE_CMSE) && (__ARM_FEATURE_CMSE == 3U)
 186:C:/StellarStudio-7.0/SDKS/StellarESDK-1.7.0/Modules/Platform/CMSIS/Core/Include\cmsis_gcc.h **** #ifndef __STACK_SEAL
 187:C:/StellarStudio-7.0/SDKS/StellarESDK-1.7.0/Modules/Platform/CMSIS/Core/Include\cmsis_gcc.h **** #define __STACK_SEAL              __StackSeal
 188:C:/StellarStudio-7.0/SDKS/StellarESDK-1.7.0/Modules/Platform/CMSIS/Core/Include\cmsis_gcc.h **** #endif
 189:C:/StellarStudio-7.0/SDKS/StellarESDK-1.7.0/Modules/Platform/CMSIS/Core/Include\cmsis_gcc.h **** 
 190:C:/StellarStudio-7.0/SDKS/StellarESDK-1.7.0/Modules/Platform/CMSIS/Core/Include\cmsis_gcc.h **** #ifndef __TZ_STACK_SEAL_SIZE
 191:C:/StellarStudio-7.0/SDKS/StellarESDK-1.7.0/Modules/Platform/CMSIS/Core/Include\cmsis_gcc.h **** #define __TZ_STACK_SEAL_SIZE      8U
 192:C:/StellarStudio-7.0/SDKS/StellarESDK-1.7.0/Modules/Platform/CMSIS/Core/Include\cmsis_gcc.h **** #endif
 193:C:/StellarStudio-7.0/SDKS/StellarESDK-1.7.0/Modules/Platform/CMSIS/Core/Include\cmsis_gcc.h **** 
 194:C:/StellarStudio-7.0/SDKS/StellarESDK-1.7.0/Modules/Platform/CMSIS/Core/Include\cmsis_gcc.h **** #ifndef __TZ_STACK_SEAL_VALUE
 195:C:/StellarStudio-7.0/SDKS/StellarESDK-1.7.0/Modules/Platform/CMSIS/Core/Include\cmsis_gcc.h **** #define __TZ_STACK_SEAL_VALUE     0xFEF5EDA5FEF5EDA5ULL
 196:C:/StellarStudio-7.0/SDKS/StellarESDK-1.7.0/Modules/Platform/CMSIS/Core/Include\cmsis_gcc.h **** #endif
 197:C:/StellarStudio-7.0/SDKS/StellarESDK-1.7.0/Modules/Platform/CMSIS/Core/Include\cmsis_gcc.h **** 
 198:C:/StellarStudio-7.0/SDKS/StellarESDK-1.7.0/Modules/Platform/CMSIS/Core/Include\cmsis_gcc.h **** 
 199:C:/StellarStudio-7.0/SDKS/StellarESDK-1.7.0/Modules/Platform/CMSIS/Core/Include\cmsis_gcc.h **** __STATIC_FORCEINLINE void __TZ_set_STACKSEAL_S (uint32_t* stackTop) {
 200:C:/StellarStudio-7.0/SDKS/StellarESDK-1.7.0/Modules/Platform/CMSIS/Core/Include\cmsis_gcc.h ****   *((uint64_t *)stackTop) = __TZ_STACK_SEAL_VALUE;
 201:C:/StellarStudio-7.0/SDKS/StellarESDK-1.7.0/Modules/Platform/CMSIS/Core/Include\cmsis_gcc.h **** }
 202:C:/StellarStudio-7.0/SDKS/StellarESDK-1.7.0/Modules/Platform/CMSIS/Core/Include\cmsis_gcc.h **** #endif
 203:C:/StellarStudio-7.0/SDKS/StellarESDK-1.7.0/Modules/Platform/CMSIS/Core/Include\cmsis_gcc.h **** 
 204:C:/StellarStudio-7.0/SDKS/StellarESDK-1.7.0/Modules/Platform/CMSIS/Core/Include\cmsis_gcc.h **** 
 205:C:/StellarStudio-7.0/SDKS/StellarESDK-1.7.0/Modules/Platform/CMSIS/Core/Include\cmsis_gcc.h **** /* ##########################  Core Instruction Access  ######################### */
 206:C:/StellarStudio-7.0/SDKS/StellarESDK-1.7.0/Modules/Platform/CMSIS/Core/Include\cmsis_gcc.h **** /** \defgroup CMSIS_Core_InstructionInterface CMSIS Core Instruction Interface
 207:C:/StellarStudio-7.0/SDKS/StellarESDK-1.7.0/Modules/Platform/CMSIS/Core/Include\cmsis_gcc.h ****   Access to dedicated instructions
 208:C:/StellarStudio-7.0/SDKS/StellarESDK-1.7.0/Modules/Platform/CMSIS/Core/Include\cmsis_gcc.h ****   @{
 209:C:/StellarStudio-7.0/SDKS/StellarESDK-1.7.0/Modules/Platform/CMSIS/Core/Include\cmsis_gcc.h **** */
 210:C:/StellarStudio-7.0/SDKS/StellarESDK-1.7.0/Modules/Platform/CMSIS/Core/Include\cmsis_gcc.h **** 
 211:C:/StellarStudio-7.0/SDKS/StellarESDK-1.7.0/Modules/Platform/CMSIS/Core/Include\cmsis_gcc.h **** /* Define macros for porting to both thumb1 and thumb2.
 212:C:/StellarStudio-7.0/SDKS/StellarESDK-1.7.0/Modules/Platform/CMSIS/Core/Include\cmsis_gcc.h ****  * For thumb1, use low register (r0-r7), specified by constraint "l"
 213:C:/StellarStudio-7.0/SDKS/StellarESDK-1.7.0/Modules/Platform/CMSIS/Core/Include\cmsis_gcc.h ****  * Otherwise, use general registers, specified by constraint "r" */
 214:C:/StellarStudio-7.0/SDKS/StellarESDK-1.7.0/Modules/Platform/CMSIS/Core/Include\cmsis_gcc.h **** #if defined (__thumb__) && !defined (__thumb2__)
 215:C:/StellarStudio-7.0/SDKS/StellarESDK-1.7.0/Modules/Platform/CMSIS/Core/Include\cmsis_gcc.h **** #define __CMSIS_GCC_OUT_REG(r) "=l" (r)
 216:C:/StellarStudio-7.0/SDKS/StellarESDK-1.7.0/Modules/Platform/CMSIS/Core/Include\cmsis_gcc.h **** #define __CMSIS_GCC_RW_REG(r) "+l" (r)
 217:C:/StellarStudio-7.0/SDKS/StellarESDK-1.7.0/Modules/Platform/CMSIS/Core/Include\cmsis_gcc.h **** #define __CMSIS_GCC_USE_REG(r) "l" (r)
 218:C:/StellarStudio-7.0/SDKS/StellarESDK-1.7.0/Modules/Platform/CMSIS/Core/Include\cmsis_gcc.h **** #else
 219:C:/StellarStudio-7.0/SDKS/StellarESDK-1.7.0/Modules/Platform/CMSIS/Core/Include\cmsis_gcc.h **** #define __CMSIS_GCC_OUT_REG(r) "=r" (r)
 220:C:/StellarStudio-7.0/SDKS/StellarESDK-1.7.0/Modules/Platform/CMSIS/Core/Include\cmsis_gcc.h **** #define __CMSIS_GCC_RW_REG(r) "+r" (r)
 221:C:/StellarStudio-7.0/SDKS/StellarESDK-1.7.0/Modules/Platform/CMSIS/Core/Include\cmsis_gcc.h **** #define __CMSIS_GCC_USE_REG(r) "r" (r)
 222:C:/StellarStudio-7.0/SDKS/StellarESDK-1.7.0/Modules/Platform/CMSIS/Core/Include\cmsis_gcc.h **** #endif
 223:C:/StellarStudio-7.0/SDKS/StellarESDK-1.7.0/Modules/Platform/CMSIS/Core/Include\cmsis_gcc.h **** 
 224:C:/StellarStudio-7.0/SDKS/StellarESDK-1.7.0/Modules/Platform/CMSIS/Core/Include\cmsis_gcc.h **** /**
 225:C:/StellarStudio-7.0/SDKS/StellarESDK-1.7.0/Modules/Platform/CMSIS/Core/Include\cmsis_gcc.h ****   \brief   No Operation
 226:C:/StellarStudio-7.0/SDKS/StellarESDK-1.7.0/Modules/Platform/CMSIS/Core/Include\cmsis_gcc.h ****   \details No Operation does nothing. This instruction can be used for code alignment purposes.
 227:C:/StellarStudio-7.0/SDKS/StellarESDK-1.7.0/Modules/Platform/CMSIS/Core/Include\cmsis_gcc.h ****  */
 228:C:/StellarStudio-7.0/SDKS/StellarESDK-1.7.0/Modules/Platform/CMSIS/Core/Include\cmsis_gcc.h **** #define __NOP()                             __ASM volatile ("nop")
 229:C:/StellarStudio-7.0/SDKS/StellarESDK-1.7.0/Modules/Platform/CMSIS/Core/Include\cmsis_gcc.h **** 
 230:C:/StellarStudio-7.0/SDKS/StellarESDK-1.7.0/Modules/Platform/CMSIS/Core/Include\cmsis_gcc.h **** /**
 231:C:/StellarStudio-7.0/SDKS/StellarESDK-1.7.0/Modules/Platform/CMSIS/Core/Include\cmsis_gcc.h ****   \brief   Wait For Interrupt
 232:C:/StellarStudio-7.0/SDKS/StellarESDK-1.7.0/Modules/Platform/CMSIS/Core/Include\cmsis_gcc.h ****   \details Wait For Interrupt is a hint instruction that suspends execution until one of a number o
 233:C:/StellarStudio-7.0/SDKS/StellarESDK-1.7.0/Modules/Platform/CMSIS/Core/Include\cmsis_gcc.h ****  */
 234:C:/StellarStudio-7.0/SDKS/StellarESDK-1.7.0/Modules/Platform/CMSIS/Core/Include\cmsis_gcc.h **** #define __WFI()                             __ASM volatile ("wfi":::"memory")
 235:C:/StellarStudio-7.0/SDKS/StellarESDK-1.7.0/Modules/Platform/CMSIS/Core/Include\cmsis_gcc.h **** 
 236:C:/StellarStudio-7.0/SDKS/StellarESDK-1.7.0/Modules/Platform/CMSIS/Core/Include\cmsis_gcc.h **** 
 237:C:/StellarStudio-7.0/SDKS/StellarESDK-1.7.0/Modules/Platform/CMSIS/Core/Include\cmsis_gcc.h **** /**
 238:C:/StellarStudio-7.0/SDKS/StellarESDK-1.7.0/Modules/Platform/CMSIS/Core/Include\cmsis_gcc.h ****   \brief   Wait For Event
 239:C:/StellarStudio-7.0/SDKS/StellarESDK-1.7.0/Modules/Platform/CMSIS/Core/Include\cmsis_gcc.h ****   \details Wait For Event is a hint instruction that permits the processor to enter
 240:C:/StellarStudio-7.0/SDKS/StellarESDK-1.7.0/Modules/Platform/CMSIS/Core/Include\cmsis_gcc.h ****            a low-power state until one of a number of events occurs.
 241:C:/StellarStudio-7.0/SDKS/StellarESDK-1.7.0/Modules/Platform/CMSIS/Core/Include\cmsis_gcc.h ****  */
 242:C:/StellarStudio-7.0/SDKS/StellarESDK-1.7.0/Modules/Platform/CMSIS/Core/Include\cmsis_gcc.h **** #define __WFE()                             __ASM volatile ("wfe":::"memory")
 243:C:/StellarStudio-7.0/SDKS/StellarESDK-1.7.0/Modules/Platform/CMSIS/Core/Include\cmsis_gcc.h **** 
 244:C:/StellarStudio-7.0/SDKS/StellarESDK-1.7.0/Modules/Platform/CMSIS/Core/Include\cmsis_gcc.h **** 
 245:C:/StellarStudio-7.0/SDKS/StellarESDK-1.7.0/Modules/Platform/CMSIS/Core/Include\cmsis_gcc.h **** /**
 246:C:/StellarStudio-7.0/SDKS/StellarESDK-1.7.0/Modules/Platform/CMSIS/Core/Include\cmsis_gcc.h ****   \brief   Send Event
 247:C:/StellarStudio-7.0/SDKS/StellarESDK-1.7.0/Modules/Platform/CMSIS/Core/Include\cmsis_gcc.h ****   \details Send Event is a hint instruction. It causes an event to be signaled to the CPU.
 248:C:/StellarStudio-7.0/SDKS/StellarESDK-1.7.0/Modules/Platform/CMSIS/Core/Include\cmsis_gcc.h ****  */
 249:C:/StellarStudio-7.0/SDKS/StellarESDK-1.7.0/Modules/Platform/CMSIS/Core/Include\cmsis_gcc.h **** #define __SEV()                             __ASM volatile ("sev")
 250:C:/StellarStudio-7.0/SDKS/StellarESDK-1.7.0/Modules/Platform/CMSIS/Core/Include\cmsis_gcc.h **** 
 251:C:/StellarStudio-7.0/SDKS/StellarESDK-1.7.0/Modules/Platform/CMSIS/Core/Include\cmsis_gcc.h **** 
 252:C:/StellarStudio-7.0/SDKS/StellarESDK-1.7.0/Modules/Platform/CMSIS/Core/Include\cmsis_gcc.h **** /**
 253:C:/StellarStudio-7.0/SDKS/StellarESDK-1.7.0/Modules/Platform/CMSIS/Core/Include\cmsis_gcc.h ****   \brief   Instruction Synchronization Barrier
 254:C:/StellarStudio-7.0/SDKS/StellarESDK-1.7.0/Modules/Platform/CMSIS/Core/Include\cmsis_gcc.h ****   \details Instruction Synchronization Barrier flushes the pipeline in the processor,
 255:C:/StellarStudio-7.0/SDKS/StellarESDK-1.7.0/Modules/Platform/CMSIS/Core/Include\cmsis_gcc.h ****            so that all instructions following the ISB are fetched from cache or memory,
 256:C:/StellarStudio-7.0/SDKS/StellarESDK-1.7.0/Modules/Platform/CMSIS/Core/Include\cmsis_gcc.h ****            after the instruction has been completed.
 257:C:/StellarStudio-7.0/SDKS/StellarESDK-1.7.0/Modules/Platform/CMSIS/Core/Include\cmsis_gcc.h ****  */
 258:C:/StellarStudio-7.0/SDKS/StellarESDK-1.7.0/Modules/Platform/CMSIS/Core/Include\cmsis_gcc.h **** __STATIC_FORCEINLINE void __ISB(void)
 259:C:/StellarStudio-7.0/SDKS/StellarESDK-1.7.0/Modules/Platform/CMSIS/Core/Include\cmsis_gcc.h **** {
 260:C:/StellarStudio-7.0/SDKS/StellarESDK-1.7.0/Modules/Platform/CMSIS/Core/Include\cmsis_gcc.h ****   __ASM volatile ("isb 0xF":::"memory");
 261:C:/StellarStudio-7.0/SDKS/StellarESDK-1.7.0/Modules/Platform/CMSIS/Core/Include\cmsis_gcc.h **** }
 262:C:/StellarStudio-7.0/SDKS/StellarESDK-1.7.0/Modules/Platform/CMSIS/Core/Include\cmsis_gcc.h **** 
 263:C:/StellarStudio-7.0/SDKS/StellarESDK-1.7.0/Modules/Platform/CMSIS/Core/Include\cmsis_gcc.h **** 
 264:C:/StellarStudio-7.0/SDKS/StellarESDK-1.7.0/Modules/Platform/CMSIS/Core/Include\cmsis_gcc.h **** /**
 265:C:/StellarStudio-7.0/SDKS/StellarESDK-1.7.0/Modules/Platform/CMSIS/Core/Include\cmsis_gcc.h ****   \brief   Data Synchronization Barrier
 266:C:/StellarStudio-7.0/SDKS/StellarESDK-1.7.0/Modules/Platform/CMSIS/Core/Include\cmsis_gcc.h ****   \details Acts as a special kind of Data Memory Barrier.
 267:C:/StellarStudio-7.0/SDKS/StellarESDK-1.7.0/Modules/Platform/CMSIS/Core/Include\cmsis_gcc.h ****            It completes when all explicit memory accesses before this instruction complete.
 268:C:/StellarStudio-7.0/SDKS/StellarESDK-1.7.0/Modules/Platform/CMSIS/Core/Include\cmsis_gcc.h ****  */
 269:C:/StellarStudio-7.0/SDKS/StellarESDK-1.7.0/Modules/Platform/CMSIS/Core/Include\cmsis_gcc.h **** __STATIC_FORCEINLINE void __DSB(void)
 270:C:/StellarStudio-7.0/SDKS/StellarESDK-1.7.0/Modules/Platform/CMSIS/Core/Include\cmsis_gcc.h **** {
 271:C:/StellarStudio-7.0/SDKS/StellarESDK-1.7.0/Modules/Platform/CMSIS/Core/Include\cmsis_gcc.h ****   __ASM volatile ("dsb 0xF":::"memory");
 135              		.loc 2 271 3
 136              		.syntax unified
 137              	@ 271 "C:/StellarStudio-7.0/SDKS/StellarESDK-1.7.0/Modules/Platform/CMSIS/Core/Include/cmsis_gcc.h"
 138 002c BFF34F8F 		dsb 0xF
 139              	@ 0 "" 2
 272:C:/StellarStudio-7.0/SDKS/StellarESDK-1.7.0/Modules/Platform/CMSIS/Core/Include\cmsis_gcc.h **** }
 140              		.loc 2 272 1
 141              		.thumb
 142              		.syntax unified
 143 0030 00BF     		nop
 144              	.LBE23:
 145              	.LBE22:
 106:libraries/zf_driver/zf_driver_pit.c ****         IRQ_EPILOGUE();
 107:libraries/zf_driver/zf_driver_pit.c ****     }
 108:libraries/zf_driver/zf_driver_pit.c ****     ZF_DSB();
 109:libraries/zf_driver/zf_driver_pit.c **** }
 146              		.loc 1 109 1
 147 0032 00BF     		nop
 148 0034 08BD     		pop	{r3, pc}
 149              	.L5:
 150 0036 00BF     		.align	2
 151              	.L4:
 152 0038 00000000 		.word	pit_obj_list
 153 003c 002C0042 		.word	1107307520
 154 0040 00000000 		.word	timer_pit_callback
 155 0044 00000000 		.word	DRV_TIM1
 156              		.cfi_endproc
 157              	.LFE459:
 159              		.section	.text.VectorF0,"ax",%progbits
 160              		.align	1
 161              		.p2align 4,,15
 162              		.global	VectorF0
 163              		.syntax unified
 164              		.thumb
 165              		.thumb_func
 167              	VectorF0:
 168              	.LFB460:
 110:libraries/zf_driver/zf_driver_pit.c **** 
 111:libraries/zf_driver/zf_driver_pit.c **** //-------------------------------------------------------------------------------------------------
 112:libraries/zf_driver/zf_driver_pit.c **** // ÂáΩÊï∞ÁÆÄ‰ªã     TIM8  ÁöÑ‰∏≠Êñ≠ÊúçÂä°ÂáΩÊï∞
 113:libraries/zf_driver/zf_driver_pit.c **** // ÂèÇÊï∞ËØ¥Êòé     void
 114:libraries/zf_driver/zf_driver_pit.c **** // ËøîÂõûÂèÇÊï∞     void
 115:libraries/zf_driver/zf_driver_pit.c **** // ‰ΩøÁî®Á§∫‰æã     
 116:libraries/zf_driver/zf_driver_pit.c **** // Â§áÊ≥®‰ø°ÊÅØ     ÂêØÂä® .s Êñá‰ª∂ÂÆö‰πâ ‰∏çÂÖÅËÆ∏‰øÆÊîπÂáΩÊï∞ÂêçÁß∞
 117:libraries/zf_driver/zf_driver_pit.c **** //              pit_set_priority(pit_index, priority);
 118:libraries/zf_driver/zf_driver_pit.c **** //-------------------------------------------------------------------------------------------------
 119:libraries/zf_driver/zf_driver_pit.c **** void IRQ_TIM8_UP_HANDLER (void)
 120:libraries/zf_driver/zf_driver_pit.c **** {
 169              		.loc 1 120 1
 170              		.cfi_startproc
 171              		@ args = 0, pretend = 0, frame = 0
 172              		@ frame_needed = 0, uses_anonymous_args = 0
 173 0000 08B5     		push	{r3, lr}
 174              		.cfi_def_cfa_offset 8
 175              		.cfi_offset 3, -8
 176              		.cfi_offset 14, -4
 121:libraries/zf_driver/zf_driver_pit.c ****     if(pit_obj_list[PIT_TIM8].period_system_cycles)
 177              		.loc 1 121 30
 178 0002 0D4B     		ldr	r3, .L9
 179 0004 DB68     		ldr	r3, [r3, #12]
 180              		.loc 1 121 7
 181 0006 002B     		cmp	r3, #0
 182 0008 0DD0     		beq	.L7
 122:libraries/zf_driver/zf_driver_pit.c ****     {
 123:libraries/zf_driver/zf_driver_pit.c ****         TIM8->SR &= ~TIM_SR_UIF;
 183              		.loc 1 123 18
 184 000a 0C4B     		ldr	r3, .L9+4
 185 000c 1B69     		ldr	r3, [r3, #16]
 186 000e 0B4A     		ldr	r2, .L9+4
 187 0010 23F00103 		bic	r3, r3, #1
 188 0014 1361     		str	r3, [r2, #16]
 124:libraries/zf_driver/zf_driver_pit.c ****         timer_pit_callback[PIT_TIM8].callback(0, timer_pit_callback[PIT_TIM8].parameter_ptr);
 189              		.loc 1 124 37
 190 0016 0A4B     		ldr	r3, .L9+8
 191 0018 9B68     		ldr	r3, [r3, #8]
 192              		.loc 1 124 9
 193 001a 094A     		ldr	r2, .L9+8
 194 001c D268     		ldr	r2, [r2, #12]
 195 001e 1146     		mov	r1, r2
 196 0020 0020     		movs	r0, #0
 197 0022 9847     		blx	r3
 198              	.LVL1:
 199 0024 02E0     		b	.L8
 200              	.L7:
 125:libraries/zf_driver/zf_driver_pit.c ****     }
 126:libraries/zf_driver/zf_driver_pit.c ****     else
 127:libraries/zf_driver/zf_driver_pit.c ****     {
 128:libraries/zf_driver/zf_driver_pit.c ****         IRQ_PROLOGUE();
 129:libraries/zf_driver/zf_driver_pit.c ****         __tim_serve_interrupt(&DRV_TIM8);
 201              		.loc 1 129 9
 202 0026 0748     		ldr	r0, .L9+12
 203 0028 FFF7FEFF 		bl	__tim_serve_interrupt
 204              	.L8:
 205              	.LBB24:
 206              	.LBB25:
 271:C:/StellarStudio-7.0/SDKS/StellarESDK-1.7.0/Modules/Platform/CMSIS/Core/Include\cmsis_gcc.h **** }
 207              		.loc 2 271 3
 208              		.syntax unified
 209              	@ 271 "C:/StellarStudio-7.0/SDKS/StellarESDK-1.7.0/Modules/Platform/CMSIS/Core/Include/cmsis_gcc.h"
 210 002c BFF34F8F 		dsb 0xF
 211              	@ 0 "" 2
 212              		.loc 2 272 1
 213              		.thumb
 214              		.syntax unified
 215 0030 00BF     		nop
 216              	.LBE25:
 217              	.LBE24:
 130:libraries/zf_driver/zf_driver_pit.c ****         IRQ_EPILOGUE();
 131:libraries/zf_driver/zf_driver_pit.c ****     }
 132:libraries/zf_driver/zf_driver_pit.c ****     ZF_DSB();
 133:libraries/zf_driver/zf_driver_pit.c **** }
 218              		.loc 1 133 1
 219 0032 00BF     		nop
 220 0034 08BD     		pop	{r3, pc}
 221              	.L10:
 222 0036 00BF     		.align	2
 223              	.L9:
 224 0038 00000000 		.word	pit_obj_list
 225 003c 00300042 		.word	1107308544
 226 0040 00000000 		.word	timer_pit_callback
 227 0044 00000000 		.word	DRV_TIM8
 228              		.cfi_endproc
 229              	.LFE460:
 231              		.section	.text.VectorB0,"ax",%progbits
 232              		.align	1
 233              		.p2align 4,,15
 234              		.global	VectorB0
 235              		.syntax unified
 236              		.thumb
 237              		.thumb_func
 239              	VectorB0:
 240              	.LFB461:
 134:libraries/zf_driver/zf_driver_pit.c **** 
 135:libraries/zf_driver/zf_driver_pit.c **** //-------------------------------------------------------------------------------------------------
 136:libraries/zf_driver/zf_driver_pit.c **** // ÂáΩÊï∞ÁÆÄ‰ªã     TIM2  ÁöÑ‰∏≠Êñ≠ÊúçÂä°ÂáΩÊï∞
 137:libraries/zf_driver/zf_driver_pit.c **** // ÂèÇÊï∞ËØ¥Êòé     void
 138:libraries/zf_driver/zf_driver_pit.c **** // ËøîÂõûÂèÇÊï∞     void
 139:libraries/zf_driver/zf_driver_pit.c **** // ‰ΩøÁî®Á§∫‰æã     
 140:libraries/zf_driver/zf_driver_pit.c **** // Â§áÊ≥®‰ø°ÊÅØ     ÂêØÂä® .s Êñá‰ª∂ÂÆö‰πâ ‰∏çÂÖÅËÆ∏‰øÆÊîπÂáΩÊï∞ÂêçÁß∞
 141:libraries/zf_driver/zf_driver_pit.c **** //              pit_set_priority(pit_index, priority);
 142:libraries/zf_driver/zf_driver_pit.c **** //-------------------------------------------------------------------------------------------------
 143:libraries/zf_driver/zf_driver_pit.c **** void IRQ_TIM2_HANDLER (void)
 144:libraries/zf_driver/zf_driver_pit.c **** {
 241              		.loc 1 144 1
 242              		.cfi_startproc
 243              		@ args = 0, pretend = 0, frame = 0
 244              		@ frame_needed = 0, uses_anonymous_args = 0
 245 0000 08B5     		push	{r3, lr}
 246              		.cfi_def_cfa_offset 8
 247              		.cfi_offset 3, -8
 248              		.cfi_offset 14, -4
 145:libraries/zf_driver/zf_driver_pit.c ****     if(pit_obj_list[PIT_TIM2].period_system_cycles)
 249              		.loc 1 145 30
 250 0002 0D4B     		ldr	r3, .L14
 251 0004 5B69     		ldr	r3, [r3, #20]
 252              		.loc 1 145 7
 253 0006 002B     		cmp	r3, #0
 254 0008 0DD0     		beq	.L12
 146:libraries/zf_driver/zf_driver_pit.c ****     {
 147:libraries/zf_driver/zf_driver_pit.c ****         TIM2->SR &= ~TIM_SR_UIF;
 255              		.loc 1 147 18
 256 000a 0C4B     		ldr	r3, .L14+4
 257 000c 1B69     		ldr	r3, [r3, #16]
 258 000e 0B4A     		ldr	r2, .L14+4
 259 0010 23F00103 		bic	r3, r3, #1
 260 0014 1361     		str	r3, [r2, #16]
 148:libraries/zf_driver/zf_driver_pit.c ****         timer_pit_callback[PIT_TIM2].callback(0, timer_pit_callback[PIT_TIM2].parameter_ptr);
 261              		.loc 1 148 37
 262 0016 0A4B     		ldr	r3, .L14+8
 263 0018 1B69     		ldr	r3, [r3, #16]
 264              		.loc 1 148 9
 265 001a 094A     		ldr	r2, .L14+8
 266 001c 5269     		ldr	r2, [r2, #20]
 267 001e 1146     		mov	r1, r2
 268 0020 0020     		movs	r0, #0
 269 0022 9847     		blx	r3
 270              	.LVL2:
 271 0024 02E0     		b	.L13
 272              	.L12:
 149:libraries/zf_driver/zf_driver_pit.c ****     }
 150:libraries/zf_driver/zf_driver_pit.c ****     else
 151:libraries/zf_driver/zf_driver_pit.c ****     {
 152:libraries/zf_driver/zf_driver_pit.c ****         IRQ_PROLOGUE();
 153:libraries/zf_driver/zf_driver_pit.c ****         __tim_serve_interrupt(&DRV_TIM2);
 273              		.loc 1 153 9
 274 0026 0748     		ldr	r0, .L14+12
 275 0028 FFF7FEFF 		bl	__tim_serve_interrupt
 276              	.L13:
 277              	.LBB26:
 278              	.LBB27:
 271:C:/StellarStudio-7.0/SDKS/StellarESDK-1.7.0/Modules/Platform/CMSIS/Core/Include\cmsis_gcc.h **** }
 279              		.loc 2 271 3
 280              		.syntax unified
 281              	@ 271 "C:/StellarStudio-7.0/SDKS/StellarESDK-1.7.0/Modules/Platform/CMSIS/Core/Include/cmsis_gcc.h"
 282 002c BFF34F8F 		dsb 0xF
 283              	@ 0 "" 2
 284              		.loc 2 272 1
 285              		.thumb
 286              		.syntax unified
 287 0030 00BF     		nop
 288              	.LBE27:
 289              	.LBE26:
 154:libraries/zf_driver/zf_driver_pit.c ****         IRQ_EPILOGUE();
 155:libraries/zf_driver/zf_driver_pit.c ****     }
 156:libraries/zf_driver/zf_driver_pit.c ****     ZF_DSB();
 157:libraries/zf_driver/zf_driver_pit.c **** }
 290              		.loc 1 157 1
 291 0032 00BF     		nop
 292 0034 08BD     		pop	{r3, pc}
 293              	.L15:
 294 0036 00BF     		.align	2
 295              	.L14:
 296 0038 00000000 		.word	pit_obj_list
 297 003c 003C0040 		.word	1073757184
 298 0040 00000000 		.word	timer_pit_callback
 299 0044 00000000 		.word	DRV_TIM2
 300              		.cfi_endproc
 301              	.LFE461:
 303              		.section	.text.VectorFC,"ax",%progbits
 304              		.align	1
 305              		.p2align 4,,15
 306              		.global	VectorFC
 307              		.syntax unified
 308              		.thumb
 309              		.thumb_func
 311              	VectorFC:
 312              	.LFB462:
 158:libraries/zf_driver/zf_driver_pit.c **** 
 159:libraries/zf_driver/zf_driver_pit.c **** //-------------------------------------------------------------------------------------------------
 160:libraries/zf_driver/zf_driver_pit.c **** // ÂáΩÊï∞ÁÆÄ‰ªã     TIM5  ÁöÑ‰∏≠Êñ≠ÊúçÂä°ÂáΩÊï∞
 161:libraries/zf_driver/zf_driver_pit.c **** // ÂèÇÊï∞ËØ¥Êòé     void
 162:libraries/zf_driver/zf_driver_pit.c **** // ËøîÂõûÂèÇÊï∞     void
 163:libraries/zf_driver/zf_driver_pit.c **** // ‰ΩøÁî®Á§∫‰æã     
 164:libraries/zf_driver/zf_driver_pit.c **** // Â§áÊ≥®‰ø°ÊÅØ     ÂêØÂä® .s Êñá‰ª∂ÂÆö‰πâ ‰∏çÂÖÅËÆ∏‰øÆÊîπÂáΩÊï∞ÂêçÁß∞
 165:libraries/zf_driver/zf_driver_pit.c **** //              pit_set_priority(pit_index, priority);
 166:libraries/zf_driver/zf_driver_pit.c **** //-------------------------------------------------------------------------------------------------
 167:libraries/zf_driver/zf_driver_pit.c **** void IRQ_TIM5_HANDLER (void)
 168:libraries/zf_driver/zf_driver_pit.c **** {
 313              		.loc 1 168 1
 314              		.cfi_startproc
 315              		@ args = 0, pretend = 0, frame = 0
 316              		@ frame_needed = 0, uses_anonymous_args = 0
 317 0000 08B5     		push	{r3, lr}
 318              		.cfi_def_cfa_offset 8
 319              		.cfi_offset 3, -8
 320              		.cfi_offset 14, -4
 169:libraries/zf_driver/zf_driver_pit.c ****     if(pit_obj_list[PIT_TIM5].period_system_cycles)
 321              		.loc 1 169 30
 322 0002 0D4B     		ldr	r3, .L19
 323 0004 DB69     		ldr	r3, [r3, #28]
 324              		.loc 1 169 7
 325 0006 002B     		cmp	r3, #0
 326 0008 0DD0     		beq	.L17
 170:libraries/zf_driver/zf_driver_pit.c ****     {
 171:libraries/zf_driver/zf_driver_pit.c ****         TIM5->SR &= ~TIM_SR_UIF;
 327              		.loc 1 171 18
 328 000a 0C4B     		ldr	r3, .L19+4
 329 000c 1B69     		ldr	r3, [r3, #16]
 330 000e 0B4A     		ldr	r2, .L19+4
 331 0010 23F00103 		bic	r3, r3, #1
 332 0014 1361     		str	r3, [r2, #16]
 172:libraries/zf_driver/zf_driver_pit.c ****         timer_pit_callback[PIT_TIM5].callback(0, timer_pit_callback[PIT_TIM5].parameter_ptr);
 333              		.loc 1 172 37
 334 0016 0A4B     		ldr	r3, .L19+8
 335 0018 9B69     		ldr	r3, [r3, #24]
 336              		.loc 1 172 9
 337 001a 094A     		ldr	r2, .L19+8
 338 001c D269     		ldr	r2, [r2, #28]
 339 001e 1146     		mov	r1, r2
 340 0020 0020     		movs	r0, #0
 341 0022 9847     		blx	r3
 342              	.LVL3:
 343 0024 02E0     		b	.L18
 344              	.L17:
 173:libraries/zf_driver/zf_driver_pit.c ****     }
 174:libraries/zf_driver/zf_driver_pit.c ****     else
 175:libraries/zf_driver/zf_driver_pit.c ****     {
 176:libraries/zf_driver/zf_driver_pit.c ****         IRQ_PROLOGUE();
 177:libraries/zf_driver/zf_driver_pit.c ****         __tim_serve_interrupt(&DRV_TIM5);
 345              		.loc 1 177 9
 346 0026 0748     		ldr	r0, .L19+12
 347 0028 FFF7FEFF 		bl	__tim_serve_interrupt
 348              	.L18:
 349              	.LBB28:
 350              	.LBB29:
 271:C:/StellarStudio-7.0/SDKS/StellarESDK-1.7.0/Modules/Platform/CMSIS/Core/Include\cmsis_gcc.h **** }
 351              		.loc 2 271 3
 352              		.syntax unified
 353              	@ 271 "C:/StellarStudio-7.0/SDKS/StellarESDK-1.7.0/Modules/Platform/CMSIS/Core/Include/cmsis_gcc.h"
 354 002c BFF34F8F 		dsb 0xF
 355              	@ 0 "" 2
 356              		.loc 2 272 1
 357              		.thumb
 358              		.syntax unified
 359 0030 00BF     		nop
 360              	.LBE29:
 361              	.LBE28:
 178:libraries/zf_driver/zf_driver_pit.c ****         IRQ_EPILOGUE();
 179:libraries/zf_driver/zf_driver_pit.c ****     }
 180:libraries/zf_driver/zf_driver_pit.c ****     ZF_DSB();
 181:libraries/zf_driver/zf_driver_pit.c **** }
 362              		.loc 1 181 1
 363 0032 00BF     		nop
 364 0034 08BD     		pop	{r3, pc}
 365              	.L20:
 366 0036 00BF     		.align	2
 367              	.L19:
 368 0038 00000000 		.word	pit_obj_list
 369 003c 00400042 		.word	1107312640
 370 0040 00000000 		.word	timer_pit_callback
 371 0044 00000000 		.word	DRV_TIM5
 372              		.cfi_endproc
 373              	.LFE462:
 375              		.section	.text.VectorB4,"ax",%progbits
 376              		.align	1
 377              		.p2align 4,,15
 378              		.global	VectorB4
 379              		.syntax unified
 380              		.thumb
 381              		.thumb_func
 383              	VectorB4:
 384              	.LFB463:
 182:libraries/zf_driver/zf_driver_pit.c **** 
 183:libraries/zf_driver/zf_driver_pit.c **** //-------------------------------------------------------------------------------------------------
 184:libraries/zf_driver/zf_driver_pit.c **** // ÂáΩÊï∞ÁÆÄ‰ªã     TIM3  ÁöÑ‰∏≠Êñ≠ÊúçÂä°ÂáΩÊï∞
 185:libraries/zf_driver/zf_driver_pit.c **** // ÂèÇÊï∞ËØ¥Êòé     void
 186:libraries/zf_driver/zf_driver_pit.c **** // ËøîÂõûÂèÇÊï∞     void
 187:libraries/zf_driver/zf_driver_pit.c **** // ‰ΩøÁî®Á§∫‰æã     
 188:libraries/zf_driver/zf_driver_pit.c **** // Â§áÊ≥®‰ø°ÊÅØ     ÂêØÂä® .s Êñá‰ª∂ÂÆö‰πâ ‰∏çÂÖÅËÆ∏‰øÆÊîπÂáΩÊï∞ÂêçÁß∞
 189:libraries/zf_driver/zf_driver_pit.c **** //              pit_set_priority(pit_index, priority);
 190:libraries/zf_driver/zf_driver_pit.c **** //-------------------------------------------------------------------------------------------------
 191:libraries/zf_driver/zf_driver_pit.c **** void IRQ_TIM3_HANDLER (void)
 192:libraries/zf_driver/zf_driver_pit.c **** {
 385              		.loc 1 192 1
 386              		.cfi_startproc
 387              		@ args = 0, pretend = 0, frame = 0
 388              		@ frame_needed = 0, uses_anonymous_args = 0
 389 0000 08B5     		push	{r3, lr}
 390              		.cfi_def_cfa_offset 8
 391              		.cfi_offset 3, -8
 392              		.cfi_offset 14, -4
 193:libraries/zf_driver/zf_driver_pit.c ****     if(pit_obj_list[PIT_TIM3].period_system_cycles)
 393              		.loc 1 193 30
 394 0002 0E4B     		ldr	r3, .L24
 395 0004 5B6A     		ldr	r3, [r3, #36]
 396              		.loc 1 193 7
 397 0006 002B     		cmp	r3, #0
 398 0008 0FD0     		beq	.L22
 194:libraries/zf_driver/zf_driver_pit.c ****     {
 195:libraries/zf_driver/zf_driver_pit.c ****         TIM3->SR &= ~TIM_SR_UIF;
 399              		.loc 1 195 18
 400 000a 4FF04023 		mov	r3, #1073758208
 401 000e 1B69     		ldr	r3, [r3, #16]
 402 0010 4FF04022 		mov	r2, #1073758208
 403 0014 23F00103 		bic	r3, r3, #1
 404 0018 1361     		str	r3, [r2, #16]
 196:libraries/zf_driver/zf_driver_pit.c ****         timer_pit_callback[PIT_TIM3].callback(0, timer_pit_callback[PIT_TIM3].parameter_ptr);
 405              		.loc 1 196 37
 406 001a 094B     		ldr	r3, .L24+4
 407 001c 1B6A     		ldr	r3, [r3, #32]
 408              		.loc 1 196 9
 409 001e 084A     		ldr	r2, .L24+4
 410 0020 526A     		ldr	r2, [r2, #36]
 411 0022 1146     		mov	r1, r2
 412 0024 0020     		movs	r0, #0
 413 0026 9847     		blx	r3
 414              	.LVL4:
 415 0028 02E0     		b	.L23
 416              	.L22:
 197:libraries/zf_driver/zf_driver_pit.c ****     }
 198:libraries/zf_driver/zf_driver_pit.c ****     else
 199:libraries/zf_driver/zf_driver_pit.c ****     {
 200:libraries/zf_driver/zf_driver_pit.c ****         IRQ_PROLOGUE();
 201:libraries/zf_driver/zf_driver_pit.c ****         __tim_serve_interrupt(&DRV_TIM3);
 417              		.loc 1 201 9
 418 002a 0648     		ldr	r0, .L24+8
 419 002c FFF7FEFF 		bl	__tim_serve_interrupt
 420              	.L23:
 421              	.LBB30:
 422              	.LBB31:
 271:C:/StellarStudio-7.0/SDKS/StellarESDK-1.7.0/Modules/Platform/CMSIS/Core/Include\cmsis_gcc.h **** }
 423              		.loc 2 271 3
 424              		.syntax unified
 425              	@ 271 "C:/StellarStudio-7.0/SDKS/StellarESDK-1.7.0/Modules/Platform/CMSIS/Core/Include/cmsis_gcc.h"
 426 0030 BFF34F8F 		dsb 0xF
 427              	@ 0 "" 2
 428              		.loc 2 272 1
 429              		.thumb
 430              		.syntax unified
 431 0034 00BF     		nop
 432              	.LBE31:
 433              	.LBE30:
 202:libraries/zf_driver/zf_driver_pit.c ****         IRQ_EPILOGUE();
 203:libraries/zf_driver/zf_driver_pit.c ****     }
 204:libraries/zf_driver/zf_driver_pit.c ****     ZF_DSB();
 205:libraries/zf_driver/zf_driver_pit.c **** }
 434              		.loc 1 205 1
 435 0036 00BF     		nop
 436 0038 08BD     		pop	{r3, pc}
 437              	.L25:
 438 003a 00BF     		.align	2
 439              	.L24:
 440 003c 00000000 		.word	pit_obj_list
 441 0040 00000000 		.word	timer_pit_callback
 442 0044 00000000 		.word	DRV_TIM3
 443              		.cfi_endproc
 444              	.LFE463:
 446              		.section	.text.VectorB8,"ax",%progbits
 447              		.align	1
 448              		.p2align 4,,15
 449              		.global	VectorB8
 450              		.syntax unified
 451              		.thumb
 452              		.thumb_func
 454              	VectorB8:
 455              	.LFB464:
 206:libraries/zf_driver/zf_driver_pit.c **** 
 207:libraries/zf_driver/zf_driver_pit.c **** //-------------------------------------------------------------------------------------------------
 208:libraries/zf_driver/zf_driver_pit.c **** // ÂáΩÊï∞ÁÆÄ‰ªã     TIM4  ÁöÑ‰∏≠Êñ≠ÊúçÂä°ÂáΩÊï∞
 209:libraries/zf_driver/zf_driver_pit.c **** // ÂèÇÊï∞ËØ¥Êòé     void
 210:libraries/zf_driver/zf_driver_pit.c **** // ËøîÂõûÂèÇÊï∞     void
 211:libraries/zf_driver/zf_driver_pit.c **** // ‰ΩøÁî®Á§∫‰æã     
 212:libraries/zf_driver/zf_driver_pit.c **** // Â§áÊ≥®‰ø°ÊÅØ     ÂêØÂä® .s Êñá‰ª∂ÂÆö‰πâ ‰∏çÂÖÅËÆ∏‰øÆÊîπÂáΩÊï∞ÂêçÁß∞
 213:libraries/zf_driver/zf_driver_pit.c **** //              pit_set_priority(pit_index, priority);
 214:libraries/zf_driver/zf_driver_pit.c **** //-------------------------------------------------------------------------------------------------
 215:libraries/zf_driver/zf_driver_pit.c **** void IRQ_TIM4_HANDLER (void)
 216:libraries/zf_driver/zf_driver_pit.c **** {
 456              		.loc 1 216 1
 457              		.cfi_startproc
 458              		@ args = 0, pretend = 0, frame = 0
 459              		@ frame_needed = 0, uses_anonymous_args = 0
 460 0000 08B5     		push	{r3, lr}
 461              		.cfi_def_cfa_offset 8
 462              		.cfi_offset 3, -8
 463              		.cfi_offset 14, -4
 217:libraries/zf_driver/zf_driver_pit.c ****     if(pit_obj_list[PIT_TIM4].period_system_cycles)
 464              		.loc 1 217 30
 465 0002 0D4B     		ldr	r3, .L29
 466 0004 DB6A     		ldr	r3, [r3, #44]
 467              		.loc 1 217 7
 468 0006 002B     		cmp	r3, #0
 469 0008 0DD0     		beq	.L27
 218:libraries/zf_driver/zf_driver_pit.c ****     {
 219:libraries/zf_driver/zf_driver_pit.c ****         TIM4->SR &= ~TIM_SR_UIF;
 470              		.loc 1 219 18
 471 000a 0C4B     		ldr	r3, .L29+4
 472 000c 1B69     		ldr	r3, [r3, #16]
 473 000e 0B4A     		ldr	r2, .L29+4
 474 0010 23F00103 		bic	r3, r3, #1
 475 0014 1361     		str	r3, [r2, #16]
 220:libraries/zf_driver/zf_driver_pit.c ****         timer_pit_callback[PIT_TIM4].callback(0, timer_pit_callback[PIT_TIM4].parameter_ptr);
 476              		.loc 1 220 37
 477 0016 0A4B     		ldr	r3, .L29+8
 478 0018 9B6A     		ldr	r3, [r3, #40]
 479              		.loc 1 220 9
 480 001a 094A     		ldr	r2, .L29+8
 481 001c D26A     		ldr	r2, [r2, #44]
 482 001e 1146     		mov	r1, r2
 483 0020 0020     		movs	r0, #0
 484 0022 9847     		blx	r3
 485              	.LVL5:
 486 0024 02E0     		b	.L28
 487              	.L27:
 221:libraries/zf_driver/zf_driver_pit.c ****     }
 222:libraries/zf_driver/zf_driver_pit.c ****     else
 223:libraries/zf_driver/zf_driver_pit.c ****     {
 224:libraries/zf_driver/zf_driver_pit.c ****         IRQ_PROLOGUE();
 225:libraries/zf_driver/zf_driver_pit.c ****         __tim_serve_interrupt(&DRV_TIM4);
 488              		.loc 1 225 9
 489 0026 0748     		ldr	r0, .L29+12
 490 0028 FFF7FEFF 		bl	__tim_serve_interrupt
 491              	.L28:
 492              	.LBB32:
 493              	.LBB33:
 271:C:/StellarStudio-7.0/SDKS/StellarESDK-1.7.0/Modules/Platform/CMSIS/Core/Include\cmsis_gcc.h **** }
 494              		.loc 2 271 3
 495              		.syntax unified
 496              	@ 271 "C:/StellarStudio-7.0/SDKS/StellarESDK-1.7.0/Modules/Platform/CMSIS/Core/Include/cmsis_gcc.h"
 497 002c BFF34F8F 		dsb 0xF
 498              	@ 0 "" 2
 499              		.loc 2 272 1
 500              		.thumb
 501              		.syntax unified
 502 0030 00BF     		nop
 503              	.LBE33:
 504              	.LBE32:
 226:libraries/zf_driver/zf_driver_pit.c ****         IRQ_EPILOGUE();
 227:libraries/zf_driver/zf_driver_pit.c ****     }
 228:libraries/zf_driver/zf_driver_pit.c ****     ZF_DSB();
 229:libraries/zf_driver/zf_driver_pit.c **** }
 505              		.loc 1 229 1
 506 0032 00BF     		nop
 507 0034 08BD     		pop	{r3, pc}
 508              	.L30:
 509 0036 00BF     		.align	2
 510              	.L29:
 511 0038 00000000 		.word	pit_obj_list
 512 003c 003C0042 		.word	1107311616
 513 0040 00000000 		.word	timer_pit_callback
 514 0044 00000000 		.word	DRV_TIM4
 515              		.cfi_endproc
 516              	.LFE464:
 518              		.section	.text.Vector8C,"ax",%progbits
 519              		.align	1
 520              		.p2align 4,,15
 521              		.global	Vector8C
 522              		.syntax unified
 523              		.thumb
 524              		.thumb_func
 526              	Vector8C:
 527              	.LFB465:
 230:libraries/zf_driver/zf_driver_pit.c **** 
 231:libraries/zf_driver/zf_driver_pit.c **** //-------------------------------------------------------------------------------------------------
 232:libraries/zf_driver/zf_driver_pit.c **** // ÂáΩÊï∞ÁÆÄ‰ªã     TIM15 ÁöÑ‰∏≠Êñ≠ÊúçÂä°ÂáΩÊï∞
 233:libraries/zf_driver/zf_driver_pit.c **** // ÂèÇÊï∞ËØ¥Êòé     void
 234:libraries/zf_driver/zf_driver_pit.c **** // ËøîÂõûÂèÇÊï∞     void
 235:libraries/zf_driver/zf_driver_pit.c **** // ‰ΩøÁî®Á§∫‰æã     
 236:libraries/zf_driver/zf_driver_pit.c **** // Â§áÊ≥®‰ø°ÊÅØ     ÂêØÂä® .s Êñá‰ª∂ÂÆö‰πâ ‰∏çÂÖÅËÆ∏‰øÆÊîπÂáΩÊï∞ÂêçÁß∞
 237:libraries/zf_driver/zf_driver_pit.c **** //              pit_set_priority(pit_index, priority);
 238:libraries/zf_driver/zf_driver_pit.c **** //-------------------------------------------------------------------------------------------------
 239:libraries/zf_driver/zf_driver_pit.c **** void IRQ_TIM15_HANDLER (void)
 240:libraries/zf_driver/zf_driver_pit.c **** {
 528              		.loc 1 240 1
 529              		.cfi_startproc
 530              		@ args = 0, pretend = 0, frame = 0
 531              		@ frame_needed = 0, uses_anonymous_args = 0
 532 0000 08B5     		push	{r3, lr}
 533              		.cfi_def_cfa_offset 8
 534              		.cfi_offset 3, -8
 535              		.cfi_offset 14, -4
 241:libraries/zf_driver/zf_driver_pit.c ****     if(pit_obj_list[PIT_TIM15].period_system_cycles)
 536              		.loc 1 241 31
 537 0002 0D4B     		ldr	r3, .L34
 538 0004 5B6B     		ldr	r3, [r3, #52]
 539              		.loc 1 241 7
 540 0006 002B     		cmp	r3, #0
 541 0008 0DD0     		beq	.L32
 242:libraries/zf_driver/zf_driver_pit.c ****     {
 243:libraries/zf_driver/zf_driver_pit.c ****         TIM15->SR &= ~TIM_SR_UIF;
 542              		.loc 1 243 19
 543 000a 0C4B     		ldr	r3, .L34+4
 544 000c 1B69     		ldr	r3, [r3, #16]
 545 000e 0B4A     		ldr	r2, .L34+4
 546 0010 23F00103 		bic	r3, r3, #1
 547 0014 1361     		str	r3, [r2, #16]
 244:libraries/zf_driver/zf_driver_pit.c ****         timer_pit_callback[PIT_TIM15].callback(0, timer_pit_callback[PIT_TIM15].parameter_ptr);
 548              		.loc 1 244 38
 549 0016 0A4B     		ldr	r3, .L34+8
 550 0018 1B6B     		ldr	r3, [r3, #48]
 551              		.loc 1 244 9
 552 001a 094A     		ldr	r2, .L34+8
 553 001c 526B     		ldr	r2, [r2, #52]
 554 001e 1146     		mov	r1, r2
 555 0020 0020     		movs	r0, #0
 556 0022 9847     		blx	r3
 557              	.LVL6:
 558 0024 02E0     		b	.L33
 559              	.L32:
 245:libraries/zf_driver/zf_driver_pit.c ****     }
 246:libraries/zf_driver/zf_driver_pit.c ****     else
 247:libraries/zf_driver/zf_driver_pit.c ****     {
 248:libraries/zf_driver/zf_driver_pit.c ****         IRQ_PROLOGUE();
 249:libraries/zf_driver/zf_driver_pit.c ****         __tim_serve_interrupt(&DRV_TIM15);
 560              		.loc 1 249 9
 561 0026 0748     		ldr	r0, .L34+12
 562 0028 FFF7FEFF 		bl	__tim_serve_interrupt
 563              	.L33:
 564              	.LBB34:
 565              	.LBB35:
 271:C:/StellarStudio-7.0/SDKS/StellarESDK-1.7.0/Modules/Platform/CMSIS/Core/Include\cmsis_gcc.h **** }
 566              		.loc 2 271 3
 567              		.syntax unified
 568              	@ 271 "C:/StellarStudio-7.0/SDKS/StellarESDK-1.7.0/Modules/Platform/CMSIS/Core/Include/cmsis_gcc.h"
 569 002c BFF34F8F 		dsb 0xF
 570              	@ 0 "" 2
 571              		.loc 2 272 1
 572              		.thumb
 573              		.syntax unified
 574 0030 00BF     		nop
 575              	.LBE35:
 576              	.LBE34:
 250:libraries/zf_driver/zf_driver_pit.c ****         IRQ_EPILOGUE();
 251:libraries/zf_driver/zf_driver_pit.c ****     }
 252:libraries/zf_driver/zf_driver_pit.c ****     ZF_DSB();
 253:libraries/zf_driver/zf_driver_pit.c **** }
 577              		.loc 1 253 1
 578 0032 00BF     		nop
 579 0034 08BD     		pop	{r3, pc}
 580              	.L35:
 581 0036 00BF     		.align	2
 582              	.L34:
 583 0038 00000000 		.word	pit_obj_list
 584 003c 00440042 		.word	1107313664
 585 0040 00000000 		.word	timer_pit_callback
 586 0044 00000000 		.word	DRV_TIM15
 587              		.cfi_endproc
 588              	.LFE465:
 590              		.section	.text.Vector90,"ax",%progbits
 591              		.align	1
 592              		.p2align 4,,15
 593              		.global	Vector90
 594              		.syntax unified
 595              		.thumb
 596              		.thumb_func
 598              	Vector90:
 599              	.LFB466:
 254:libraries/zf_driver/zf_driver_pit.c **** 
 255:libraries/zf_driver/zf_driver_pit.c **** //-------------------------------------------------------------------------------------------------
 256:libraries/zf_driver/zf_driver_pit.c **** // ÂáΩÊï∞ÁÆÄ‰ªã     TIM17 ÁöÑ‰∏≠Êñ≠ÊúçÂä°ÂáΩÊï∞
 257:libraries/zf_driver/zf_driver_pit.c **** // ÂèÇÊï∞ËØ¥Êòé     void
 258:libraries/zf_driver/zf_driver_pit.c **** // ËøîÂõûÂèÇÊï∞     void
 259:libraries/zf_driver/zf_driver_pit.c **** // ‰ΩøÁî®Á§∫‰æã     
 260:libraries/zf_driver/zf_driver_pit.c **** // Â§áÊ≥®‰ø°ÊÅØ     ÂêØÂä® .s Êñá‰ª∂ÂÆö‰πâ ‰∏çÂÖÅËÆ∏‰øÆÊîπÂáΩÊï∞ÂêçÁß∞
 261:libraries/zf_driver/zf_driver_pit.c **** //              pit_set_priority(pit_index, priority);
 262:libraries/zf_driver/zf_driver_pit.c **** //-------------------------------------------------------------------------------------------------
 263:libraries/zf_driver/zf_driver_pit.c **** void IRQ_TIM16_HANDLER (void)
 264:libraries/zf_driver/zf_driver_pit.c **** {
 600              		.loc 1 264 1
 601              		.cfi_startproc
 602              		@ args = 0, pretend = 0, frame = 0
 603              		@ frame_needed = 0, uses_anonymous_args = 0
 604 0000 08B5     		push	{r3, lr}
 605              		.cfi_def_cfa_offset 8
 606              		.cfi_offset 3, -8
 607              		.cfi_offset 14, -4
 265:libraries/zf_driver/zf_driver_pit.c ****     if(pit_obj_list[PIT_TIM16].period_system_cycles)
 608              		.loc 1 265 31
 609 0002 0D4B     		ldr	r3, .L39
 610 0004 DB6B     		ldr	r3, [r3, #60]
 611              		.loc 1 265 7
 612 0006 002B     		cmp	r3, #0
 613 0008 0DD0     		beq	.L37
 266:libraries/zf_driver/zf_driver_pit.c ****     {
 267:libraries/zf_driver/zf_driver_pit.c ****         TIM16->SR &= ~TIM_SR_UIF;
 614              		.loc 1 267 19
 615 000a 0C4B     		ldr	r3, .L39+4
 616 000c 1B69     		ldr	r3, [r3, #16]
 617 000e 0B4A     		ldr	r2, .L39+4
 618 0010 23F00103 		bic	r3, r3, #1
 619 0014 1361     		str	r3, [r2, #16]
 268:libraries/zf_driver/zf_driver_pit.c ****         timer_pit_callback[PIT_TIM16].callback(0, timer_pit_callback[PIT_TIM16].parameter_ptr);
 620              		.loc 1 268 38
 621 0016 0A4B     		ldr	r3, .L39+8
 622 0018 9B6B     		ldr	r3, [r3, #56]
 623              		.loc 1 268 9
 624 001a 094A     		ldr	r2, .L39+8
 625 001c D26B     		ldr	r2, [r2, #60]
 626 001e 1146     		mov	r1, r2
 627 0020 0020     		movs	r0, #0
 628 0022 9847     		blx	r3
 629              	.LVL7:
 630 0024 02E0     		b	.L38
 631              	.L37:
 269:libraries/zf_driver/zf_driver_pit.c ****     }
 270:libraries/zf_driver/zf_driver_pit.c ****     else
 271:libraries/zf_driver/zf_driver_pit.c ****     {
 272:libraries/zf_driver/zf_driver_pit.c ****         IRQ_PROLOGUE();
 273:libraries/zf_driver/zf_driver_pit.c ****         __tim_serve_interrupt(&DRV_TIM16);
 632              		.loc 1 273 9
 633 0026 0748     		ldr	r0, .L39+12
 634 0028 FFF7FEFF 		bl	__tim_serve_interrupt
 635              	.L38:
 636              	.LBB36:
 637              	.LBB37:
 271:C:/StellarStudio-7.0/SDKS/StellarESDK-1.7.0/Modules/Platform/CMSIS/Core/Include\cmsis_gcc.h **** }
 638              		.loc 2 271 3
 639              		.syntax unified
 640              	@ 271 "C:/StellarStudio-7.0/SDKS/StellarESDK-1.7.0/Modules/Platform/CMSIS/Core/Include/cmsis_gcc.h"
 641 002c BFF34F8F 		dsb 0xF
 642              	@ 0 "" 2
 643              		.loc 2 272 1
 644              		.thumb
 645              		.syntax unified
 646 0030 00BF     		nop
 647              	.LBE37:
 648              	.LBE36:
 274:libraries/zf_driver/zf_driver_pit.c ****         IRQ_EPILOGUE();
 275:libraries/zf_driver/zf_driver_pit.c ****     }
 276:libraries/zf_driver/zf_driver_pit.c ****     ZF_DSB();
 277:libraries/zf_driver/zf_driver_pit.c **** }
 649              		.loc 1 277 1
 650 0032 00BF     		nop
 651 0034 08BD     		pop	{r3, pc}
 652              	.L40:
 653 0036 00BF     		.align	2
 654              	.L39:
 655 0038 00000000 		.word	pit_obj_list
 656 003c 00480042 		.word	1107314688
 657 0040 00000000 		.word	timer_pit_callback
 658 0044 00000000 		.word	DRV_TIM16
 659              		.cfi_endproc
 660              	.LFE466:
 662              		.section	.text.Vector100,"ax",%progbits
 663              		.align	1
 664              		.p2align 4,,15
 665              		.global	Vector100
 666              		.syntax unified
 667              		.thumb
 668              		.thumb_func
 670              	Vector100:
 671              	.LFB467:
 278:libraries/zf_driver/zf_driver_pit.c **** 
 279:libraries/zf_driver/zf_driver_pit.c **** //-------------------------------------------------------------------------------------------------
 280:libraries/zf_driver/zf_driver_pit.c **** // ÂáΩÊï∞ÁÆÄ‰ªã     TIM6  ÁöÑ‰∏≠Êñ≠ÊúçÂä°ÂáΩÊï∞
 281:libraries/zf_driver/zf_driver_pit.c **** // ÂèÇÊï∞ËØ¥Êòé     void
 282:libraries/zf_driver/zf_driver_pit.c **** // ËøîÂõûÂèÇÊï∞     void
 283:libraries/zf_driver/zf_driver_pit.c **** // ‰ΩøÁî®Á§∫‰æã     
 284:libraries/zf_driver/zf_driver_pit.c **** // Â§áÊ≥®‰ø°ÊÅØ     ÂêØÂä® .s Êñá‰ª∂ÂÆö‰πâ ‰∏çÂÖÅËÆ∏‰øÆÊîπÂáΩÊï∞ÂêçÁß∞
 285:libraries/zf_driver/zf_driver_pit.c **** //              pit_set_priority(pit_index, priority);
 286:libraries/zf_driver/zf_driver_pit.c **** //-------------------------------------------------------------------------------------------------
 287:libraries/zf_driver/zf_driver_pit.c **** void IRQ_TIM6_HANDLER (void)
 288:libraries/zf_driver/zf_driver_pit.c **** {
 672              		.loc 1 288 1
 673              		.cfi_startproc
 674              		@ args = 0, pretend = 0, frame = 0
 675              		@ frame_needed = 0, uses_anonymous_args = 0
 676 0000 08B5     		push	{r3, lr}
 677              		.cfi_def_cfa_offset 8
 678              		.cfi_offset 3, -8
 679              		.cfi_offset 14, -4
 289:libraries/zf_driver/zf_driver_pit.c ****     if(pit_obj_list[PIT_TIM6].period_system_cycles)
 680              		.loc 1 289 30
 681 0002 0D4B     		ldr	r3, .L44
 682 0004 5B6C     		ldr	r3, [r3, #68]
 683              		.loc 1 289 7
 684 0006 002B     		cmp	r3, #0
 685 0008 0DD0     		beq	.L42
 290:libraries/zf_driver/zf_driver_pit.c ****     {
 291:libraries/zf_driver/zf_driver_pit.c ****         TIM6->SR &= ~TIM_SR_UIF;
 686              		.loc 1 291 18
 687 000a 0C4B     		ldr	r3, .L44+4
 688 000c 1B69     		ldr	r3, [r3, #16]
 689 000e 0B4A     		ldr	r2, .L44+4
 690 0010 23F00103 		bic	r3, r3, #1
 691 0014 1361     		str	r3, [r2, #16]
 292:libraries/zf_driver/zf_driver_pit.c ****         timer_pit_callback[PIT_TIM6].callback(0, timer_pit_callback[PIT_TIM6].parameter_ptr);
 692              		.loc 1 292 37
 693 0016 0A4B     		ldr	r3, .L44+8
 694 0018 1B6C     		ldr	r3, [r3, #64]
 695              		.loc 1 292 9
 696 001a 094A     		ldr	r2, .L44+8
 697 001c 526C     		ldr	r2, [r2, #68]
 698 001e 1146     		mov	r1, r2
 699 0020 0020     		movs	r0, #0
 700 0022 9847     		blx	r3
 701              	.LVL8:
 702 0024 02E0     		b	.L43
 703              	.L42:
 293:libraries/zf_driver/zf_driver_pit.c ****     }
 294:libraries/zf_driver/zf_driver_pit.c ****     else
 295:libraries/zf_driver/zf_driver_pit.c ****     {
 296:libraries/zf_driver/zf_driver_pit.c ****         IRQ_PROLOGUE();
 297:libraries/zf_driver/zf_driver_pit.c ****         __tim_serve_interrupt(&DRV_TIM6);
 704              		.loc 1 297 9
 705 0026 0748     		ldr	r0, .L44+12
 706 0028 FFF7FEFF 		bl	__tim_serve_interrupt
 707              	.L43:
 708              	.LBB38:
 709              	.LBB39:
 271:C:/StellarStudio-7.0/SDKS/StellarESDK-1.7.0/Modules/Platform/CMSIS/Core/Include\cmsis_gcc.h **** }
 710              		.loc 2 271 3
 711              		.syntax unified
 712              	@ 271 "C:/StellarStudio-7.0/SDKS/StellarESDK-1.7.0/Modules/Platform/CMSIS/Core/Include/cmsis_gcc.h"
 713 002c BFF34F8F 		dsb 0xF
 714              	@ 0 "" 2
 715              		.loc 2 272 1
 716              		.thumb
 717              		.syntax unified
 718 0030 00BF     		nop
 719              	.LBE39:
 720              	.LBE38:
 298:libraries/zf_driver/zf_driver_pit.c ****         IRQ_EPILOGUE();
 299:libraries/zf_driver/zf_driver_pit.c ****     }
 300:libraries/zf_driver/zf_driver_pit.c ****     ZF_DSB();
 301:libraries/zf_driver/zf_driver_pit.c **** }
 721              		.loc 1 301 1
 722 0032 00BF     		nop
 723 0034 08BD     		pop	{r3, pc}
 724              	.L45:
 725 0036 00BF     		.align	2
 726              	.L44:
 727 0038 00000000 		.word	pit_obj_list
 728 003c 00440040 		.word	1073759232
 729 0040 00000000 		.word	timer_pit_callback
 730 0044 00000000 		.word	DRV_TIM6
 731              		.cfi_endproc
 732              	.LFE467:
 734              		.section	.text.Vector104,"ax",%progbits
 735              		.align	1
 736              		.p2align 4,,15
 737              		.global	Vector104
 738              		.syntax unified
 739              		.thumb
 740              		.thumb_func
 742              	Vector104:
 743              	.LFB468:
 302:libraries/zf_driver/zf_driver_pit.c **** 
 303:libraries/zf_driver/zf_driver_pit.c **** //-------------------------------------------------------------------------------------------------
 304:libraries/zf_driver/zf_driver_pit.c **** // ÂáΩÊï∞ÁÆÄ‰ªã     TIM7  ÁöÑ‰∏≠Êñ≠ÊúçÂä°ÂáΩÊï∞
 305:libraries/zf_driver/zf_driver_pit.c **** // ÂèÇÊï∞ËØ¥Êòé     void
 306:libraries/zf_driver/zf_driver_pit.c **** // ËøîÂõûÂèÇÊï∞     void
 307:libraries/zf_driver/zf_driver_pit.c **** // ‰ΩøÁî®Á§∫‰æã     
 308:libraries/zf_driver/zf_driver_pit.c **** // Â§áÊ≥®‰ø°ÊÅØ     ÂêØÂä® .s Êñá‰ª∂ÂÆö‰πâ ‰∏çÂÖÅËÆ∏‰øÆÊîπÂáΩÊï∞ÂêçÁß∞
 309:libraries/zf_driver/zf_driver_pit.c **** //              pit_set_priority(pit_index, priority);
 310:libraries/zf_driver/zf_driver_pit.c **** //-------------------------------------------------------------------------------------------------
 311:libraries/zf_driver/zf_driver_pit.c **** void IRQ_TIM7_HANDLER (void)
 312:libraries/zf_driver/zf_driver_pit.c **** {
 744              		.loc 1 312 1
 745              		.cfi_startproc
 746              		@ args = 0, pretend = 0, frame = 0
 747              		@ frame_needed = 0, uses_anonymous_args = 0
 748 0000 08B5     		push	{r3, lr}
 749              		.cfi_def_cfa_offset 8
 750              		.cfi_offset 3, -8
 751              		.cfi_offset 14, -4
 313:libraries/zf_driver/zf_driver_pit.c ****     if(pit_obj_list[PIT_TIM7].period_system_cycles)
 752              		.loc 1 313 30
 753 0002 0D4B     		ldr	r3, .L49
 754 0004 DB6C     		ldr	r3, [r3, #76]
 755              		.loc 1 313 7
 756 0006 002B     		cmp	r3, #0
 757 0008 0DD0     		beq	.L47
 314:libraries/zf_driver/zf_driver_pit.c ****     {
 315:libraries/zf_driver/zf_driver_pit.c ****         TIM7->SR &= ~TIM_SR_UIF;
 758              		.loc 1 315 18
 759 000a 0C4B     		ldr	r3, .L49+4
 760 000c 1B69     		ldr	r3, [r3, #16]
 761 000e 0B4A     		ldr	r2, .L49+4
 762 0010 23F00103 		bic	r3, r3, #1
 763 0014 1361     		str	r3, [r2, #16]
 316:libraries/zf_driver/zf_driver_pit.c ****         timer_pit_callback[PIT_TIM7].callback(0, timer_pit_callback[PIT_TIM7].parameter_ptr);
 764              		.loc 1 316 37
 765 0016 0A4B     		ldr	r3, .L49+8
 766 0018 9B6C     		ldr	r3, [r3, #72]
 767              		.loc 1 316 9
 768 001a 094A     		ldr	r2, .L49+8
 769 001c D26C     		ldr	r2, [r2, #76]
 770 001e 1146     		mov	r1, r2
 771 0020 0020     		movs	r0, #0
 772 0022 9847     		blx	r3
 773              	.LVL9:
 774 0024 02E0     		b	.L48
 775              	.L47:
 317:libraries/zf_driver/zf_driver_pit.c ****     }
 318:libraries/zf_driver/zf_driver_pit.c ****     else
 319:libraries/zf_driver/zf_driver_pit.c ****     {
 320:libraries/zf_driver/zf_driver_pit.c ****         IRQ_PROLOGUE();
 321:libraries/zf_driver/zf_driver_pit.c ****         __tim_serve_interrupt(&DRV_TIM7);
 776              		.loc 1 321 9
 777 0026 0748     		ldr	r0, .L49+12
 778 0028 FFF7FEFF 		bl	__tim_serve_interrupt
 779              	.L48:
 780              	.LBB40:
 781              	.LBB41:
 271:C:/StellarStudio-7.0/SDKS/StellarESDK-1.7.0/Modules/Platform/CMSIS/Core/Include\cmsis_gcc.h **** }
 782              		.loc 2 271 3
 783              		.syntax unified
 784              	@ 271 "C:/StellarStudio-7.0/SDKS/StellarESDK-1.7.0/Modules/Platform/CMSIS/Core/Include/cmsis_gcc.h"
 785 002c BFF34F8F 		dsb 0xF
 786              	@ 0 "" 2
 787              		.loc 2 272 1
 788              		.thumb
 789              		.syntax unified
 790 0030 00BF     		nop
 791              	.LBE41:
 792              	.LBE40:
 322:libraries/zf_driver/zf_driver_pit.c ****         IRQ_EPILOGUE();
 323:libraries/zf_driver/zf_driver_pit.c ****     }
 324:libraries/zf_driver/zf_driver_pit.c ****     ZF_DSB();
 325:libraries/zf_driver/zf_driver_pit.c **** }
 793              		.loc 1 325 1
 794 0032 00BF     		nop
 795 0034 08BD     		pop	{r3, pc}
 796              	.L50:
 797 0036 00BF     		.align	2
 798              	.L49:
 799 0038 00000000 		.word	pit_obj_list
 800 003c 00480040 		.word	1073760256
 801 0040 00000000 		.word	timer_pit_callback
 802 0044 00000000 		.word	DRV_TIM7
 803              		.cfi_endproc
 804              	.LFE468:
 806              		.section	.text.zf_pit_callbakc_defalut,"ax",%progbits
 807              		.align	1
 808              		.p2align 4,,15
 809              		.syntax unified
 810              		.thumb
 811              		.thumb_func
 813              	zf_pit_callbakc_defalut:
 814              	.LFB469:
 326:libraries/zf_driver/zf_driver_pit.c **** // <<<<<<<<<<<<<<<<<<<<<<<<<<<<<<<<<<<<<<<<< Part   End <<<<<<<<<<<<<<<<<<<<<<<<<<<<<<<<<<<<<<<<<
 327:libraries/zf_driver/zf_driver_pit.c **** 
 328:libraries/zf_driver/zf_driver_pit.c **** // Ê≠§Â§ÑÂàó‰∏æ Êú¨Êñá‰ª∂ÁöÑÊâÄÊúâÂáΩÊï∞Â£∞Êòé [ ÂÖ∂‰∏≠ÂåÖÊã¨ÂÆèÂÆö‰πâÂáΩÊï∞ ] ËøôÈáå‰∏çÂÖÅËÆ∏Áî®Êà
 329:libraries/zf_driver/zf_driver_pit.c **** // >>>>>>>>>>>>>>>>>>>>>>>>>>>>>>>>>>>>>>>>> Part Start >>>>>>>>>>>>>>>>>>>>>>>>>>>>>>>>>>>>>>>>>
 330:libraries/zf_driver/zf_driver_pit.c **** //-------------------------------------------------------------------------------------------------
 331:libraries/zf_driver/zf_driver_pit.c **** // ÂáΩÊï∞ÁÆÄ‰ªã     PIT ‰∏≠Êñ≠ÈªòËÆ§ÂõûË∞ÉÂáΩÊï∞
 332:libraries/zf_driver/zf_driver_pit.c **** // ÂèÇÊï∞ËØ¥Êòé     event               Ëß¶Âèë‰∏≠Êñ≠ÁöÑ‰∫ã‰ª∂ Ê≠§Â§ÑÈªòËÆ§‰∏∫ 0
 333:libraries/zf_driver/zf_driver_pit.c **** // ÂèÇÊï∞ËØ¥Êòé     *ptr                ÂõûË∞ÉÂèÇÊï∞ Áî®Êà∑Ëá™ÊãüÂÆöÁöÑÂèÇÊï∞ÊåáÈíà ‰∏çÈúÄË¶ÅÁöÑËØù
 334:libraries/zf_driver/zf_driver_pit.c **** // ËøîÂõûÂèÇÊï∞     void
 335:libraries/zf_driver/zf_driver_pit.c **** // ‰ΩøÁî®Á§∫‰æã     
 336:libraries/zf_driver/zf_driver_pit.c **** // Â§áÊ≥®‰ø°ÊÅØ     
 337:libraries/zf_driver/zf_driver_pit.c **** //-------------------------------------------------------------------------------------------------
 338:libraries/zf_driver/zf_driver_pit.c **** static void zf_pit_callbakc_defalut (uint32 event, void *ptr)
 339:libraries/zf_driver/zf_driver_pit.c **** {
 815              		.loc 1 339 1
 816              		.cfi_startproc
 817              		@ args = 0, pretend = 0, frame = 8
 818              		@ frame_needed = 0, uses_anonymous_args = 0
 819              		@ link register save eliminated.
 820 0000 82B0     		sub	sp, sp, #8
 821              		.cfi_def_cfa_offset 8
 822 0002 0190     		str	r0, [sp, #4]
 823 0004 0091     		str	r1, [sp]
 340:libraries/zf_driver/zf_driver_pit.c ****     (void)event;
 341:libraries/zf_driver/zf_driver_pit.c ****     (void)ptr;
 342:libraries/zf_driver/zf_driver_pit.c **** }
 824              		.loc 1 342 1
 825 0006 00BF     		nop
 826 0008 02B0     		add	sp, sp, #8
 827              		.cfi_def_cfa_offset 0
 828              		@ sp needed
 829 000a 7047     		bx	lr
 830              		.cfi_endproc
 831              	.LFE469:
 833              		.section	.rodata
 834              		.align	2
 835              	.LC0:
 836 0000 6C696272 		.ascii	"libraries/zf_driver/zf_driver_pit.c\000"
 836      61726965 
 836      732F7A66 
 836      5F647269 
 836      7665722F 
 837              		.section	.text.zf_pit_set_interrupt_callback,"ax",%progbits
 838              		.align	1
 839              		.p2align 4,,15
 840              		.global	zf_pit_set_interrupt_callback
 841              		.syntax unified
 842              		.thumb
 843              		.thumb_func
 845              	zf_pit_set_interrupt_callback:
 846              	.LFB470:
 343:libraries/zf_driver/zf_driver_pit.c **** 
 344:libraries/zf_driver/zf_driver_pit.c **** //-------------------------------------------------------------------------------------------------
 345:libraries/zf_driver/zf_driver_pit.c **** // ÂáΩÊï∞ÁÆÄ‰ªã     PIT ‰∏≠Êñ≠ËÆæÁΩÆÂõûË∞ÉÂáΩÊï∞
 346:libraries/zf_driver/zf_driver_pit.c **** // ÂèÇÊï∞ËØ¥Êòé     pit_index           PIT Â§ñËÆæÊ®°ÂùóÂè∑ (ËØ¶ËßÅ zf_driver_pit.h ÂÜÖ zf_pit_inde
 347:libraries/zf_driver/zf_driver_pit.c **** // ÂèÇÊï∞ËØ¥Êòé     callback            ÂõûË∞ÉÂáΩÊï∞ ‰∏∫Êó†ËøîÂõûÂÄº uint32 ptr ‰∏§‰∏™ÂèÇÊï∞ÁöÑÂáΩÊ
 348:libraries/zf_driver/zf_driver_pit.c **** // ÂèÇÊï∞ËØ¥Êòé     *ptr                ÂõûË∞ÉÂèÇÊï∞ Áî®Êà∑Ëá™ÊãüÂÆöÁöÑÂèÇÊï∞ÊåáÈíà ‰∏çÈúÄË¶ÅÁöÑËØù
 349:libraries/zf_driver/zf_driver_pit.c **** // ËøîÂõûÂèÇÊï∞     uint8               Êìç‰ΩúÁä∂ÊÄÅ ZF_NO_ERROR / PIT_OPERATION_DONE - ÂÆåÊàê ÂÖ∂‰
 350:libraries/zf_driver/zf_driver_pit.c **** // ‰ΩøÁî®Á§∫‰æã     zf_pit_set_interrupt_callback(pit_index, callback, ptr);
 351:libraries/zf_driver/zf_driver_pit.c **** // Â§áÊ≥®‰ø°ÊÅØ     
 352:libraries/zf_driver/zf_driver_pit.c **** //-------------------------------------------------------------------------------------------------
 353:libraries/zf_driver/zf_driver_pit.c **** uint8 zf_pit_set_interrupt_callback (zf_pit_index_enum pit_index, void_callback_uint32_ptr callback
 354:libraries/zf_driver/zf_driver_pit.c **** {
 847              		.loc 1 354 1
 848              		.cfi_startproc
 849              		@ args = 0, pretend = 0, frame = 24
 850              		@ frame_needed = 0, uses_anonymous_args = 0
 851 0000 00B5     		push	{lr}
 852              		.cfi_def_cfa_offset 4
 853              		.cfi_offset 14, -4
 854 0002 87B0     		sub	sp, sp, #28
 855              		.cfi_def_cfa_offset 32
 856 0004 0346     		mov	r3, r0
 857 0006 0291     		str	r1, [sp, #8]
 858 0008 0192     		str	r2, [sp, #4]
 859 000a 8DF80F30 		strb	r3, [sp, #15]
 355:libraries/zf_driver/zf_driver_pit.c ****     zf_pit_operation_state_enum return_state = PIT_OPERATION_DONE;
 860              		.loc 1 355 33
 861 000e 0023     		movs	r3, #0
 862 0010 8DF81730 		strb	r3, [sp, #23]
 356:libraries/zf_driver/zf_driver_pit.c **** 
 357:libraries/zf_driver/zf_driver_pit.c ****     do
 358:libraries/zf_driver/zf_driver_pit.c ****     {
 359:libraries/zf_driver/zf_driver_pit.c ****         if(zf_pit_assert(NULL != callback))                                     // Ê£ÄÊü• ÂõûË∞ÉÂáΩ
 863              		.loc 1 359 11
 864 0014 029B     		ldr	r3, [sp, #8]
 865 0016 002B     		cmp	r3, #0
 866 0018 0CD1     		bne	.L53
 867              		.loc 1 359 12 discriminator 1
 868 001a 0022     		movs	r2, #0
 869 001c 40F26711 		movw	r1, #359
 870 0020 1448     		ldr	r0, .L56
 871 0022 FFF7FEFF 		bl	zf_timer_assert_handler
 872 0026 0346     		mov	r3, r0
 873 0028 002B     		cmp	r3, #0
 874 002a 03D0     		beq	.L53
 360:libraries/zf_driver/zf_driver_pit.c ****         {
 361:libraries/zf_driver/zf_driver_pit.c ****             // Ê≠§Â§ÑÂ¶ÇÊûúÊñ≠Ë®ÄÊä•Èîô ÈÇ£‰πàËØÅÊòéÂõûË∞ÉÂáΩÊï∞‰∏∫Á©∫ÊåáÈíà ÊòØ‰∏çÂÖÅËÆ∏ÁöÑ
 362:libraries/zf_driver/zf_driver_pit.c ****             // ‰∏≠Êñ≠ÂøÖÈ°ªËÆæÁΩÆÊúâÊïàÁöÑÂõûË∞ÉÂáΩÊï∞ Âê¶Âàô‰ºöÂØºËá¥Á®ãÂ∫èÂºÇÂ∏∏
 363:libraries/zf_driver/zf_driver_pit.c ****             return_state = PIT_ERROR_INTERRUPT_CALLBACK_ILLEGAL;
 875              		.loc 1 363 26
 876 002c 2323     		movs	r3, #35
 877 002e 8DF81730 		strb	r3, [sp, #23]
 364:libraries/zf_driver/zf_driver_pit.c ****             break;
 878              		.loc 1 364 13
 879 0032 19E0     		b	.L54
 880              	.L53:
 365:libraries/zf_driver/zf_driver_pit.c ****         }
 366:libraries/zf_driver/zf_driver_pit.c **** 
 367:libraries/zf_driver/zf_driver_pit.c ****         // ‰øÆÊîπÂõûË∞ÉÂáΩÊï∞ÈúÄË¶ÅÂÖàÁ¶ÅÊ≠¢‰∏≠Êñ≠Ëß¶Âèë
 368:libraries/zf_driver/zf_driver_pit.c ****         // ÈÅøÂÖçÂú®‰øÆÊîπËøáÁ®ã‰∏≠Ëß¶Âèë‰∏≠Êñ≠ÂØºËá¥Á®ãÂ∫èÂºÇÂ∏∏
 369:libraries/zf_driver/zf_driver_pit.c ****         zf_pit_disable(pit_index);
 881              		.loc 1 369 9
 882 0034 9DF80F30 		ldrb	r3, [sp, #15]	@ zero_extendqisi2
 883 0038 1846     		mov	r0, r3
 884 003a FFF7FEFF 		bl	zf_pit_disable
 370:libraries/zf_driver/zf_driver_pit.c ****         timer_pit_callback[pit_index].callback      = callback;
 885              		.loc 1 370 38
 886 003e 9DF80F30 		ldrb	r3, [sp, #15]	@ zero_extendqisi2
 887              		.loc 1 370 53
 888 0042 0D49     		ldr	r1, .L56+4
 889 0044 029A     		ldr	r2, [sp, #8]
 890 0046 41F83320 		str	r2, [r1, r3, lsl #3]
 371:libraries/zf_driver/zf_driver_pit.c ****         timer_pit_callback[pit_index].parameter_ptr = ptr;
 891              		.loc 1 371 38
 892 004a 9DF80F30 		ldrb	r3, [sp, #15]	@ zero_extendqisi2
 893              		.loc 1 371 53
 894 004e 0A4A     		ldr	r2, .L56+4
 895 0050 DB00     		lsls	r3, r3, #3
 896 0052 1344     		add	r3, r3, r2
 897 0054 019A     		ldr	r2, [sp, #4]
 898 0056 5A60     		str	r2, [r3, #4]
 372:libraries/zf_driver/zf_driver_pit.c ****         zf_pit_enable(pit_index);
 899              		.loc 1 372 9
 900 0058 9DF80F30 		ldrb	r3, [sp, #15]	@ zero_extendqisi2
 901 005c 1846     		mov	r0, r3
 902 005e FFF7FEFF 		bl	zf_pit_enable
 373:libraries/zf_driver/zf_driver_pit.c **** 
 374:libraries/zf_driver/zf_driver_pit.c ****         return_state = PIT_OPERATION_DONE;
 903              		.loc 1 374 22
 904 0062 0023     		movs	r3, #0
 905 0064 8DF81730 		strb	r3, [sp, #23]
 906              	.L54:
 375:libraries/zf_driver/zf_driver_pit.c ****     }while(0);
 376:libraries/zf_driver/zf_driver_pit.c **** 
 377:libraries/zf_driver/zf_driver_pit.c ****     return return_state;
 907              		.loc 1 377 12
 908 0068 9DF81730 		ldrb	r3, [sp, #23]	@ zero_extendqisi2
 378:libraries/zf_driver/zf_driver_pit.c **** }
 909              		.loc 1 378 1
 910 006c 1846     		mov	r0, r3
 911 006e 07B0     		add	sp, sp, #28
 912              		.cfi_def_cfa_offset 4
 913              		@ sp needed
 914 0070 5DF804FB 		ldr	pc, [sp], #4
 915              	.L57:
 916              		.align	2
 917              	.L56:
 918 0074 00000000 		.word	.LC0
 919 0078 00000000 		.word	timer_pit_callback
 920              		.cfi_endproc
 921              	.LFE470:
 923              		.section	.text.zf_pit_set_interrupt_priority,"ax",%progbits
 924              		.align	1
 925              		.p2align 4,,15
 926              		.global	zf_pit_set_interrupt_priority
 927              		.syntax unified
 928              		.thumb
 929              		.thumb_func
 931              	zf_pit_set_interrupt_priority:
 932              	.LFB471:
 379:libraries/zf_driver/zf_driver_pit.c **** 
 380:libraries/zf_driver/zf_driver_pit.c **** //-------------------------------------------------------------------------------------------------
 381:libraries/zf_driver/zf_driver_pit.c **** // ÂáΩÊï∞ÁÆÄ‰ªã     PIT ‰∏≠Êñ≠ËÆæÁΩÆ‰ºòÂÖàÁ∫ß
 382:libraries/zf_driver/zf_driver_pit.c **** // ÂèÇÊï∞ËØ¥Êòé     pit_index           PIT Â§ñËÆæÊ®°ÂùóÂè∑ (ËØ¶ËßÅ zf_driver_pit.h ÂÜÖ zf_pit_inde
 383:libraries/zf_driver/zf_driver_pit.c **** // ÂèÇÊï∞ËØ¥Êòé     priority            ‰∏≠Êñ≠‰ºòÂÖàÁ∫ß
 384:libraries/zf_driver/zf_driver_pit.c **** // ËøîÂõûÂèÇÊï∞     void
 385:libraries/zf_driver/zf_driver_pit.c **** // ‰ΩøÁî®Á§∫‰æã     zf_pit_set_interrupt_priority(pit_index, priority);
 386:libraries/zf_driver/zf_driver_pit.c **** // Â§áÊ≥®‰ø°ÊÅØ     
 387:libraries/zf_driver/zf_driver_pit.c **** //-------------------------------------------------------------------------------------------------
 388:libraries/zf_driver/zf_driver_pit.c **** void zf_pit_set_interrupt_priority (zf_pit_index_enum pit_index, uint8 priority)
 389:libraries/zf_driver/zf_driver_pit.c **** {
 933              		.loc 1 389 1
 934              		.cfi_startproc
 935              		@ args = 0, pretend = 0, frame = 8
 936              		@ frame_needed = 0, uses_anonymous_args = 0
 937 0000 00B5     		push	{lr}
 938              		.cfi_def_cfa_offset 4
 939              		.cfi_offset 14, -4
 940 0002 83B0     		sub	sp, sp, #12
 941              		.cfi_def_cfa_offset 16
 942 0004 0346     		mov	r3, r0
 943 0006 0A46     		mov	r2, r1
 944 0008 8DF80730 		strb	r3, [sp, #7]
 945 000c 1346     		mov	r3, r2
 946 000e 8DF80630 		strb	r3, [sp, #6]
 390:libraries/zf_driver/zf_driver_pit.c ****     zf_interrupt_set_priority(pit_irq_index_list[pit_index], priority);
 947              		.loc 1 390 5
 948 0012 9DF80730 		ldrb	r3, [sp, #7]	@ zero_extendqisi2
 949 0016 064A     		ldr	r2, .L59
 950 0018 D35C     		ldrb	r3, [r2, r3]	@ zero_extendqisi2
 951 001a 9DF80620 		ldrb	r2, [sp, #6]	@ zero_extendqisi2
 952 001e 1146     		mov	r1, r2
 953 0020 1846     		mov	r0, r3
 954 0022 FFF7FEFF 		bl	zf_interrupt_set_priority
 391:libraries/zf_driver/zf_driver_pit.c **** }
 955              		.loc 1 391 1
 956 0026 00BF     		nop
 957 0028 03B0     		add	sp, sp, #12
 958              		.cfi_def_cfa_offset 4
 959              		@ sp needed
 960 002a 5DF804FB 		ldr	pc, [sp], #4
 961              	.L60:
 962 002e 00BF     		.align	2
 963              	.L59:
 964 0030 00000000 		.word	pit_irq_index_list
 965              		.cfi_endproc
 966              	.LFE471:
 968              		.section	.text.zf_pit_enable,"ax",%progbits
 969              		.align	1
 970              		.p2align 4,,15
 971              		.global	zf_pit_enable
 972              		.syntax unified
 973              		.thumb
 974              		.thumb_func
 976              	zf_pit_enable:
 977              	.LFB472:
 392:libraries/zf_driver/zf_driver_pit.c **** 
 393:libraries/zf_driver/zf_driver_pit.c **** //-------------------------------------------------------------------------------------------------
 394:libraries/zf_driver/zf_driver_pit.c **** // ÂáΩÊï∞ÁÆÄ‰ªã     PIT ‰∏≠Êñ≠‰ΩøËÉΩ
 395:libraries/zf_driver/zf_driver_pit.c **** // ÂèÇÊï∞ËØ¥Êòé     pit_index           PIT Â§ñËÆæÊ®°ÂùóÂè∑ (ËØ¶ËßÅ zf_driver_pit.h ÂÜÖ zf_pit_inde
 396:libraries/zf_driver/zf_driver_pit.c **** // ËøîÂõûÂèÇÊï∞     uint8               Êìç‰ΩúÁä∂ÊÄÅ ZF_NO_ERROR / PIT_OPERATION_DONE - ÂÆåÊàê ÂÖ∂‰
 397:libraries/zf_driver/zf_driver_pit.c **** // ‰ΩøÁî®Á§∫‰æã     zf_pit_enable(pit_index);
 398:libraries/zf_driver/zf_driver_pit.c **** // Â§áÊ≥®‰ø°ÊÅØ     
 399:libraries/zf_driver/zf_driver_pit.c **** //-------------------------------------------------------------------------------------------------
 400:libraries/zf_driver/zf_driver_pit.c **** uint8 zf_pit_enable (zf_pit_index_enum pit_index)
 401:libraries/zf_driver/zf_driver_pit.c **** {
 978              		.loc 1 401 1
 979              		.cfi_startproc
 980              		@ args = 0, pretend = 0, frame = 16
 981              		@ frame_needed = 0, uses_anonymous_args = 0
 982 0000 00B5     		push	{lr}
 983              		.cfi_def_cfa_offset 4
 984              		.cfi_offset 14, -4
 985 0002 85B0     		sub	sp, sp, #20
 986              		.cfi_def_cfa_offset 24
 987 0004 0346     		mov	r3, r0
 988 0006 8DF80730 		strb	r3, [sp, #7]
 402:libraries/zf_driver/zf_driver_pit.c ****     zf_pit_operation_state_enum return_state = PIT_OPERATION_DONE;
 989              		.loc 1 402 33
 990 000a 0023     		movs	r3, #0
 991 000c 8DF80F30 		strb	r3, [sp, #15]
 403:libraries/zf_driver/zf_driver_pit.c **** 
 404:libraries/zf_driver/zf_driver_pit.c ****     do
 405:libraries/zf_driver/zf_driver_pit.c ****     {
 406:libraries/zf_driver/zf_driver_pit.c ****         if(zf_pit_assert(pit_obj_list[pit_index].period_system_cycles))         // Ê£ÄÊü• ÂàùÂßãÂåñ
 992              		.loc 1 406 12
 993 0010 9DF80730 		ldrb	r3, [sp, #7]	@ zero_extendqisi2
 994 0014 124A     		ldr	r2, .L65
 995 0016 DB00     		lsls	r3, r3, #3
 996 0018 1344     		add	r3, r3, r2
 997 001a 5B68     		ldr	r3, [r3, #4]
 998              		.loc 1 406 11
 999 001c 002B     		cmp	r3, #0
 1000 001e 0CD1     		bne	.L62
 1001              		.loc 1 406 12 discriminator 1
 1002 0020 0022     		movs	r2, #0
 1003 0022 4FF4CB71 		mov	r1, #406
 1004 0026 0F48     		ldr	r0, .L65+4
 1005 0028 FFF7FEFF 		bl	zf_timer_assert_handler
 1006 002c 0346     		mov	r3, r0
 1007 002e 002B     		cmp	r3, #0
 1008 0030 03D0     		beq	.L62
 407:libraries/zf_driver/zf_driver_pit.c ****         {
 408:libraries/zf_driver/zf_driver_pit.c ****             // Ê≠§Â§ÑÂ¶ÇÊûúÊñ≠Ë®ÄÊä•Èîô ÈÇ£‰πàËØÅÊòéÊú¨Ê®°ÂùóÊ≤°ÊúâÂàùÂßãÂåñËøá ÊòØ‰∏çÂÖÅËÆ∏Áõ¥Êé•Ê
 409:libraries/zf_driver/zf_driver_pit.c ****             // Êú™ÂàùÂßãÂåñÊ®°ÂùóÂæàÂèØËÉΩÊ≤°ÊúâÂºÄÂêØÊ®°ÂùóÊó∂ÈíüÊàñËÄÖÊ≤°Êúâ‰ΩøËÉΩÊ®°Âùó
 410:libraries/zf_driver/zf_driver_pit.c ****             // ÂØπ‰∫éÈÉ®ÂàÜÂçïÁâáÊú∫Ê≤°Êúâ‰ΩøËÉΩÊ®°ÂùóÁõ¥Êé•Êìç‰Ωú‰ºöÂØºËá¥ÊÄªÁ∫øÂºÇÂ∏∏ÊàñËÄÖÁ°¨‰ª∂
 411:libraries/zf_driver/zf_driver_pit.c ****             return_state = PIT_ERROR_MODULE_NOT_INIT;
 1009              		.loc 1 411 26
 1010 0032 2123     		movs	r3, #33
 1011 0034 8DF80F30 		strb	r3, [sp, #15]
 412:libraries/zf_driver/zf_driver_pit.c ****             break;
 1012              		.loc 1 412 13
 1013 0038 0CE0     		b	.L63
 1014              	.L62:
 413:libraries/zf_driver/zf_driver_pit.c ****         }
 414:libraries/zf_driver/zf_driver_pit.c **** 
 415:libraries/zf_driver/zf_driver_pit.c ****         zf_timer_clear((zf_timer_index_enum)pit_index);
 1015              		.loc 1 415 9
 1016 003a 9DF80730 		ldrb	r3, [sp, #7]	@ zero_extendqisi2
 1017 003e 1846     		mov	r0, r3
 1018 0040 FFF7FEFF 		bl	zf_timer_clear
 416:libraries/zf_driver/zf_driver_pit.c ****         zf_timer_enable((zf_timer_index_enum)pit_index);
 1019              		.loc 1 416 9
 1020 0044 9DF80730 		ldrb	r3, [sp, #7]	@ zero_extendqisi2
 1021 0048 1846     		mov	r0, r3
 1022 004a FFF7FEFF 		bl	zf_timer_enable
 417:libraries/zf_driver/zf_driver_pit.c **** 
 418:libraries/zf_driver/zf_driver_pit.c ****         return_state = PIT_OPERATION_DONE;
 1023              		.loc 1 418 22
 1024 004e 0023     		movs	r3, #0
 1025 0050 8DF80F30 		strb	r3, [sp, #15]
 1026              	.L63:
 419:libraries/zf_driver/zf_driver_pit.c ****     }while(0);
 420:libraries/zf_driver/zf_driver_pit.c **** 
 421:libraries/zf_driver/zf_driver_pit.c ****     return return_state;
 1027              		.loc 1 421 12
 1028 0054 9DF80F30 		ldrb	r3, [sp, #15]	@ zero_extendqisi2
 422:libraries/zf_driver/zf_driver_pit.c **** }
 1029              		.loc 1 422 1
 1030 0058 1846     		mov	r0, r3
 1031 005a 05B0     		add	sp, sp, #20
 1032              		.cfi_def_cfa_offset 4
 1033              		@ sp needed
 1034 005c 5DF804FB 		ldr	pc, [sp], #4
 1035              	.L66:
 1036              		.align	2
 1037              	.L65:
 1038 0060 00000000 		.word	pit_obj_list
 1039 0064 00000000 		.word	.LC0
 1040              		.cfi_endproc
 1041              	.LFE472:
 1043              		.section	.text.zf_pit_disable,"ax",%progbits
 1044              		.align	1
 1045              		.p2align 4,,15
 1046              		.global	zf_pit_disable
 1047              		.syntax unified
 1048              		.thumb
 1049              		.thumb_func
 1051              	zf_pit_disable:
 1052              	.LFB473:
 423:libraries/zf_driver/zf_driver_pit.c **** 
 424:libraries/zf_driver/zf_driver_pit.c **** //-------------------------------------------------------------------------------------------------
 425:libraries/zf_driver/zf_driver_pit.c **** // ÂáΩÊï∞ÁÆÄ‰ªã     PIT ‰∏≠Êñ≠Á¶ÅÊ≠¢
 426:libraries/zf_driver/zf_driver_pit.c **** // ÂèÇÊï∞ËØ¥Êòé     pit_index           PIT Â§ñËÆæÊ®°ÂùóÂè∑ (ËØ¶ËßÅ zf_driver_pit.h ÂÜÖ zf_pit_inde
 427:libraries/zf_driver/zf_driver_pit.c **** // ËøîÂõûÂèÇÊï∞     uint8               Êìç‰ΩúÁä∂ÊÄÅ ZF_NO_ERROR / PIT_OPERATION_DONE - ÂÆåÊàê ÂÖ∂‰
 428:libraries/zf_driver/zf_driver_pit.c **** // ‰ΩøÁî®Á§∫‰æã     zf_pit_disable(pit_index);
 429:libraries/zf_driver/zf_driver_pit.c **** // Â§áÊ≥®‰ø°ÊÅØ     
 430:libraries/zf_driver/zf_driver_pit.c **** //-------------------------------------------------------------------------------------------------
 431:libraries/zf_driver/zf_driver_pit.c **** uint8 zf_pit_disable (zf_pit_index_enum pit_index)
 432:libraries/zf_driver/zf_driver_pit.c **** {
 1053              		.loc 1 432 1
 1054              		.cfi_startproc
 1055              		@ args = 0, pretend = 0, frame = 16
 1056              		@ frame_needed = 0, uses_anonymous_args = 0
 1057 0000 00B5     		push	{lr}
 1058              		.cfi_def_cfa_offset 4
 1059              		.cfi_offset 14, -4
 1060 0002 85B0     		sub	sp, sp, #20
 1061              		.cfi_def_cfa_offset 24
 1062 0004 0346     		mov	r3, r0
 1063 0006 8DF80730 		strb	r3, [sp, #7]
 433:libraries/zf_driver/zf_driver_pit.c ****     zf_pit_operation_state_enum return_state = PIT_OPERATION_DONE;
 1064              		.loc 1 433 33
 1065 000a 0023     		movs	r3, #0
 1066 000c 8DF80F30 		strb	r3, [sp, #15]
 434:libraries/zf_driver/zf_driver_pit.c **** 
 435:libraries/zf_driver/zf_driver_pit.c ****     do
 436:libraries/zf_driver/zf_driver_pit.c ****     {
 437:libraries/zf_driver/zf_driver_pit.c ****         if(zf_pit_assert(pit_obj_list[pit_index].period_system_cycles))         // Ê£ÄÊü• ÂàùÂßãÂåñ
 1067              		.loc 1 437 12
 1068 0010 9DF80730 		ldrb	r3, [sp, #7]	@ zero_extendqisi2
 1069 0014 104A     		ldr	r2, .L71
 1070 0016 DB00     		lsls	r3, r3, #3
 1071 0018 1344     		add	r3, r3, r2
 1072 001a 5B68     		ldr	r3, [r3, #4]
 1073              		.loc 1 437 11
 1074 001c 002B     		cmp	r3, #0
 1075 001e 0CD1     		bne	.L68
 1076              		.loc 1 437 12 discriminator 1
 1077 0020 0022     		movs	r2, #0
 1078 0022 40F2B511 		movw	r1, #437
 1079 0026 0D48     		ldr	r0, .L71+4
 1080 0028 FFF7FEFF 		bl	zf_timer_assert_handler
 1081 002c 0346     		mov	r3, r0
 1082 002e 002B     		cmp	r3, #0
 1083 0030 03D0     		beq	.L68
 438:libraries/zf_driver/zf_driver_pit.c ****         {
 439:libraries/zf_driver/zf_driver_pit.c ****             // Ê≠§Â§ÑÂ¶ÇÊûúÊñ≠Ë®ÄÊä•Èîô ÈÇ£‰πàËØÅÊòéÊú¨Ê®°ÂùóÊ≤°ÊúâÂàùÂßãÂåñËøá ÊòØ‰∏çÂÖÅËÆ∏Áõ¥Êé•Ê
 440:libraries/zf_driver/zf_driver_pit.c ****             // Êú™ÂàùÂßãÂåñÊ®°ÂùóÂæàÂèØËÉΩÊ≤°ÊúâÂºÄÂêØÊ®°ÂùóÊó∂ÈíüÊàñËÄÖÊ≤°Êúâ‰ΩøËÉΩÊ®°Âùó
 441:libraries/zf_driver/zf_driver_pit.c ****             // ÂØπ‰∫éÈÉ®ÂàÜÂçïÁâáÊú∫Ê≤°Êúâ‰ΩøËÉΩÊ®°ÂùóÁõ¥Êé•Êìç‰Ωú‰ºöÂØºËá¥ÊÄªÁ∫øÂºÇÂ∏∏ÊàñËÄÖÁ°¨‰ª∂
 442:libraries/zf_driver/zf_driver_pit.c ****             return_state = PIT_ERROR_MODULE_NOT_INIT;
 1084              		.loc 1 442 26
 1085 0032 2123     		movs	r3, #33
 1086 0034 8DF80F30 		strb	r3, [sp, #15]
 443:libraries/zf_driver/zf_driver_pit.c ****             break;
 1087              		.loc 1 443 13
 1088 0038 07E0     		b	.L69
 1089              	.L68:
 444:libraries/zf_driver/zf_driver_pit.c ****         }
 445:libraries/zf_driver/zf_driver_pit.c **** 
 446:libraries/zf_driver/zf_driver_pit.c ****         zf_timer_disable((zf_timer_index_enum)pit_index);
 1090              		.loc 1 446 9
 1091 003a 9DF80730 		ldrb	r3, [sp, #7]	@ zero_extendqisi2
 1092 003e 1846     		mov	r0, r3
 1093 0040 FFF7FEFF 		bl	zf_timer_disable
 447:libraries/zf_driver/zf_driver_pit.c **** 
 448:libraries/zf_driver/zf_driver_pit.c ****         return_state = PIT_OPERATION_DONE;
 1094              		.loc 1 448 22
 1095 0044 0023     		movs	r3, #0
 1096 0046 8DF80F30 		strb	r3, [sp, #15]
 1097              	.L69:
 449:libraries/zf_driver/zf_driver_pit.c ****     }while(0);
 450:libraries/zf_driver/zf_driver_pit.c **** 
 451:libraries/zf_driver/zf_driver_pit.c ****     return return_state;
 1098              		.loc 1 451 12
 1099 004a 9DF80F30 		ldrb	r3, [sp, #15]	@ zero_extendqisi2
 452:libraries/zf_driver/zf_driver_pit.c **** }
 1100              		.loc 1 452 1
 1101 004e 1846     		mov	r0, r3
 1102 0050 05B0     		add	sp, sp, #20
 1103              		.cfi_def_cfa_offset 4
 1104              		@ sp needed
 1105 0052 5DF804FB 		ldr	pc, [sp], #4
 1106              	.L72:
 1107 0056 00BF     		.align	2
 1108              	.L71:
 1109 0058 00000000 		.word	pit_obj_list
 1110 005c 00000000 		.word	.LC0
 1111              		.cfi_endproc
 1112              	.LFE473:
 1114              		.section	.text.zf_pit_deinit,"ax",%progbits
 1115              		.align	1
 1116              		.p2align 4,,15
 1117              		.global	zf_pit_deinit
 1118              		.syntax unified
 1119              		.thumb
 1120              		.thumb_func
 1122              	zf_pit_deinit:
 1123              	.LFB474:
 453:libraries/zf_driver/zf_driver_pit.c **** 
 454:libraries/zf_driver/zf_driver_pit.c **** //-------------------------------------------------------------------------------------------------
 455:libraries/zf_driver/zf_driver_pit.c **** // ÂáΩÊï∞ÁÆÄ‰ªã     PIT Ê≥®ÈîÄÂàùÂßãÂåñ
 456:libraries/zf_driver/zf_driver_pit.c **** // ÂèÇÊï∞ËØ¥Êòé     pit_index           PIT Â§ñËÆæÊ®°ÂùóÂè∑ (ËØ¶ËßÅ zf_driver_pit.h ÂÜÖ zf_pit_inde
 457:libraries/zf_driver/zf_driver_pit.c **** // ËøîÂõûÂèÇÊï∞     uint8               Êìç‰ΩúÁä∂ÊÄÅ ZF_NO_ERROR / PIT_OPERATION_DONE - ÂÆåÊàê ÂÖ∂‰
 458:libraries/zf_driver/zf_driver_pit.c **** // ‰ΩøÁî®Á§∫‰æã     zf_pit_deinit(pit_index);
 459:libraries/zf_driver/zf_driver_pit.c **** // Â§áÊ≥®‰ø°ÊÅØ     
 460:libraries/zf_driver/zf_driver_pit.c **** //-------------------------------------------------------------------------------------------------
 461:libraries/zf_driver/zf_driver_pit.c **** uint8 zf_pit_deinit (zf_pit_index_enum pit_index)
 462:libraries/zf_driver/zf_driver_pit.c **** {
 1124              		.loc 1 462 1
 1125              		.cfi_startproc
 1126              		@ args = 0, pretend = 0, frame = 16
 1127              		@ frame_needed = 0, uses_anonymous_args = 0
 1128 0000 00B5     		push	{lr}
 1129              		.cfi_def_cfa_offset 4
 1130              		.cfi_offset 14, -4
 1131 0002 85B0     		sub	sp, sp, #20
 1132              		.cfi_def_cfa_offset 24
 1133 0004 0346     		mov	r3, r0
 1134 0006 8DF80730 		strb	r3, [sp, #7]
 463:libraries/zf_driver/zf_driver_pit.c ****     zf_pit_operation_state_enum return_state = PIT_OPERATION_DONE;
 1135              		.loc 1 463 33
 1136 000a 0023     		movs	r3, #0
 1137 000c 8DF80F30 		strb	r3, [sp, #15]
 464:libraries/zf_driver/zf_driver_pit.c **** 
 465:libraries/zf_driver/zf_driver_pit.c ****     do
 466:libraries/zf_driver/zf_driver_pit.c ****     {
 467:libraries/zf_driver/zf_driver_pit.c ****         if(zf_pit_assert(pit_obj_list[pit_index].period_system_cycles))         // Ê£ÄÊü• ÂàùÂßãÂåñ
 1138              		.loc 1 467 12
 1139 0010 9DF80730 		ldrb	r3, [sp, #7]	@ zero_extendqisi2
 1140 0014 134A     		ldr	r2, .L77
 1141 0016 DB00     		lsls	r3, r3, #3
 1142 0018 1344     		add	r3, r3, r2
 1143 001a 5B68     		ldr	r3, [r3, #4]
 1144              		.loc 1 467 11
 1145 001c 002B     		cmp	r3, #0
 1146 001e 0CD1     		bne	.L74
 1147              		.loc 1 467 12 discriminator 1
 1148 0020 0022     		movs	r2, #0
 1149 0022 40F2D311 		movw	r1, #467
 1150 0026 1048     		ldr	r0, .L77+4
 1151 0028 FFF7FEFF 		bl	zf_timer_assert_handler
 1152 002c 0346     		mov	r3, r0
 1153 002e 002B     		cmp	r3, #0
 1154 0030 03D0     		beq	.L74
 468:libraries/zf_driver/zf_driver_pit.c ****         {
 469:libraries/zf_driver/zf_driver_pit.c ****             // Ê≠§Â§ÑÂ¶ÇÊûúÊñ≠Ë®ÄÊä•Èîô ÈÇ£‰πàËØÅÊòéÊú¨Ê®°ÂùóÊ≤°ÊúâÂàùÂßãÂåñËøá ÊòØ‰∏çÂÖÅËÆ∏Áõ¥Êé•Ê
 470:libraries/zf_driver/zf_driver_pit.c ****             // Êú™ÂàùÂßãÂåñÊ®°ÂùóÂæàÂèØËÉΩÊ≤°ÊúâÂºÄÂêØÊ®°ÂùóÊó∂ÈíüÊàñËÄÖÊ≤°Êúâ‰ΩøËÉΩÊ®°Âùó
 471:libraries/zf_driver/zf_driver_pit.c ****             // ÂØπ‰∫éÈÉ®ÂàÜÂçïÁâáÊú∫Ê≤°Êúâ‰ΩøËÉΩÊ®°ÂùóÁõ¥Êé•Êìç‰Ωú‰ºöÂØºËá¥ÊÄªÁ∫øÂºÇÂ∏∏ÊàñËÄÖÁ°¨‰ª∂
 472:libraries/zf_driver/zf_driver_pit.c ****             return_state = PIT_ERROR_MODULE_NOT_INIT;
 1155              		.loc 1 472 26
 1156 0032 2123     		movs	r3, #33
 1157 0034 8DF80F30 		strb	r3, [sp, #15]
 473:libraries/zf_driver/zf_driver_pit.c ****             break;
 1158              		.loc 1 473 13
 1159 0038 0EE0     		b	.L75
 1160              	.L74:
 474:libraries/zf_driver/zf_driver_pit.c ****         }
 475:libraries/zf_driver/zf_driver_pit.c **** 
 476:libraries/zf_driver/zf_driver_pit.c ****         pit_obj_list[pit_index].period_system_cycles = 0;
 1161              		.loc 1 476 32
 1162 003a 9DF80730 		ldrb	r3, [sp, #7]	@ zero_extendqisi2
 1163              		.loc 1 476 54
 1164 003e 094A     		ldr	r2, .L77
 1165 0040 DB00     		lsls	r3, r3, #3
 1166 0042 1344     		add	r3, r3, r2
 1167 0044 0022     		movs	r2, #0
 1168 0046 5A60     		str	r2, [r3, #4]
 477:libraries/zf_driver/zf_driver_pit.c ****         zf_timer_deinit((zf_timer_index_enum)pit_index);
 1169              		.loc 1 477 9
 1170 0048 9DF80730 		ldrb	r3, [sp, #7]	@ zero_extendqisi2
 1171 004c 1846     		mov	r0, r3
 1172 004e FFF7FEFF 		bl	zf_timer_deinit
 478:libraries/zf_driver/zf_driver_pit.c **** 
 479:libraries/zf_driver/zf_driver_pit.c ****         return_state = PIT_OPERATION_DONE;
 1173              		.loc 1 479 22
 1174 0052 0023     		movs	r3, #0
 1175 0054 8DF80F30 		strb	r3, [sp, #15]
 1176              	.L75:
 480:libraries/zf_driver/zf_driver_pit.c ****     }while(0);
 481:libraries/zf_driver/zf_driver_pit.c **** 
 482:libraries/zf_driver/zf_driver_pit.c ****     return return_state;
 1177              		.loc 1 482 12
 1178 0058 9DF80F30 		ldrb	r3, [sp, #15]	@ zero_extendqisi2
 483:libraries/zf_driver/zf_driver_pit.c **** }
 1179              		.loc 1 483 1
 1180 005c 1846     		mov	r0, r3
 1181 005e 05B0     		add	sp, sp, #20
 1182              		.cfi_def_cfa_offset 4
 1183              		@ sp needed
 1184 0060 5DF804FB 		ldr	pc, [sp], #4
 1185              	.L78:
 1186              		.align	2
 1187              	.L77:
 1188 0064 00000000 		.word	pit_obj_list
 1189 0068 00000000 		.word	.LC0
 1190              		.cfi_endproc
 1191              	.LFE474:
 1193              		.section	.text.zf_pit_init,"ax",%progbits
 1194              		.align	1
 1195              		.p2align 4,,15
 1196              		.global	zf_pit_init
 1197              		.syntax unified
 1198              		.thumb
 1199              		.thumb_func
 1201              	zf_pit_init:
 1202              	.LFB475:
 484:libraries/zf_driver/zf_driver_pit.c **** 
 485:libraries/zf_driver/zf_driver_pit.c **** //-------------------------------------------------------------------------------------------------
 486:libraries/zf_driver/zf_driver_pit.c **** // ÂáΩÊï∞ÁÆÄ‰ªã     PIT ÂàùÂßãÂåñ ‰∏ÄËà¨Ë∞ÉÁî® pit_ms_init Êàñ pit_us_init
 487:libraries/zf_driver/zf_driver_pit.c **** // ÂèÇÊï∞ËØ¥Êòé     pit_index           PIT Â§ñËÆæÊ®°ÂùóÂè∑ (ËØ¶ËßÅ zf_driver_pit.h ÂÜÖ zf_pit_inde
 488:libraries/zf_driver/zf_driver_pit.c **** // ÂèÇÊï∞ËØ¥Êòé     period              PIT Âë®Êúü ‰∏ÄËà¨ÊòØËäØÁâáÊàñËÄÖÊ®°ÂùóÊó∂ÈíüÈ¢ëÁéáËÆ°ÁÆó
 489:libraries/zf_driver/zf_driver_pit.c **** // ÂèÇÊï∞ËØ¥Êòé     callback            ÂõûË∞ÉÂáΩÊï∞ ‰∏∫Êó†ËøîÂõûÂÄº uint32 ptr ‰∏§‰∏™ÂèÇÊï∞ÁöÑÂáΩÊ
 490:libraries/zf_driver/zf_driver_pit.c **** // ÂèÇÊï∞ËØ¥Êòé     *ptr                ÂõûË∞ÉÂèÇÊï∞ Áî®Êà∑Ëá™ÊãüÂÆöÁöÑÂèÇÊï∞ÊåáÈíà ‰∏çÈúÄË¶ÅÁöÑËØù
 491:libraries/zf_driver/zf_driver_pit.c **** // ËøîÂõûÂèÇÊï∞     uint8               Êìç‰ΩúÁä∂ÊÄÅ ZF_NO_ERROR / PIT_OPERATION_DONE - ÂÆåÊàê ÂÖ∂‰
 492:libraries/zf_driver/zf_driver_pit.c **** // ‰ΩøÁî®Á§∫‰æã     zf_pit_init(pit_index, period, period, callback, ptr);
 493:libraries/zf_driver/zf_driver_pit.c **** // Â§áÊ≥®‰ø°ÊÅØ     
 494:libraries/zf_driver/zf_driver_pit.c **** //-------------------------------------------------------------------------------------------------
 495:libraries/zf_driver/zf_driver_pit.c **** uint8 zf_pit_init (zf_pit_index_enum pit_index, uint32 period, void_callback_uint32_ptr callback, v
 496:libraries/zf_driver/zf_driver_pit.c **** {
 1203              		.loc 1 496 1
 1204              		.cfi_startproc
 1205              		@ args = 0, pretend = 0, frame = 24
 1206              		@ frame_needed = 0, uses_anonymous_args = 0
 1207 0000 00B5     		push	{lr}
 1208              		.cfi_def_cfa_offset 4
 1209              		.cfi_offset 14, -4
 1210 0002 87B0     		sub	sp, sp, #28
 1211              		.cfi_def_cfa_offset 32
 1212 0004 0291     		str	r1, [sp, #8]
 1213 0006 0192     		str	r2, [sp, #4]
 1214 0008 0093     		str	r3, [sp]
 1215 000a 0346     		mov	r3, r0
 1216 000c 8DF80F30 		strb	r3, [sp, #15]
 497:libraries/zf_driver/zf_driver_pit.c ****     zf_pit_operation_state_enum return_state = PIT_OPERATION_DONE;
 1217              		.loc 1 497 33
 1218 0010 0023     		movs	r3, #0
 1219 0012 8DF81730 		strb	r3, [sp, #23]
 1220              	.LBB42:
 498:libraries/zf_driver/zf_driver_pit.c **** 
 499:libraries/zf_driver/zf_driver_pit.c ****     do
 500:libraries/zf_driver/zf_driver_pit.c ****     {
 501:libraries/zf_driver/zf_driver_pit.c ****         if(zf_pit_assert(!zf_timer_funciton_check(                              // Ê£ÄÊü• Ê®°ÂùóÊòØ
 1221              		.loc 1 501 12
 1222 0016 9DF80F30 		ldrb	r3, [sp, #15]	@ zero_extendqisi2
 1223 001a 0221     		movs	r1, #2
 1224 001c 1846     		mov	r0, r3
 1225 001e FFF7FEFF 		bl	zf_timer_funciton_check
 1226 0022 0346     		mov	r3, r0
 1227              		.loc 1 501 11
 1228 0024 002B     		cmp	r3, #0
 1229 0026 0CD0     		beq	.L80
 1230              		.loc 1 501 12 discriminator 1
 1231 0028 0022     		movs	r2, #0
 1232 002a 40F2F511 		movw	r1, #501
 1233 002e 4F48     		ldr	r0, .L85
 1234 0030 FFF7FEFF 		bl	zf_timer_assert_handler
 1235 0034 0346     		mov	r3, r0
 1236 0036 002B     		cmp	r3, #0
 1237 0038 03D0     		beq	.L80
 502:libraries/zf_driver/zf_driver_pit.c ****                 (zf_timer_index_enum)pit_index,                                 // ÂΩìÂâçÊ®°Âùó
 503:libraries/zf_driver/zf_driver_pit.c ****                 TIMER_FUNCTION_PIT)))
 504:libraries/zf_driver/zf_driver_pit.c ****         {
 505:libraries/zf_driver/zf_driver_pit.c ****             // Ê≠§Â§ÑÂ¶ÇÊûúÊñ≠Ë®ÄÊä•Èîô ÈÇ£‰πàËØÅÊòé _PIT ÊâÄ‰æùËµñÁöÑ TIMER Â∑≤ÁªèË¢´Âç†Áî®
 506:libraries/zf_driver/zf_driver_pit.c ****             // _PIT Á¥¢ÂºïÂØπÂ∫î TIMER Á¥¢Âºï
 507:libraries/zf_driver/zf_driver_pit.c ****             return_state = PIT_ERROR_DEPENDS_TIMER_OCCUPIED;
 1238              		.loc 1 507 26
 1239 003a 2423     		movs	r3, #36
 1240 003c 8DF81730 		strb	r3, [sp, #23]
 508:libraries/zf_driver/zf_driver_pit.c ****             break;
 1241              		.loc 1 508 13
 1242 0040 8EE0     		b	.L81
 1243              	.L80:
 509:libraries/zf_driver/zf_driver_pit.c ****         }
 510:libraries/zf_driver/zf_driver_pit.c ****         if(zf_pit_assert(!pit_obj_list[pit_index].period_system_cycles))        // Ê£ÄÊü• ÂàùÂßãÂåñ
 1244              		.loc 1 510 12
 1245 0042 9DF80F30 		ldrb	r3, [sp, #15]	@ zero_extendqisi2
 1246 0046 4A4A     		ldr	r2, .L85+4
 1247 0048 DB00     		lsls	r3, r3, #3
 1248 004a 1344     		add	r3, r3, r2
 1249 004c 5B68     		ldr	r3, [r3, #4]
 1250              		.loc 1 510 11
 1251 004e 002B     		cmp	r3, #0
 1252 0050 0CD0     		beq	.L82
 1253              		.loc 1 510 12 discriminator 1
 1254 0052 0022     		movs	r2, #0
 1255 0054 4FF4FF71 		mov	r1, #510
 1256 0058 4448     		ldr	r0, .L85
 1257 005a FFF7FEFF 		bl	zf_timer_assert_handler
 1258 005e 0346     		mov	r3, r0
 1259 0060 002B     		cmp	r3, #0
 1260 0062 03D0     		beq	.L82
 511:libraries/zf_driver/zf_driver_pit.c ****         {
 512:libraries/zf_driver/zf_driver_pit.c ****             // Ê≠§Â§ÑÂ¶ÇÊûúÊñ≠Ë®ÄÊä•Èîô ÈÇ£‰πàËØÅÊòéÊú¨ÈÄöÈÅìÂ∑≤ÁªèÂàùÂßãÂåñËøá‰∫Ü ÊòØ‰∏çÂÖÅËÆ∏Ë¶ÜÁ
 513:libraries/zf_driver/zf_driver_pit.c ****             // Â¶ÇÊûúË¶ÅÊõ¥ÊîπÊú¨ÈÄöÈÅìÁöÑÂºïËÑö Â∫îËØ•ÂÖàË∞ÉÁî®Ê≥®ÈîÄÂàùÂßãÂåñ ‰πãÂêéÂÜçÈáçÊñ∞ÂàùÂ
 514:libraries/zf_driver/zf_driver_pit.c ****             return_state = PIT_ERROR_MODULE_OCCUPIED;
 1261              		.loc 1 514 26
 1262 0064 2023     		movs	r3, #32
 1263 0066 8DF81730 		strb	r3, [sp, #23]
 515:libraries/zf_driver/zf_driver_pit.c ****             break;
 1264              		.loc 1 515 13
 1265 006a 79E0     		b	.L81
 1266              	.L82:
 516:libraries/zf_driver/zf_driver_pit.c ****         }
 517:libraries/zf_driver/zf_driver_pit.c ****         if(zf_pit_assert(period))                                               // Ê£ÄÊü• Âë®ÊúüËÆæ
 1267              		.loc 1 517 11
 1268 006c 029B     		ldr	r3, [sp, #8]
 1269 006e 002B     		cmp	r3, #0
 1270 0070 0CD1     		bne	.L83
 1271              		.loc 1 517 12 discriminator 1
 1272 0072 0022     		movs	r2, #0
 1273 0074 40F20521 		movw	r1, #517
 1274 0078 3C48     		ldr	r0, .L85
 1275 007a FFF7FEFF 		bl	zf_timer_assert_handler
 1276 007e 0346     		mov	r3, r0
 1277 0080 002B     		cmp	r3, #0
 1278 0082 03D0     		beq	.L83
 518:libraries/zf_driver/zf_driver_pit.c ****         {
 519:libraries/zf_driver/zf_driver_pit.c ****             // Ê≠§Â§ÑÂ¶ÇÊûúÊñ≠Ë®ÄÊä•Èîô ÈÇ£‰πàËØÅÊòéËÆæÁΩÆÁöÑ‰∏≠Êñ≠Âë®Êúü‰∏çÂêàÁêÜ
 520:libraries/zf_driver/zf_driver_pit.c ****             return_state = PIT_ERROR_PERIOD_ILLEGAL;
 1279              		.loc 1 520 26
 1280 0084 2223     		movs	r3, #34
 1281 0086 8DF81730 		strb	r3, [sp, #23]
 521:libraries/zf_driver/zf_driver_pit.c ****             break;
 1282              		.loc 1 521 13
 1283 008a 69E0     		b	.L81
 1284              	.L83:
 522:libraries/zf_driver/zf_driver_pit.c ****         }
 523:libraries/zf_driver/zf_driver_pit.c **** 
 524:libraries/zf_driver/zf_driver_pit.c ****         zf_timer_clock_enable((zf_timer_index_enum)pit_index);                  // ‰ΩøËÉΩÊó∂Èíü
 1285              		.loc 1 524 9
 1286 008c 9DF80F30 		ldrb	r3, [sp, #15]	@ zero_extendqisi2
 1287 0090 1846     		mov	r0, r3
 1288 0092 FFF7FEFF 		bl	zf_timer_clock_enable
 525:libraries/zf_driver/zf_driver_pit.c **** 
 526:libraries/zf_driver/zf_driver_pit.c ****         uint16 freq_div = (period >> 15);                                       // ËÆ°ÁÆóÈ¢ÑÂàÜÈ¢ë
 1289              		.loc 1 526 35
 1290 0096 029B     		ldr	r3, [sp, #8]
 1291 0098 DB0B     		lsrs	r3, r3, #15
 1292              		.loc 1 526 16
 1293 009a ADF81430 		strh	r3, [sp, #20]	@ movhi
 527:libraries/zf_driver/zf_driver_pit.c ****         uint16 period_temp = (period / (freq_div + 1));                         // ËÆ°ÁÆóËá™Âä®ÈáçË
 1294              		.loc 1 527 50
 1295 009e BDF81430 		ldrh	r3, [sp, #20]
 1296 00a2 0133     		adds	r3, r3, #1
 1297 00a4 1A46     		mov	r2, r3
 1298              		.loc 1 527 38
 1299 00a6 029B     		ldr	r3, [sp, #8]
 1300 00a8 B3FBF2F3 		udiv	r3, r3, r2
 1301              		.loc 1 527 16
 1302 00ac ADF81230 		strh	r3, [sp, #18]	@ movhi
 528:libraries/zf_driver/zf_driver_pit.c **** 
 529:libraries/zf_driver/zf_driver_pit.c ****         pit_obj_list[pit_index].timer_obj->tim_ptr->PSC = freq_div;
 1303              		.loc 1 529 32
 1304 00b0 9DF80F30 		ldrb	r3, [sp, #15]	@ zero_extendqisi2
 1305 00b4 2E4A     		ldr	r2, .L85+4
 1306 00b6 52F83330 		ldr	r3, [r2, r3, lsl #3]
 1307              		.loc 1 529 42
 1308 00ba 1B68     		ldr	r3, [r3]
 1309              		.loc 1 529 57
 1310 00bc BDF81420 		ldrh	r2, [sp, #20]
 1311 00c0 9A62     		str	r2, [r3, #40]
 530:libraries/zf_driver/zf_driver_pit.c ****         pit_obj_list[pit_index].timer_obj->tim_ptr->ARR = period_temp;
 1312              		.loc 1 530 32
 1313 00c2 9DF80F30 		ldrb	r3, [sp, #15]	@ zero_extendqisi2
 1314 00c6 2A4A     		ldr	r2, .L85+4
 1315 00c8 52F83330 		ldr	r3, [r2, r3, lsl #3]
 1316              		.loc 1 530 42
 1317 00cc 1B68     		ldr	r3, [r3]
 1318              		.loc 1 530 57
 1319 00ce BDF81220 		ldrh	r2, [sp, #18]
 1320 00d2 DA62     		str	r2, [r3, #44]
 531:libraries/zf_driver/zf_driver_pit.c **** 
 532:libraries/zf_driver/zf_driver_pit.c ****         pit_obj_list[pit_index].period_system_cycles = period;
 1321              		.loc 1 532 32
 1322 00d4 9DF80F30 		ldrb	r3, [sp, #15]	@ zero_extendqisi2
 1323              		.loc 1 532 54
 1324 00d8 254A     		ldr	r2, .L85+4
 1325 00da DB00     		lsls	r3, r3, #3
 1326 00dc 1344     		add	r3, r3, r2
 1327 00de 029A     		ldr	r2, [sp, #8]
 1328 00e0 5A60     		str	r2, [r3, #4]
 533:libraries/zf_driver/zf_driver_pit.c ****         pit_obj_list[pit_index].timer_obj->div     = (freq_div + 1);
 1329              		.loc 1 533 64
 1330 00e2 BDF81430 		ldrh	r3, [sp, #20]
 1331 00e6 591C     		adds	r1, r3, #1
 1332              		.loc 1 533 32
 1333 00e8 9DF80F30 		ldrb	r3, [sp, #15]	@ zero_extendqisi2
 1334 00ec 204A     		ldr	r2, .L85+4
 1335 00ee 52F83330 		ldr	r3, [r2, r3, lsl #3]
 1336              		.loc 1 533 64
 1337 00f2 0A46     		mov	r2, r1
 1338              		.loc 1 533 52
 1339 00f4 9A60     		str	r2, [r3, #8]
 534:libraries/zf_driver/zf_driver_pit.c ****         pit_obj_list[pit_index].timer_obj->period  = 0xFFFF;
 1340              		.loc 1 534 32
 1341 00f6 9DF80F30 		ldrb	r3, [sp, #15]	@ zero_extendqisi2
 1342 00fa 1D4A     		ldr	r2, .L85+4
 1343 00fc 52F83330 		ldr	r3, [r2, r3, lsl #3]
 1344              		.loc 1 534 52
 1345 0100 4FF6FF72 		movw	r2, #65535
 1346 0104 DA60     		str	r2, [r3, #12]
 535:libraries/zf_driver/zf_driver_pit.c ****         pit_obj_list[pit_index].timer_obj->mode    = 3;
 1347              		.loc 1 535 32
 1348 0106 9DF80F30 		ldrb	r3, [sp, #15]	@ zero_extendqisi2
 1349 010a 194A     		ldr	r2, .L85+4
 1350 010c 52F83320 		ldr	r2, [r2, r3, lsl #3]
 1351              		.loc 1 535 52
 1352 0110 137C     		ldrb	r3, [r2, #16]
 1353 0112 43F03003 		orr	r3, r3, #48
 1354 0116 1374     		strb	r3, [r2, #16]
 536:libraries/zf_driver/zf_driver_pit.c **** 
 537:libraries/zf_driver/zf_driver_pit.c ****         pit_obj_list[pit_index].timer_obj->tim_ptr->DIER   = TIM_DIER_UIE;
 1355              		.loc 1 537 32
 1356 0118 9DF80F30 		ldrb	r3, [sp, #15]	@ zero_extendqisi2
 1357 011c 144A     		ldr	r2, .L85+4
 1358 011e 52F83330 		ldr	r3, [r2, r3, lsl #3]
 1359              		.loc 1 537 42
 1360 0122 1B68     		ldr	r3, [r3]
 1361              		.loc 1 537 60
 1362 0124 0122     		movs	r2, #1
 1363 0126 DA60     		str	r2, [r3, #12]
 538:libraries/zf_driver/zf_driver_pit.c ****         pit_obj_list[pit_index].timer_obj->tim_ptr->CNT    = 0;
 1364              		.loc 1 538 32
 1365 0128 9DF80F30 		ldrb	r3, [sp, #15]	@ zero_extendqisi2
 1366 012c 104A     		ldr	r2, .L85+4
 1367 012e 52F83330 		ldr	r3, [r2, r3, lsl #3]
 1368              		.loc 1 538 42
 1369 0132 1B68     		ldr	r3, [r3]
 1370              		.loc 1 538 60
 1371 0134 0022     		movs	r2, #0
 1372 0136 5A62     		str	r2, [r3, #36]
 539:libraries/zf_driver/zf_driver_pit.c **** 
 540:libraries/zf_driver/zf_driver_pit.c ****         zf_interrupt_enable(pit_irq_index_list[pit_index]);
 1373              		.loc 1 540 9
 1374 0138 9DF80F30 		ldrb	r3, [sp, #15]	@ zero_extendqisi2
 1375 013c 0D4A     		ldr	r2, .L85+8
 1376 013e D35C     		ldrb	r3, [r2, r3]	@ zero_extendqisi2
 1377 0140 1846     		mov	r0, r3
 1378 0142 FFF7FEFF 		bl	zf_interrupt_enable
 541:libraries/zf_driver/zf_driver_pit.c **** 
 542:libraries/zf_driver/zf_driver_pit.c ****         return_state = zf_pit_set_interrupt_callback(pit_index, callback, ptr);
 1379              		.loc 1 542 24
 1380 0146 9DF80F30 		ldrb	r3, [sp, #15]	@ zero_extendqisi2
 1381 014a 009A     		ldr	r2, [sp]
 1382 014c 0199     		ldr	r1, [sp, #4]
 1383 014e 1846     		mov	r0, r3
 1384 0150 FFF7FEFF 		bl	zf_pit_set_interrupt_callback
 1385 0154 0346     		mov	r3, r0
 1386 0156 8DF81730 		strb	r3, [sp, #23]
 543:libraries/zf_driver/zf_driver_pit.c **** 
 544:libraries/zf_driver/zf_driver_pit.c ****         return_state = PIT_OPERATION_DONE;
 1387              		.loc 1 544 22
 1388 015a 0023     		movs	r3, #0
 1389 015c 8DF81730 		strb	r3, [sp, #23]
 1390              	.L81:
 1391              	.LBE42:
 545:libraries/zf_driver/zf_driver_pit.c ****     }while(0);
 546:libraries/zf_driver/zf_driver_pit.c **** 
 547:libraries/zf_driver/zf_driver_pit.c ****     return return_state;
 1392              		.loc 1 547 12
 1393 0160 9DF81730 		ldrb	r3, [sp, #23]	@ zero_extendqisi2
 548:libraries/zf_driver/zf_driver_pit.c **** }
 1394              		.loc 1 548 1
 1395 0164 1846     		mov	r0, r3
 1396 0166 07B0     		add	sp, sp, #28
 1397              		.cfi_def_cfa_offset 4
 1398              		@ sp needed
 1399 0168 5DF804FB 		ldr	pc, [sp], #4
 1400              	.L86:
 1401              		.align	2
 1402              	.L85:
 1403 016c 00000000 		.word	.LC0
 1404 0170 00000000 		.word	pit_obj_list
 1405 0174 00000000 		.word	pit_irq_index_list
 1406              		.cfi_endproc
 1407              	.LFE475:
 1409              		.section	.text.zf_pit_ms_init,"ax",%progbits
 1410              		.align	1
 1411              		.p2align 4,,15
 1412              		.global	zf_pit_ms_init
 1413              		.syntax unified
 1414              		.thumb
 1415              		.thumb_func
 1417              	zf_pit_ms_init:
 1418              	.LFB476:
 549:libraries/zf_driver/zf_driver_pit.c **** 
 550:libraries/zf_driver/zf_driver_pit.c **** //-------------------------------------------------------------------------------------------------
 551:libraries/zf_driver/zf_driver_pit.c **** // ÂáΩÊï∞ÁÆÄ‰ªã     TIM PIT ‰∏≠Êñ≠ÂàùÂßãÂåñ ms Âë®Êúü
 552:libraries/zf_driver/zf_driver_pit.c **** // ÂèÇÊï∞ËØ¥Êòé     pit_index           ‰ΩøÁî®ÁöÑ PIT ÁºñÂè∑ (ËØ¶ËßÅ zf_driver_pit.h ÂÜÖ zf_pit_ind
 553:libraries/zf_driver/zf_driver_pit.c **** // ÂèÇÊï∞ËØ¥Êòé     period_ms           PIT Âë®Êúü ms Á∫ßÂà´
 554:libraries/zf_driver/zf_driver_pit.c **** // ÂèÇÊï∞ËØ¥Êòé     callback            ÂõûË∞ÉÂáΩÊï∞ ‰∏∫Êó†ËøîÂõûÂÄº uint32 ptr ‰∏§‰∏™ÂèÇÊï∞ÁöÑÂáΩÊ
 555:libraries/zf_driver/zf_driver_pit.c **** // ÂèÇÊï∞ËØ¥Êòé     *ptr                ÂõûË∞ÉÂèÇÊï∞ Áî®Êà∑Ëá™ÊãüÂÆöÁöÑÂèÇÊï∞ÊåáÈíà ‰∏çÈúÄË¶ÅÁöÑËØù
 556:libraries/zf_driver/zf_driver_pit.c **** // ËøîÂõûÂèÇÊï∞     uint8               Êìç‰ΩúÁä∂ÊÄÅ ZF_NO_ERROR / PIT_OPERATION_DONE - ÂÆåÊàê ÂÖ∂‰
 557:libraries/zf_driver/zf_driver_pit.c **** // ‰ΩøÁî®Á§∫‰æã     zf_pit_ms_init(pit_index, period_ms, period, callback, ptr);
 558:libraries/zf_driver/zf_driver_pit.c **** // Â§áÊ≥®‰ø°ÊÅØ     
 559:libraries/zf_driver/zf_driver_pit.c **** //-------------------------------------------------------------------------------------------------
 560:libraries/zf_driver/zf_driver_pit.c **** uint8 zf_pit_ms_init (zf_pit_index_enum pit_index, uint32 period_ms, void_callback_uint32_ptr callb
 561:libraries/zf_driver/zf_driver_pit.c **** {
 1419              		.loc 1 561 1
 1420              		.cfi_startproc
 1421              		@ args = 0, pretend = 0, frame = 16
 1422              		@ frame_needed = 0, uses_anonymous_args = 0
 1423 0000 00B5     		push	{lr}
 1424              		.cfi_def_cfa_offset 4
 1425              		.cfi_offset 14, -4
 1426 0002 85B0     		sub	sp, sp, #20
 1427              		.cfi_def_cfa_offset 24
 1428 0004 0291     		str	r1, [sp, #8]
 1429 0006 0192     		str	r2, [sp, #4]
 1430 0008 0093     		str	r3, [sp]
 1431 000a 0346     		mov	r3, r0
 1432 000c 8DF80F30 		strb	r3, [sp, #15]
 562:libraries/zf_driver/zf_driver_pit.c ****     return zf_pit_init(pit_index, (period_ms) * (pit_obj_list[pit_index].timer_obj->clock_input / 1
 1433              		.loc 1 562 73
 1434 0010 9DF80F30 		ldrb	r3, [sp, #15]	@ zero_extendqisi2
 1435 0014 0A4A     		ldr	r2, .L89
 1436 0016 52F83330 		ldr	r3, [r2, r3, lsl #3]
 1437              		.loc 1 562 83
 1438 001a 5B68     		ldr	r3, [r3, #4]
 1439              		.loc 1 562 97
 1440 001c 094A     		ldr	r2, .L89+4
 1441 001e A2FB0323 		umull	r2, r3, r2, r3
 1442 0022 9B09     		lsrs	r3, r3, #6
 1443              		.loc 1 562 12
 1444 0024 029A     		ldr	r2, [sp, #8]
 1445 0026 02FB03F1 		mul	r1, r2, r3
 1446 002a 9DF80F00 		ldrb	r0, [sp, #15]	@ zero_extendqisi2
 1447 002e 009B     		ldr	r3, [sp]
 1448 0030 019A     		ldr	r2, [sp, #4]
 1449 0032 FFF7FEFF 		bl	zf_pit_init
 1450 0036 0346     		mov	r3, r0
 563:libraries/zf_driver/zf_driver_pit.c **** }
 1451              		.loc 1 563 1
 1452 0038 1846     		mov	r0, r3
 1453 003a 05B0     		add	sp, sp, #20
 1454              		.cfi_def_cfa_offset 4
 1455              		@ sp needed
 1456 003c 5DF804FB 		ldr	pc, [sp], #4
 1457              	.L90:
 1458              		.align	2
 1459              	.L89:
 1460 0040 00000000 		.word	pit_obj_list
 1461 0044 D34D6210 		.word	274877907
 1462              		.cfi_endproc
 1463              	.LFE476:
 1465              		.section	.text.zf_pit_us_init,"ax",%progbits
 1466              		.align	1
 1467              		.p2align 4,,15
 1468              		.global	zf_pit_us_init
 1469              		.syntax unified
 1470              		.thumb
 1471              		.thumb_func
 1473              	zf_pit_us_init:
 1474              	.LFB477:
 564:libraries/zf_driver/zf_driver_pit.c **** 
 565:libraries/zf_driver/zf_driver_pit.c **** //-------------------------------------------------------------------------------------------------
 566:libraries/zf_driver/zf_driver_pit.c **** // ÂáΩÊï∞ÁÆÄ‰ªã     TIM PIT ‰∏≠Êñ≠ÂàùÂßãÂåñ us Âë®Êúü
 567:libraries/zf_driver/zf_driver_pit.c **** // ÂèÇÊï∞ËØ¥Êòé     pit_index           ‰ΩøÁî®ÁöÑ PIT ÁºñÂè∑ (ËØ¶ËßÅ zf_driver_pit.h ÂÜÖ zf_pit_ind
 568:libraries/zf_driver/zf_driver_pit.c **** // ÂèÇÊï∞ËØ¥Êòé     period_us           PIT Âë®Êúü us Á∫ßÂà´
 569:libraries/zf_driver/zf_driver_pit.c **** // ÂèÇÊï∞ËØ¥Êòé     callback            ÂõûË∞ÉÂáΩÊï∞ ‰∏∫Êó†ËøîÂõûÂÄº uint32 ptr ‰∏§‰∏™ÂèÇÊï∞ÁöÑÂáΩÊ
 570:libraries/zf_driver/zf_driver_pit.c **** // ÂèÇÊï∞ËØ¥Êòé     *ptr                ÂõûË∞ÉÂèÇÊï∞ Áî®Êà∑Ëá™ÊãüÂÆöÁöÑÂèÇÊï∞ÊåáÈíà ‰∏çÈúÄË¶ÅÁöÑËØù
 571:libraries/zf_driver/zf_driver_pit.c **** // ËøîÂõûÂèÇÊï∞     uint8               Êìç‰ΩúÁä∂ÊÄÅ ZF_NO_ERROR / PIT_OPERATION_DONE - ÂÆåÊàê ÂÖ∂‰
 572:libraries/zf_driver/zf_driver_pit.c **** // ‰ΩøÁî®Á§∫‰æã     zf_pit_us_init(pit_index, period_us, period, callback, ptr);
 573:libraries/zf_driver/zf_driver_pit.c **** // Â§áÊ≥®‰ø°ÊÅØ     
 574:libraries/zf_driver/zf_driver_pit.c **** //-------------------------------------------------------------------------------------------------
 575:libraries/zf_driver/zf_driver_pit.c **** uint8 zf_pit_us_init (zf_pit_index_enum pit_index, uint32 period_us, void_callback_uint32_ptr callb
 576:libraries/zf_driver/zf_driver_pit.c **** {
 1475              		.loc 1 576 1
 1476              		.cfi_startproc
 1477              		@ args = 0, pretend = 0, frame = 16
 1478              		@ frame_needed = 0, uses_anonymous_args = 0
 1479 0000 00B5     		push	{lr}
 1480              		.cfi_def_cfa_offset 4
 1481              		.cfi_offset 14, -4
 1482 0002 85B0     		sub	sp, sp, #20
 1483              		.cfi_def_cfa_offset 24
 1484 0004 0291     		str	r1, [sp, #8]
 1485 0006 0192     		str	r2, [sp, #4]
 1486 0008 0093     		str	r3, [sp]
 1487 000a 0346     		mov	r3, r0
 1488 000c 8DF80F30 		strb	r3, [sp, #15]
 577:libraries/zf_driver/zf_driver_pit.c ****     return zf_pit_init(pit_index, (period_us) * (pit_obj_list[pit_index].timer_obj->clock_input / 1
 1489              		.loc 1 577 73
 1490 0010 9DF80F30 		ldrb	r3, [sp, #15]	@ zero_extendqisi2
 1491 0014 0A4A     		ldr	r2, .L93
 1492 0016 52F83330 		ldr	r3, [r2, r3, lsl #3]
 1493              		.loc 1 577 83
 1494 001a 5B68     		ldr	r3, [r3, #4]
 1495              		.loc 1 577 97
 1496 001c 094A     		ldr	r2, .L93+4
 1497 001e A2FB0323 		umull	r2, r3, r2, r3
 1498 0022 9B0C     		lsrs	r3, r3, #18
 1499              		.loc 1 577 12
 1500 0024 029A     		ldr	r2, [sp, #8]
 1501 0026 02FB03F1 		mul	r1, r2, r3
 1502 002a 9DF80F00 		ldrb	r0, [sp, #15]	@ zero_extendqisi2
 1503 002e 009B     		ldr	r3, [sp]
 1504 0030 019A     		ldr	r2, [sp, #4]
 1505 0032 FFF7FEFF 		bl	zf_pit_init
 1506 0036 0346     		mov	r3, r0
 578:libraries/zf_driver/zf_driver_pit.c **** }
 1507              		.loc 1 578 1
 1508 0038 1846     		mov	r0, r3
 1509 003a 05B0     		add	sp, sp, #20
 1510              		.cfi_def_cfa_offset 4
 1511              		@ sp needed
 1512 003c 5DF804FB 		ldr	pc, [sp], #4
 1513              	.L94:
 1514              		.align	2
 1515              	.L93:
 1516 0040 00000000 		.word	pit_obj_list
 1517 0044 83DE1B43 		.word	1125899907
 1518              		.cfi_endproc
 1519              	.LFE477:
 1521              		.text
 1522              	.Letext0:
 1523              		.file 3 "c:\\stellarstudio-7.0\\sdks\\tools-1.4.0\\toolchain\\arm\\mingw64_nt\\10.3-2021.10\\arm-n
 1524              		.file 4 "c:\\stellarstudio-7.0\\sdks\\tools-1.4.0\\toolchain\\arm\\mingw64_nt\\10.3-2021.10\\arm-n
 1525              		.file 5 "libraries/zf_common/zf_common_typedef.h"
 1526              		.file 6 "C:/StellarStudio-7.0/SDKS/StellarESDK-1.7.0/Modules/Platform/MCU/include/sr5e1/SR5E1_TIM.
 1527              		.file 7 "C:/StellarStudio-7.0/SDKS/StellarESDK-1.7.0/Modules/Platform/MCU/include/sr5e1/sr5e1xx.h"
 1528              		.file 8 "libraries/zf_driver/zf_driver_interrupt.h"
 1529              		.file 9 "C:/StellarStudio-7.0/SDKS/StellarESDK-1.7.0/Modules/Drivers/Timers/TIM/include/tim.h"
 1530              		.file 10 "C:/StellarStudio-7.0/SDKS/StellarESDK-1.7.0/Modules/Drivers/Timers/TIM/include/sr5e1/tim
 1531              		.file 11 "libraries/zf_driver/zf_driver_timer.h"
 1532              		.file 12 "libraries/zf_driver/zf_driver_pit.h"