   1              		.cpu cortex-m7
   2              		.arch armv7e-m
   3              		.fpu fpv5-d16
   4              		.eabi_attribute 28, 1
   5              		.eabi_attribute 20, 1
   6              		.eabi_attribute 21, 1
   7              		.eabi_attribute 23, 3
   8              		.eabi_attribute 24, 1
   9              		.eabi_attribute 25, 1
  10              		.eabi_attribute 26, 1
  11              		.eabi_attribute 30, 6
  12              		.eabi_attribute 34, 1
  13              		.eabi_attribute 18, 4
  14              		.file	"zf_driver_hrtim.c"
  15              		.text
  16              	.Ltext0:
  17              		.cfi_sections	.debug_frame
  18              		.global	hrtim_obj_list
  19              		.section	.data.hrtim_obj_list,"aw"
  20              		.align	3
  23              	hrtim_obj_list:
  24 0000 000000A0 		.word	-1610612736
  25 0004 FF0F     		.short	4095
  26 0006 FF0F     		.short	4095
  27 0008 FF0F     		.short	4095
  28 000a FF0F     		.short	4095
  29 000c FF0F     		.short	4095
  30 000e FF0F     		.short	4095
  31 0010 FF0F     		.short	4095
  32 0012 FF0F     		.short	4095
  33 0014 FF0F     		.short	4095
  34 0016 FF0F     		.short	4095
  35 0018 FF0F     		.short	4095
  36 001a FF0F     		.short	4095
  37 001c 00000000 		.space	4
  38 0020 0060343C 		.word	1010065408
  39 0024 02000000 		.word	2
  40 0028 00000000 		.word	0
  41 002c 00000000 		.word	0
  42 0030 00000000 		.word	0
  43 0034 00000000 		.space	4
  44 0038 004000A0 		.word	-1610596352
  45 003c FF0F     		.short	4095
  46 003e FF0F     		.short	4095
  47 0040 FF0F     		.short	4095
  48 0042 FF0F     		.short	4095
  49 0044 FF0F     		.short	4095
  50 0046 FF0F     		.short	4095
  51 0048 FF0F     		.short	4095
  52 004a FF0F     		.short	4095
  53 004c FF0F     		.short	4095
  54 004e FF0F     		.short	4095
  55 0050 FF0F     		.short	4095
  56 0052 FF0F     		.short	4095
  57 0054 00000000 		.space	4
  58 0058 0060343C 		.word	1010065408
  59 005c 02000000 		.word	2
  60 0060 00000000 		.word	0
  61 0064 00000000 		.word	0
  62 0068 00000000 		.word	0
  63 006c 00000000 		.space	4
  64              		.section	.rodata.hrtim_rcc_index_list,"a"
  65              		.align	2
  68              	hrtim_rcc_index_list:
  69 0000 C101     		.short	449
  70 0002 D101     		.short	465
  71              		.section	.text.zf_hrtim_assert_handler,"ax",%progbits
  72              		.align	1
  73              		.p2align 4,,15
  74              		.global	zf_hrtim_assert_handler
  75              		.syntax unified
  76              		.thumb
  77              		.thumb_func
  79              	zf_hrtim_assert_handler:
  80              	.LFB180:
  81              		.file 1 "libraries/zf_driver/zf_driver_hrtim.c"
   1:libraries/zf_driver/zf_driver_hrtim.c **** /**************************************************************************************************
   2:libraries/zf_driver/zf_driver_hrtim.c **** * Stellar-SR5E1E3 Opensource Library å³ï¼ˆStellar-SR5E1E3 å¼€æºåº“ï¼‰æ˜¯ä¸€ä¸ªåŸºäºå®˜æ–¹ SDK æ
   3:libraries/zf_driver/zf_driver_hrtim.c **** * Copyright (c) 2022 SEEKFREE é€é£ç§‘æŠ€
   4:libraries/zf_driver/zf_driver_hrtim.c **** *
   5:libraries/zf_driver/zf_driver_hrtim.c **** * æœ¬æ–‡ä»¶æ˜¯ Stellar-SR5E1E3 å¼€æºåº“çš„ä¸€éƒ¨åˆ†
   6:libraries/zf_driver/zf_driver_hrtim.c **** *
   7:libraries/zf_driver/zf_driver_hrtim.c **** * Stellar-SR5E1E3 å¼€æºåº“ æ˜¯å…è´¹è½¯ä»¶
   8:libraries/zf_driver/zf_driver_hrtim.c **** * æ‚¨å¯ä»¥æ ¹æ®è‡ªç”±è½¯ä»¶åŸºé‡‘ä¼šå‘å¸ƒçš„ GPLï¼ˆGNU General Public Licenseï¼Œå³ GNUé€šç”¨å…¬
   9:libraries/zf_driver/zf_driver_hrtim.c **** * å³ GPL çš„ç¬¬3ç‰ˆï¼ˆå³ GPL3.0ï¼‰æˆ–ï¼ˆæ‚¨é€‰æ‹©çš„ï¼‰ä»»ä½•åæ¥çš„ç‰ˆæœ¬ï¼Œé‡æ–°å‘å¸ƒå’Œ/æˆ
  10:libraries/zf_driver/zf_driver_hrtim.c **** *
  11:libraries/zf_driver/zf_driver_hrtim.c **** * æœ¬å¼€æºåº“çš„å‘å¸ƒæ˜¯å¸Œæœ›å®ƒèƒ½å‘æŒ¥ä½œç”¨ï¼Œä½†å¹¶æœªå¯¹å…¶ä½œä»»ä½•çš„ä¿è¯
  12:libraries/zf_driver/zf_driver_hrtim.c **** * ç”šè‡³æ²¡æœ‰éšå«çš„é€‚é”€æ€§æˆ–é€‚åˆç‰¹å®šç”¨é€”çš„ä¿è¯
  13:libraries/zf_driver/zf_driver_hrtim.c **** * æ›´å¤šç»†èŠ‚è¯·å‚è§ GPL
  14:libraries/zf_driver/zf_driver_hrtim.c **** *
  15:libraries/zf_driver/zf_driver_hrtim.c **** * æ‚¨åº”è¯¥åœ¨æ”¶åˆ°æœ¬å¼€æºåº“çš„åŒæ—¶æ”¶åˆ°ä¸€ä»½ GPL çš„å‰¯æœ¬
  16:libraries/zf_driver/zf_driver_hrtim.c **** * å¦‚æœæ²¡æœ‰ï¼Œè¯·å‚é˜…<https://www.gnu.org/licenses/>
  17:libraries/zf_driver/zf_driver_hrtim.c **** *
  18:libraries/zf_driver/zf_driver_hrtim.c **** * é¢å¤–æ³¨æ˜ï¼š
  19:libraries/zf_driver/zf_driver_hrtim.c **** * æœ¬å¼€æºåº“ä½¿ç”¨ GPL3.0 å¼€æºè®¸å¯è¯åè®® ä»¥ä¸Šè®¸å¯ç”³æ˜ä¸ºè¯‘æ–‡ç‰ˆæœ¬
  20:libraries/zf_driver/zf_driver_hrtim.c **** * è®¸å¯ç”³æ˜è‹±æ–‡ç‰ˆåœ¨ libraries/doc æ–‡ä»¶å¤¹ä¸‹çš„ GPL3_permission_statement.txt æ–‡ä»¶ä¸­
  21:libraries/zf_driver/zf_driver_hrtim.c **** * è®¸å¯è¯å‰¯æœ¬åœ¨ libraries æ–‡ä»¶å¤¹ä¸‹ å³è¯¥æ–‡ä»¶å¤¹ä¸‹çš„ LICENSE æ–‡ä»¶
  22:libraries/zf_driver/zf_driver_hrtim.c **** * æ¬¢è¿å„ä½ä½¿ç”¨å¹¶ä¼ æ’­æœ¬ç¨‹åº ä½†ä¿®æ”¹å†…å®¹æ—¶å¿…é¡»ä¿ç•™é€é£ç§‘æŠ€çš„ç‰ˆæƒå£°æ˜ï¼ˆ
  23:libraries/zf_driver/zf_driver_hrtim.c **** *
  24:libraries/zf_driver/zf_driver_hrtim.c **** * æ–‡ä»¶åç§°          zf_driver_hrtim
  25:libraries/zf_driver/zf_driver_hrtim.c **** * å…¬å¸åç§°          æˆéƒ½é€é£ç§‘æŠ€æœ‰é™å…¬å¸
  26:libraries/zf_driver/zf_driver_hrtim.c **** * ç‰ˆæœ¬ä¿¡æ¯          æŸ¥çœ‹ libraries/doc æ–‡ä»¶å¤¹å†… version æ–‡ä»¶ ç‰ˆæœ¬è¯´æ˜
  27:libraries/zf_driver/zf_driver_hrtim.c **** * å¼€å‘ç¯å¢ƒ          StellarStudio 7.0.0
  28:libraries/zf_driver/zf_driver_hrtim.c **** * é€‚ç”¨å¹³å°          Stellar-SR5E1E3
  29:libraries/zf_driver/zf_driver_hrtim.c **** * åº—é“ºé“¾æ¥          https://www.seekfree.cn/
  30:libraries/zf_driver/zf_driver_hrtim.c **** ***************************************************************************************************
  31:libraries/zf_driver/zf_driver_hrtim.c **** 
  32:libraries/zf_driver/zf_driver_hrtim.c **** // zf_common å±‚å¼•ç”¨
  33:libraries/zf_driver/zf_driver_hrtim.c **** #include "zf_common_debug.h"
  34:libraries/zf_driver/zf_driver_hrtim.c **** #include "zf_common_memory.h"
  35:libraries/zf_driver/zf_driver_hrtim.c **** 
  36:libraries/zf_driver/zf_driver_hrtim.c **** // zf_driver å±‚å¼•ç”¨
  37:libraries/zf_driver/zf_driver_hrtim.c **** #include "zf_driver_interrupt.h"
  38:libraries/zf_driver/zf_driver_hrtim.c **** #include "zf_driver_rcc.h"
  39:libraries/zf_driver/zf_driver_hrtim.c **** 
  40:libraries/zf_driver/zf_driver_hrtim.c **** // è‡ªèº«å¤´æ–‡ä»¶
  41:libraries/zf_driver/zf_driver_hrtim.c **** #include "zf_driver_hrtim.h"
  42:libraries/zf_driver/zf_driver_hrtim.c **** 
  43:libraries/zf_driver/zf_driver_hrtim.c **** // æ­¤å¤„å®šä¹‰ æœ¬æ–‡ä»¶ç”¨ä½¿ç”¨çš„å˜é‡ä¸å¯¹è±¡ç­‰ è¿™é‡Œä¸å…è®¸ç”¨æˆ·ä¿®æ”¹
  44:libraries/zf_driver/zf_driver_hrtim.c **** // >>>>>>>>>>>>>>>>>>>>>>>>>>>>>>>>>>>>>>>>> Part Start >>>>>>>>>>>>>>>>>>>>>>>>>>>>>>>>>>>>>>>>>
  45:libraries/zf_driver/zf_driver_hrtim.c **** // å­˜å‚¨äºé¢„å¼€è¾Ÿçš„å†…å­˜æ± ä¸­çš„ç®¡ç†ä¿¡æ¯ æœ¬éƒ¨åˆ†å¯¹äºç”¨æˆ·æ¥è¯´æ˜¯ä¸å¼€æ”¾çš„
  46:libraries/zf_driver/zf_driver_hrtim.c **** 
  47:libraries/zf_driver/zf_driver_hrtim.c **** #define     HRTIM_PWM_CHANNEL_PIN_DEFAULT   \
  48:libraries/zf_driver/zf_driver_hrtim.c **** {   \
  49:libraries/zf_driver/zf_driver_hrtim.c ****     PIN_NULL,   PIN_NULL,   PIN_NULL,   PIN_NULL,   PIN_NULL,   PIN_NULL,\
  50:libraries/zf_driver/zf_driver_hrtim.c ****     PIN_NULL,   PIN_NULL,   PIN_NULL,   PIN_NULL,   PIN_NULL,   PIN_NULL\
  51:libraries/zf_driver/zf_driver_hrtim.c **** }
  52:libraries/zf_driver/zf_driver_hrtim.c **** 
  53:libraries/zf_driver/zf_driver_hrtim.c **** AT_ZF_LIB_SECTION_START
  54:libraries/zf_driver/zf_driver_hrtim.c **** AT_ZF_LIB_SECTION zf_hrtim_obj_struct hrtim_obj_list[HRTIM_NUM_MAX] =
  55:libraries/zf_driver/zf_driver_hrtim.c **** {
  56:libraries/zf_driver/zf_driver_hrtim.c ****     {.hrtimer_obj = HRTIM1, .pin_list = HRTIM_PWM_CHANNEL_PIN_DEFAULT, .clock_input = 9600000000, .
  57:libraries/zf_driver/zf_driver_hrtim.c ****     {.hrtimer_obj = HRTIM2, .pin_list = HRTIM_PWM_CHANNEL_PIN_DEFAULT, .clock_input = 9600000000, .
  58:libraries/zf_driver/zf_driver_hrtim.c **** };
  59:libraries/zf_driver/zf_driver_hrtim.c **** AT_ZF_LIB_SECTION_END
  60:libraries/zf_driver/zf_driver_hrtim.c **** // <<<<<<<<<<<<<<<<<<<<<<<<<<<<<<<<<<<<<<<<< Part   End <<<<<<<<<<<<<<<<<<<<<<<<<<<<<<<<<<<<<<<<<
  61:libraries/zf_driver/zf_driver_hrtim.c **** 
  62:libraries/zf_driver/zf_driver_hrtim.c **** // æ­¤å¤„å®šä¹‰ æœ¬æ–‡ä»¶ç”¨ä½¿ç”¨çš„é™æ€æˆ–å¸¸äº®æ•°æ® è¿™é‡Œä¸å…è®¸ç”¨æˆ·ä¿®æ”¹ è¿™é‡Œä¸å…
  63:libraries/zf_driver/zf_driver_hrtim.c **** // >>>>>>>>>>>>>>>>>>>>>>>>>>>>>>>>>>>>>>>>> Part Start >>>>>>>>>>>>>>>>>>>>>>>>>>>>>>>>>>>>>>>>>
  64:libraries/zf_driver/zf_driver_hrtim.c **** // ç”¨äºå›ºå®šå€¼æˆ–æŒ‡å‘çš„å†…å®¹ ä¸»è¦æ˜¯ç”¨å°‘é‡å­˜å‚¨å ç”¨æ¥å‡å°‘æ ˆå¼€é”€
  65:libraries/zf_driver/zf_driver_hrtim.c **** // static const zf_interrupt_index_enum hrtim_irq_index_list[HRTIM_NUM_MAX][HRTIM_INTERRUPT_NUM_MAX
  66:libraries/zf_driver/zf_driver_hrtim.c **** // {
  67:libraries/zf_driver/zf_driver_hrtim.c **** //     {
  68:libraries/zf_driver/zf_driver_hrtim.c **** //         INTERRUPT_INDEX_HRTIM1_MASTER,
  69:libraries/zf_driver/zf_driver_hrtim.c **** //         INTERRUPT_INDEX_HRTIM1_TIMA, INTERRUPT_INDEX_HRTIM1_TIMB, INTERRUPT_INDEX_HRTIM1_TIMC,
  70:libraries/zf_driver/zf_driver_hrtim.c **** //         INTERRUPT_INDEX_HRTIM1_TIMD, INTERRUPT_INDEX_HRTIM1_TIME, INTERRUPT_INDEX_HRTIM1_TIMF
  71:libraries/zf_driver/zf_driver_hrtim.c **** //     },
  72:libraries/zf_driver/zf_driver_hrtim.c **** //     {
  73:libraries/zf_driver/zf_driver_hrtim.c **** //         INTERRUPT_INDEX_HRTIM2_MASTER,
  74:libraries/zf_driver/zf_driver_hrtim.c **** //         INTERRUPT_INDEX_HRTIM2_TIMA, INTERRUPT_INDEX_HRTIM2_TIMB, INTERRUPT_INDEX_HRTIM2_TIMC,
  75:libraries/zf_driver/zf_driver_hrtim.c **** //         INTERRUPT_INDEX_HRTIM2_TIMD, INTERRUPT_INDEX_HRTIM2_TIME, INTERRUPT_INDEX_HRTIM2_TIMF
  76:libraries/zf_driver/zf_driver_hrtim.c **** //     },
  77:libraries/zf_driver/zf_driver_hrtim.c **** // };
  78:libraries/zf_driver/zf_driver_hrtim.c **** 
  79:libraries/zf_driver/zf_driver_hrtim.c **** static const zf_rcc_index_enum hrtim_rcc_index_list[HRTIM_NUM_MAX] = 
  80:libraries/zf_driver/zf_driver_hrtim.c **** {
  81:libraries/zf_driver/zf_driver_hrtim.c ****     RCC_INDEX_HRTIMER1, RCC_INDEX_HRTIMER2,
  82:libraries/zf_driver/zf_driver_hrtim.c **** };
  83:libraries/zf_driver/zf_driver_hrtim.c **** // <<<<<<<<<<<<<<<<<<<<<<<<<<<<<<<<<<<<<<<<< Part   End <<<<<<<<<<<<<<<<<<<<<<<<<<<<<<<<<<<<<<<<<
  84:libraries/zf_driver/zf_driver_hrtim.c **** 
  85:libraries/zf_driver/zf_driver_hrtim.c **** // æ­¤å¤„å®šä¹‰ æœ¬æ–‡ä»¶çš„æ‰€æœ‰å‡½æ•°å…·ä½“å®šä¹‰ è¿™é‡Œä¸å…è®¸ç”¨æˆ·ä¿®æ”¹
  86:libraries/zf_driver/zf_driver_hrtim.c **** // >>>>>>>>>>>>>>>>>>>>>>>>>>>>>>>>>>>>>>>>> Part Start >>>>>>>>>>>>>>>>>>>>>>>>>>>>>>>>>>>>>>>>>
  87:libraries/zf_driver/zf_driver_hrtim.c **** //-------------------------------------------------------------------------------------------------
  88:libraries/zf_driver/zf_driver_hrtim.c **** // å‡½æ•°ç®€ä»‹     HRTIM æ–­è¨€å¤„ç†
  89:libraries/zf_driver/zf_driver_hrtim.c **** // å‚æ•°è¯´æ˜     *file               æ–‡ä»¶è·¯å¾„
  90:libraries/zf_driver/zf_driver_hrtim.c **** // å‚æ•°è¯´æ˜     line                æŠ¥é”™è¡Œ
  91:libraries/zf_driver/zf_driver_hrtim.c **** // å‚æ•°è¯´æ˜     *tips               è¾“å‡ºä¿¡æ¯
  92:libraries/zf_driver/zf_driver_hrtim.c **** // è¿”å›å‚æ•°     uint8               æ“ä½œçŠ¶æ€ ZF_NO_ERROR / GPIO_OPERATION_DONE - å®Œæˆ å…¶
  93:libraries/zf_driver/zf_driver_hrtim.c **** // ä½¿ç”¨ç¤ºä¾‹     zf_hrtim_assert_handler(file, line, tips);
  94:libraries/zf_driver/zf_driver_hrtim.c **** // å¤‡æ³¨ä¿¡æ¯     
  95:libraries/zf_driver/zf_driver_hrtim.c **** //-------------------------------------------------------------------------------------------------
  96:libraries/zf_driver/zf_driver_hrtim.c **** uint8 zf_hrtim_assert_handler (char *file, int line, char *tips)
  97:libraries/zf_driver/zf_driver_hrtim.c **** {
  82              		.loc 1 97 1
  83              		.cfi_startproc
  84              		@ args = 0, pretend = 0, frame = 16
  85              		@ frame_needed = 0, uses_anonymous_args = 0
  86 0000 00B5     		push	{lr}
  87              		.cfi_def_cfa_offset 4
  88              		.cfi_offset 14, -4
  89 0002 87B0     		sub	sp, sp, #28
  90              		.cfi_def_cfa_offset 32
  91 0004 0590     		str	r0, [sp, #20]
  92 0006 0491     		str	r1, [sp, #16]
  93 0008 0392     		str	r2, [sp, #12]
  98:libraries/zf_driver/zf_driver_hrtim.c ****     debug_message_handler(DEBUG_OUTPUT_LEVEL_ASSERT, ZF_FALSE, tips, file, line);
  94              		.loc 1 98 5
  95 000a 049B     		ldr	r3, [sp, #16]
  96 000c 0093     		str	r3, [sp]
  97 000e 059B     		ldr	r3, [sp, #20]
  98 0010 039A     		ldr	r2, [sp, #12]
  99 0012 0021     		movs	r1, #0
 100 0014 0220     		movs	r0, #2
 101 0016 FFF7FEFF 		bl	debug_message_handler
 102              	.L2:
  99:libraries/zf_driver/zf_driver_hrtim.c ****     while(1);
 103              		.loc 1 99 10 discriminator 1
 104 001a FEE7     		b	.L2
 105              		.cfi_endproc
 106              	.LFE180:
 108              		.section	.rodata
 109              		.align	2
 110              	.LC0:
 111 0000 6C696272 		.ascii	"libraries/zf_driver/zf_driver_hrtim.c\000"
 111      61726965 
 111      732F7A66 
 111      5F647269 
 111      7665722F 
 112              		.section	.text.zf_hrtim_set_duty,"ax",%progbits
 113              		.align	1
 114              		.p2align 4,,15
 115              		.global	zf_hrtim_set_duty
 116              		.syntax unified
 117              		.thumb
 118              		.thumb_func
 120              	zf_hrtim_set_duty:
 121              	.LFB181:
 100:libraries/zf_driver/zf_driver_hrtim.c ****     return ZF_ERROR;
 101:libraries/zf_driver/zf_driver_hrtim.c **** }
 102:libraries/zf_driver/zf_driver_hrtim.c **** 
 103:libraries/zf_driver/zf_driver_hrtim.c **** //-------------------------------------------------------------------------------------------------
 104:libraries/zf_driver/zf_driver_hrtim.c **** // å‡½æ•°ç®€ä»‹     HRTIM æ›´æ–°å ç©ºæ¯”
 105:libraries/zf_driver/zf_driver_hrtim.c **** // å‚æ•°è¯´æ˜     pin                 é€‰æ‹© HRTIM PWM å¼•è„š (è¯¦è§ zf_driver_hrtim.h å†… zf_hr
 106:libraries/zf_driver/zf_driver_hrtim.c **** // å‚æ•°è¯´æ˜     duty                è®¾ç½®å ç©ºæ¯”
 107:libraries/zf_driver/zf_driver_hrtim.c **** // è¿”å›å‚æ•°     uint8               æ“ä½œçŠ¶æ€ ZF_NO_ERROR / ENCODER_OPERATION_DONE - å®Œæˆ 
 108:libraries/zf_driver/zf_driver_hrtim.c **** // ä½¿ç”¨ç¤ºä¾‹     zf_hrtim_set_duty(pin, duty);
 109:libraries/zf_driver/zf_driver_hrtim.c **** // å¤‡æ³¨ä¿¡æ¯     
 110:libraries/zf_driver/zf_driver_hrtim.c **** //-------------------------------------------------------------------------------------------------
 111:libraries/zf_driver/zf_driver_hrtim.c **** uint8 zf_hrtim_set_duty (zf_hrtim_pwm_positive_channel_enum pin, const uint32 duty)
 112:libraries/zf_driver/zf_driver_hrtim.c **** {
 122              		.loc 1 112 1
 123              		.cfi_startproc
 124              		@ args = 0, pretend = 0, frame = 16
 125              		@ frame_needed = 0, uses_anonymous_args = 0
 126 0000 10B5     		push	{r4, lr}
 127              		.cfi_def_cfa_offset 8
 128              		.cfi_offset 4, -8
 129              		.cfi_offset 14, -4
 130 0002 84B0     		sub	sp, sp, #16
 131              		.cfi_def_cfa_offset 24
 132 0004 0190     		str	r0, [sp, #4]
 133 0006 0091     		str	r1, [sp]
 113:libraries/zf_driver/zf_driver_hrtim.c ****     zf_hrtim_operation_state_enum return_state = HRTIM_ERROR_UNKNOW;
 134              		.loc 1 113 35
 135 0008 0123     		movs	r3, #1
 136 000a 8DF80F30 		strb	r3, [sp, #15]
 137              	.LBB2:
 114:libraries/zf_driver/zf_driver_hrtim.c **** 
 115:libraries/zf_driver/zf_driver_hrtim.c ****     do
 116:libraries/zf_driver/zf_driver_hrtim.c ****     {
 117:libraries/zf_driver/zf_driver_hrtim.c ****         zf_hrtim_index_enum             hrtim_index     = (zf_hrtim_index_enum)((pin >> HRTIM_PWM_I
 138              		.loc 1 117 86
 139 000e 019B     		ldr	r3, [sp, #4]
 140 0010 1B0C     		lsrs	r3, r3, #16
 141              		.loc 1 117 59
 142 0012 DBB2     		uxtb	r3, r3
 143              		.loc 1 117 41
 144 0014 03F00F03 		and	r3, r3, #15
 145 0018 8DF80E30 		strb	r3, [sp, #14]
 118:libraries/zf_driver/zf_driver_hrtim.c ****         zf_hrtim_pwm_channel_index_enum channel_index   = (zf_hrtim_pwm_channel_index_enum)((pin >>
 146              		.loc 1 118 98
 147 001c 019B     		ldr	r3, [sp, #4]
 148 001e 1B0D     		lsrs	r3, r3, #20
 149              		.loc 1 118 59
 150 0020 DBB2     		uxtb	r3, r3
 151              		.loc 1 118 41
 152 0022 03F00F03 		and	r3, r3, #15
 153 0026 8DF80D30 		strb	r3, [sp, #13]
 119:libraries/zf_driver/zf_driver_hrtim.c **** 
 120:libraries/zf_driver/zf_driver_hrtim.c ****         if(zf_hrtim_assert(hrtim_obj_list[hrtim_index].freq))
 154              		.loc 1 120 12
 155 002a 9DF80E20 		ldrb	r2, [sp, #14]	@ zero_extendqisi2
 156 002e 9749     		ldr	r1, .L12
 157 0030 1346     		mov	r3, r2
 158 0032 DB00     		lsls	r3, r3, #3
 159 0034 9B1A     		subs	r3, r3, r2
 160 0036 DB00     		lsls	r3, r3, #3
 161 0038 0B44     		add	r3, r3, r1
 162 003a 2833     		adds	r3, r3, #40
 163 003c 1B68     		ldr	r3, [r3]
 164              		.loc 1 120 11
 165 003e 002B     		cmp	r3, #0
 166 0040 0BD1     		bne	.L4
 167              		.loc 1 120 12 discriminator 1
 168 0042 0022     		movs	r2, #0
 169 0044 7821     		movs	r1, #120
 170 0046 9248     		ldr	r0, .L12+4
 171 0048 FFF7FEFF 		bl	zf_hrtim_assert_handler
 172 004c 0346     		mov	r3, r0
 173 004e 002B     		cmp	r3, #0
 174 0050 03D0     		beq	.L4
 121:libraries/zf_driver/zf_driver_hrtim.c ****         {
 122:libraries/zf_driver/zf_driver_hrtim.c ****             // æ­¤å¤„å¦‚æœæ–­è¨€æŠ¥é”™ é‚£ä¹ˆè¯æ˜æœ¬æ¨¡å—æ²¡æœ‰åˆå§‹åŒ–è¿‡ æ˜¯ä¸å…è®¸ç›´æ¥æ
 123:libraries/zf_driver/zf_driver_hrtim.c ****             // æœªåˆå§‹åŒ–æ¨¡å—å¾ˆå¯èƒ½æ²¡æœ‰å¼€å¯æ¨¡å—æ—¶é’Ÿæˆ–è€…æ²¡æœ‰ä½¿èƒ½æ¨¡å—
 124:libraries/zf_driver/zf_driver_hrtim.c ****             // å¯¹äºéƒ¨åˆ†å•ç‰‡æœºæ²¡æœ‰ä½¿èƒ½æ¨¡å—ç›´æ¥æ“ä½œä¼šå¯¼è‡´æ€»çº¿å¼‚å¸¸æˆ–è€…ç¡¬ä»¶
 125:libraries/zf_driver/zf_driver_hrtim.c ****             return_state = HRTIM_ERROR_MODULE_NOT_INIT;
 175              		.loc 1 125 26
 176 0052 2123     		movs	r3, #33
 177 0054 8DF80F30 		strb	r3, [sp, #15]
 126:libraries/zf_driver/zf_driver_hrtim.c ****             break;
 178              		.loc 1 126 13
 179 0058 13E1     		b	.L5
 180              	.L4:
 127:libraries/zf_driver/zf_driver_hrtim.c ****         }
 128:libraries/zf_driver/zf_driver_hrtim.c ****         if(zf_hrtim_assert(PIN_NULL != hrtim_obj_list[hrtim_index].pin_list[channel_index]))
 181              		.loc 1 128 12
 182 005a 9DF80E20 		ldrb	r2, [sp, #14]	@ zero_extendqisi2
 183 005e 9DF80D10 		ldrb	r1, [sp, #13]	@ zero_extendqisi2
 184 0062 8A48     		ldr	r0, .L12
 185 0064 1346     		mov	r3, r2
 186 0066 DB00     		lsls	r3, r3, #3
 187 0068 9B1A     		subs	r3, r3, r2
 188 006a 9B00     		lsls	r3, r3, #2
 189 006c 0B44     		add	r3, r3, r1
 190 006e 5B00     		lsls	r3, r3, #1
 191 0070 0344     		add	r3, r3, r0
 192 0072 9B88     		ldrh	r3, [r3, #4]
 193              		.loc 1 128 11
 194 0074 40F6FF72 		movw	r2, #4095
 195 0078 9342     		cmp	r3, r2
 196 007a 0AD1     		bne	.L6
 197              		.loc 1 128 12 discriminator 1
 198 007c 0022     		movs	r2, #0
 199 007e 8021     		movs	r1, #128
 200 0080 8348     		ldr	r0, .L12+4
 201 0082 FFF7FEFF 		bl	zf_hrtim_assert_handler
 202 0086 0346     		mov	r3, r0
 203 0088 002B     		cmp	r3, #0
 204 008a 02D0     		beq	.L6
 129:libraries/zf_driver/zf_driver_hrtim.c ****         {
 130:libraries/zf_driver/zf_driver_hrtim.c ****             // æ­¤å¤„å¦‚æœæ–­è¨€æŠ¥é”™ é‚£ä¹ˆè¯æ˜å¼•è„šæ‰€åœ¨é€šé“å·²ç»è¢«åˆå§‹åŒ–è¿‡ ä¸èƒ½é
 131:libraries/zf_driver/zf_driver_hrtim.c ****             return_state = HRTIM_ERROR_CHANNEL_NOT_INIT;
 205              		.loc 1 131 26
 206 008c 2323     		movs	r3, #35
 207 008e 8DF80F30 		strb	r3, [sp, #15]
 208              	.L6:
 132:libraries/zf_driver/zf_driver_hrtim.c ****         }
 133:libraries/zf_driver/zf_driver_hrtim.c ****         if(zf_hrtim_assert(HRTIM_DUTY_MAX >= duty))
 209              		.loc 1 133 11
 210 0092 009B     		ldr	r3, [sp]
 211 0094 42F21072 		movw	r2, #10000
 212 0098 9342     		cmp	r3, r2
 213 009a 0BD9     		bls	.L7
 214              		.loc 1 133 12 discriminator 1
 215 009c 0022     		movs	r2, #0
 216 009e 8521     		movs	r1, #133
 217 00a0 7B48     		ldr	r0, .L12+4
 218 00a2 FFF7FEFF 		bl	zf_hrtim_assert_handler
 219 00a6 0346     		mov	r3, r0
 220 00a8 002B     		cmp	r3, #0
 221 00aa 03D0     		beq	.L7
 134:libraries/zf_driver/zf_driver_hrtim.c ****         {
 135:libraries/zf_driver/zf_driver_hrtim.c ****             // æ­¤å¤„å¦‚æœæ–­è¨€æŠ¥é”™ é‚£ä¹ˆè¯æ˜å ç©ºæ¯”è¶…è¿‡äº†é™å®šæœ€å¤§å€¼
 136:libraries/zf_driver/zf_driver_hrtim.c ****             return_state = HRTIM_ERROR_DUTY_ILLEGAL;
 222              		.loc 1 136 26
 223 00ac 2923     		movs	r3, #41
 224 00ae 8DF80F30 		strb	r3, [sp, #15]
 137:libraries/zf_driver/zf_driver_hrtim.c ****             break;
 225              		.loc 1 137 13
 226 00b2 E6E0     		b	.L5
 227              	.L7:
 138:libraries/zf_driver/zf_driver_hrtim.c ****         }
 139:libraries/zf_driver/zf_driver_hrtim.c **** 
 140:libraries/zf_driver/zf_driver_hrtim.c ****         // å¦‚æœ 100% å ç©ºæ¯” é‚£ä¹ˆè¿™é‡Œå°±æ˜¯ match_temp = period
 141:libraries/zf_driver/zf_driver_hrtim.c ****         // å¦‚æœ 0%   å ç©ºæ¯” é‚£ä¹ˆè¿™é‡Œå°±æ˜¯ match_temp = 0
 142:libraries/zf_driver/zf_driver_hrtim.c ****         // è®¾è®¡æ˜¯ CMP1 åŒ¹é…æ‹‰é«˜ CMP2 åŒ¹é…æ‹‰ä½
 143:libraries/zf_driver/zf_driver_hrtim.c ****         uint16 period_temp = hrtim_obj_list[hrtim_index].period;
 228              		.loc 1 143 57
 229 00b4 9DF80E20 		ldrb	r2, [sp, #14]	@ zero_extendqisi2
 230 00b8 7449     		ldr	r1, .L12
 231 00ba 1346     		mov	r3, r2
 232 00bc DB00     		lsls	r3, r3, #3
 233 00be 9B1A     		subs	r3, r3, r2
 234 00c0 DB00     		lsls	r3, r3, #3
 235 00c2 0B44     		add	r3, r3, r1
 236 00c4 2C33     		adds	r3, r3, #44
 237 00c6 1B68     		ldr	r3, [r3]
 238              		.loc 1 143 16
 239 00c8 ADF80A30 		strh	r3, [sp, #10]	@ movhi
 144:libraries/zf_driver/zf_driver_hrtim.c ****         if(duty >= HRTIM_DUTY_MAX / 100 * 98)
 240              		.loc 1 144 11
 241 00cc 009B     		ldr	r3, [sp]
 242 00ce 42F24762 		movw	r2, #9799
 243 00d2 9342     		cmp	r3, r2
 244 00d4 38D9     		bls	.L8
 145:libraries/zf_driver/zf_driver_hrtim.c ****         {
 146:libraries/zf_driver/zf_driver_hrtim.c ****             hrtim_obj_list[hrtim_index].hrtimer_obj->sTimerxRegs[channel_index % 6].CMP1xR = period
 245              		.loc 1 146 106
 246 00d6 BDF80A30 		ldrh	r3, [sp, #10]
 247 00da 5B08     		lsrs	r3, r3, #1
 248 00dc 9CB2     		uxth	r4, r3
 249              		.loc 1 146 40
 250 00de 9DF80E20 		ldrb	r2, [sp, #14]	@ zero_extendqisi2
 251 00e2 6A49     		ldr	r1, .L12
 252 00e4 1346     		mov	r3, r2
 253 00e6 DB00     		lsls	r3, r3, #3
 254 00e8 9B1A     		subs	r3, r3, r2
 255 00ea DB00     		lsls	r3, r3, #3
 256 00ec 0B44     		add	r3, r3, r1
 257 00ee 1868     		ldr	r0, [r3]
 258              		.loc 1 146 80
 259 00f0 9DF80D20 		ldrb	r2, [sp, #13]	@ zero_extendqisi2
 260 00f4 674B     		ldr	r3, .L12+8
 261 00f6 A3FB0213 		umull	r1, r3, r3, r2
 262 00fa 9908     		lsrs	r1, r3, #2
 263 00fc 0B46     		mov	r3, r1
 264 00fe 5B00     		lsls	r3, r3, #1
 265 0100 0B44     		add	r3, r3, r1
 266 0102 5B00     		lsls	r3, r3, #1
 267 0104 D31A     		subs	r3, r2, r3
 268 0106 DBB2     		uxtb	r3, r3
 269              		.loc 1 146 106
 270 0108 2246     		mov	r2, r4
 271              		.loc 1 146 92
 272 010a DB01     		lsls	r3, r3, #7
 273 010c 0344     		add	r3, r3, r0
 274 010e 9C33     		adds	r3, r3, #156
 275 0110 1A60     		str	r2, [r3]
 147:libraries/zf_driver/zf_driver_hrtim.c ****             hrtim_obj_list[hrtim_index].hrtimer_obj->sTimerxRegs[channel_index % 6].CMP2xR = 0;
 276              		.loc 1 147 40
 277 0112 9DF80E20 		ldrb	r2, [sp, #14]	@ zero_extendqisi2
 278 0116 5D49     		ldr	r1, .L12
 279 0118 1346     		mov	r3, r2
 280 011a DB00     		lsls	r3, r3, #3
 281 011c 9B1A     		subs	r3, r3, r2
 282 011e DB00     		lsls	r3, r3, #3
 283 0120 0B44     		add	r3, r3, r1
 284 0122 1868     		ldr	r0, [r3]
 285              		.loc 1 147 80
 286 0124 9DF80D20 		ldrb	r2, [sp, #13]	@ zero_extendqisi2
 287 0128 5A4B     		ldr	r3, .L12+8
 288 012a A3FB0213 		umull	r1, r3, r3, r2
 289 012e 9908     		lsrs	r1, r3, #2
 290 0130 0B46     		mov	r3, r1
 291 0132 5B00     		lsls	r3, r3, #1
 292 0134 0B44     		add	r3, r3, r1
 293 0136 5B00     		lsls	r3, r3, #1
 294 0138 D31A     		subs	r3, r2, r3
 295 013a DBB2     		uxtb	r3, r3
 296              		.loc 1 147 92
 297 013c DB01     		lsls	r3, r3, #7
 298 013e 0344     		add	r3, r3, r0
 299 0140 A433     		adds	r3, r3, #164
 300 0142 0022     		movs	r2, #0
 301 0144 1A60     		str	r2, [r3]
 302 0146 99E0     		b	.L9
 303              	.L8:
 148:libraries/zf_driver/zf_driver_hrtim.c ****         }
 149:libraries/zf_driver/zf_driver_hrtim.c ****         else if(duty <= HRTIM_DUTY_MAX / 100 * 2)
 304              		.loc 1 149 16
 305 0148 009B     		ldr	r3, [sp]
 306 014a C82B     		cmp	r3, #200
 307 014c 39D8     		bhi	.L10
 150:libraries/zf_driver/zf_driver_hrtim.c ****         {
 151:libraries/zf_driver/zf_driver_hrtim.c ****             hrtim_obj_list[hrtim_index].hrtimer_obj->sTimerxRegs[channel_index % 6].CMP1xR = period
 308              		.loc 1 151 40
 309 014e 9DF80E20 		ldrb	r2, [sp, #14]	@ zero_extendqisi2
 310 0152 4E49     		ldr	r1, .L12
 311 0154 1346     		mov	r3, r2
 312 0156 DB00     		lsls	r3, r3, #3
 313 0158 9B1A     		subs	r3, r3, r2
 314 015a DB00     		lsls	r3, r3, #3
 315 015c 0B44     		add	r3, r3, r1
 316 015e 1868     		ldr	r0, [r3]
 317              		.loc 1 151 80
 318 0160 9DF80D20 		ldrb	r2, [sp, #13]	@ zero_extendqisi2
 319 0164 4B4B     		ldr	r3, .L12+8
 320 0166 A3FB0213 		umull	r1, r3, r3, r2
 321 016a 9908     		lsrs	r1, r3, #2
 322 016c 0B46     		mov	r3, r1
 323 016e 5B00     		lsls	r3, r3, #1
 324 0170 0B44     		add	r3, r3, r1
 325 0172 5B00     		lsls	r3, r3, #1
 326 0174 D31A     		subs	r3, r2, r3
 327 0176 DBB2     		uxtb	r3, r3
 328              		.loc 1 151 92
 329 0178 BDF80A20 		ldrh	r2, [sp, #10]
 330 017c DB01     		lsls	r3, r3, #7
 331 017e 0344     		add	r3, r3, r0
 332 0180 9C33     		adds	r3, r3, #156
 333 0182 1A60     		str	r2, [r3]
 152:libraries/zf_driver/zf_driver_hrtim.c ****             hrtim_obj_list[hrtim_index].hrtimer_obj->sTimerxRegs[channel_index % 6].CMP2xR = period
 334              		.loc 1 152 106
 335 0184 BDF80A30 		ldrh	r3, [sp, #10]
 336 0188 5B08     		lsrs	r3, r3, #1
 337 018a 9CB2     		uxth	r4, r3
 338              		.loc 1 152 40
 339 018c 9DF80E20 		ldrb	r2, [sp, #14]	@ zero_extendqisi2
 340 0190 3E49     		ldr	r1, .L12
 341 0192 1346     		mov	r3, r2
 342 0194 DB00     		lsls	r3, r3, #3
 343 0196 9B1A     		subs	r3, r3, r2
 344 0198 DB00     		lsls	r3, r3, #3
 345 019a 0B44     		add	r3, r3, r1
 346 019c 1868     		ldr	r0, [r3]
 347              		.loc 1 152 80
 348 019e 9DF80D20 		ldrb	r2, [sp, #13]	@ zero_extendqisi2
 349 01a2 3C4B     		ldr	r3, .L12+8
 350 01a4 A3FB0213 		umull	r1, r3, r3, r2
 351 01a8 9908     		lsrs	r1, r3, #2
 352 01aa 0B46     		mov	r3, r1
 353 01ac 5B00     		lsls	r3, r3, #1
 354 01ae 0B44     		add	r3, r3, r1
 355 01b0 5B00     		lsls	r3, r3, #1
 356 01b2 D31A     		subs	r3, r2, r3
 357 01b4 DBB2     		uxtb	r3, r3
 358              		.loc 1 152 106
 359 01b6 2246     		mov	r2, r4
 360              		.loc 1 152 92
 361 01b8 DB01     		lsls	r3, r3, #7
 362 01ba 0344     		add	r3, r3, r0
 363 01bc A433     		adds	r3, r3, #164
 364 01be 1A60     		str	r2, [r3]
 365 01c0 5CE0     		b	.L9
 366              	.L10:
 367              	.LBB3:
 153:libraries/zf_driver/zf_driver_hrtim.c ****         }
 154:libraries/zf_driver/zf_driver_hrtim.c ****         else
 155:libraries/zf_driver/zf_driver_hrtim.c ****         {
 156:libraries/zf_driver/zf_driver_hrtim.c ****             uint16 match_temp  = (uint16)(period_temp / 2 * ((float)duty / HRTIM_DUTY_MAX));
 368              		.loc 1 156 55
 369 01c2 BDF80A30 		ldrh	r3, [sp, #10]
 370 01c6 5B08     		lsrs	r3, r3, #1
 371 01c8 9BB2     		uxth	r3, r3
 372 01ca 07EE903A 		vmov	s15, r3	@ int
 373              		.loc 1 156 59
 374 01ce B8EEE77A 		vcvt.f32.s32	s14, s15
 375              		.loc 1 156 62
 376 01d2 009B     		ldr	r3, [sp]
 377 01d4 07EE903A 		vmov	s15, r3	@ int
 378 01d8 F8EE676A 		vcvt.f32.u32	s13, s15
 379              		.loc 1 156 74
 380 01dc 9FED2E6A 		vldr.32	s12, .L12+12
 381 01e0 C6EE867A 		vdiv.f32	s15, s13, s12
 382              		.loc 1 156 59
 383 01e4 67EE277A 		vmul.f32	s15, s14, s15
 384              		.loc 1 156 20
 385 01e8 FCEEE77A 		vcvt.u32.f32	s15, s15
 386 01ec 17EE903A 		vmov	r3, s15	@ int
 387 01f0 ADF80830 		strh	r3, [sp, #8]	@ movhi
 157:libraries/zf_driver/zf_driver_hrtim.c ****             hrtim_obj_list[hrtim_index].hrtimer_obj->sTimerxRegs[channel_index % 6].CMP1xR = (perio
 388              		.loc 1 157 107
 389 01f4 BDF80A30 		ldrh	r3, [sp, #10]
 390 01f8 5B08     		lsrs	r3, r3, #1
 391 01fa 9BB2     		uxth	r3, r3
 392 01fc 1A46     		mov	r2, r3
 393              		.loc 1 157 111
 394 01fe BDF80830 		ldrh	r3, [sp, #8]
 395 0202 D41A     		subs	r4, r2, r3
 396              		.loc 1 157 40
 397 0204 9DF80E20 		ldrb	r2, [sp, #14]	@ zero_extendqisi2
 398 0208 2049     		ldr	r1, .L12
 399 020a 1346     		mov	r3, r2
 400 020c DB00     		lsls	r3, r3, #3
 401 020e 9B1A     		subs	r3, r3, r2
 402 0210 DB00     		lsls	r3, r3, #3
 403 0212 0B44     		add	r3, r3, r1
 404 0214 1868     		ldr	r0, [r3]
 405              		.loc 1 157 80
 406 0216 9DF80D20 		ldrb	r2, [sp, #13]	@ zero_extendqisi2
 407 021a 1E4B     		ldr	r3, .L12+8
 408 021c A3FB0213 		umull	r1, r3, r3, r2
 409 0220 9908     		lsrs	r1, r3, #2
 410 0222 0B46     		mov	r3, r1
 411 0224 5B00     		lsls	r3, r3, #1
 412 0226 0B44     		add	r3, r3, r1
 413 0228 5B00     		lsls	r3, r3, #1
 414 022a D31A     		subs	r3, r2, r3
 415 022c DBB2     		uxtb	r3, r3
 416              		.loc 1 157 111
 417 022e 2246     		mov	r2, r4
 418              		.loc 1 157 92
 419 0230 DB01     		lsls	r3, r3, #7
 420 0232 0344     		add	r3, r3, r0
 421 0234 9C33     		adds	r3, r3, #156
 422 0236 1A60     		str	r2, [r3]
 158:libraries/zf_driver/zf_driver_hrtim.c ****             hrtim_obj_list[hrtim_index].hrtimer_obj->sTimerxRegs[channel_index % 6].CMP2xR = (perio
 423              		.loc 1 158 107
 424 0238 BDF80A30 		ldrh	r3, [sp, #10]
 425 023c 5B08     		lsrs	r3, r3, #1
 426 023e 9BB2     		uxth	r3, r3
 427 0240 1A46     		mov	r2, r3
 428              		.loc 1 158 111
 429 0242 BDF80830 		ldrh	r3, [sp, #8]
 430 0246 D418     		adds	r4, r2, r3
 431              		.loc 1 158 40
 432 0248 9DF80E20 		ldrb	r2, [sp, #14]	@ zero_extendqisi2
 433 024c 0F49     		ldr	r1, .L12
 434 024e 1346     		mov	r3, r2
 435 0250 DB00     		lsls	r3, r3, #3
 436 0252 9B1A     		subs	r3, r3, r2
 437 0254 DB00     		lsls	r3, r3, #3
 438 0256 0B44     		add	r3, r3, r1
 439 0258 1868     		ldr	r0, [r3]
 440              		.loc 1 158 80
 441 025a 9DF80D20 		ldrb	r2, [sp, #13]	@ zero_extendqisi2
 442 025e 0D4B     		ldr	r3, .L12+8
 443 0260 A3FB0213 		umull	r1, r3, r3, r2
 444 0264 9908     		lsrs	r1, r3, #2
 445 0266 0B46     		mov	r3, r1
 446 0268 5B00     		lsls	r3, r3, #1
 447 026a 0B44     		add	r3, r3, r1
 448 026c 5B00     		lsls	r3, r3, #1
 449 026e D31A     		subs	r3, r2, r3
 450 0270 DBB2     		uxtb	r3, r3
 451              		.loc 1 158 111
 452 0272 2246     		mov	r2, r4
 453              		.loc 1 158 92
 454 0274 DB01     		lsls	r3, r3, #7
 455 0276 0344     		add	r3, r3, r0
 456 0278 A433     		adds	r3, r3, #164
 457 027a 1A60     		str	r2, [r3]
 458              	.L9:
 459              	.LBE3:
 159:libraries/zf_driver/zf_driver_hrtim.c ****         }
 160:libraries/zf_driver/zf_driver_hrtim.c **** 
 161:libraries/zf_driver/zf_driver_hrtim.c ****         return_state = HRTIM_OPERATION_DONE;
 460              		.loc 1 161 22
 461 027c 0023     		movs	r3, #0
 462 027e 8DF80F30 		strb	r3, [sp, #15]
 463              	.L5:
 464              	.LBE2:
 162:libraries/zf_driver/zf_driver_hrtim.c ****     }while(0);
 163:libraries/zf_driver/zf_driver_hrtim.c **** 
 164:libraries/zf_driver/zf_driver_hrtim.c ****     return return_state;
 465              		.loc 1 164 12
 466 0282 9DF80F30 		ldrb	r3, [sp, #15]	@ zero_extendqisi2
 165:libraries/zf_driver/zf_driver_hrtim.c **** }
 467              		.loc 1 165 1
 468 0286 1846     		mov	r0, r3
 469 0288 04B0     		add	sp, sp, #16
 470              		.cfi_def_cfa_offset 8
 471              		@ sp needed
 472 028a 10BD     		pop	{r4, pc}
 473              	.L13:
 474              		.align	2
 475              	.L12:
 476 028c 00000000 		.word	hrtim_obj_list
 477 0290 00000000 		.word	.LC0
 478 0294 ABAAAAAA 		.word	-1431655765
 479 0298 00401C46 		.word	1176256512
 480              		.cfi_endproc
 481              	.LFE181:
 483              		.global	__aeabi_uldivmod
 484              		.section	.text.zf_hrtim_set_freq,"ax",%progbits
 485              		.align	1
 486              		.p2align 4,,15
 487              		.global	zf_hrtim_set_freq
 488              		.syntax unified
 489              		.thumb
 490              		.thumb_func
 492              	zf_hrtim_set_freq:
 493              	.LFB182:
 166:libraries/zf_driver/zf_driver_hrtim.c **** 
 167:libraries/zf_driver/zf_driver_hrtim.c **** //-------------------------------------------------------------------------------------------------
 168:libraries/zf_driver/zf_driver_hrtim.c **** // å‡½æ•°ç®€ä»‹     HRTIM æ¨¡å—è®¾ç½®é¢‘ç‡
 169:libraries/zf_driver/zf_driver_hrtim.c **** // å‚æ•°è¯´æ˜     hrtim_index         é€‰æ‹© HRTIM æ¨¡å—     (è¯¦è§ zf_driver_hrtim.h å†… zf_hr
 170:libraries/zf_driver/zf_driver_hrtim.c **** // å‚æ•°è¯´æ˜     freq                è®¾ç½®é¢‘ç‡ åŒä¸ªæ¨¡å—åªæœ‰æœ€åä¸€æ¬¡è®¾ç½®ç”Ÿæ•ˆ
 171:libraries/zf_driver/zf_driver_hrtim.c **** // è¿”å›å‚æ•°     uint8               æ“ä½œçŠ¶æ€ ZF_NO_ERROR / ENCODER_OPERATION_DONE - å®Œæˆ 
 172:libraries/zf_driver/zf_driver_hrtim.c **** // ä½¿ç”¨ç¤ºä¾‹     zf_hrtim_set_freq(hrtim_index, freq);
 173:libraries/zf_driver/zf_driver_hrtim.c **** // å¤‡æ³¨ä¿¡æ¯     
 174:libraries/zf_driver/zf_driver_hrtim.c **** //-------------------------------------------------------------------------------------------------
 175:libraries/zf_driver/zf_driver_hrtim.c **** uint8 zf_hrtim_set_freq (zf_hrtim_index_enum hrtim_index, const uint32 freq)
 176:libraries/zf_driver/zf_driver_hrtim.c **** {
 494              		.loc 1 176 1
 495              		.cfi_startproc
 496              		@ args = 0, pretend = 0, frame = 40
 497              		@ frame_needed = 0, uses_anonymous_args = 0
 498 0000 2DE9F04F 		push	{r4, r5, r6, r7, r8, r9, r10, fp, lr}
 499              		.cfi_def_cfa_offset 36
 500              		.cfi_offset 4, -36
 501              		.cfi_offset 5, -32
 502              		.cfi_offset 6, -28
 503              		.cfi_offset 7, -24
 504              		.cfi_offset 8, -20
 505              		.cfi_offset 9, -16
 506              		.cfi_offset 10, -12
 507              		.cfi_offset 11, -8
 508              		.cfi_offset 14, -4
 509 0004 8BB0     		sub	sp, sp, #44
 510              		.cfi_def_cfa_offset 80
 511 0006 0346     		mov	r3, r0
 512 0008 0491     		str	r1, [sp, #16]
 513 000a 8DF81730 		strb	r3, [sp, #23]
 177:libraries/zf_driver/zf_driver_hrtim.c ****     zf_hrtim_operation_state_enum return_state = HRTIM_ERROR_UNKNOW;
 514              		.loc 1 177 35
 515 000e 0123     		movs	r3, #1
 516 0010 8DF82730 		strb	r3, [sp, #39]
 517              	.LBB4:
 178:libraries/zf_driver/zf_driver_hrtim.c **** 
 179:libraries/zf_driver/zf_driver_hrtim.c ****     do
 180:libraries/zf_driver/zf_driver_hrtim.c ****     {
 181:libraries/zf_driver/zf_driver_hrtim.c ****         if(zf_hrtim_assert(hrtim_obj_list[hrtim_index].freq))
 518              		.loc 1 181 12
 519 0014 9DF81720 		ldrb	r2, [sp, #23]	@ zero_extendqisi2
 520 0018 B449     		ldr	r1, .L29
 521 001a 1346     		mov	r3, r2
 522 001c DB00     		lsls	r3, r3, #3
 523 001e 9B1A     		subs	r3, r3, r2
 524 0020 DB00     		lsls	r3, r3, #3
 525 0022 0B44     		add	r3, r3, r1
 526 0024 2833     		adds	r3, r3, #40
 527 0026 1B68     		ldr	r3, [r3]
 528              		.loc 1 181 11
 529 0028 002B     		cmp	r3, #0
 530 002a 0BD1     		bne	.L15
 531              		.loc 1 181 12 discriminator 1
 532 002c 0022     		movs	r2, #0
 533 002e B521     		movs	r1, #181
 534 0030 AF48     		ldr	r0, .L29+4
 535 0032 FFF7FEFF 		bl	zf_hrtim_assert_handler
 536 0036 0346     		mov	r3, r0
 537 0038 002B     		cmp	r3, #0
 538 003a 03D0     		beq	.L15
 182:libraries/zf_driver/zf_driver_hrtim.c ****         {
 183:libraries/zf_driver/zf_driver_hrtim.c ****             // æ­¤å¤„å¦‚æœæ–­è¨€æŠ¥é”™ é‚£ä¹ˆè¯æ˜æœ¬æ¨¡å—å·²ç»è¢«åˆå§‹åŒ–è¿‡ä¸€æ¬¡ é‡å¤åˆå
 184:libraries/zf_driver/zf_driver_hrtim.c ****             // å¦åˆ™åº”å½“å…ˆæ³¨é”€åˆå§‹åŒ–ä¹‹åå†é‡æ–°åˆå§‹åŒ–
 185:libraries/zf_driver/zf_driver_hrtim.c ****             return_state = HRTIM_ERROR_MODULE_NOT_INIT;
 539              		.loc 1 185 26
 540 003c 2123     		movs	r3, #33
 541 003e 8DF82730 		strb	r3, [sp, #39]
 186:libraries/zf_driver/zf_driver_hrtim.c ****             break;
 542              		.loc 1 186 13
 543 0042 4DE1     		b	.L16
 544              	.L15:
 187:libraries/zf_driver/zf_driver_hrtim.c ****         }
 188:libraries/zf_driver/zf_driver_hrtim.c ****         if(zf_hrtim_assert(freq))
 545              		.loc 1 188 11
 546 0044 049B     		ldr	r3, [sp, #16]
 547 0046 002B     		cmp	r3, #0
 548 0048 0BD1     		bne	.L17
 549              		.loc 1 188 12 discriminator 1
 550 004a 0022     		movs	r2, #0
 551 004c BC21     		movs	r1, #188
 552 004e A848     		ldr	r0, .L29+4
 553 0050 FFF7FEFF 		bl	zf_hrtim_assert_handler
 554 0054 0346     		mov	r3, r0
 555 0056 002B     		cmp	r3, #0
 556 0058 03D0     		beq	.L17
 189:libraries/zf_driver/zf_driver_hrtim.c ****         {
 190:libraries/zf_driver/zf_driver_hrtim.c ****             // æ­¤å¤„å¦‚æœæ–­è¨€æŠ¥é”™ é‚£ä¹ˆè¯æ˜è¾“å…¥çš„é¢‘ç‡ä¸º 0
 191:libraries/zf_driver/zf_driver_hrtim.c ****             return_state = HRTIM_ERROR_FREQ_ILLEGAL;
 557              		.loc 1 191 26
 558 005a 2823     		movs	r3, #40
 559 005c 8DF82730 		strb	r3, [sp, #39]
 192:libraries/zf_driver/zf_driver_hrtim.c ****             break;
 560              		.loc 1 192 13
 561 0060 3EE1     		b	.L16
 562              	.L17:
 193:libraries/zf_driver/zf_driver_hrtim.c ****         }
 194:libraries/zf_driver/zf_driver_hrtim.c **** 
 195:libraries/zf_driver/zf_driver_hrtim.c ****         hrtim_obj_list[hrtim_index].hrtimer_obj->sMasterRegs.MCR = 0;
 563              		.loc 1 195 36
 564 0062 9DF81720 		ldrb	r2, [sp, #23]	@ zero_extendqisi2
 565 0066 A149     		ldr	r1, .L29
 566 0068 1346     		mov	r3, r2
 567 006a DB00     		lsls	r3, r3, #3
 568 006c 9B1A     		subs	r3, r3, r2
 569 006e DB00     		lsls	r3, r3, #3
 570 0070 0B44     		add	r3, r3, r1
 571 0072 1B68     		ldr	r3, [r3]
 572              		.loc 1 195 66
 573 0074 0022     		movs	r2, #0
 574 0076 1A60     		str	r2, [r3]
 196:libraries/zf_driver/zf_driver_hrtim.c ****         hrtim_obj_list[hrtim_index].hrtimer_obj->sMasterRegs.MCNTR = 0;
 575              		.loc 1 196 36
 576 0078 9DF81720 		ldrb	r2, [sp, #23]	@ zero_extendqisi2
 577 007c 9B49     		ldr	r1, .L29
 578 007e 1346     		mov	r3, r2
 579 0080 DB00     		lsls	r3, r3, #3
 580 0082 9B1A     		subs	r3, r3, r2
 581 0084 DB00     		lsls	r3, r3, #3
 582 0086 0B44     		add	r3, r3, r1
 583 0088 1B68     		ldr	r3, [r3]
 584              		.loc 1 196 68
 585 008a 0022     		movs	r2, #0
 586 008c 1A61     		str	r2, [r3, #16]
 587              	.LBB5:
 197:libraries/zf_driver/zf_driver_hrtim.c ****         for(uint8 i = 0; i < 6; i ++)
 588              		.loc 1 197 19
 589 008e 0023     		movs	r3, #0
 590 0090 8DF82630 		strb	r3, [sp, #38]
 591              		.loc 1 197 9
 592 0094 14E0     		b	.L18
 593              	.L19:
 198:libraries/zf_driver/zf_driver_hrtim.c ****         {
 199:libraries/zf_driver/zf_driver_hrtim.c ****             hrtim_obj_list[hrtim_index].hrtimer_obj->sTimerxRegs[i].CNTxR = 0;
 594              		.loc 1 199 40 discriminator 3
 595 0096 9DF81720 		ldrb	r2, [sp, #23]	@ zero_extendqisi2
 596 009a 9449     		ldr	r1, .L29
 597 009c 1346     		mov	r3, r2
 598 009e DB00     		lsls	r3, r3, #3
 599 00a0 9B1A     		subs	r3, r3, r2
 600 00a2 DB00     		lsls	r3, r3, #3
 601 00a4 0B44     		add	r3, r3, r1
 602 00a6 1A68     		ldr	r2, [r3]
 603              		.loc 1 199 68 discriminator 3
 604 00a8 9DF82630 		ldrb	r3, [sp, #38]	@ zero_extendqisi2
 605              		.loc 1 199 75 discriminator 3
 606 00ac DB01     		lsls	r3, r3, #7
 607 00ae 1344     		add	r3, r3, r2
 608 00b0 9033     		adds	r3, r3, #144
 609 00b2 0022     		movs	r2, #0
 610 00b4 1A60     		str	r2, [r3]
 197:libraries/zf_driver/zf_driver_hrtim.c ****         for(uint8 i = 0; i < 6; i ++)
 611              		.loc 1 197 35 discriminator 3
 612 00b6 9DF82630 		ldrb	r3, [sp, #38]	@ zero_extendqisi2
 613 00ba 0133     		adds	r3, r3, #1
 614 00bc 8DF82630 		strb	r3, [sp, #38]
 615              	.L18:
 197:libraries/zf_driver/zf_driver_hrtim.c ****         for(uint8 i = 0; i < 6; i ++)
 616              		.loc 1 197 9 discriminator 1
 617 00c0 9DF82630 		ldrb	r3, [sp, #38]	@ zero_extendqisi2
 618 00c4 052B     		cmp	r3, #5
 619 00c6 E6D9     		bls	.L19
 620              	.LBE5:
 200:libraries/zf_driver/zf_driver_hrtim.c ****         }
 201:libraries/zf_driver/zf_driver_hrtim.c **** 
 202:libraries/zf_driver/zf_driver_hrtim.c ****         uint32 register_temp    = 0;
 621              		.loc 1 202 16
 622 00c8 0023     		movs	r3, #0
 623 00ca 0693     		str	r3, [sp, #24]
 203:libraries/zf_driver/zf_driver_hrtim.c ****         uint16 freq_div         = 0;
 624              		.loc 1 203 16
 625 00cc 0023     		movs	r3, #0
 626 00ce ADF82430 		strh	r3, [sp, #36]	@ movhi
 204:libraries/zf_driver/zf_driver_hrtim.c ****         uint16 period_temp      = 0;
 627              		.loc 1 204 16
 628 00d2 0023     		movs	r3, #0
 629 00d4 ADF82230 		strh	r3, [sp, #34]	@ movhi
 630              	.LBB6:
 205:libraries/zf_driver/zf_driver_hrtim.c **** 
 206:libraries/zf_driver/zf_driver_hrtim.c ****         for(uint8 i = 1; i <= 128; i *= 2)
 631              		.loc 1 206 19
 632 00d8 0123     		movs	r3, #1
 633 00da 8DF82130 		strb	r3, [sp, #33]
 634              		.loc 1 206 9
 635 00de 8DE0     		b	.L20
 636              	.L23:
 207:libraries/zf_driver/zf_driver_hrtim.c ****         {
 208:libraries/zf_driver/zf_driver_hrtim.c ****             if(hrtim_obj_list[hrtim_index].clock_input / i / freq < 0xFF00)
 637              		.loc 1 208 43
 638 00e0 9DF81720 		ldrb	r2, [sp, #23]	@ zero_extendqisi2
 639 00e4 8149     		ldr	r1, .L29
 640 00e6 1346     		mov	r3, r2
 641 00e8 DB00     		lsls	r3, r3, #3
 642 00ea 9B1A     		subs	r3, r3, r2
 643 00ec DB00     		lsls	r3, r3, #3
 644 00ee 0B44     		add	r3, r3, r1
 645 00f0 2033     		adds	r3, r3, #32
 646 00f2 D3E90001 		ldrd	r0, [r3]
 647              		.loc 1 208 56
 648 00f6 9DF82130 		ldrb	r3, [sp, #33]	@ zero_extendqisi2
 649 00fa 0022     		movs	r2, #0
 650 00fc 1C46     		mov	r4, r3
 651 00fe 1546     		mov	r5, r2
 652 0100 2246     		mov	r2, r4
 653 0102 2B46     		mov	r3, r5
 654 0104 FFF7FEFF 		bl	__aeabi_uldivmod
 655 0108 0246     		mov	r2, r0
 656 010a 0B46     		mov	r3, r1
 657 010c 1046     		mov	r0, r2
 658 010e 1946     		mov	r1, r3
 659              		.loc 1 208 60
 660 0110 049B     		ldr	r3, [sp, #16]
 661 0112 0022     		movs	r2, #0
 662 0114 1E46     		mov	r6, r3
 663 0116 1746     		mov	r7, r2
 664 0118 3246     		mov	r2, r6
 665 011a 3B46     		mov	r3, r7
 666 011c FFF7FEFF 		bl	__aeabi_uldivmod
 667 0120 0246     		mov	r2, r0
 668 0122 0B46     		mov	r3, r1
 669              		.loc 1 208 15
 670 0124 B2F57F4F 		cmp	r2, #65280
 671 0128 73F10003 		sbcs	r3, r3, #0
 672 012c 5CD2     		bcs	.L21
 209:libraries/zf_driver/zf_driver_hrtim.c ****             {
 210:libraries/zf_driver/zf_driver_hrtim.c ****                 period_temp = hrtim_obj_list[hrtim_index].clock_input / i / freq;
 673              		.loc 1 210 58
 674 012e 9DF81720 		ldrb	r2, [sp, #23]	@ zero_extendqisi2
 675 0132 6E49     		ldr	r1, .L29
 676 0134 1346     		mov	r3, r2
 677 0136 DB00     		lsls	r3, r3, #3
 678 0138 9B1A     		subs	r3, r3, r2
 679 013a DB00     		lsls	r3, r3, #3
 680 013c 0B44     		add	r3, r3, r1
 681 013e 2033     		adds	r3, r3, #32
 682 0140 D3E90001 		ldrd	r0, [r3]
 683              		.loc 1 210 71
 684 0144 9DF82130 		ldrb	r3, [sp, #33]	@ zero_extendqisi2
 685 0148 0022     		movs	r2, #0
 686 014a 9846     		mov	r8, r3
 687 014c 9146     		mov	r9, r2
 688 014e 4246     		mov	r2, r8
 689 0150 4B46     		mov	r3, r9
 690 0152 FFF7FEFF 		bl	__aeabi_uldivmod
 691 0156 0246     		mov	r2, r0
 692 0158 0B46     		mov	r3, r1
 693 015a 1046     		mov	r0, r2
 694 015c 1946     		mov	r1, r3
 695              		.loc 1 210 75
 696 015e 049B     		ldr	r3, [sp, #16]
 697 0160 0022     		movs	r2, #0
 698 0162 9A46     		mov	r10, r3
 699 0164 9346     		mov	fp, r2
 700 0166 5246     		mov	r2, r10
 701 0168 5B46     		mov	r3, fp
 702 016a FFF7FEFF 		bl	__aeabi_uldivmod
 703 016e 0246     		mov	r2, r0
 704 0170 0B46     		mov	r3, r1
 705              		.loc 1 210 29
 706 0172 1346     		mov	r3, r2	@ movhi
 707 0174 ADF82230 		strh	r3, [sp, #34]	@ movhi
 211:libraries/zf_driver/zf_driver_hrtim.c ****                 period_temp = period_temp + period_temp % 2;
 708              		.loc 1 211 43
 709 0178 BDF82230 		ldrh	r3, [sp, #34]	@ movhi
 710 017c 0133     		adds	r3, r3, #1
 711 017e 9BB2     		uxth	r3, r3
 712              		.loc 1 211 29
 713 0180 23F00103 		bic	r3, r3, #1
 714 0184 ADF82230 		strh	r3, [sp, #34]	@ movhi
 212:libraries/zf_driver/zf_driver_hrtim.c ****                 hrtim_obj_list[hrtim_index].freq = hrtim_obj_list[hrtim_index].clock_input / i / pe
 715              		.loc 1 212 79
 716 0188 9DF81720 		ldrb	r2, [sp, #23]	@ zero_extendqisi2
 717 018c 5749     		ldr	r1, .L29
 718 018e 1346     		mov	r3, r2
 719 0190 DB00     		lsls	r3, r3, #3
 720 0192 9B1A     		subs	r3, r3, r2
 721 0194 DB00     		lsls	r3, r3, #3
 722 0196 0B44     		add	r3, r3, r1
 723 0198 2033     		adds	r3, r3, #32
 724 019a D3E90001 		ldrd	r0, [r3]
 725              		.loc 1 212 92
 726 019e 9DF82130 		ldrb	r3, [sp, #33]	@ zero_extendqisi2
 727 01a2 0022     		movs	r2, #0
 728 01a4 0093     		str	r3, [sp]
 729 01a6 0192     		str	r2, [sp, #4]
 730 01a8 DDE90023 		ldrd	r2, [sp]
 731 01ac FFF7FEFF 		bl	__aeabi_uldivmod
 732 01b0 0246     		mov	r2, r0
 733 01b2 0B46     		mov	r3, r1
 734 01b4 1046     		mov	r0, r2
 735 01b6 1946     		mov	r1, r3
 736              		.loc 1 212 96
 737 01b8 BDF82230 		ldrh	r3, [sp, #34]
 738 01bc 0022     		movs	r2, #0
 739 01be 0293     		str	r3, [sp, #8]
 740 01c0 0392     		str	r2, [sp, #12]
 741 01c2 DDE90223 		ldrd	r2, [sp, #8]
 742 01c6 FFF7FEFF 		bl	__aeabi_uldivmod
 743 01ca 0246     		mov	r2, r0
 744 01cc 0B46     		mov	r3, r1
 745 01ce 1046     		mov	r0, r2
 746 01d0 1946     		mov	r1, r3
 747              		.loc 1 212 44
 748 01d2 9DF81720 		ldrb	r2, [sp, #23]	@ zero_extendqisi2
 749              		.loc 1 212 50
 750 01d6 4549     		ldr	r1, .L29
 751 01d8 1346     		mov	r3, r2
 752 01da DB00     		lsls	r3, r3, #3
 753 01dc 9B1A     		subs	r3, r3, r2
 754 01de DB00     		lsls	r3, r3, #3
 755 01e0 0B44     		add	r3, r3, r1
 756 01e2 2833     		adds	r3, r3, #40
 757 01e4 1860     		str	r0, [r3]
 213:libraries/zf_driver/zf_driver_hrtim.c ****                 break;
 758              		.loc 1 213 17
 759 01e6 0EE0     		b	.L22
 760              	.L21:
 214:libraries/zf_driver/zf_driver_hrtim.c ****             }
 215:libraries/zf_driver/zf_driver_hrtim.c ****             freq_div += 1;
 761              		.loc 1 215 22 discriminator 2
 762 01e8 BDF82430 		ldrh	r3, [sp, #36]	@ movhi
 763 01ec 0133     		adds	r3, r3, #1
 764 01ee ADF82430 		strh	r3, [sp, #36]	@ movhi
 206:libraries/zf_driver/zf_driver_hrtim.c ****         {
 765              		.loc 1 206 38 discriminator 2
 766 01f2 9DF82130 		ldrb	r3, [sp, #33]
 767 01f6 5B00     		lsls	r3, r3, #1
 768 01f8 8DF82130 		strb	r3, [sp, #33]
 769              	.L20:
 206:libraries/zf_driver/zf_driver_hrtim.c ****         {
 770              		.loc 1 206 9 discriminator 1
 771 01fc 9DF82130 		ldrb	r3, [sp, #33]	@ zero_extendqisi2
 772 0200 802B     		cmp	r3, #128
 773 0202 7FF66DAF 		bls	.L23
 774              	.L22:
 775              	.LBE6:
 216:libraries/zf_driver/zf_driver_hrtim.c ****         }
 217:libraries/zf_driver/zf_driver_hrtim.c **** 
 218:libraries/zf_driver/zf_driver_hrtim.c ****         hrtim_obj_list[hrtim_index].hrtimer_obj->sMasterRegs.MPER = period_temp - 1;
 776              		.loc 1 218 81
 777 0206 BDF82230 		ldrh	r3, [sp, #34]
 778 020a 581E     		subs	r0, r3, #1
 779              		.loc 1 218 36
 780 020c 9DF81720 		ldrb	r2, [sp, #23]	@ zero_extendqisi2
 781 0210 3649     		ldr	r1, .L29
 782 0212 1346     		mov	r3, r2
 783 0214 DB00     		lsls	r3, r3, #3
 784 0216 9B1A     		subs	r3, r3, r2
 785 0218 DB00     		lsls	r3, r3, #3
 786 021a 0B44     		add	r3, r3, r1
 787 021c 1B68     		ldr	r3, [r3]
 788              		.loc 1 218 81
 789 021e 0246     		mov	r2, r0
 790              		.loc 1 218 67
 791 0220 5A61     		str	r2, [r3, #20]
 792              	.LBB7:
 219:libraries/zf_driver/zf_driver_hrtim.c ****         for(uint8 i = 0; i < 6; i ++)
 793              		.loc 1 219 19
 794 0222 0023     		movs	r3, #0
 795 0224 8DF82030 		strb	r3, [sp, #32]
 796              		.loc 1 219 9
 797 0228 17E0     		b	.L24
 798              	.L25:
 220:libraries/zf_driver/zf_driver_hrtim.c ****         {
 221:libraries/zf_driver/zf_driver_hrtim.c ****             hrtim_obj_list[hrtim_index].hrtimer_obj->sTimerxRegs[i].PERxR = period_temp - 1;
 799              		.loc 1 221 89 discriminator 3
 800 022a BDF82230 		ldrh	r3, [sp, #34]
 801 022e 581E     		subs	r0, r3, #1
 802              		.loc 1 221 40 discriminator 3
 803 0230 9DF81720 		ldrb	r2, [sp, #23]	@ zero_extendqisi2
 804 0234 2D49     		ldr	r1, .L29
 805 0236 1346     		mov	r3, r2
 806 0238 DB00     		lsls	r3, r3, #3
 807 023a 9B1A     		subs	r3, r3, r2
 808 023c DB00     		lsls	r3, r3, #3
 809 023e 0B44     		add	r3, r3, r1
 810 0240 1A68     		ldr	r2, [r3]
 811              		.loc 1 221 68 discriminator 3
 812 0242 9DF82030 		ldrb	r3, [sp, #32]	@ zero_extendqisi2
 813              		.loc 1 221 89 discriminator 3
 814 0246 0146     		mov	r1, r0
 815              		.loc 1 221 75 discriminator 3
 816 0248 DB01     		lsls	r3, r3, #7
 817 024a 1344     		add	r3, r3, r2
 818 024c 9433     		adds	r3, r3, #148
 819 024e 1960     		str	r1, [r3]
 219:libraries/zf_driver/zf_driver_hrtim.c ****         for(uint8 i = 0; i < 6; i ++)
 820              		.loc 1 219 35 discriminator 3
 821 0250 9DF82030 		ldrb	r3, [sp, #32]	@ zero_extendqisi2
 822 0254 0133     		adds	r3, r3, #1
 823 0256 8DF82030 		strb	r3, [sp, #32]
 824              	.L24:
 219:libraries/zf_driver/zf_driver_hrtim.c ****         for(uint8 i = 0; i < 6; i ++)
 825              		.loc 1 219 9 discriminator 1
 826 025a 9DF82030 		ldrb	r3, [sp, #32]	@ zero_extendqisi2
 827 025e 052B     		cmp	r3, #5
 828 0260 E3D9     		bls	.L25
 829              	.LBE7:
 222:libraries/zf_driver/zf_driver_hrtim.c ****         }
 223:libraries/zf_driver/zf_driver_hrtim.c ****         hrtim_obj_list[hrtim_index].period = period_temp;
 830              		.loc 1 223 36
 831 0262 9DF81720 		ldrb	r2, [sp, #23]	@ zero_extendqisi2
 832              		.loc 1 223 44
 833 0266 BDF82210 		ldrh	r1, [sp, #34]
 834 026a 2048     		ldr	r0, .L29
 835 026c 1346     		mov	r3, r2
 836 026e DB00     		lsls	r3, r3, #3
 837 0270 9B1A     		subs	r3, r3, r2
 838 0272 DB00     		lsls	r3, r3, #3
 839 0274 0344     		add	r3, r3, r0
 840 0276 2C33     		adds	r3, r3, #44
 841 0278 1960     		str	r1, [r3]
 224:libraries/zf_driver/zf_driver_hrtim.c **** 
 225:libraries/zf_driver/zf_driver_hrtim.c ****         register_temp = freq_div | 0x00000008;
 842              		.loc 1 225 34
 843 027a BDF82430 		ldrh	r3, [sp, #36]	@ movhi
 844 027e 43F00803 		orr	r3, r3, #8
 845 0282 9BB2     		uxth	r3, r3
 846              		.loc 1 225 23
 847 0284 0693     		str	r3, [sp, #24]
 848              	.LBB8:
 226:libraries/zf_driver/zf_driver_hrtim.c ****         for(uint8 i = 0; i < 6; i ++)
 849              		.loc 1 226 19
 850 0286 0023     		movs	r3, #0
 851 0288 8DF81F30 		strb	r3, [sp, #31]
 852              		.loc 1 226 9
 853 028c 14E0     		b	.L26
 854              	.L27:
 227:libraries/zf_driver/zf_driver_hrtim.c ****         {
 228:libraries/zf_driver/zf_driver_hrtim.c ****             hrtim_obj_list[hrtim_index].hrtimer_obj->sTimerxRegs[i].TIMxCR = register_temp;
 855              		.loc 1 228 40 discriminator 3
 856 028e 9DF81720 		ldrb	r2, [sp, #23]	@ zero_extendqisi2
 857 0292 1649     		ldr	r1, .L29
 858 0294 1346     		mov	r3, r2
 859 0296 DB00     		lsls	r3, r3, #3
 860 0298 9B1A     		subs	r3, r3, r2
 861 029a DB00     		lsls	r3, r3, #3
 862 029c 0B44     		add	r3, r3, r1
 863 029e 1A68     		ldr	r2, [r3]
 864              		.loc 1 228 68 discriminator 3
 865 02a0 9DF81F30 		ldrb	r3, [sp, #31]	@ zero_extendqisi2
 866              		.loc 1 228 76 discriminator 3
 867 02a4 0133     		adds	r3, r3, #1
 868 02a6 DB01     		lsls	r3, r3, #7
 869 02a8 1344     		add	r3, r3, r2
 870 02aa 069A     		ldr	r2, [sp, #24]
 871 02ac 1A60     		str	r2, [r3]
 226:libraries/zf_driver/zf_driver_hrtim.c ****         for(uint8 i = 0; i < 6; i ++)
 872              		.loc 1 226 35 discriminator 3
 873 02ae 9DF81F30 		ldrb	r3, [sp, #31]	@ zero_extendqisi2
 874 02b2 0133     		adds	r3, r3, #1
 875 02b4 8DF81F30 		strb	r3, [sp, #31]
 876              	.L26:
 226:libraries/zf_driver/zf_driver_hrtim.c ****         for(uint8 i = 0; i < 6; i ++)
 877              		.loc 1 226 9 discriminator 1
 878 02b8 9DF81F30 		ldrb	r3, [sp, #31]	@ zero_extendqisi2
 879 02bc 052B     		cmp	r3, #5
 880 02be E6D9     		bls	.L27
 881              	.LBE8:
 229:libraries/zf_driver/zf_driver_hrtim.c ****         }
 230:libraries/zf_driver/zf_driver_hrtim.c ****         hrtim_obj_list[hrtim_index].hrtimer_obj->sMasterRegs.MCR = register_temp | 0x007F0000;
 882              		.loc 1 230 36
 883 02c0 9DF81720 		ldrb	r2, [sp, #23]	@ zero_extendqisi2
 884 02c4 0949     		ldr	r1, .L29
 885 02c6 1346     		mov	r3, r2
 886 02c8 DB00     		lsls	r3, r3, #3
 887 02ca 9B1A     		subs	r3, r3, r2
 888 02cc DB00     		lsls	r3, r3, #3
 889 02ce 0B44     		add	r3, r3, r1
 890 02d0 1B68     		ldr	r3, [r3]
 891              		.loc 1 230 82
 892 02d2 069A     		ldr	r2, [sp, #24]
 893 02d4 42F4FE02 		orr	r2, r2, #8323072
 894              		.loc 1 230 66
 895 02d8 1A60     		str	r2, [r3]
 231:libraries/zf_driver/zf_driver_hrtim.c **** 
 232:libraries/zf_driver/zf_driver_hrtim.c ****         return_state = HRTIM_OPERATION_DONE;
 896              		.loc 1 232 22
 897 02da 0023     		movs	r3, #0
 898 02dc 8DF82730 		strb	r3, [sp, #39]
 899              	.L16:
 900              	.LBE4:
 233:libraries/zf_driver/zf_driver_hrtim.c ****     }while(0);
 234:libraries/zf_driver/zf_driver_hrtim.c **** 
 235:libraries/zf_driver/zf_driver_hrtim.c ****     return return_state;
 901              		.loc 1 235 12
 902 02e0 9DF82730 		ldrb	r3, [sp, #39]	@ zero_extendqisi2
 236:libraries/zf_driver/zf_driver_hrtim.c **** }
 903              		.loc 1 236 1
 904 02e4 1846     		mov	r0, r3
 905 02e6 0BB0     		add	sp, sp, #44
 906              		.cfi_def_cfa_offset 36
 907              		@ sp needed
 908 02e8 BDE8F08F 		pop	{r4, r5, r6, r7, r8, r9, r10, fp, pc}
 909              	.L30:
 910              		.align	2
 911              	.L29:
 912 02ec 00000000 		.word	hrtim_obj_list
 913 02f0 00000000 		.word	.LC0
 914              		.cfi_endproc
 915              	.LFE182:
 917              		.section	.text.zf_hrtim_complementary_deinit,"ax",%progbits
 918              		.align	1
 919              		.p2align 4,,15
 920              		.global	zf_hrtim_complementary_deinit
 921              		.syntax unified
 922              		.thumb
 923              		.thumb_func
 925              	zf_hrtim_complementary_deinit:
 926              	.LFB183:
 237:libraries/zf_driver/zf_driver_hrtim.c **** 
 238:libraries/zf_driver/zf_driver_hrtim.c **** //-------------------------------------------------------------------------------------------------
 239:libraries/zf_driver/zf_driver_hrtim.c **** // å‡½æ•°ç®€ä»‹     HRTIM æ³¨é”€äº’è¡¥åˆå§‹åŒ–
 240:libraries/zf_driver/zf_driver_hrtim.c **** // å‚æ•°è¯´æ˜     positive_pin        é€‰æ‹© HRTIM PWM å¼•è„š (è¯¦è§ zf_driver_hrtim.h å†… zf_hr
 241:libraries/zf_driver/zf_driver_hrtim.c **** // å‚æ•°è¯´æ˜     negative_pin        é€‰æ‹© HRTIM PWM å¼•è„š (è¯¦è§ zf_driver_hrtim.h å†… zf_hr
 242:libraries/zf_driver/zf_driver_hrtim.c **** // è¿”å›å‚æ•°     uint8               æ“ä½œçŠ¶æ€ ZF_NO_ERROR / ENCODER_OPERATION_DONE - å®Œæˆ 
 243:libraries/zf_driver/zf_driver_hrtim.c **** // ä½¿ç”¨ç¤ºä¾‹     zf_hrtim_complementary_deinit(positive_pin, negative_pin);
 244:libraries/zf_driver/zf_driver_hrtim.c **** // å¤‡æ³¨ä¿¡æ¯     å¿…é¡»å…ˆè°ƒç”¨ zf_hrtim_module_init å…ˆåˆå§‹åŒ–æ¨¡å—
 245:libraries/zf_driver/zf_driver_hrtim.c **** //-------------------------------------------------------------------------------------------------
 246:libraries/zf_driver/zf_driver_hrtim.c **** uint8 zf_hrtim_complementary_deinit (zf_hrtim_pwm_positive_channel_enum positive_pin, zf_hrtim_pwm_
 247:libraries/zf_driver/zf_driver_hrtim.c **** {
 927              		.loc 1 247 1
 928              		.cfi_startproc
 929              		@ args = 0, pretend = 0, frame = 16
 930              		@ frame_needed = 0, uses_anonymous_args = 0
 931 0000 10B5     		push	{r4, lr}
 932              		.cfi_def_cfa_offset 8
 933              		.cfi_offset 4, -8
 934              		.cfi_offset 14, -4
 935 0002 84B0     		sub	sp, sp, #16
 936              		.cfi_def_cfa_offset 24
 937 0004 0190     		str	r0, [sp, #4]
 938 0006 0091     		str	r1, [sp]
 248:libraries/zf_driver/zf_driver_hrtim.c ****     zf_hrtim_operation_state_enum return_state = HRTIM_ERROR_UNKNOW;
 939              		.loc 1 248 35
 940 0008 0123     		movs	r3, #1
 941 000a 8DF80F30 		strb	r3, [sp, #15]
 942              	.LBB9:
 249:libraries/zf_driver/zf_driver_hrtim.c **** 
 250:libraries/zf_driver/zf_driver_hrtim.c ****     do
 251:libraries/zf_driver/zf_driver_hrtim.c ****     {
 252:libraries/zf_driver/zf_driver_hrtim.c ****         zf_hrtim_index_enum             positive_hrtim_index    = (zf_hrtim_index_enum)((positive_p
 943              		.loc 1 252 103
 944 000e 019B     		ldr	r3, [sp, #4]
 945 0010 1B0C     		lsrs	r3, r3, #16
 946              		.loc 1 252 67
 947 0012 DBB2     		uxtb	r3, r3
 948              		.loc 1 252 41
 949 0014 03F00F03 		and	r3, r3, #15
 950 0018 8DF80E30 		strb	r3, [sp, #14]
 253:libraries/zf_driver/zf_driver_hrtim.c ****         zf_hrtim_pwm_channel_index_enum positive_channel_index  = (zf_hrtim_pwm_channel_index_enum)
 951              		.loc 1 253 115
 952 001c 019B     		ldr	r3, [sp, #4]
 953 001e 1B0D     		lsrs	r3, r3, #20
 954              		.loc 1 253 67
 955 0020 DBB2     		uxtb	r3, r3
 956              		.loc 1 253 41
 957 0022 03F00F03 		and	r3, r3, #15
 958 0026 8DF80D30 		strb	r3, [sp, #13]
 254:libraries/zf_driver/zf_driver_hrtim.c ****         zf_hrtim_index_enum             negative_hrtim_index    = (zf_hrtim_index_enum)((negative_p
 959              		.loc 1 254 103
 960 002a 009B     		ldr	r3, [sp]
 961 002c 1B0C     		lsrs	r3, r3, #16
 962              		.loc 1 254 67
 963 002e DBB2     		uxtb	r3, r3
 964              		.loc 1 254 41
 965 0030 03F00F03 		and	r3, r3, #15
 966 0034 8DF80C30 		strb	r3, [sp, #12]
 255:libraries/zf_driver/zf_driver_hrtim.c ****         zf_hrtim_pwm_channel_index_enum negative_channel_index  = (zf_hrtim_pwm_channel_index_enum)
 967              		.loc 1 255 115
 968 0038 009B     		ldr	r3, [sp]
 969 003a 1B0D     		lsrs	r3, r3, #20
 970              		.loc 1 255 67
 971 003c DBB2     		uxtb	r3, r3
 972              		.loc 1 255 41
 973 003e 03F00F03 		and	r3, r3, #15
 974 0042 8DF80B30 		strb	r3, [sp, #11]
 256:libraries/zf_driver/zf_driver_hrtim.c **** 
 257:libraries/zf_driver/zf_driver_hrtim.c ****         if(zf_hrtim_assert(positive_hrtim_index == negative_hrtim_index))
 975              		.loc 1 257 11
 976 0046 9DF80E20 		ldrb	r2, [sp, #14]	@ zero_extendqisi2
 977 004a 9DF80C30 		ldrb	r3, [sp, #12]	@ zero_extendqisi2
 978 004e 9A42     		cmp	r2, r3
 979 0050 0CD0     		beq	.L32
 980              		.loc 1 257 12 discriminator 1
 981 0052 0022     		movs	r2, #0
 982 0054 40F20111 		movw	r1, #257
 983 0058 1B48     		ldr	r0, .L41
 984 005a FFF7FEFF 		bl	zf_hrtim_assert_handler
 985 005e 0346     		mov	r3, r0
 986 0060 002B     		cmp	r3, #0
 987 0062 03D0     		beq	.L32
 258:libraries/zf_driver/zf_driver_hrtim.c ****         {
 259:libraries/zf_driver/zf_driver_hrtim.c ****             // æ­¤å¤„å¦‚æœæ–­è¨€æŠ¥é”™ é‚£ä¹ˆè¯æ˜æœ¬æ¨¡å—æ²¡æœ‰åˆå§‹åŒ–è¿‡ æ˜¯ä¸å…è®¸ç›´æ¥æ
 260:libraries/zf_driver/zf_driver_hrtim.c ****             // æœªåˆå§‹åŒ–æ¨¡å—å¾ˆå¯èƒ½æ²¡æœ‰å¼€å¯æ¨¡å—æ—¶é’Ÿæˆ–è€…æ²¡æœ‰ä½¿èƒ½æ¨¡å—
 261:libraries/zf_driver/zf_driver_hrtim.c ****             // å¯¹äºéƒ¨åˆ†å•ç‰‡æœºæ²¡æœ‰ä½¿èƒ½æ¨¡å—ç›´æ¥æ“ä½œä¼šå¯¼è‡´æ€»çº¿å¼‚å¸¸æˆ–è€…ç¡¬ä»¶
 262:libraries/zf_driver/zf_driver_hrtim.c ****             return_state = HRTIM_ERROR_MOUDLE_MISMATCH;
 988              		.loc 1 262 26
 989 0064 2523     		movs	r3, #37
 990 0066 8DF80F30 		strb	r3, [sp, #15]
 263:libraries/zf_driver/zf_driver_hrtim.c ****             break;
 991              		.loc 1 263 13
 992 006a CEE1     		b	.L33
 993              	.L32:
 264:libraries/zf_driver/zf_driver_hrtim.c ****         }
 265:libraries/zf_driver/zf_driver_hrtim.c ****         if(zf_hrtim_assert((positive_channel_index + 6) == negative_channel_index))
 994              		.loc 1 265 12
 995 006c 9DF80D30 		ldrb	r3, [sp, #13]	@ zero_extendqisi2
 996 0070 9A1D     		adds	r2, r3, #6
 997 0072 9DF80B30 		ldrb	r3, [sp, #11]	@ zero_extendqisi2
 998              		.loc 1 265 11
 999 0076 9A42     		cmp	r2, r3
 1000 0078 0CD0     		beq	.L34
 1001              		.loc 1 265 12 discriminator 1
 1002 007a 0022     		movs	r2, #0
 1003 007c 40F20911 		movw	r1, #265
 1004 0080 1148     		ldr	r0, .L41
 1005 0082 FFF7FEFF 		bl	zf_hrtim_assert_handler
 1006 0086 0346     		mov	r3, r0
 1007 0088 002B     		cmp	r3, #0
 1008 008a 03D0     		beq	.L34
 266:libraries/zf_driver/zf_driver_hrtim.c ****         {
 267:libraries/zf_driver/zf_driver_hrtim.c ****             // æ­¤å¤„å¦‚æœæ–­è¨€æŠ¥é”™ é‚£ä¹ˆè¯æ˜æœ¬æ¨¡å—æ²¡æœ‰åˆå§‹åŒ–è¿‡ æ˜¯ä¸å…è®¸ç›´æ¥æ
 268:libraries/zf_driver/zf_driver_hrtim.c ****             // æœªåˆå§‹åŒ–æ¨¡å—å¾ˆå¯èƒ½æ²¡æœ‰å¼€å¯æ¨¡å—æ—¶é’Ÿæˆ–è€…æ²¡æœ‰ä½¿èƒ½æ¨¡å—
 269:libraries/zf_driver/zf_driver_hrtim.c ****             // å¯¹äºéƒ¨åˆ†å•ç‰‡æœºæ²¡æœ‰ä½¿èƒ½æ¨¡å—ç›´æ¥æ“ä½œä¼šå¯¼è‡´æ€»çº¿å¼‚å¸¸æˆ–è€…ç¡¬ä»¶
 270:libraries/zf_driver/zf_driver_hrtim.c ****             return_state = HRTIM_ERROR_COMPLEMENTARY_MISMATCH;
 1009              		.loc 1 270 26
 1010 008c 2623     		movs	r3, #38
 1011 008e 8DF80F30 		strb	r3, [sp, #15]
 271:libraries/zf_driver/zf_driver_hrtim.c ****             break;
 1012              		.loc 1 271 13
 1013 0092 BAE1     		b	.L33
 1014              	.L34:
 272:libraries/zf_driver/zf_driver_hrtim.c ****         }
 273:libraries/zf_driver/zf_driver_hrtim.c **** 
 274:libraries/zf_driver/zf_driver_hrtim.c ****         if(zf_hrtim_assert(hrtim_obj_list[positive_hrtim_index].freq))
 1015              		.loc 1 274 12
 1016 0094 9DF80E20 		ldrb	r2, [sp, #14]	@ zero_extendqisi2
 1017 0098 0C49     		ldr	r1, .L41+4
 1018 009a 1346     		mov	r3, r2
 1019 009c DB00     		lsls	r3, r3, #3
 1020 009e 9B1A     		subs	r3, r3, r2
 1021 00a0 DB00     		lsls	r3, r3, #3
 1022 00a2 0B44     		add	r3, r3, r1
 1023 00a4 2833     		adds	r3, r3, #40
 1024 00a6 1B68     		ldr	r3, [r3]
 1025              		.loc 1 274 11
 1026 00a8 002B     		cmp	r3, #0
 1027 00aa 11D1     		bne	.L35
 1028              		.loc 1 274 12 discriminator 1
 1029 00ac 0022     		movs	r2, #0
 1030 00ae 4FF48971 		mov	r1, #274
 1031 00b2 0548     		ldr	r0, .L41
 1032 00b4 FFF7FEFF 		bl	zf_hrtim_assert_handler
 1033 00b8 0346     		mov	r3, r0
 1034 00ba 002B     		cmp	r3, #0
 1035 00bc 08D0     		beq	.L35
 275:libraries/zf_driver/zf_driver_hrtim.c ****         {
 276:libraries/zf_driver/zf_driver_hrtim.c ****             // æ­¤å¤„å¦‚æœæ–­è¨€æŠ¥é”™ é‚£ä¹ˆè¯æ˜æœ¬æ¨¡å—æ²¡æœ‰åˆå§‹åŒ–è¿‡ æ˜¯ä¸å…è®¸ç›´æ¥æ
 277:libraries/zf_driver/zf_driver_hrtim.c ****             // æœªåˆå§‹åŒ–æ¨¡å—å¾ˆå¯èƒ½æ²¡æœ‰å¼€å¯æ¨¡å—æ—¶é’Ÿæˆ–è€…æ²¡æœ‰ä½¿èƒ½æ¨¡å—
 278:libraries/zf_driver/zf_driver_hrtim.c ****             // å¯¹äºéƒ¨åˆ†å•ç‰‡æœºæ²¡æœ‰ä½¿èƒ½æ¨¡å—ç›´æ¥æ“ä½œä¼šå¯¼è‡´æ€»çº¿å¼‚å¸¸æˆ–è€…ç¡¬ä»¶
 279:libraries/zf_driver/zf_driver_hrtim.c ****             return_state = HRTIM_ERROR_MODULE_NOT_INIT;
 1036              		.loc 1 279 26
 1037 00be 2123     		movs	r3, #33
 1038 00c0 8DF80F30 		strb	r3, [sp, #15]
 280:libraries/zf_driver/zf_driver_hrtim.c ****             break;
 1039              		.loc 1 280 13
 1040 00c4 A1E1     		b	.L33
 1041              	.L42:
 1042 00c6 00BF     		.align	2
 1043              	.L41:
 1044 00c8 00000000 		.word	.LC0
 1045 00cc 00000000 		.word	hrtim_obj_list
 1046              	.L35:
 281:libraries/zf_driver/zf_driver_hrtim.c ****         }
 282:libraries/zf_driver/zf_driver_hrtim.c ****         if(zf_hrtim_assert(
 1047              		.loc 1 282 12
 1048 00d0 9DF80E20 		ldrb	r2, [sp, #14]	@ zero_extendqisi2
 1049 00d4 CF49     		ldr	r1, .L43
 1050 00d6 1346     		mov	r3, r2
 1051 00d8 DB00     		lsls	r3, r3, #3
 1052 00da 9B1A     		subs	r3, r3, r2
 1053 00dc DB00     		lsls	r3, r3, #3
 1054 00de 0B44     		add	r3, r3, r1
 1055 00e0 3033     		adds	r3, r3, #48
 1056 00e2 1B88     		ldrh	r3, [r3]	@ movhi
 1057 00e4 C3F30B03 		ubfx	r3, r3, #0, #12
 1058 00e8 9BB2     		uxth	r3, r3
 1059 00ea 1A46     		mov	r2, r3
 1060 00ec 9DF80D30 		ldrb	r3, [sp, #13]	@ zero_extendqisi2
 1061 00f0 42FA03F3 		asr	r3, r2, r3
 1062 00f4 03F00103 		and	r3, r3, #1
 1063              		.loc 1 282 11
 1064 00f8 002B     		cmp	r3, #0
 1065 00fa 15D0     		beq	.L36
 1066              		.loc 1 282 12 discriminator 2
 1067 00fc 9DF80C20 		ldrb	r2, [sp, #12]	@ zero_extendqisi2
 1068 0100 C449     		ldr	r1, .L43
 1069 0102 1346     		mov	r3, r2
 1070 0104 DB00     		lsls	r3, r3, #3
 1071 0106 9B1A     		subs	r3, r3, r2
 1072 0108 DB00     		lsls	r3, r3, #3
 1073 010a 0B44     		add	r3, r3, r1
 1074 010c 3033     		adds	r3, r3, #48
 1075 010e 1B88     		ldrh	r3, [r3]	@ movhi
 1076 0110 C3F30B03 		ubfx	r3, r3, #0, #12
 1077 0114 9BB2     		uxth	r3, r3
 1078 0116 1A46     		mov	r2, r3
 1079 0118 9DF80B30 		ldrb	r3, [sp, #11]	@ zero_extendqisi2
 1080 011c 42FA03F3 		asr	r3, r2, r3
 1081 0120 03F00103 		and	r3, r3, #1
 1082 0124 002B     		cmp	r3, #0
 1083 0126 0BD1     		bne	.L37
 1084              	.L36:
 1085              		.loc 1 282 12 is_stmt 0 discriminator 3
 1086 0128 0022     		movs	r2, #0
 1087 012a 4FF48D71 		mov	r1, #282
 1088 012e BA48     		ldr	r0, .L43+4
 1089 0130 FFF7FEFF 		bl	zf_hrtim_assert_handler
 1090 0134 0346     		mov	r3, r0
 1091 0136 002B     		cmp	r3, #0
 1092 0138 02D0     		beq	.L37
 283:libraries/zf_driver/zf_driver_hrtim.c ****                 hrtim_obj_list[positive_hrtim_index].channel_state & (0x0001 << positive_channel_in
 284:libraries/zf_driver/zf_driver_hrtim.c ****             &&  hrtim_obj_list[negative_hrtim_index].channel_state & (0x0001 << negative_channel_in
 285:libraries/zf_driver/zf_driver_hrtim.c ****         {
 286:libraries/zf_driver/zf_driver_hrtim.c ****             // æ­¤å¤„å¦‚æœæ–­è¨€æŠ¥é”™ é‚£ä¹ˆè¯æ˜å¼•è„šæ‰€åœ¨é€šé“å·²ç»è¢«åˆå§‹åŒ–è¿‡ ä¸èƒ½é
 287:libraries/zf_driver/zf_driver_hrtim.c ****             return_state = HRTIM_ERROR_COMPLEMENTARY_NOT_INIT;
 1093              		.loc 1 287 26 is_stmt 1
 1094 013a 2423     		movs	r3, #36
 1095 013c 8DF80F30 		strb	r3, [sp, #15]
 1096              	.L37:
 288:libraries/zf_driver/zf_driver_hrtim.c ****         }
 289:libraries/zf_driver/zf_driver_hrtim.c ****         if(zf_hrtim_assert(
 1097              		.loc 1 289 12
 1098 0140 9DF80E20 		ldrb	r2, [sp, #14]	@ zero_extendqisi2
 1099 0144 9DF80D10 		ldrb	r1, [sp, #13]	@ zero_extendqisi2
 1100 0148 B248     		ldr	r0, .L43
 1101 014a 1346     		mov	r3, r2
 1102 014c DB00     		lsls	r3, r3, #3
 1103 014e 9B1A     		subs	r3, r3, r2
 1104 0150 9B00     		lsls	r3, r3, #2
 1105 0152 0B44     		add	r3, r3, r1
 1106 0154 5B00     		lsls	r3, r3, #1
 1107 0156 0344     		add	r3, r3, r0
 1108 0158 9B88     		ldrh	r3, [r3, #4]
 1109 015a 1A46     		mov	r2, r3
 1110 015c 019B     		ldr	r3, [sp, #4]
 1111 015e 9BB2     		uxth	r3, r3
 1112 0160 C3F30B03 		ubfx	r3, r3, #0, #12
 1113              		.loc 1 289 11
 1114 0164 9A42     		cmp	r2, r3
 1115 0166 0BD0     		beq	.L38
 1116              		.loc 1 289 12 discriminator 1
 1117 0168 0022     		movs	r2, #0
 1118 016a 40F22111 		movw	r1, #289
 1119 016e AA48     		ldr	r0, .L43+4
 1120 0170 FFF7FEFF 		bl	zf_hrtim_assert_handler
 1121 0174 0346     		mov	r3, r0
 1122 0176 002B     		cmp	r3, #0
 1123 0178 02D0     		beq	.L38
 290:libraries/zf_driver/zf_driver_hrtim.c ****             hrtim_obj_list[positive_hrtim_index].pin_list[positive_channel_index]
 291:libraries/zf_driver/zf_driver_hrtim.c ****             == (zf_gpio_pin_enum)(positive_pin & HRTIM_PWM_PIN_INDEX_MASK)))
 292:libraries/zf_driver/zf_driver_hrtim.c ****         {
 293:libraries/zf_driver/zf_driver_hrtim.c ****             // æ­¤å¤„å¦‚æœæ–­è¨€æŠ¥é”™ é‚£ä¹ˆè¯æ˜å¼•è„šæ‰€åœ¨é€šé“å·²ç»è¢«åˆå§‹åŒ–è¿‡ ä¸èƒ½é
 294:libraries/zf_driver/zf_driver_hrtim.c ****             return_state = HRTIM_ERROR_PIN_MISMATCH;
 1124              		.loc 1 294 26
 1125 017a 2723     		movs	r3, #39
 1126 017c 8DF80F30 		strb	r3, [sp, #15]
 1127              	.L38:
 295:libraries/zf_driver/zf_driver_hrtim.c ****         }
 296:libraries/zf_driver/zf_driver_hrtim.c ****         if(zf_hrtim_assert(
 1128              		.loc 1 296 12
 1129 0180 9DF80E20 		ldrb	r2, [sp, #14]	@ zero_extendqisi2
 1130 0184 9DF80B10 		ldrb	r1, [sp, #11]	@ zero_extendqisi2
 1131 0188 A248     		ldr	r0, .L43
 1132 018a 1346     		mov	r3, r2
 1133 018c DB00     		lsls	r3, r3, #3
 1134 018e 9B1A     		subs	r3, r3, r2
 1135 0190 9B00     		lsls	r3, r3, #2
 1136 0192 0B44     		add	r3, r3, r1
 1137 0194 5B00     		lsls	r3, r3, #1
 1138 0196 0344     		add	r3, r3, r0
 1139 0198 9B88     		ldrh	r3, [r3, #4]
 1140 019a 1A46     		mov	r2, r3
 1141 019c 009B     		ldr	r3, [sp]
 1142 019e 9BB2     		uxth	r3, r3
 1143 01a0 C3F30B03 		ubfx	r3, r3, #0, #12
 1144              		.loc 1 296 11
 1145 01a4 9A42     		cmp	r2, r3
 1146 01a6 0BD0     		beq	.L39
 1147              		.loc 1 296 12 discriminator 1
 1148 01a8 0022     		movs	r2, #0
 1149 01aa 4FF49471 		mov	r1, #296
 1150 01ae 9A48     		ldr	r0, .L43+4
 1151 01b0 FFF7FEFF 		bl	zf_hrtim_assert_handler
 1152 01b4 0346     		mov	r3, r0
 1153 01b6 002B     		cmp	r3, #0
 1154 01b8 02D0     		beq	.L39
 297:libraries/zf_driver/zf_driver_hrtim.c ****             hrtim_obj_list[positive_hrtim_index].pin_list[negative_channel_index]
 298:libraries/zf_driver/zf_driver_hrtim.c ****             == (zf_gpio_pin_enum)(negative_pin & HRTIM_PWM_PIN_INDEX_MASK)))
 299:libraries/zf_driver/zf_driver_hrtim.c ****         {
 300:libraries/zf_driver/zf_driver_hrtim.c ****             // æ­¤å¤„å¦‚æœæ–­è¨€æŠ¥é”™ é‚£ä¹ˆè¯æ˜å¼•è„šæ‰€åœ¨é€šé“å·²ç»è¢«åˆå§‹åŒ–è¿‡ ä¸èƒ½é
 301:libraries/zf_driver/zf_driver_hrtim.c ****             return_state = HRTIM_ERROR_PIN_MISMATCH;
 1155              		.loc 1 301 26
 1156 01ba 2723     		movs	r3, #39
 1157 01bc 8DF80F30 		strb	r3, [sp, #15]
 1158              	.L39:
 302:libraries/zf_driver/zf_driver_hrtim.c ****         }
 303:libraries/zf_driver/zf_driver_hrtim.c **** 
 304:libraries/zf_driver/zf_driver_hrtim.c ****         hrtim_obj_list[positive_hrtim_index].hrtimer_obj->sCommonRegs.OENR &= ~(0x00000003 << ((pos
 1159              		.loc 1 304 45
 1160 01c0 9DF80E20 		ldrb	r2, [sp, #14]	@ zero_extendqisi2
 1161 01c4 9349     		ldr	r1, .L43
 1162 01c6 1346     		mov	r3, r2
 1163 01c8 DB00     		lsls	r3, r3, #3
 1164 01ca 9B1A     		subs	r3, r3, r2
 1165 01cc DB00     		lsls	r3, r3, #3
 1166 01ce 0B44     		add	r3, r3, r1
 1167 01d0 1B68     		ldr	r3, [r3]
 1168              		.loc 1 304 76
 1169 01d2 D3F89403 		ldr	r0, [r3, #916]
 1170              		.loc 1 304 120
 1171 01d6 9DF80D20 		ldrb	r2, [sp, #13]	@ zero_extendqisi2
 1172 01da 904B     		ldr	r3, .L43+8
 1173 01dc A3FB0213 		umull	r1, r3, r3, r2
 1174 01e0 9908     		lsrs	r1, r3, #2
 1175 01e2 0B46     		mov	r3, r1
 1176 01e4 5B00     		lsls	r3, r3, #1
 1177 01e6 0B44     		add	r3, r3, r1
 1178 01e8 5B00     		lsls	r3, r3, #1
 1179 01ea D31A     		subs	r3, r2, r3
 1180 01ec DBB2     		uxtb	r3, r3
 1181              		.loc 1 304 125
 1182 01ee 5B00     		lsls	r3, r3, #1
 1183              		.loc 1 304 92
 1184 01f0 0322     		movs	r2, #3
 1185 01f2 02FA03F3 		lsl	r3, r2, r3
 1186              		.loc 1 304 79
 1187 01f6 DB43     		mvns	r3, r3
 1188 01f8 1C46     		mov	r4, r3
 1189              		.loc 1 304 45
 1190 01fa 9DF80E20 		ldrb	r2, [sp, #14]	@ zero_extendqisi2
 1191 01fe 8549     		ldr	r1, .L43
 1192 0200 1346     		mov	r3, r2
 1193 0202 DB00     		lsls	r3, r3, #3
 1194 0204 9B1A     		subs	r3, r3, r2
 1195 0206 DB00     		lsls	r3, r3, #3
 1196 0208 0B44     		add	r3, r3, r1
 1197 020a 1B68     		ldr	r3, [r3]
 1198              		.loc 1 304 76
 1199 020c 00EA0402 		and	r2, r0, r4
 1200 0210 C3F89423 		str	r2, [r3, #916]
 305:libraries/zf_driver/zf_driver_hrtim.c ****         hrtim_obj_list[positive_hrtim_index].hrtimer_obj->sTimerxRegs[positive_channel_index % 6].S
 1201              		.loc 1 305 45
 1202 0214 9DF80E20 		ldrb	r2, [sp, #14]	@ zero_extendqisi2
 1203 0218 7E49     		ldr	r1, .L43
 1204 021a 1346     		mov	r3, r2
 1205 021c DB00     		lsls	r3, r3, #3
 1206 021e 9B1A     		subs	r3, r3, r2
 1207 0220 DB00     		lsls	r3, r3, #3
 1208 0222 0B44     		add	r3, r3, r1
 1209 0224 1868     		ldr	r0, [r3]
 1210              		.loc 1 305 94
 1211 0226 9DF80D20 		ldrb	r2, [sp, #13]	@ zero_extendqisi2
 1212 022a 7C4B     		ldr	r3, .L43+8
 1213 022c A3FB0213 		umull	r1, r3, r3, r2
 1214 0230 9908     		lsrs	r1, r3, #2
 1215 0232 0B46     		mov	r3, r1
 1216 0234 5B00     		lsls	r3, r3, #1
 1217 0236 0B44     		add	r3, r3, r1
 1218 0238 5B00     		lsls	r3, r3, #1
 1219 023a D31A     		subs	r3, r2, r3
 1220 023c DBB2     		uxtb	r3, r3
 1221              		.loc 1 305 106
 1222 023e DB01     		lsls	r3, r3, #7
 1223 0240 0344     		add	r3, r3, r0
 1224 0242 BC33     		adds	r3, r3, #188
 1225 0244 0022     		movs	r2, #0
 1226 0246 1A60     		str	r2, [r3]
 306:libraries/zf_driver/zf_driver_hrtim.c ****         hrtim_obj_list[positive_hrtim_index].hrtimer_obj->sTimerxRegs[positive_channel_index % 6].R
 1227              		.loc 1 306 45
 1228 0248 9DF80E20 		ldrb	r2, [sp, #14]	@ zero_extendqisi2
 1229 024c 7149     		ldr	r1, .L43
 1230 024e 1346     		mov	r3, r2
 1231 0250 DB00     		lsls	r3, r3, #3
 1232 0252 9B1A     		subs	r3, r3, r2
 1233 0254 DB00     		lsls	r3, r3, #3
 1234 0256 0B44     		add	r3, r3, r1
 1235 0258 1868     		ldr	r0, [r3]
 1236              		.loc 1 306 94
 1237 025a 9DF80D20 		ldrb	r2, [sp, #13]	@ zero_extendqisi2
 1238 025e 6F4B     		ldr	r3, .L43+8
 1239 0260 A3FB0213 		umull	r1, r3, r3, r2
 1240 0264 9908     		lsrs	r1, r3, #2
 1241 0266 0B46     		mov	r3, r1
 1242 0268 5B00     		lsls	r3, r3, #1
 1243 026a 0B44     		add	r3, r3, r1
 1244 026c 5B00     		lsls	r3, r3, #1
 1245 026e D31A     		subs	r3, r2, r3
 1246 0270 DBB2     		uxtb	r3, r3
 1247              		.loc 1 306 106
 1248 0272 DB01     		lsls	r3, r3, #7
 1249 0274 0344     		add	r3, r3, r0
 1250 0276 C033     		adds	r3, r3, #192
 1251 0278 0022     		movs	r2, #0
 1252 027a 1A60     		str	r2, [r3]
 307:libraries/zf_driver/zf_driver_hrtim.c ****         hrtim_obj_list[positive_hrtim_index].hrtimer_obj->sTimerxRegs[negative_channel_index % 6].S
 1253              		.loc 1 307 45
 1254 027c 9DF80E20 		ldrb	r2, [sp, #14]	@ zero_extendqisi2
 1255 0280 6449     		ldr	r1, .L43
 1256 0282 1346     		mov	r3, r2
 1257 0284 DB00     		lsls	r3, r3, #3
 1258 0286 9B1A     		subs	r3, r3, r2
 1259 0288 DB00     		lsls	r3, r3, #3
 1260 028a 0B44     		add	r3, r3, r1
 1261 028c 1868     		ldr	r0, [r3]
 1262              		.loc 1 307 94
 1263 028e 9DF80B20 		ldrb	r2, [sp, #11]	@ zero_extendqisi2
 1264 0292 624B     		ldr	r3, .L43+8
 1265 0294 A3FB0213 		umull	r1, r3, r3, r2
 1266 0298 9908     		lsrs	r1, r3, #2
 1267 029a 0B46     		mov	r3, r1
 1268 029c 5B00     		lsls	r3, r3, #1
 1269 029e 0B44     		add	r3, r3, r1
 1270 02a0 5B00     		lsls	r3, r3, #1
 1271 02a2 D31A     		subs	r3, r2, r3
 1272 02a4 DBB2     		uxtb	r3, r3
 1273              		.loc 1 307 106
 1274 02a6 DB01     		lsls	r3, r3, #7
 1275 02a8 0344     		add	r3, r3, r0
 1276 02aa C433     		adds	r3, r3, #196
 1277 02ac 0022     		movs	r2, #0
 1278 02ae 1A60     		str	r2, [r3]
 308:libraries/zf_driver/zf_driver_hrtim.c ****         hrtim_obj_list[positive_hrtim_index].hrtimer_obj->sTimerxRegs[negative_channel_index % 6].R
 1279              		.loc 1 308 45
 1280 02b0 9DF80E20 		ldrb	r2, [sp, #14]	@ zero_extendqisi2
 1281 02b4 5749     		ldr	r1, .L43
 1282 02b6 1346     		mov	r3, r2
 1283 02b8 DB00     		lsls	r3, r3, #3
 1284 02ba 9B1A     		subs	r3, r3, r2
 1285 02bc DB00     		lsls	r3, r3, #3
 1286 02be 0B44     		add	r3, r3, r1
 1287 02c0 1868     		ldr	r0, [r3]
 1288              		.loc 1 308 94
 1289 02c2 9DF80B20 		ldrb	r2, [sp, #11]	@ zero_extendqisi2
 1290 02c6 554B     		ldr	r3, .L43+8
 1291 02c8 A3FB0213 		umull	r1, r3, r3, r2
 1292 02cc 9908     		lsrs	r1, r3, #2
 1293 02ce 0B46     		mov	r3, r1
 1294 02d0 5B00     		lsls	r3, r3, #1
 1295 02d2 0B44     		add	r3, r3, r1
 1296 02d4 5B00     		lsls	r3, r3, #1
 1297 02d6 D31A     		subs	r3, r2, r3
 1298 02d8 DBB2     		uxtb	r3, r3
 1299              		.loc 1 308 106
 1300 02da DB01     		lsls	r3, r3, #7
 1301 02dc 0344     		add	r3, r3, r0
 1302 02de C833     		adds	r3, r3, #200
 1303 02e0 0022     		movs	r2, #0
 1304 02e2 1A60     		str	r2, [r3]
 309:libraries/zf_driver/zf_driver_hrtim.c ****         zf_gpio_deinit(hrtim_obj_list[positive_hrtim_index].pin_list[positive_channel_index]);
 1305              		.loc 1 309 9
 1306 02e4 9DF80E20 		ldrb	r2, [sp, #14]	@ zero_extendqisi2
 1307 02e8 9DF80D10 		ldrb	r1, [sp, #13]	@ zero_extendqisi2
 1308 02ec 4948     		ldr	r0, .L43
 1309 02ee 1346     		mov	r3, r2
 1310 02f0 DB00     		lsls	r3, r3, #3
 1311 02f2 9B1A     		subs	r3, r3, r2
 1312 02f4 9B00     		lsls	r3, r3, #2
 1313 02f6 0B44     		add	r3, r3, r1
 1314 02f8 5B00     		lsls	r3, r3, #1
 1315 02fa 0344     		add	r3, r3, r0
 1316 02fc 9B88     		ldrh	r3, [r3, #4]
 1317 02fe 1846     		mov	r0, r3
 1318 0300 FFF7FEFF 		bl	zf_gpio_deinit
 310:libraries/zf_driver/zf_driver_hrtim.c ****         zf_gpio_deinit(hrtim_obj_list[positive_hrtim_index].pin_list[negative_channel_index]);
 1319              		.loc 1 310 9
 1320 0304 9DF80E20 		ldrb	r2, [sp, #14]	@ zero_extendqisi2
 1321 0308 9DF80B10 		ldrb	r1, [sp, #11]	@ zero_extendqisi2
 1322 030c 4148     		ldr	r0, .L43
 1323 030e 1346     		mov	r3, r2
 1324 0310 DB00     		lsls	r3, r3, #3
 1325 0312 9B1A     		subs	r3, r3, r2
 1326 0314 9B00     		lsls	r3, r3, #2
 1327 0316 0B44     		add	r3, r3, r1
 1328 0318 5B00     		lsls	r3, r3, #1
 1329 031a 0344     		add	r3, r3, r0
 1330 031c 9B88     		ldrh	r3, [r3, #4]
 1331 031e 1846     		mov	r0, r3
 1332 0320 FFF7FEFF 		bl	zf_gpio_deinit
 311:libraries/zf_driver/zf_driver_hrtim.c ****         hrtim_obj_list[positive_hrtim_index].pin_list[positive_channel_index] = PIN_NULL;
 1333              		.loc 1 311 54
 1334 0324 9DF80E20 		ldrb	r2, [sp, #14]	@ zero_extendqisi2
 1335 0328 9DF80D10 		ldrb	r1, [sp, #13]	@ zero_extendqisi2
 1336              		.loc 1 311 79
 1337 032c 3948     		ldr	r0, .L43
 1338 032e 1346     		mov	r3, r2
 1339 0330 DB00     		lsls	r3, r3, #3
 1340 0332 9B1A     		subs	r3, r3, r2
 1341 0334 9B00     		lsls	r3, r3, #2
 1342 0336 0B44     		add	r3, r3, r1
 1343 0338 5B00     		lsls	r3, r3, #1
 1344 033a 0344     		add	r3, r3, r0
 1345 033c 40F6FF72 		movw	r2, #4095
 1346 0340 9A80     		strh	r2, [r3, #4]	@ movhi
 312:libraries/zf_driver/zf_driver_hrtim.c ****         hrtim_obj_list[positive_hrtim_index].pin_list[negative_channel_index] = PIN_NULL;
 1347              		.loc 1 312 54
 1348 0342 9DF80E20 		ldrb	r2, [sp, #14]	@ zero_extendqisi2
 1349 0346 9DF80B10 		ldrb	r1, [sp, #11]	@ zero_extendqisi2
 1350              		.loc 1 312 79
 1351 034a 3248     		ldr	r0, .L43
 1352 034c 1346     		mov	r3, r2
 1353 034e DB00     		lsls	r3, r3, #3
 1354 0350 9B1A     		subs	r3, r3, r2
 1355 0352 9B00     		lsls	r3, r3, #2
 1356 0354 0B44     		add	r3, r3, r1
 1357 0356 5B00     		lsls	r3, r3, #1
 1358 0358 0344     		add	r3, r3, r0
 1359 035a 40F6FF72 		movw	r2, #4095
 1360 035e 9A80     		strh	r2, [r3, #4]	@ movhi
 313:libraries/zf_driver/zf_driver_hrtim.c ****         hrtim_obj_list[positive_hrtim_index].channel_state &= ~(0x0001 << positive_channel_index);
 1361              		.loc 1 313 60
 1362 0360 9DF80E20 		ldrb	r2, [sp, #14]	@ zero_extendqisi2
 1363 0364 2B49     		ldr	r1, .L43
 1364 0366 1346     		mov	r3, r2
 1365 0368 DB00     		lsls	r3, r3, #3
 1366 036a 9B1A     		subs	r3, r3, r2
 1367 036c DB00     		lsls	r3, r3, #3
 1368 036e 0B44     		add	r3, r3, r1
 1369 0370 3033     		adds	r3, r3, #48
 1370 0372 1B88     		ldrh	r3, [r3]	@ movhi
 1371 0374 C3F30B03 		ubfx	r3, r3, #0, #12
 1372 0378 9BB2     		uxth	r3, r3
 1373 037a 1AB2     		sxth	r2, r3
 1374              		.loc 1 313 72
 1375 037c 9DF80D30 		ldrb	r3, [sp, #13]	@ zero_extendqisi2
 1376 0380 0121     		movs	r1, #1
 1377 0382 01FA03F3 		lsl	r3, r1, r3
 1378              		.loc 1 313 60
 1379 0386 1BB2     		sxth	r3, r3
 1380 0388 DB43     		mvns	r3, r3
 1381 038a 1BB2     		sxth	r3, r3
 1382 038c 1340     		ands	r3, r3, r2
 1383 038e 1BB2     		sxth	r3, r3
 1384 0390 9DF80E20 		ldrb	r2, [sp, #14]	@ zero_extendqisi2
 1385 0394 C3F30B03 		ubfx	r3, r3, #0, #12
 1386 0398 99B2     		uxth	r1, r3
 1387 039a 1E48     		ldr	r0, .L43
 1388 039c 1346     		mov	r3, r2
 1389 039e DB00     		lsls	r3, r3, #3
 1390 03a0 9B1A     		subs	r3, r3, r2
 1391 03a2 DB00     		lsls	r3, r3, #3
 1392 03a4 0344     		add	r3, r3, r0
 1393 03a6 03F13002 		add	r2, r3, #48
 1394 03aa 1388     		ldrh	r3, [r2]	@ movhi
 1395 03ac 61F30B03 		bfi	r3, r1, #0, #12
 1396 03b0 1380     		strh	r3, [r2]	@ movhi
 314:libraries/zf_driver/zf_driver_hrtim.c ****         hrtim_obj_list[positive_hrtim_index].channel_state &= ~(0x0001 << negative_channel_index);
 1397              		.loc 1 314 60
 1398 03b2 9DF80E20 		ldrb	r2, [sp, #14]	@ zero_extendqisi2
 1399 03b6 1749     		ldr	r1, .L43
 1400 03b8 1346     		mov	r3, r2
 1401 03ba DB00     		lsls	r3, r3, #3
 1402 03bc 9B1A     		subs	r3, r3, r2
 1403 03be DB00     		lsls	r3, r3, #3
 1404 03c0 0B44     		add	r3, r3, r1
 1405 03c2 3033     		adds	r3, r3, #48
 1406 03c4 1B88     		ldrh	r3, [r3]	@ movhi
 1407 03c6 C3F30B03 		ubfx	r3, r3, #0, #12
 1408 03ca 9BB2     		uxth	r3, r3
 1409 03cc 1AB2     		sxth	r2, r3
 1410              		.loc 1 314 72
 1411 03ce 9DF80B30 		ldrb	r3, [sp, #11]	@ zero_extendqisi2
 1412 03d2 0121     		movs	r1, #1
 1413 03d4 01FA03F3 		lsl	r3, r1, r3
 1414              		.loc 1 314 60
 1415 03d8 1BB2     		sxth	r3, r3
 1416 03da DB43     		mvns	r3, r3
 1417 03dc 1BB2     		sxth	r3, r3
 1418 03de 1340     		ands	r3, r3, r2
 1419 03e0 1BB2     		sxth	r3, r3
 1420 03e2 9DF80E20 		ldrb	r2, [sp, #14]	@ zero_extendqisi2
 1421 03e6 C3F30B03 		ubfx	r3, r3, #0, #12
 1422 03ea 99B2     		uxth	r1, r3
 1423 03ec 0948     		ldr	r0, .L43
 1424 03ee 1346     		mov	r3, r2
 1425 03f0 DB00     		lsls	r3, r3, #3
 1426 03f2 9B1A     		subs	r3, r3, r2
 1427 03f4 DB00     		lsls	r3, r3, #3
 1428 03f6 0344     		add	r3, r3, r0
 1429 03f8 03F13002 		add	r2, r3, #48
 1430 03fc 1388     		ldrh	r3, [r2]	@ movhi
 1431 03fe 61F30B03 		bfi	r3, r1, #0, #12
 1432 0402 1380     		strh	r3, [r2]	@ movhi
 315:libraries/zf_driver/zf_driver_hrtim.c **** 
 316:libraries/zf_driver/zf_driver_hrtim.c ****         return_state = HRTIM_OPERATION_DONE;
 1433              		.loc 1 316 22
 1434 0404 0023     		movs	r3, #0
 1435 0406 8DF80F30 		strb	r3, [sp, #15]
 1436              	.L33:
 1437              	.LBE9:
 317:libraries/zf_driver/zf_driver_hrtim.c ****     }while(0);
 318:libraries/zf_driver/zf_driver_hrtim.c **** 
 319:libraries/zf_driver/zf_driver_hrtim.c ****     return return_state;
 1438              		.loc 1 319 12
 1439 040a 9DF80F30 		ldrb	r3, [sp, #15]	@ zero_extendqisi2
 320:libraries/zf_driver/zf_driver_hrtim.c **** }
 1440              		.loc 1 320 1
 1441 040e 1846     		mov	r0, r3
 1442 0410 04B0     		add	sp, sp, #16
 1443              		.cfi_def_cfa_offset 8
 1444              		@ sp needed
 1445 0412 10BD     		pop	{r4, pc}
 1446              	.L44:
 1447              		.align	2
 1448              	.L43:
 1449 0414 00000000 		.word	hrtim_obj_list
 1450 0418 00000000 		.word	.LC0
 1451 041c ABAAAAAA 		.word	-1431655765
 1452              		.cfi_endproc
 1453              	.LFE183:
 1455              		.section	.text.zf_hrtim_channel_deinit,"ax",%progbits
 1456              		.align	1
 1457              		.p2align 4,,15
 1458              		.global	zf_hrtim_channel_deinit
 1459              		.syntax unified
 1460              		.thumb
 1461              		.thumb_func
 1463              	zf_hrtim_channel_deinit:
 1464              	.LFB184:
 321:libraries/zf_driver/zf_driver_hrtim.c **** 
 322:libraries/zf_driver/zf_driver_hrtim.c **** //-------------------------------------------------------------------------------------------------
 323:libraries/zf_driver/zf_driver_hrtim.c **** // å‡½æ•°ç®€ä»‹     HRTIM é€šé“é”€åˆå§‹åŒ–
 324:libraries/zf_driver/zf_driver_hrtim.c **** // å‚æ•°è¯´æ˜     pin                 é€‰æ‹© HRTIM PWM å¼•è„š (è¯¦è§ zf_driver_hrtim.h å†… zf_hr
 325:libraries/zf_driver/zf_driver_hrtim.c **** // è¿”å›å‚æ•°     uint8               æ“ä½œçŠ¶æ€ ZF_NO_ERROR / ENCODER_OPERATION_DONE - å®Œæˆ 
 326:libraries/zf_driver/zf_driver_hrtim.c **** // ä½¿ç”¨ç¤ºä¾‹     zf_hrtim_channel_deinit(pin);
 327:libraries/zf_driver/zf_driver_hrtim.c **** // å¤‡æ³¨ä¿¡æ¯     
 328:libraries/zf_driver/zf_driver_hrtim.c **** //-------------------------------------------------------------------------------------------------
 329:libraries/zf_driver/zf_driver_hrtim.c **** uint8 zf_hrtim_channel_deinit (zf_hrtim_pwm_positive_channel_enum pin)
 330:libraries/zf_driver/zf_driver_hrtim.c **** {
 1465              		.loc 1 330 1
 1466              		.cfi_startproc
 1467              		@ args = 0, pretend = 0, frame = 16
 1468              		@ frame_needed = 0, uses_anonymous_args = 0
 1469 0000 10B5     		push	{r4, lr}
 1470              		.cfi_def_cfa_offset 8
 1471              		.cfi_offset 4, -8
 1472              		.cfi_offset 14, -4
 1473 0002 84B0     		sub	sp, sp, #16
 1474              		.cfi_def_cfa_offset 24
 1475 0004 0190     		str	r0, [sp, #4]
 331:libraries/zf_driver/zf_driver_hrtim.c ****     zf_hrtim_operation_state_enum return_state = HRTIM_ERROR_UNKNOW;
 1476              		.loc 1 331 35
 1477 0006 0123     		movs	r3, #1
 1478 0008 8DF80F30 		strb	r3, [sp, #15]
 1479              	.LBB10:
 332:libraries/zf_driver/zf_driver_hrtim.c **** 
 333:libraries/zf_driver/zf_driver_hrtim.c ****     do
 334:libraries/zf_driver/zf_driver_hrtim.c ****     {
 335:libraries/zf_driver/zf_driver_hrtim.c ****         zf_hrtim_index_enum             hrtim_index     = (zf_hrtim_index_enum)((pin >> HRTIM_PWM_I
 1480              		.loc 1 335 86
 1481 000c 019B     		ldr	r3, [sp, #4]
 1482 000e 1B0C     		lsrs	r3, r3, #16
 1483              		.loc 1 335 59
 1484 0010 DBB2     		uxtb	r3, r3
 1485              		.loc 1 335 41
 1486 0012 03F00F03 		and	r3, r3, #15
 1487 0016 8DF80E30 		strb	r3, [sp, #14]
 336:libraries/zf_driver/zf_driver_hrtim.c ****         zf_hrtim_pwm_channel_index_enum channel_index   = (zf_hrtim_pwm_channel_index_enum)((pin >>
 1488              		.loc 1 336 98
 1489 001a 019B     		ldr	r3, [sp, #4]
 1490 001c 1B0D     		lsrs	r3, r3, #20
 1491              		.loc 1 336 59
 1492 001e DBB2     		uxtb	r3, r3
 1493              		.loc 1 336 41
 1494 0020 03F00F03 		and	r3, r3, #15
 1495 0024 8DF80D30 		strb	r3, [sp, #13]
 337:libraries/zf_driver/zf_driver_hrtim.c **** 
 338:libraries/zf_driver/zf_driver_hrtim.c ****         if(zf_hrtim_assert(hrtim_obj_list[hrtim_index].freq))
 1496              		.loc 1 338 12
 1497 0028 9DF80E20 		ldrb	r2, [sp, #14]	@ zero_extendqisi2
 1498 002c 7049     		ldr	r1, .L50
 1499 002e 1346     		mov	r3, r2
 1500 0030 DB00     		lsls	r3, r3, #3
 1501 0032 9B1A     		subs	r3, r3, r2
 1502 0034 DB00     		lsls	r3, r3, #3
 1503 0036 0B44     		add	r3, r3, r1
 1504 0038 2833     		adds	r3, r3, #40
 1505 003a 1B68     		ldr	r3, [r3]
 1506              		.loc 1 338 11
 1507 003c 002B     		cmp	r3, #0
 1508 003e 0CD1     		bne	.L46
 1509              		.loc 1 338 12 discriminator 1
 1510 0040 0022     		movs	r2, #0
 1511 0042 4FF4A971 		mov	r1, #338
 1512 0046 6B48     		ldr	r0, .L50+4
 1513 0048 FFF7FEFF 		bl	zf_hrtim_assert_handler
 1514 004c 0346     		mov	r3, r0
 1515 004e 002B     		cmp	r3, #0
 1516 0050 03D0     		beq	.L46
 339:libraries/zf_driver/zf_driver_hrtim.c ****         {
 340:libraries/zf_driver/zf_driver_hrtim.c ****             // æ­¤å¤„å¦‚æœæ–­è¨€æŠ¥é”™ é‚£ä¹ˆè¯æ˜æœ¬æ¨¡å—æ²¡æœ‰åˆå§‹åŒ–è¿‡ æ˜¯ä¸å…è®¸ç›´æ¥æ
 341:libraries/zf_driver/zf_driver_hrtim.c ****             // æœªåˆå§‹åŒ–æ¨¡å—å¾ˆå¯èƒ½æ²¡æœ‰å¼€å¯æ¨¡å—æ—¶é’Ÿæˆ–è€…æ²¡æœ‰ä½¿èƒ½æ¨¡å—
 342:libraries/zf_driver/zf_driver_hrtim.c ****             // å¯¹äºéƒ¨åˆ†å•ç‰‡æœºæ²¡æœ‰ä½¿èƒ½æ¨¡å—ç›´æ¥æ“ä½œä¼šå¯¼è‡´æ€»çº¿å¼‚å¸¸æˆ–è€…ç¡¬ä»¶
 343:libraries/zf_driver/zf_driver_hrtim.c ****             return_state = HRTIM_ERROR_MODULE_NOT_INIT;
 1517              		.loc 1 343 26
 1518 0052 2123     		movs	r3, #33
 1519 0054 8DF80F30 		strb	r3, [sp, #15]
 344:libraries/zf_driver/zf_driver_hrtim.c ****             break;
 1520              		.loc 1 344 13
 1521 0058 C5E0     		b	.L47
 1522              	.L46:
 345:libraries/zf_driver/zf_driver_hrtim.c ****         }
 346:libraries/zf_driver/zf_driver_hrtim.c ****         if(zf_hrtim_assert(PIN_NULL != hrtim_obj_list[hrtim_index].pin_list[channel_index]))
 1523              		.loc 1 346 12
 1524 005a 9DF80E20 		ldrb	r2, [sp, #14]	@ zero_extendqisi2
 1525 005e 9DF80D10 		ldrb	r1, [sp, #13]	@ zero_extendqisi2
 1526 0062 6348     		ldr	r0, .L50
 1527 0064 1346     		mov	r3, r2
 1528 0066 DB00     		lsls	r3, r3, #3
 1529 0068 9B1A     		subs	r3, r3, r2
 1530 006a 9B00     		lsls	r3, r3, #2
 1531 006c 0B44     		add	r3, r3, r1
 1532 006e 5B00     		lsls	r3, r3, #1
 1533 0070 0344     		add	r3, r3, r0
 1534 0072 9B88     		ldrh	r3, [r3, #4]
 1535              		.loc 1 346 11
 1536 0074 40F6FF72 		movw	r2, #4095
 1537 0078 9342     		cmp	r3, r2
 1538 007a 0BD1     		bne	.L48
 1539              		.loc 1 346 12 discriminator 1
 1540 007c 0022     		movs	r2, #0
 1541 007e 4FF4AD71 		mov	r1, #346
 1542 0082 5C48     		ldr	r0, .L50+4
 1543 0084 FFF7FEFF 		bl	zf_hrtim_assert_handler
 1544 0088 0346     		mov	r3, r0
 1545 008a 002B     		cmp	r3, #0
 1546 008c 02D0     		beq	.L48
 347:libraries/zf_driver/zf_driver_hrtim.c ****         {
 348:libraries/zf_driver/zf_driver_hrtim.c ****             // æ­¤å¤„å¦‚æœæ–­è¨€æŠ¥é”™ é‚£ä¹ˆè¯æ˜å¼•è„šæ‰€åœ¨é€šé“å·²ç»è¢«åˆå§‹åŒ–è¿‡ ä¸èƒ½é
 349:libraries/zf_driver/zf_driver_hrtim.c ****             return_state = HRTIM_ERROR_CHANNEL_NOT_INIT;
 1547              		.loc 1 349 26
 1548 008e 2323     		movs	r3, #35
 1549 0090 8DF80F30 		strb	r3, [sp, #15]
 1550              	.L48:
 350:libraries/zf_driver/zf_driver_hrtim.c ****         }
 351:libraries/zf_driver/zf_driver_hrtim.c **** 
 352:libraries/zf_driver/zf_driver_hrtim.c ****         hrtim_obj_list[hrtim_index].hrtimer_obj->sCommonRegs.OENR &= ~(0x00000001 << ((channel_inde
 1551              		.loc 1 352 36
 1552 0094 9DF80E20 		ldrb	r2, [sp, #14]	@ zero_extendqisi2
 1553 0098 5549     		ldr	r1, .L50
 1554 009a 1346     		mov	r3, r2
 1555 009c DB00     		lsls	r3, r3, #3
 1556 009e 9B1A     		subs	r3, r3, r2
 1557 00a0 DB00     		lsls	r3, r3, #3
 1558 00a2 0B44     		add	r3, r3, r1
 1559 00a4 1B68     		ldr	r3, [r3]
 1560              		.loc 1 352 67
 1561 00a6 D3F89403 		ldr	r0, [r3, #916]
 1562              		.loc 1 352 102
 1563 00aa 9DF80D20 		ldrb	r2, [sp, #13]	@ zero_extendqisi2
 1564 00ae 524B     		ldr	r3, .L50+8
 1565 00b0 A3FB0213 		umull	r1, r3, r3, r2
 1566 00b4 9908     		lsrs	r1, r3, #2
 1567 00b6 0B46     		mov	r3, r1
 1568 00b8 5B00     		lsls	r3, r3, #1
 1569 00ba 0B44     		add	r3, r3, r1
 1570 00bc 5B00     		lsls	r3, r3, #1
 1571 00be D31A     		subs	r3, r2, r3
 1572 00c0 DBB2     		uxtb	r3, r3
 1573              		.loc 1 352 107
 1574 00c2 5B00     		lsls	r3, r3, #1
 1575              		.loc 1 352 83
 1576 00c4 0122     		movs	r2, #1
 1577 00c6 02FA03F3 		lsl	r3, r2, r3
 1578              		.loc 1 352 70
 1579 00ca DB43     		mvns	r3, r3
 1580 00cc 1C46     		mov	r4, r3
 1581              		.loc 1 352 36
 1582 00ce 9DF80E20 		ldrb	r2, [sp, #14]	@ zero_extendqisi2
 1583 00d2 4749     		ldr	r1, .L50
 1584 00d4 1346     		mov	r3, r2
 1585 00d6 DB00     		lsls	r3, r3, #3
 1586 00d8 9B1A     		subs	r3, r3, r2
 1587 00da DB00     		lsls	r3, r3, #3
 1588 00dc 0B44     		add	r3, r3, r1
 1589 00de 1B68     		ldr	r3, [r3]
 1590              		.loc 1 352 67
 1591 00e0 00EA0402 		and	r2, r0, r4
 1592 00e4 C3F89423 		str	r2, [r3, #916]
 353:libraries/zf_driver/zf_driver_hrtim.c ****         hrtim_obj_list[hrtim_index].hrtimer_obj->sTimerxRegs[channel_index % 6].SETx1R = 0;
 1593              		.loc 1 353 36
 1594 00e8 9DF80E20 		ldrb	r2, [sp, #14]	@ zero_extendqisi2
 1595 00ec 4049     		ldr	r1, .L50
 1596 00ee 1346     		mov	r3, r2
 1597 00f0 DB00     		lsls	r3, r3, #3
 1598 00f2 9B1A     		subs	r3, r3, r2
 1599 00f4 DB00     		lsls	r3, r3, #3
 1600 00f6 0B44     		add	r3, r3, r1
 1601 00f8 1868     		ldr	r0, [r3]
 1602              		.loc 1 353 76
 1603 00fa 9DF80D20 		ldrb	r2, [sp, #13]	@ zero_extendqisi2
 1604 00fe 3E4B     		ldr	r3, .L50+8
 1605 0100 A3FB0213 		umull	r1, r3, r3, r2
 1606 0104 9908     		lsrs	r1, r3, #2
 1607 0106 0B46     		mov	r3, r1
 1608 0108 5B00     		lsls	r3, r3, #1
 1609 010a 0B44     		add	r3, r3, r1
 1610 010c 5B00     		lsls	r3, r3, #1
 1611 010e D31A     		subs	r3, r2, r3
 1612 0110 DBB2     		uxtb	r3, r3
 1613              		.loc 1 353 88
 1614 0112 DB01     		lsls	r3, r3, #7
 1615 0114 0344     		add	r3, r3, r0
 1616 0116 BC33     		adds	r3, r3, #188
 1617 0118 0022     		movs	r2, #0
 1618 011a 1A60     		str	r2, [r3]
 354:libraries/zf_driver/zf_driver_hrtim.c ****         hrtim_obj_list[hrtim_index].hrtimer_obj->sTimerxRegs[channel_index % 6].RSTx1R = 0;
 1619              		.loc 1 354 36
 1620 011c 9DF80E20 		ldrb	r2, [sp, #14]	@ zero_extendqisi2
 1621 0120 3349     		ldr	r1, .L50
 1622 0122 1346     		mov	r3, r2
 1623 0124 DB00     		lsls	r3, r3, #3
 1624 0126 9B1A     		subs	r3, r3, r2
 1625 0128 DB00     		lsls	r3, r3, #3
 1626 012a 0B44     		add	r3, r3, r1
 1627 012c 1868     		ldr	r0, [r3]
 1628              		.loc 1 354 76
 1629 012e 9DF80D20 		ldrb	r2, [sp, #13]	@ zero_extendqisi2
 1630 0132 314B     		ldr	r3, .L50+8
 1631 0134 A3FB0213 		umull	r1, r3, r3, r2
 1632 0138 9908     		lsrs	r1, r3, #2
 1633 013a 0B46     		mov	r3, r1
 1634 013c 5B00     		lsls	r3, r3, #1
 1635 013e 0B44     		add	r3, r3, r1
 1636 0140 5B00     		lsls	r3, r3, #1
 1637 0142 D31A     		subs	r3, r2, r3
 1638 0144 DBB2     		uxtb	r3, r3
 1639              		.loc 1 354 88
 1640 0146 DB01     		lsls	r3, r3, #7
 1641 0148 0344     		add	r3, r3, r0
 1642 014a C033     		adds	r3, r3, #192
 1643 014c 0022     		movs	r2, #0
 1644 014e 1A60     		str	r2, [r3]
 355:libraries/zf_driver/zf_driver_hrtim.c ****         zf_gpio_deinit(hrtim_obj_list[hrtim_index].pin_list[channel_index]);
 1645              		.loc 1 355 9
 1646 0150 9DF80E20 		ldrb	r2, [sp, #14]	@ zero_extendqisi2
 1647 0154 9DF80D10 		ldrb	r1, [sp, #13]	@ zero_extendqisi2
 1648 0158 2548     		ldr	r0, .L50
 1649 015a 1346     		mov	r3, r2
 1650 015c DB00     		lsls	r3, r3, #3
 1651 015e 9B1A     		subs	r3, r3, r2
 1652 0160 9B00     		lsls	r3, r3, #2
 1653 0162 0B44     		add	r3, r3, r1
 1654 0164 5B00     		lsls	r3, r3, #1
 1655 0166 0344     		add	r3, r3, r0
 1656 0168 9B88     		ldrh	r3, [r3, #4]
 1657 016a 1846     		mov	r0, r3
 1658 016c FFF7FEFF 		bl	zf_gpio_deinit
 356:libraries/zf_driver/zf_driver_hrtim.c ****         hrtim_obj_list[hrtim_index].pin_list[channel_index] = PIN_NULL;
 1659              		.loc 1 356 45
 1660 0170 9DF80E20 		ldrb	r2, [sp, #14]	@ zero_extendqisi2
 1661 0174 9DF80D10 		ldrb	r1, [sp, #13]	@ zero_extendqisi2
 1662              		.loc 1 356 61
 1663 0178 1D48     		ldr	r0, .L50
 1664 017a 1346     		mov	r3, r2
 1665 017c DB00     		lsls	r3, r3, #3
 1666 017e 9B1A     		subs	r3, r3, r2
 1667 0180 9B00     		lsls	r3, r3, #2
 1668 0182 0B44     		add	r3, r3, r1
 1669 0184 5B00     		lsls	r3, r3, #1
 1670 0186 0344     		add	r3, r3, r0
 1671 0188 40F6FF72 		movw	r2, #4095
 1672 018c 9A80     		strh	r2, [r3, #4]	@ movhi
 357:libraries/zf_driver/zf_driver_hrtim.c ****         hrtim_obj_list[hrtim_index].channel_state &= ~(0x0001 << channel_index);
 1673              		.loc 1 357 51
 1674 018e 9DF80E20 		ldrb	r2, [sp, #14]	@ zero_extendqisi2
 1675 0192 1749     		ldr	r1, .L50
 1676 0194 1346     		mov	r3, r2
 1677 0196 DB00     		lsls	r3, r3, #3
 1678 0198 9B1A     		subs	r3, r3, r2
 1679 019a DB00     		lsls	r3, r3, #3
 1680 019c 0B44     		add	r3, r3, r1
 1681 019e 3033     		adds	r3, r3, #48
 1682 01a0 1B88     		ldrh	r3, [r3]	@ movhi
 1683 01a2 C3F30B03 		ubfx	r3, r3, #0, #12
 1684 01a6 9BB2     		uxth	r3, r3
 1685 01a8 1AB2     		sxth	r2, r3
 1686              		.loc 1 357 63
 1687 01aa 9DF80D30 		ldrb	r3, [sp, #13]	@ zero_extendqisi2
 1688 01ae 0121     		movs	r1, #1
 1689 01b0 01FA03F3 		lsl	r3, r1, r3
 1690              		.loc 1 357 51
 1691 01b4 1BB2     		sxth	r3, r3
 1692 01b6 DB43     		mvns	r3, r3
 1693 01b8 1BB2     		sxth	r3, r3
 1694 01ba 1340     		ands	r3, r3, r2
 1695 01bc 1BB2     		sxth	r3, r3
 1696 01be 9DF80E20 		ldrb	r2, [sp, #14]	@ zero_extendqisi2
 1697 01c2 C3F30B03 		ubfx	r3, r3, #0, #12
 1698 01c6 99B2     		uxth	r1, r3
 1699 01c8 0948     		ldr	r0, .L50
 1700 01ca 1346     		mov	r3, r2
 1701 01cc DB00     		lsls	r3, r3, #3
 1702 01ce 9B1A     		subs	r3, r3, r2
 1703 01d0 DB00     		lsls	r3, r3, #3
 1704 01d2 0344     		add	r3, r3, r0
 1705 01d4 03F13002 		add	r2, r3, #48
 1706 01d8 1388     		ldrh	r3, [r2]	@ movhi
 1707 01da 61F30B03 		bfi	r3, r1, #0, #12
 1708 01de 1380     		strh	r3, [r2]	@ movhi
 358:libraries/zf_driver/zf_driver_hrtim.c **** 
 359:libraries/zf_driver/zf_driver_hrtim.c ****         return_state = HRTIM_OPERATION_DONE;
 1709              		.loc 1 359 22
 1710 01e0 0023     		movs	r3, #0
 1711 01e2 8DF80F30 		strb	r3, [sp, #15]
 1712              	.L47:
 1713              	.LBE10:
 360:libraries/zf_driver/zf_driver_hrtim.c ****     }while(0);
 361:libraries/zf_driver/zf_driver_hrtim.c **** 
 362:libraries/zf_driver/zf_driver_hrtim.c ****     return return_state;
 1714              		.loc 1 362 12
 1715 01e6 9DF80F30 		ldrb	r3, [sp, #15]	@ zero_extendqisi2
 363:libraries/zf_driver/zf_driver_hrtim.c **** }
 1716              		.loc 1 363 1
 1717 01ea 1846     		mov	r0, r3
 1718 01ec 04B0     		add	sp, sp, #16
 1719              		.cfi_def_cfa_offset 8
 1720              		@ sp needed
 1721 01ee 10BD     		pop	{r4, pc}
 1722              	.L51:
 1723              		.align	2
 1724              	.L50:
 1725 01f0 00000000 		.word	hrtim_obj_list
 1726 01f4 00000000 		.word	.LC0
 1727 01f8 ABAAAAAA 		.word	-1431655765
 1728              		.cfi_endproc
 1729              	.LFE184:
 1731              		.section	.text.zf_hrtim_module_deinit,"ax",%progbits
 1732              		.align	1
 1733              		.p2align 4,,15
 1734              		.global	zf_hrtim_module_deinit
 1735              		.syntax unified
 1736              		.thumb
 1737              		.thumb_func
 1739              	zf_hrtim_module_deinit:
 1740              	.LFB185:
 364:libraries/zf_driver/zf_driver_hrtim.c **** 
 365:libraries/zf_driver/zf_driver_hrtim.c **** //-------------------------------------------------------------------------------------------------
 366:libraries/zf_driver/zf_driver_hrtim.c **** // å‡½æ•°ç®€ä»‹     HRTIM æ¨¡å—æ³¨é”€åˆå§‹åŒ–
 367:libraries/zf_driver/zf_driver_hrtim.c **** // å‚æ•°è¯´æ˜     hrtim_index         é€‰æ‹© HRTIM æ¨¡å—     (è¯¦è§ zf_driver_hrtim.h å†… zf_hr
 368:libraries/zf_driver/zf_driver_hrtim.c **** // è¿”å›å‚æ•°     uint8               æ“ä½œçŠ¶æ€ ZF_NO_ERROR / ENCODER_OPERATION_DONE - å®Œæˆ 
 369:libraries/zf_driver/zf_driver_hrtim.c **** // ä½¿ç”¨ç¤ºä¾‹     zf_hrtim_module_deinit(hrtim_index);
 370:libraries/zf_driver/zf_driver_hrtim.c **** // å¤‡æ³¨ä¿¡æ¯     æ¨¡å—æ³¨é”€åˆå§‹åŒ–ä¼šè¿å¸¦æ³¨é”€å½“å‰æ¨¡å—ä¸‹æ‰€æœ‰å¼•è„š
 371:libraries/zf_driver/zf_driver_hrtim.c **** //-------------------------------------------------------------------------------------------------
 372:libraries/zf_driver/zf_driver_hrtim.c **** uint8 zf_hrtim_module_deinit (zf_hrtim_index_enum hrtim_index)
 373:libraries/zf_driver/zf_driver_hrtim.c **** {
 1741              		.loc 1 373 1
 1742              		.cfi_startproc
 1743              		@ args = 0, pretend = 0, frame = 16
 1744              		@ frame_needed = 0, uses_anonymous_args = 0
 1745 0000 00B5     		push	{lr}
 1746              		.cfi_def_cfa_offset 4
 1747              		.cfi_offset 14, -4
 1748 0002 85B0     		sub	sp, sp, #20
 1749              		.cfi_def_cfa_offset 24
 1750 0004 0346     		mov	r3, r0
 1751 0006 8DF80730 		strb	r3, [sp, #7]
 374:libraries/zf_driver/zf_driver_hrtim.c ****     zf_hrtim_operation_state_enum return_state = HRTIM_ERROR_UNKNOW;
 1752              		.loc 1 374 35
 1753 000a 0123     		movs	r3, #1
 1754 000c 8DF80F30 		strb	r3, [sp, #15]
 375:libraries/zf_driver/zf_driver_hrtim.c **** 
 376:libraries/zf_driver/zf_driver_hrtim.c ****     do
 377:libraries/zf_driver/zf_driver_hrtim.c ****     {
 378:libraries/zf_driver/zf_driver_hrtim.c ****         if(zf_hrtim_assert(hrtim_obj_list[hrtim_index].freq))
 1755              		.loc 1 378 12
 1756 0010 9DF80720 		ldrb	r2, [sp, #7]	@ zero_extendqisi2
 1757 0014 4449     		ldr	r1, .L59
 1758 0016 1346     		mov	r3, r2
 1759 0018 DB00     		lsls	r3, r3, #3
 1760 001a 9B1A     		subs	r3, r3, r2
 1761 001c DB00     		lsls	r3, r3, #3
 1762 001e 0B44     		add	r3, r3, r1
 1763 0020 2833     		adds	r3, r3, #40
 1764 0022 1B68     		ldr	r3, [r3]
 1765              		.loc 1 378 11
 1766 0024 002B     		cmp	r3, #0
 1767 0026 0CD1     		bne	.L53
 1768              		.loc 1 378 12 discriminator 1
 1769 0028 0022     		movs	r2, #0
 1770 002a 4FF4BD71 		mov	r1, #378
 1771 002e 3F48     		ldr	r0, .L59+4
 1772 0030 FFF7FEFF 		bl	zf_hrtim_assert_handler
 1773 0034 0346     		mov	r3, r0
 1774 0036 002B     		cmp	r3, #0
 1775 0038 03D0     		beq	.L53
 379:libraries/zf_driver/zf_driver_hrtim.c ****         {
 380:libraries/zf_driver/zf_driver_hrtim.c ****             // æ­¤å¤„å¦‚æœæ–­è¨€æŠ¥é”™ é‚£ä¹ˆè¯æ˜æœ¬æ¨¡å—æ²¡æœ‰åˆå§‹åŒ–è¿‡ æ˜¯ä¸å…è®¸ç›´æ¥æ
 381:libraries/zf_driver/zf_driver_hrtim.c ****             // æœªåˆå§‹åŒ–æ¨¡å—å¾ˆå¯èƒ½æ²¡æœ‰å¼€å¯æ¨¡å—æ—¶é’Ÿæˆ–è€…æ²¡æœ‰ä½¿èƒ½æ¨¡å—
 382:libraries/zf_driver/zf_driver_hrtim.c ****             // å¯¹äºéƒ¨åˆ†å•ç‰‡æœºæ²¡æœ‰ä½¿èƒ½æ¨¡å—ç›´æ¥æ“ä½œä¼šå¯¼è‡´æ€»çº¿å¼‚å¸¸æˆ–è€…ç¡¬ä»¶
 383:libraries/zf_driver/zf_driver_hrtim.c ****             return_state = HRTIM_ERROR_MODULE_NOT_INIT;
 1776              		.loc 1 383 26
 1777 003a 2123     		movs	r3, #33
 1778 003c 8DF80F30 		strb	r3, [sp, #15]
 384:libraries/zf_driver/zf_driver_hrtim.c ****             break;
 1779              		.loc 1 384 13
 1780 0040 6CE0     		b	.L54
 1781              	.L53:
 385:libraries/zf_driver/zf_driver_hrtim.c ****         }
 386:libraries/zf_driver/zf_driver_hrtim.c **** 
 387:libraries/zf_driver/zf_driver_hrtim.c ****         hrtim_obj_list[hrtim_index].hrtimer_obj->sCommonRegs.OENR = 0;
 1782              		.loc 1 387 36
 1783 0042 9DF80720 		ldrb	r2, [sp, #7]	@ zero_extendqisi2
 1784 0046 3849     		ldr	r1, .L59
 1785 0048 1346     		mov	r3, r2
 1786 004a DB00     		lsls	r3, r3, #3
 1787 004c 9B1A     		subs	r3, r3, r2
 1788 004e DB00     		lsls	r3, r3, #3
 1789 0050 0B44     		add	r3, r3, r1
 1790 0052 1B68     		ldr	r3, [r3]
 1791              		.loc 1 387 67
 1792 0054 0022     		movs	r2, #0
 1793 0056 C3F89423 		str	r2, [r3, #916]
 1794              	.LBB11:
 388:libraries/zf_driver/zf_driver_hrtim.c ****         for(zf_hrtim_pwm_channel_index_enum i = PWM_CHA1; i <= PWM_CHF2; i ++)
 1795              		.loc 1 388 45
 1796 005a 0023     		movs	r3, #0
 1797 005c 8DF80E30 		strb	r3, [sp, #14]
 1798              		.loc 1 388 9
 1799 0060 34E0     		b	.L55
 1800              	.L57:
 389:libraries/zf_driver/zf_driver_hrtim.c ****         {
 390:libraries/zf_driver/zf_driver_hrtim.c ****             if(PIN_NULL != hrtim_obj_list[hrtim_index].pin_list[i])
 1801              		.loc 1 390 64
 1802 0062 9DF80720 		ldrb	r2, [sp, #7]	@ zero_extendqisi2
 1803 0066 9DF80E10 		ldrb	r1, [sp, #14]	@ zero_extendqisi2
 1804 006a 2F48     		ldr	r0, .L59
 1805 006c 1346     		mov	r3, r2
 1806 006e DB00     		lsls	r3, r3, #3
 1807 0070 9B1A     		subs	r3, r3, r2
 1808 0072 9B00     		lsls	r3, r3, #2
 1809 0074 0B44     		add	r3, r3, r1
 1810 0076 5B00     		lsls	r3, r3, #1
 1811 0078 0344     		add	r3, r3, r0
 1812 007a 9B88     		ldrh	r3, [r3, #4]
 1813              		.loc 1 390 15
 1814 007c 40F6FF72 		movw	r2, #4095
 1815 0080 9342     		cmp	r3, r2
 1816 0082 1ED0     		beq	.L56
 391:libraries/zf_driver/zf_driver_hrtim.c ****             {
 392:libraries/zf_driver/zf_driver_hrtim.c ****                 zf_gpio_deinit(hrtim_obj_list[hrtim_index].pin_list[i]);
 1817              		.loc 1 392 17
 1818 0084 9DF80720 		ldrb	r2, [sp, #7]	@ zero_extendqisi2
 1819 0088 9DF80E10 		ldrb	r1, [sp, #14]	@ zero_extendqisi2
 1820 008c 2648     		ldr	r0, .L59
 1821 008e 1346     		mov	r3, r2
 1822 0090 DB00     		lsls	r3, r3, #3
 1823 0092 9B1A     		subs	r3, r3, r2
 1824 0094 9B00     		lsls	r3, r3, #2
 1825 0096 0B44     		add	r3, r3, r1
 1826 0098 5B00     		lsls	r3, r3, #1
 1827 009a 0344     		add	r3, r3, r0
 1828 009c 9B88     		ldrh	r3, [r3, #4]
 1829 009e 1846     		mov	r0, r3
 1830 00a0 FFF7FEFF 		bl	zf_gpio_deinit
 393:libraries/zf_driver/zf_driver_hrtim.c ****                 hrtim_obj_list[hrtim_index].pin_list[i] = PIN_NULL;
 1831              		.loc 1 393 53
 1832 00a4 9DF80720 		ldrb	r2, [sp, #7]	@ zero_extendqisi2
 1833 00a8 9DF80E10 		ldrb	r1, [sp, #14]	@ zero_extendqisi2
 1834              		.loc 1 393 57
 1835 00ac 1E48     		ldr	r0, .L59
 1836 00ae 1346     		mov	r3, r2
 1837 00b0 DB00     		lsls	r3, r3, #3
 1838 00b2 9B1A     		subs	r3, r3, r2
 1839 00b4 9B00     		lsls	r3, r3, #2
 1840 00b6 0B44     		add	r3, r3, r1
 1841 00b8 5B00     		lsls	r3, r3, #1
 1842 00ba 0344     		add	r3, r3, r0
 1843 00bc 40F6FF72 		movw	r2, #4095
 1844 00c0 9A80     		strh	r2, [r3, #4]	@ movhi
 1845              	.L56:
 388:libraries/zf_driver/zf_driver_hrtim.c ****         {
 1846              		.loc 1 388 76 discriminator 2
 1847 00c2 9DF80E30 		ldrb	r3, [sp, #14]	@ zero_extendqisi2
 1848 00c6 0133     		adds	r3, r3, #1
 1849 00c8 8DF80E30 		strb	r3, [sp, #14]
 1850              	.L55:
 388:libraries/zf_driver/zf_driver_hrtim.c ****         {
 1851              		.loc 1 388 9 discriminator 1
 1852 00cc 9DF80E30 		ldrb	r3, [sp, #14]	@ zero_extendqisi2
 1853 00d0 0B2B     		cmp	r3, #11
 1854 00d2 C6D9     		bls	.L57
 1855              	.LBE11:
 394:libraries/zf_driver/zf_driver_hrtim.c ****             }
 395:libraries/zf_driver/zf_driver_hrtim.c ****         }
 396:libraries/zf_driver/zf_driver_hrtim.c ****         hrtim_obj_list[hrtim_index].freq = 0;
 1856              		.loc 1 396 36
 1857 00d4 9DF80720 		ldrb	r2, [sp, #7]	@ zero_extendqisi2
 1858              		.loc 1 396 42
 1859 00d8 1349     		ldr	r1, .L59
 1860 00da 1346     		mov	r3, r2
 1861 00dc DB00     		lsls	r3, r3, #3
 1862 00de 9B1A     		subs	r3, r3, r2
 1863 00e0 DB00     		lsls	r3, r3, #3
 1864 00e2 0B44     		add	r3, r3, r1
 1865 00e4 2833     		adds	r3, r3, #40
 1866 00e6 0022     		movs	r2, #0
 1867 00e8 1A60     		str	r2, [r3]
 397:libraries/zf_driver/zf_driver_hrtim.c ****         hrtim_obj_list[hrtim_index].period = 0;
 1868              		.loc 1 397 36
 1869 00ea 9DF80720 		ldrb	r2, [sp, #7]	@ zero_extendqisi2
 1870              		.loc 1 397 44
 1871 00ee 0E49     		ldr	r1, .L59
 1872 00f0 1346     		mov	r3, r2
 1873 00f2 DB00     		lsls	r3, r3, #3
 1874 00f4 9B1A     		subs	r3, r3, r2
 1875 00f6 DB00     		lsls	r3, r3, #3
 1876 00f8 0B44     		add	r3, r3, r1
 1877 00fa 2C33     		adds	r3, r3, #44
 1878 00fc 0022     		movs	r2, #0
 1879 00fe 1A60     		str	r2, [r3]
 398:libraries/zf_driver/zf_driver_hrtim.c ****         hrtim_obj_list[hrtim_index].config_info = 0;
 1880              		.loc 1 398 36
 1881 0100 9DF80720 		ldrb	r2, [sp, #7]	@ zero_extendqisi2
 1882              		.loc 1 398 49
 1883 0104 0849     		ldr	r1, .L59
 1884 0106 1346     		mov	r3, r2
 1885 0108 DB00     		lsls	r3, r3, #3
 1886 010a 9B1A     		subs	r3, r3, r2
 1887 010c DB00     		lsls	r3, r3, #3
 1888 010e 0B44     		add	r3, r3, r1
 1889 0110 3033     		adds	r3, r3, #48
 1890 0112 0022     		movs	r2, #0
 1891 0114 1A60     		str	r2, [r3]
 399:libraries/zf_driver/zf_driver_hrtim.c **** 
 400:libraries/zf_driver/zf_driver_hrtim.c ****         return_state = HRTIM_OPERATION_DONE;
 1892              		.loc 1 400 22
 1893 0116 0023     		movs	r3, #0
 1894 0118 8DF80F30 		strb	r3, [sp, #15]
 1895              	.L54:
 401:libraries/zf_driver/zf_driver_hrtim.c ****     }while(0);
 402:libraries/zf_driver/zf_driver_hrtim.c **** 
 403:libraries/zf_driver/zf_driver_hrtim.c ****     return return_state;
 1896              		.loc 1 403 12
 1897 011c 9DF80F30 		ldrb	r3, [sp, #15]	@ zero_extendqisi2
 404:libraries/zf_driver/zf_driver_hrtim.c **** }
 1898              		.loc 1 404 1
 1899 0120 1846     		mov	r0, r3
 1900 0122 05B0     		add	sp, sp, #20
 1901              		.cfi_def_cfa_offset 4
 1902              		@ sp needed
 1903 0124 5DF804FB 		ldr	pc, [sp], #4
 1904              	.L60:
 1905              		.align	2
 1906              	.L59:
 1907 0128 00000000 		.word	hrtim_obj_list
 1908 012c 00000000 		.word	.LC0
 1909              		.cfi_endproc
 1910              	.LFE185:
 1912              		.section	.text.zf_hrtim_complementary_init,"ax",%progbits
 1913              		.align	1
 1914              		.p2align 4,,15
 1915              		.global	zf_hrtim_complementary_init
 1916              		.syntax unified
 1917              		.thumb
 1918              		.thumb_func
 1920              	zf_hrtim_complementary_init:
 1921              	.LFB186:
 405:libraries/zf_driver/zf_driver_hrtim.c **** 
 406:libraries/zf_driver/zf_driver_hrtim.c **** //-------------------------------------------------------------------------------------------------
 407:libraries/zf_driver/zf_driver_hrtim.c **** // å‡½æ•°ç®€ä»‹     HRTIM äº’è¡¥åˆå§‹åŒ–
 408:libraries/zf_driver/zf_driver_hrtim.c **** // å‚æ•°è¯´æ˜     positive_pin        é€‰æ‹© HRTIM PWM å¼•è„š (è¯¦è§ zf_driver_hrtim.h å†… zf_hr
 409:libraries/zf_driver/zf_driver_hrtim.c **** // å‚æ•°è¯´æ˜     negative_pin        é€‰æ‹© HRTIM PWM å¼•è„š (è¯¦è§ zf_driver_hrtim.h å†… zf_hr
 410:libraries/zf_driver/zf_driver_hrtim.c **** // å‚æ•°è¯´æ˜     duty                è®¾ç½®å ç©ºæ¯”
 411:libraries/zf_driver/zf_driver_hrtim.c **** // è¿”å›å‚æ•°     uint8               æ“ä½œçŠ¶æ€ ZF_NO_ERROR / ENCODER_OPERATION_DONE - å®Œæˆ 
 412:libraries/zf_driver/zf_driver_hrtim.c **** // ä½¿ç”¨ç¤ºä¾‹     zf_hrtim_complementary_init(positive_pin, negative_pin, duty);
 413:libraries/zf_driver/zf_driver_hrtim.c **** // å¤‡æ³¨ä¿¡æ¯     å¿…é¡»å…ˆè°ƒç”¨ zf_hrtim_module_init å…ˆåˆå§‹åŒ–æ¨¡å—
 414:libraries/zf_driver/zf_driver_hrtim.c **** //-------------------------------------------------------------------------------------------------
 415:libraries/zf_driver/zf_driver_hrtim.c **** uint8 zf_hrtim_complementary_init (zf_hrtim_pwm_positive_channel_enum positive_pin, zf_hrtim_pwm_ne
 416:libraries/zf_driver/zf_driver_hrtim.c **** {
 1922              		.loc 1 416 1
 1923              		.cfi_startproc
 1924              		@ args = 0, pretend = 0, frame = 32
 1925              		@ frame_needed = 0, uses_anonymous_args = 0
 1926 0000 10B5     		push	{r4, lr}
 1927              		.cfi_def_cfa_offset 8
 1928              		.cfi_offset 4, -8
 1929              		.cfi_offset 14, -4
 1930 0002 88B0     		sub	sp, sp, #32
 1931              		.cfi_def_cfa_offset 40
 1932 0004 0390     		str	r0, [sp, #12]
 1933 0006 0291     		str	r1, [sp, #8]
 1934 0008 0192     		str	r2, [sp, #4]
 417:libraries/zf_driver/zf_driver_hrtim.c ****     zf_hrtim_operation_state_enum return_state = HRTIM_ERROR_UNKNOW;
 1935              		.loc 1 417 35
 1936 000a 0123     		movs	r3, #1
 1937 000c 8DF81F30 		strb	r3, [sp, #31]
 1938              	.LBB12:
 418:libraries/zf_driver/zf_driver_hrtim.c **** 
 419:libraries/zf_driver/zf_driver_hrtim.c ****     do
 420:libraries/zf_driver/zf_driver_hrtim.c ****     {
 421:libraries/zf_driver/zf_driver_hrtim.c ****         zf_hrtim_index_enum             positive_hrtim_index    = (zf_hrtim_index_enum)((positive_p
 1939              		.loc 1 421 103
 1940 0010 039B     		ldr	r3, [sp, #12]
 1941 0012 1B0C     		lsrs	r3, r3, #16
 1942              		.loc 1 421 67
 1943 0014 DBB2     		uxtb	r3, r3
 1944              		.loc 1 421 41
 1945 0016 03F00F03 		and	r3, r3, #15
 1946 001a 8DF81E30 		strb	r3, [sp, #30]
 422:libraries/zf_driver/zf_driver_hrtim.c ****         zf_hrtim_pwm_channel_index_enum positive_channel_index  = (zf_hrtim_pwm_channel_index_enum)
 1947              		.loc 1 422 115
 1948 001e 039B     		ldr	r3, [sp, #12]
 1949 0020 1B0D     		lsrs	r3, r3, #20
 1950              		.loc 1 422 67
 1951 0022 DBB2     		uxtb	r3, r3
 1952              		.loc 1 422 41
 1953 0024 03F00F03 		and	r3, r3, #15
 1954 0028 8DF81D30 		strb	r3, [sp, #29]
 423:libraries/zf_driver/zf_driver_hrtim.c ****         zf_hrtim_index_enum             negative_hrtim_index    = (zf_hrtim_index_enum)((negative_p
 1955              		.loc 1 423 103
 1956 002c 029B     		ldr	r3, [sp, #8]
 1957 002e 1B0C     		lsrs	r3, r3, #16
 1958              		.loc 1 423 67
 1959 0030 DBB2     		uxtb	r3, r3
 1960              		.loc 1 423 41
 1961 0032 03F00F03 		and	r3, r3, #15
 1962 0036 8DF81C30 		strb	r3, [sp, #28]
 424:libraries/zf_driver/zf_driver_hrtim.c ****         zf_hrtim_pwm_channel_index_enum negative_channel_index  = (zf_hrtim_pwm_channel_index_enum)
 1963              		.loc 1 424 115
 1964 003a 029B     		ldr	r3, [sp, #8]
 1965 003c 1B0D     		lsrs	r3, r3, #20
 1966              		.loc 1 424 67
 1967 003e DBB2     		uxtb	r3, r3
 1968              		.loc 1 424 41
 1969 0040 03F00F03 		and	r3, r3, #15
 1970 0044 8DF81B30 		strb	r3, [sp, #27]
 425:libraries/zf_driver/zf_driver_hrtim.c **** 
 426:libraries/zf_driver/zf_driver_hrtim.c ****         if(zf_hrtim_assert(positive_hrtim_index == negative_hrtim_index))
 1971              		.loc 1 426 11
 1972 0048 9DF81E20 		ldrb	r2, [sp, #30]	@ zero_extendqisi2
 1973 004c 9DF81C30 		ldrb	r3, [sp, #28]	@ zero_extendqisi2
 1974 0050 9A42     		cmp	r2, r3
 1975 0052 0CD0     		beq	.L62
 1976              		.loc 1 426 12 discriminator 1
 1977 0054 0022     		movs	r2, #0
 1978 0056 4FF4D571 		mov	r1, #426
 1979 005a 8948     		ldr	r0, .L73
 1980 005c FFF7FEFF 		bl	zf_hrtim_assert_handler
 1981 0060 0346     		mov	r3, r0
 1982 0062 002B     		cmp	r3, #0
 1983 0064 03D0     		beq	.L62
 427:libraries/zf_driver/zf_driver_hrtim.c ****         {
 428:libraries/zf_driver/zf_driver_hrtim.c ****             // æ­¤å¤„å¦‚æœæ–­è¨€æŠ¥é”™ é‚£ä¹ˆè¯æ˜æœ¬æ¨¡å—æ²¡æœ‰åˆå§‹åŒ–è¿‡ æ˜¯ä¸å…è®¸ç›´æ¥æ
 429:libraries/zf_driver/zf_driver_hrtim.c ****             // æœªåˆå§‹åŒ–æ¨¡å—å¾ˆå¯èƒ½æ²¡æœ‰å¼€å¯æ¨¡å—æ—¶é’Ÿæˆ–è€…æ²¡æœ‰ä½¿èƒ½æ¨¡å—
 430:libraries/zf_driver/zf_driver_hrtim.c ****             // å¯¹äºéƒ¨åˆ†å•ç‰‡æœºæ²¡æœ‰ä½¿èƒ½æ¨¡å—ç›´æ¥æ“ä½œä¼šå¯¼è‡´æ€»çº¿å¼‚å¸¸æˆ–è€…ç¡¬ä»¶
 431:libraries/zf_driver/zf_driver_hrtim.c ****             return_state = HRTIM_ERROR_MOUDLE_MISMATCH;
 1984              		.loc 1 431 26
 1985 0066 2523     		movs	r3, #37
 1986 0068 8DF81F30 		strb	r3, [sp, #31]
 432:libraries/zf_driver/zf_driver_hrtim.c ****             break;
 1987              		.loc 1 432 13
 1988 006c D8E2     		b	.L63
 1989              	.L62:
 433:libraries/zf_driver/zf_driver_hrtim.c ****         }
 434:libraries/zf_driver/zf_driver_hrtim.c ****         if(zf_hrtim_assert((positive_channel_index + 6) == negative_channel_index))
 1990              		.loc 1 434 12
 1991 006e 9DF81D30 		ldrb	r3, [sp, #29]	@ zero_extendqisi2
 1992 0072 9A1D     		adds	r2, r3, #6
 1993 0074 9DF81B30 		ldrb	r3, [sp, #27]	@ zero_extendqisi2
 1994              		.loc 1 434 11
 1995 0078 9A42     		cmp	r2, r3
 1996 007a 0CD0     		beq	.L64
 1997              		.loc 1 434 12 discriminator 1
 1998 007c 0022     		movs	r2, #0
 1999 007e 4FF4D971 		mov	r1, #434
 2000 0082 7F48     		ldr	r0, .L73
 2001 0084 FFF7FEFF 		bl	zf_hrtim_assert_handler
 2002 0088 0346     		mov	r3, r0
 2003 008a 002B     		cmp	r3, #0
 2004 008c 03D0     		beq	.L64
 435:libraries/zf_driver/zf_driver_hrtim.c ****         {
 436:libraries/zf_driver/zf_driver_hrtim.c ****             // æ­¤å¤„å¦‚æœæ–­è¨€æŠ¥é”™ é‚£ä¹ˆè¯æ˜æœ¬æ¨¡å—æ²¡æœ‰åˆå§‹åŒ–è¿‡ æ˜¯ä¸å…è®¸ç›´æ¥æ
 437:libraries/zf_driver/zf_driver_hrtim.c ****             // æœªåˆå§‹åŒ–æ¨¡å—å¾ˆå¯èƒ½æ²¡æœ‰å¼€å¯æ¨¡å—æ—¶é’Ÿæˆ–è€…æ²¡æœ‰ä½¿èƒ½æ¨¡å—
 438:libraries/zf_driver/zf_driver_hrtim.c ****             // å¯¹äºéƒ¨åˆ†å•ç‰‡æœºæ²¡æœ‰ä½¿èƒ½æ¨¡å—ç›´æ¥æ“ä½œä¼šå¯¼è‡´æ€»çº¿å¼‚å¸¸æˆ–è€…ç¡¬ä»¶
 439:libraries/zf_driver/zf_driver_hrtim.c ****             return_state = HRTIM_ERROR_COMPLEMENTARY_MISMATCH;
 2005              		.loc 1 439 26
 2006 008e 2623     		movs	r3, #38
 2007 0090 8DF81F30 		strb	r3, [sp, #31]
 440:libraries/zf_driver/zf_driver_hrtim.c ****             break;
 2008              		.loc 1 440 13
 2009 0094 C4E2     		b	.L63
 2010              	.L64:
 441:libraries/zf_driver/zf_driver_hrtim.c ****         }
 442:libraries/zf_driver/zf_driver_hrtim.c **** 
 443:libraries/zf_driver/zf_driver_hrtim.c ****         if(zf_hrtim_assert(hrtim_obj_list[positive_hrtim_index].freq))
 2011              		.loc 1 443 12
 2012 0096 9DF81E20 		ldrb	r2, [sp, #30]	@ zero_extendqisi2
 2013 009a 7A49     		ldr	r1, .L73+4
 2014 009c 1346     		mov	r3, r2
 2015 009e DB00     		lsls	r3, r3, #3
 2016 00a0 9B1A     		subs	r3, r3, r2
 2017 00a2 DB00     		lsls	r3, r3, #3
 2018 00a4 0B44     		add	r3, r3, r1
 2019 00a6 2833     		adds	r3, r3, #40
 2020 00a8 1B68     		ldr	r3, [r3]
 2021              		.loc 1 443 11
 2022 00aa 002B     		cmp	r3, #0
 2023 00ac 0CD1     		bne	.L65
 2024              		.loc 1 443 12 discriminator 1
 2025 00ae 0022     		movs	r2, #0
 2026 00b0 40F2BB11 		movw	r1, #443
 2027 00b4 7248     		ldr	r0, .L73
 2028 00b6 FFF7FEFF 		bl	zf_hrtim_assert_handler
 2029 00ba 0346     		mov	r3, r0
 2030 00bc 002B     		cmp	r3, #0
 2031 00be 03D0     		beq	.L65
 444:libraries/zf_driver/zf_driver_hrtim.c ****         {
 445:libraries/zf_driver/zf_driver_hrtim.c ****             // æ­¤å¤„å¦‚æœæ–­è¨€æŠ¥é”™ é‚£ä¹ˆè¯æ˜æœ¬æ¨¡å—æ²¡æœ‰åˆå§‹åŒ–è¿‡ æ˜¯ä¸å…è®¸ç›´æ¥æ
 446:libraries/zf_driver/zf_driver_hrtim.c ****             // æœªåˆå§‹åŒ–æ¨¡å—å¾ˆå¯èƒ½æ²¡æœ‰å¼€å¯æ¨¡å—æ—¶é’Ÿæˆ–è€…æ²¡æœ‰ä½¿èƒ½æ¨¡å—
 447:libraries/zf_driver/zf_driver_hrtim.c ****             // å¯¹äºéƒ¨åˆ†å•ç‰‡æœºæ²¡æœ‰ä½¿èƒ½æ¨¡å—ç›´æ¥æ“ä½œä¼šå¯¼è‡´æ€»çº¿å¼‚å¸¸æˆ–è€…ç¡¬ä»¶
 448:libraries/zf_driver/zf_driver_hrtim.c ****             return_state = HRTIM_ERROR_MODULE_NOT_INIT;
 2032              		.loc 1 448 26
 2033 00c0 2123     		movs	r3, #33
 2034 00c2 8DF81F30 		strb	r3, [sp, #31]
 449:libraries/zf_driver/zf_driver_hrtim.c ****             break;
 2035              		.loc 1 449 13
 2036 00c6 ABE2     		b	.L63
 2037              	.L65:
 450:libraries/zf_driver/zf_driver_hrtim.c ****         }
 451:libraries/zf_driver/zf_driver_hrtim.c ****         if(zf_hrtim_assert(
 2038              		.loc 1 451 12
 2039 00c8 9DF81E20 		ldrb	r2, [sp, #30]	@ zero_extendqisi2
 2040 00cc 6D49     		ldr	r1, .L73+4
 2041 00ce 1346     		mov	r3, r2
 2042 00d0 DB00     		lsls	r3, r3, #3
 2043 00d2 9B1A     		subs	r3, r3, r2
 2044 00d4 DB00     		lsls	r3, r3, #3
 2045 00d6 0B44     		add	r3, r3, r1
 2046 00d8 3033     		adds	r3, r3, #48
 2047 00da 1B88     		ldrh	r3, [r3]	@ movhi
 2048 00dc C3F30B03 		ubfx	r3, r3, #0, #12
 2049 00e0 9BB2     		uxth	r3, r3
 2050 00e2 1A46     		mov	r2, r3
 2051 00e4 9DF81D30 		ldrb	r3, [sp, #29]	@ zero_extendqisi2
 2052 00e8 42FA03F3 		asr	r3, r2, r3
 2053 00ec 03F00103 		and	r3, r3, #1
 2054              		.loc 1 451 11
 2055 00f0 002B     		cmp	r3, #0
 2056 00f2 0BD0     		beq	.L66
 2057              		.loc 1 451 12 discriminator 1
 2058 00f4 0022     		movs	r2, #0
 2059 00f6 40F2C311 		movw	r1, #451
 2060 00fa 6148     		ldr	r0, .L73
 2061 00fc FFF7FEFF 		bl	zf_hrtim_assert_handler
 2062 0100 0346     		mov	r3, r0
 2063 0102 002B     		cmp	r3, #0
 2064 0104 02D0     		beq	.L66
 452:libraries/zf_driver/zf_driver_hrtim.c ****             !(      hrtim_obj_list[positive_hrtim_index].channel_state
 453:libraries/zf_driver/zf_driver_hrtim.c ****                 &   (0x0001 << positive_channel_index))))
 454:libraries/zf_driver/zf_driver_hrtim.c ****         {
 455:libraries/zf_driver/zf_driver_hrtim.c ****             // æ­¤å¤„å¦‚æœæ–­è¨€æŠ¥é”™ é‚£ä¹ˆè¯æ˜å¼•è„šæ‰€åœ¨é€šé“å·²ç»è¢«åˆå§‹åŒ–è¿‡ ä¸èƒ½é
 456:libraries/zf_driver/zf_driver_hrtim.c ****             return_state = HRTIM_ERROR_CHANNEL_OCCUPIED;
 2065              		.loc 1 456 26
 2066 0106 2223     		movs	r3, #34
 2067 0108 8DF81F30 		strb	r3, [sp, #31]
 2068              	.L66:
 457:libraries/zf_driver/zf_driver_hrtim.c ****         }
 458:libraries/zf_driver/zf_driver_hrtim.c ****         if(zf_hrtim_assert(
 2069              		.loc 1 458 12
 2070 010c 9DF81C20 		ldrb	r2, [sp, #28]	@ zero_extendqisi2
 2071 0110 5C49     		ldr	r1, .L73+4
 2072 0112 1346     		mov	r3, r2
 2073 0114 DB00     		lsls	r3, r3, #3
 2074 0116 9B1A     		subs	r3, r3, r2
 2075 0118 DB00     		lsls	r3, r3, #3
 2076 011a 0B44     		add	r3, r3, r1
 2077 011c 3033     		adds	r3, r3, #48
 2078 011e 1B88     		ldrh	r3, [r3]	@ movhi
 2079 0120 C3F30B03 		ubfx	r3, r3, #0, #12
 2080 0124 9BB2     		uxth	r3, r3
 2081 0126 1A46     		mov	r2, r3
 2082 0128 9DF81B30 		ldrb	r3, [sp, #27]	@ zero_extendqisi2
 2083 012c 42FA03F3 		asr	r3, r2, r3
 2084 0130 03F00103 		and	r3, r3, #1
 2085              		.loc 1 458 11
 2086 0134 002B     		cmp	r3, #0
 2087 0136 0BD0     		beq	.L67
 2088              		.loc 1 458 12 discriminator 1
 2089 0138 0022     		movs	r2, #0
 2090 013a 4FF4E571 		mov	r1, #458
 2091 013e 5048     		ldr	r0, .L73
 2092 0140 FFF7FEFF 		bl	zf_hrtim_assert_handler
 2093 0144 0346     		mov	r3, r0
 2094 0146 002B     		cmp	r3, #0
 2095 0148 02D0     		beq	.L67
 459:libraries/zf_driver/zf_driver_hrtim.c ****             !(      hrtim_obj_list[negative_hrtim_index].channel_state
 460:libraries/zf_driver/zf_driver_hrtim.c ****                 &   (0x0001 << negative_channel_index))))
 461:libraries/zf_driver/zf_driver_hrtim.c ****         {
 462:libraries/zf_driver/zf_driver_hrtim.c ****             // æ­¤å¤„å¦‚æœæ–­è¨€æŠ¥é”™ é‚£ä¹ˆè¯æ˜å¼•è„šæ‰€åœ¨é€šé“å·²ç»è¢«åˆå§‹åŒ–è¿‡ ä¸èƒ½é
 463:libraries/zf_driver/zf_driver_hrtim.c ****             return_state = HRTIM_ERROR_CHANNEL_OCCUPIED;
 2096              		.loc 1 463 26
 2097 014a 2223     		movs	r3, #34
 2098 014c 8DF81F30 		strb	r3, [sp, #31]
 2099              	.L67:
 464:libraries/zf_driver/zf_driver_hrtim.c ****         }
 465:libraries/zf_driver/zf_driver_hrtim.c ****         if(zf_hrtim_assert(HRTIM_DUTY_MAX >= duty))
 2100              		.loc 1 465 11
 2101 0150 019B     		ldr	r3, [sp, #4]
 2102 0152 42F21072 		movw	r2, #10000
 2103 0156 9342     		cmp	r3, r2
 2104 0158 0CD9     		bls	.L68
 2105              		.loc 1 465 12 discriminator 1
 2106 015a 0022     		movs	r2, #0
 2107 015c 40F2D111 		movw	r1, #465
 2108 0160 4748     		ldr	r0, .L73
 2109 0162 FFF7FEFF 		bl	zf_hrtim_assert_handler
 2110 0166 0346     		mov	r3, r0
 2111 0168 002B     		cmp	r3, #0
 2112 016a 03D0     		beq	.L68
 466:libraries/zf_driver/zf_driver_hrtim.c ****         {
 467:libraries/zf_driver/zf_driver_hrtim.c ****             // æ­¤å¤„å¦‚æœæ–­è¨€æŠ¥é”™ é‚£ä¹ˆè¯æ˜å ç©ºæ¯”è¶…è¿‡äº†é™å®šæœ€å¤§å€¼
 468:libraries/zf_driver/zf_driver_hrtim.c ****             return_state = HRTIM_ERROR_DUTY_ILLEGAL;                              // PWM å ç©ºæ¯”å
 2113              		.loc 1 468 26
 2114 016c 2923     		movs	r3, #41
 2115 016e 8DF81F30 		strb	r3, [sp, #31]
 469:libraries/zf_driver/zf_driver_hrtim.c ****             break;
 2116              		.loc 1 469 13
 2117 0172 55E2     		b	.L63
 2118              	.L68:
 470:libraries/zf_driver/zf_driver_hrtim.c ****         }
 471:libraries/zf_driver/zf_driver_hrtim.c **** 
 472:libraries/zf_driver/zf_driver_hrtim.c ****         // å¦‚æœ 100% å ç©ºæ¯” é‚£ä¹ˆè¿™é‡Œå°±æ˜¯ match_temp = period
 473:libraries/zf_driver/zf_driver_hrtim.c ****         // å¦‚æœ 0%   å ç©ºæ¯” é‚£ä¹ˆè¿™é‡Œå°±æ˜¯ match_temp = 0
 474:libraries/zf_driver/zf_driver_hrtim.c ****         // è®¾è®¡æ˜¯ CMP1 åŒ¹é…æ‹‰é«˜ CMP2 åŒ¹é…æ‹‰ä½
 475:libraries/zf_driver/zf_driver_hrtim.c ****         uint16 period_temp = hrtim_obj_list[positive_hrtim_index].period;
 2119              		.loc 1 475 66
 2120 0174 9DF81E20 		ldrb	r2, [sp, #30]	@ zero_extendqisi2
 2121 0178 4249     		ldr	r1, .L73+4
 2122 017a 1346     		mov	r3, r2
 2123 017c DB00     		lsls	r3, r3, #3
 2124 017e 9B1A     		subs	r3, r3, r2
 2125 0180 DB00     		lsls	r3, r3, #3
 2126 0182 0B44     		add	r3, r3, r1
 2127 0184 2C33     		adds	r3, r3, #44
 2128 0186 1B68     		ldr	r3, [r3]
 2129              		.loc 1 475 16
 2130 0188 ADF81830 		strh	r3, [sp, #24]	@ movhi
 476:libraries/zf_driver/zf_driver_hrtim.c ****         if(duty >= HRTIM_DUTY_MAX / 100 * 98)
 2131              		.loc 1 476 11
 2132 018c 019B     		ldr	r3, [sp, #4]
 2133 018e 42F24762 		movw	r2, #9799
 2134 0192 9342     		cmp	r3, r2
 2135 0194 38D9     		bls	.L69
 477:libraries/zf_driver/zf_driver_hrtim.c ****         {
 478:libraries/zf_driver/zf_driver_hrtim.c ****             hrtim_obj_list[positive_hrtim_index].hrtimer_obj->sTimerxRegs[positive_channel_index % 
 2136              		.loc 1 478 124
 2137 0196 BDF81830 		ldrh	r3, [sp, #24]
 2138 019a 5B08     		lsrs	r3, r3, #1
 2139 019c 9CB2     		uxth	r4, r3
 2140              		.loc 1 478 49
 2141 019e 9DF81E20 		ldrb	r2, [sp, #30]	@ zero_extendqisi2
 2142 01a2 3849     		ldr	r1, .L73+4
 2143 01a4 1346     		mov	r3, r2
 2144 01a6 DB00     		lsls	r3, r3, #3
 2145 01a8 9B1A     		subs	r3, r3, r2
 2146 01aa DB00     		lsls	r3, r3, #3
 2147 01ac 0B44     		add	r3, r3, r1
 2148 01ae 1868     		ldr	r0, [r3]
 2149              		.loc 1 478 98
 2150 01b0 9DF81D20 		ldrb	r2, [sp, #29]	@ zero_extendqisi2
 2151 01b4 344B     		ldr	r3, .L73+8
 2152 01b6 A3FB0213 		umull	r1, r3, r3, r2
 2153 01ba 9908     		lsrs	r1, r3, #2
 2154 01bc 0B46     		mov	r3, r1
 2155 01be 5B00     		lsls	r3, r3, #1
 2156 01c0 0B44     		add	r3, r3, r1
 2157 01c2 5B00     		lsls	r3, r3, #1
 2158 01c4 D31A     		subs	r3, r2, r3
 2159 01c6 DBB2     		uxtb	r3, r3
 2160              		.loc 1 478 124
 2161 01c8 2246     		mov	r2, r4
 2162              		.loc 1 478 110
 2163 01ca DB01     		lsls	r3, r3, #7
 2164 01cc 0344     		add	r3, r3, r0
 2165 01ce 9C33     		adds	r3, r3, #156
 2166 01d0 1A60     		str	r2, [r3]
 479:libraries/zf_driver/zf_driver_hrtim.c ****             hrtim_obj_list[positive_hrtim_index].hrtimer_obj->sTimerxRegs[positive_channel_index % 
 2167              		.loc 1 479 49
 2168 01d2 9DF81E20 		ldrb	r2, [sp, #30]	@ zero_extendqisi2
 2169 01d6 2B49     		ldr	r1, .L73+4
 2170 01d8 1346     		mov	r3, r2
 2171 01da DB00     		lsls	r3, r3, #3
 2172 01dc 9B1A     		subs	r3, r3, r2
 2173 01de DB00     		lsls	r3, r3, #3
 2174 01e0 0B44     		add	r3, r3, r1
 2175 01e2 1868     		ldr	r0, [r3]
 2176              		.loc 1 479 98
 2177 01e4 9DF81D20 		ldrb	r2, [sp, #29]	@ zero_extendqisi2
 2178 01e8 274B     		ldr	r3, .L73+8
 2179 01ea A3FB0213 		umull	r1, r3, r3, r2
 2180 01ee 9908     		lsrs	r1, r3, #2
 2181 01f0 0B46     		mov	r3, r1
 2182 01f2 5B00     		lsls	r3, r3, #1
 2183 01f4 0B44     		add	r3, r3, r1
 2184 01f6 5B00     		lsls	r3, r3, #1
 2185 01f8 D31A     		subs	r3, r2, r3
 2186 01fa DBB2     		uxtb	r3, r3
 2187              		.loc 1 479 110
 2188 01fc DB01     		lsls	r3, r3, #7
 2189 01fe 0344     		add	r3, r3, r0
 2190 0200 A433     		adds	r3, r3, #164
 2191 0202 0022     		movs	r2, #0
 2192 0204 1A60     		str	r2, [r3]
 2193 0206 A0E0     		b	.L70
 2194              	.L69:
 480:libraries/zf_driver/zf_driver_hrtim.c ****         }
 481:libraries/zf_driver/zf_driver_hrtim.c ****         else if(duty <= HRTIM_DUTY_MAX / 100 * 2)
 2195              		.loc 1 481 16
 2196 0208 019B     		ldr	r3, [sp, #4]
 2197 020a C82B     		cmp	r3, #200
 2198 020c 40D8     		bhi	.L71
 482:libraries/zf_driver/zf_driver_hrtim.c ****         {
 483:libraries/zf_driver/zf_driver_hrtim.c ****             hrtim_obj_list[positive_hrtim_index].hrtimer_obj->sTimerxRegs[positive_channel_index % 
 2199              		.loc 1 483 49
 2200 020e 9DF81E20 		ldrb	r2, [sp, #30]	@ zero_extendqisi2
 2201 0212 1C49     		ldr	r1, .L73+4
 2202 0214 1346     		mov	r3, r2
 2203 0216 DB00     		lsls	r3, r3, #3
 2204 0218 9B1A     		subs	r3, r3, r2
 2205 021a DB00     		lsls	r3, r3, #3
 2206 021c 0B44     		add	r3, r3, r1
 2207 021e 1868     		ldr	r0, [r3]
 2208              		.loc 1 483 98
 2209 0220 9DF81D20 		ldrb	r2, [sp, #29]	@ zero_extendqisi2
 2210 0224 184B     		ldr	r3, .L73+8
 2211 0226 A3FB0213 		umull	r1, r3, r3, r2
 2212 022a 9908     		lsrs	r1, r3, #2
 2213 022c 0B46     		mov	r3, r1
 2214 022e 5B00     		lsls	r3, r3, #1
 2215 0230 0B44     		add	r3, r3, r1
 2216 0232 5B00     		lsls	r3, r3, #1
 2217 0234 D31A     		subs	r3, r2, r3
 2218 0236 DBB2     		uxtb	r3, r3
 2219              		.loc 1 483 110
 2220 0238 DB01     		lsls	r3, r3, #7
 2221 023a 0344     		add	r3, r3, r0
 2222 023c 9C33     		adds	r3, r3, #156
 2223 023e 0022     		movs	r2, #0
 2224 0240 1A60     		str	r2, [r3]
 484:libraries/zf_driver/zf_driver_hrtim.c ****             hrtim_obj_list[positive_hrtim_index].hrtimer_obj->sTimerxRegs[positive_channel_index % 
 2225              		.loc 1 484 124
 2226 0242 BDF81830 		ldrh	r3, [sp, #24]
 2227 0246 5B08     		lsrs	r3, r3, #1
 2228 0248 9CB2     		uxth	r4, r3
 2229              		.loc 1 484 49
 2230 024a 9DF81E20 		ldrb	r2, [sp, #30]	@ zero_extendqisi2
 2231 024e 0D49     		ldr	r1, .L73+4
 2232 0250 1346     		mov	r3, r2
 2233 0252 DB00     		lsls	r3, r3, #3
 2234 0254 9B1A     		subs	r3, r3, r2
 2235 0256 DB00     		lsls	r3, r3, #3
 2236 0258 0B44     		add	r3, r3, r1
 2237 025a 1868     		ldr	r0, [r3]
 2238              		.loc 1 484 98
 2239 025c 9DF81D20 		ldrb	r2, [sp, #29]	@ zero_extendqisi2
 2240 0260 094B     		ldr	r3, .L73+8
 2241 0262 A3FB0213 		umull	r1, r3, r3, r2
 2242 0266 9908     		lsrs	r1, r3, #2
 2243 0268 0B46     		mov	r3, r1
 2244 026a 5B00     		lsls	r3, r3, #1
 2245 026c 0B44     		add	r3, r3, r1
 2246 026e 5B00     		lsls	r3, r3, #1
 2247 0270 D31A     		subs	r3, r2, r3
 2248 0272 DBB2     		uxtb	r3, r3
 2249              		.loc 1 484 124
 2250 0274 2246     		mov	r2, r4
 2251              		.loc 1 484 110
 2252 0276 DB01     		lsls	r3, r3, #7
 2253 0278 0344     		add	r3, r3, r0
 2254 027a A433     		adds	r3, r3, #164
 2255 027c 1A60     		str	r2, [r3]
 2256 027e 64E0     		b	.L70
 2257              	.L74:
 2258              		.align	2
 2259              	.L73:
 2260 0280 00000000 		.word	.LC0
 2261 0284 00000000 		.word	hrtim_obj_list
 2262 0288 ABAAAAAA 		.word	-1431655765
 2263 028c 00401C46 		.word	1176256512
 2264              	.L71:
 2265              	.LBB13:
 485:libraries/zf_driver/zf_driver_hrtim.c ****         }
 486:libraries/zf_driver/zf_driver_hrtim.c ****         else
 487:libraries/zf_driver/zf_driver_hrtim.c ****         {
 488:libraries/zf_driver/zf_driver_hrtim.c ****             uint16 match_temp  = (uint16)(period_temp / 2 * ((float)duty / HRTIM_DUTY_MAX));
 2266              		.loc 1 488 55
 2267 0290 BDF81830 		ldrh	r3, [sp, #24]
 2268 0294 5B08     		lsrs	r3, r3, #1
 2269 0296 9BB2     		uxth	r3, r3
 2270 0298 07EE903A 		vmov	s15, r3	@ int
 2271              		.loc 1 488 59
 2272 029c B8EEE77A 		vcvt.f32.s32	s14, s15
 2273              		.loc 1 488 62
 2274 02a0 019B     		ldr	r3, [sp, #4]
 2275 02a2 07EE903A 		vmov	s15, r3	@ int
 2276 02a6 F8EE676A 		vcvt.f32.u32	s13, s15
 2277              		.loc 1 488 74
 2278 02aa 1FED086A 		vldr.32	s12, .L73+12
 2279 02ae C6EE867A 		vdiv.f32	s15, s13, s12
 2280              		.loc 1 488 59
 2281 02b2 67EE277A 		vmul.f32	s15, s14, s15
 2282              		.loc 1 488 20
 2283 02b6 FCEEE77A 		vcvt.u32.f32	s15, s15
 2284 02ba 17EE903A 		vmov	r3, s15	@ int
 2285 02be ADF81630 		strh	r3, [sp, #22]	@ movhi
 489:libraries/zf_driver/zf_driver_hrtim.c ****             hrtim_obj_list[positive_hrtim_index].hrtimer_obj->sTimerxRegs[positive_channel_index % 
 2286              		.loc 1 489 125
 2287 02c2 BDF81830 		ldrh	r3, [sp, #24]
 2288 02c6 5B08     		lsrs	r3, r3, #1
 2289 02c8 9BB2     		uxth	r3, r3
 2290 02ca 1A46     		mov	r2, r3
 2291              		.loc 1 489 129
 2292 02cc BDF81630 		ldrh	r3, [sp, #22]
 2293 02d0 D41A     		subs	r4, r2, r3
 2294              		.loc 1 489 49
 2295 02d2 9DF81E20 		ldrb	r2, [sp, #30]	@ zero_extendqisi2
 2296 02d6 D049     		ldr	r1, .L75
 2297 02d8 1346     		mov	r3, r2
 2298 02da DB00     		lsls	r3, r3, #3
 2299 02dc 9B1A     		subs	r3, r3, r2
 2300 02de DB00     		lsls	r3, r3, #3
 2301 02e0 0B44     		add	r3, r3, r1
 2302 02e2 1868     		ldr	r0, [r3]
 2303              		.loc 1 489 98
 2304 02e4 9DF81D20 		ldrb	r2, [sp, #29]	@ zero_extendqisi2
 2305 02e8 CC4B     		ldr	r3, .L75+4
 2306 02ea A3FB0213 		umull	r1, r3, r3, r2
 2307 02ee 9908     		lsrs	r1, r3, #2
 2308 02f0 0B46     		mov	r3, r1
 2309 02f2 5B00     		lsls	r3, r3, #1
 2310 02f4 0B44     		add	r3, r3, r1
 2311 02f6 5B00     		lsls	r3, r3, #1
 2312 02f8 D31A     		subs	r3, r2, r3
 2313 02fa DBB2     		uxtb	r3, r3
 2314              		.loc 1 489 129
 2315 02fc 2246     		mov	r2, r4
 2316              		.loc 1 489 110
 2317 02fe DB01     		lsls	r3, r3, #7
 2318 0300 0344     		add	r3, r3, r0
 2319 0302 9C33     		adds	r3, r3, #156
 2320 0304 1A60     		str	r2, [r3]
 490:libraries/zf_driver/zf_driver_hrtim.c ****             hrtim_obj_list[positive_hrtim_index].hrtimer_obj->sTimerxRegs[positive_channel_index % 
 2321              		.loc 1 490 125
 2322 0306 BDF81830 		ldrh	r3, [sp, #24]
 2323 030a 5B08     		lsrs	r3, r3, #1
 2324 030c 9BB2     		uxth	r3, r3
 2325 030e 1A46     		mov	r2, r3
 2326              		.loc 1 490 129
 2327 0310 BDF81630 		ldrh	r3, [sp, #22]
 2328 0314 D418     		adds	r4, r2, r3
 2329              		.loc 1 490 49
 2330 0316 9DF81E20 		ldrb	r2, [sp, #30]	@ zero_extendqisi2
 2331 031a BF49     		ldr	r1, .L75
 2332 031c 1346     		mov	r3, r2
 2333 031e DB00     		lsls	r3, r3, #3
 2334 0320 9B1A     		subs	r3, r3, r2
 2335 0322 DB00     		lsls	r3, r3, #3
 2336 0324 0B44     		add	r3, r3, r1
 2337 0326 1868     		ldr	r0, [r3]
 2338              		.loc 1 490 98
 2339 0328 9DF81D20 		ldrb	r2, [sp, #29]	@ zero_extendqisi2
 2340 032c BB4B     		ldr	r3, .L75+4
 2341 032e A3FB0213 		umull	r1, r3, r3, r2
 2342 0332 9908     		lsrs	r1, r3, #2
 2343 0334 0B46     		mov	r3, r1
 2344 0336 5B00     		lsls	r3, r3, #1
 2345 0338 0B44     		add	r3, r3, r1
 2346 033a 5B00     		lsls	r3, r3, #1
 2347 033c D31A     		subs	r3, r2, r3
 2348 033e DBB2     		uxtb	r3, r3
 2349              		.loc 1 490 129
 2350 0340 2246     		mov	r2, r4
 2351              		.loc 1 490 110
 2352 0342 DB01     		lsls	r3, r3, #7
 2353 0344 0344     		add	r3, r3, r0
 2354 0346 A433     		adds	r3, r3, #164
 2355 0348 1A60     		str	r2, [r3]
 2356              	.L70:
 2357              	.LBE13:
 491:libraries/zf_driver/zf_driver_hrtim.c ****         }
 492:libraries/zf_driver/zf_driver_hrtim.c **** 
 493:libraries/zf_driver/zf_driver_hrtim.c ****         hrtim_obj_list[positive_hrtim_index].channel_state |= (0x0001 << positive_channel_index);
 2358              		.loc 1 493 60
 2359 034a 9DF81E20 		ldrb	r2, [sp, #30]	@ zero_extendqisi2
 2360 034e B249     		ldr	r1, .L75
 2361 0350 1346     		mov	r3, r2
 2362 0352 DB00     		lsls	r3, r3, #3
 2363 0354 9B1A     		subs	r3, r3, r2
 2364 0356 DB00     		lsls	r3, r3, #3
 2365 0358 0B44     		add	r3, r3, r1
 2366 035a 3033     		adds	r3, r3, #48
 2367 035c 1B88     		ldrh	r3, [r3]	@ movhi
 2368 035e C3F30B03 		ubfx	r3, r3, #0, #12
 2369 0362 9BB2     		uxth	r3, r3
 2370 0364 1AB2     		sxth	r2, r3
 2371              		.loc 1 493 71
 2372 0366 9DF81D30 		ldrb	r3, [sp, #29]	@ zero_extendqisi2
 2373 036a 0121     		movs	r1, #1
 2374 036c 01FA03F3 		lsl	r3, r1, r3
 2375              		.loc 1 493 60
 2376 0370 1BB2     		sxth	r3, r3
 2377 0372 1343     		orrs	r3, r3, r2
 2378 0374 1BB2     		sxth	r3, r3
 2379 0376 9DF81E20 		ldrb	r2, [sp, #30]	@ zero_extendqisi2
 2380 037a C3F30B03 		ubfx	r3, r3, #0, #12
 2381 037e 99B2     		uxth	r1, r3
 2382 0380 A548     		ldr	r0, .L75
 2383 0382 1346     		mov	r3, r2
 2384 0384 DB00     		lsls	r3, r3, #3
 2385 0386 9B1A     		subs	r3, r3, r2
 2386 0388 DB00     		lsls	r3, r3, #3
 2387 038a 0344     		add	r3, r3, r0
 2388 038c 03F13002 		add	r2, r3, #48
 2389 0390 1388     		ldrh	r3, [r2]	@ movhi
 2390 0392 61F30B03 		bfi	r3, r1, #0, #12
 2391 0396 1380     		strh	r3, [r2]	@ movhi
 494:libraries/zf_driver/zf_driver_hrtim.c ****         hrtim_obj_list[positive_hrtim_index].channel_state |= (0x0001 << negative_channel_index);
 2392              		.loc 1 494 60
 2393 0398 9DF81E20 		ldrb	r2, [sp, #30]	@ zero_extendqisi2
 2394 039c 9E49     		ldr	r1, .L75
 2395 039e 1346     		mov	r3, r2
 2396 03a0 DB00     		lsls	r3, r3, #3
 2397 03a2 9B1A     		subs	r3, r3, r2
 2398 03a4 DB00     		lsls	r3, r3, #3
 2399 03a6 0B44     		add	r3, r3, r1
 2400 03a8 3033     		adds	r3, r3, #48
 2401 03aa 1B88     		ldrh	r3, [r3]	@ movhi
 2402 03ac C3F30B03 		ubfx	r3, r3, #0, #12
 2403 03b0 9BB2     		uxth	r3, r3
 2404 03b2 1AB2     		sxth	r2, r3
 2405              		.loc 1 494 71
 2406 03b4 9DF81B30 		ldrb	r3, [sp, #27]	@ zero_extendqisi2
 2407 03b8 0121     		movs	r1, #1
 2408 03ba 01FA03F3 		lsl	r3, r1, r3
 2409              		.loc 1 494 60
 2410 03be 1BB2     		sxth	r3, r3
 2411 03c0 1343     		orrs	r3, r3, r2
 2412 03c2 1BB2     		sxth	r3, r3
 2413 03c4 9DF81E20 		ldrb	r2, [sp, #30]	@ zero_extendqisi2
 2414 03c8 C3F30B03 		ubfx	r3, r3, #0, #12
 2415 03cc 99B2     		uxth	r1, r3
 2416 03ce 9248     		ldr	r0, .L75
 2417 03d0 1346     		mov	r3, r2
 2418 03d2 DB00     		lsls	r3, r3, #3
 2419 03d4 9B1A     		subs	r3, r3, r2
 2420 03d6 DB00     		lsls	r3, r3, #3
 2421 03d8 0344     		add	r3, r3, r0
 2422 03da 03F13002 		add	r2, r3, #48
 2423 03de 1388     		ldrh	r3, [r2]	@ movhi
 2424 03e0 61F30B03 		bfi	r3, r1, #0, #12
 2425 03e4 1380     		strh	r3, [r2]	@ movhi
 495:libraries/zf_driver/zf_driver_hrtim.c ****         hrtim_obj_list[positive_hrtim_index].pin_list[positive_channel_index] = (zf_gpio_pin_enum)(
 2426              		.loc 1 495 81
 2427 03e6 039B     		ldr	r3, [sp, #12]
 2428 03e8 9BB2     		uxth	r3, r3
 2429              		.loc 1 495 54
 2430 03ea 9DF81E20 		ldrb	r2, [sp, #30]	@ zero_extendqisi2
 2431 03ee 9DF81D10 		ldrb	r1, [sp, #29]	@ zero_extendqisi2
 2432              		.loc 1 495 113
 2433 03f2 C3F30B03 		ubfx	r3, r3, #0, #12
 2434 03f6 9CB2     		uxth	r4, r3
 2435              		.loc 1 495 79
 2436 03f8 8748     		ldr	r0, .L75
 2437 03fa 1346     		mov	r3, r2
 2438 03fc DB00     		lsls	r3, r3, #3
 2439 03fe 9B1A     		subs	r3, r3, r2
 2440 0400 9B00     		lsls	r3, r3, #2
 2441 0402 0B44     		add	r3, r3, r1
 2442 0404 5B00     		lsls	r3, r3, #1
 2443 0406 0344     		add	r3, r3, r0
 2444 0408 2246     		mov	r2, r4	@ movhi
 2445 040a 9A80     		strh	r2, [r3, #4]	@ movhi
 496:libraries/zf_driver/zf_driver_hrtim.c ****         hrtim_obj_list[positive_hrtim_index].pin_list[negative_channel_index] = (zf_gpio_pin_enum)(
 2446              		.loc 1 496 81
 2447 040c 029B     		ldr	r3, [sp, #8]
 2448 040e 9BB2     		uxth	r3, r3
 2449              		.loc 1 496 54
 2450 0410 9DF81E20 		ldrb	r2, [sp, #30]	@ zero_extendqisi2
 2451 0414 9DF81B10 		ldrb	r1, [sp, #27]	@ zero_extendqisi2
 2452              		.loc 1 496 113
 2453 0418 C3F30B03 		ubfx	r3, r3, #0, #12
 2454 041c 9CB2     		uxth	r4, r3
 2455              		.loc 1 496 79
 2456 041e 7E48     		ldr	r0, .L75
 2457 0420 1346     		mov	r3, r2
 2458 0422 DB00     		lsls	r3, r3, #3
 2459 0424 9B1A     		subs	r3, r3, r2
 2460 0426 9B00     		lsls	r3, r3, #2
 2461 0428 0B44     		add	r3, r3, r1
 2462 042a 5B00     		lsls	r3, r3, #1
 2463 042c 0344     		add	r3, r3, r0
 2464 042e 2246     		mov	r2, r4	@ movhi
 2465 0430 9A80     		strh	r2, [r3, #4]	@ movhi
 497:libraries/zf_driver/zf_driver_hrtim.c ****         zf_afio_init(
 2466              		.loc 1 497 9
 2467 0432 039B     		ldr	r3, [sp, #12]
 2468 0434 9BB2     		uxth	r3, r3
 498:libraries/zf_driver/zf_driver_hrtim.c ****             (zf_gpio_pin_enum)(positive_pin & HRTIM_PWM_PIN_INDEX_MASK),
 2469              		.loc 1 498 45
 2470 0436 C3F30B03 		ubfx	r3, r3, #0, #12
 2471 043a 98B2     		uxth	r0, r3
 499:libraries/zf_driver/zf_driver_hrtim.c ****             GPO_AF_PUSH_PULL,
 500:libraries/zf_driver/zf_driver_hrtim.c ****             (zf_gpio_af_enum)((positive_pin >> HRTIM_PWM_PIN_AF_OFFSET) & HRTIM_PWM_PIN_AF_MASK));
 2472              		.loc 1 500 45
 2473 043c 039B     		ldr	r3, [sp, #12]
 2474 043e 1B0B     		lsrs	r3, r3, #12
 497:libraries/zf_driver/zf_driver_hrtim.c ****             (zf_gpio_pin_enum)(positive_pin & HRTIM_PWM_PIN_INDEX_MASK),
 2475              		.loc 1 497 9
 2476 0440 DBB2     		uxtb	r3, r3
 2477              		.loc 1 500 73
 2478 0442 03F00F03 		and	r3, r3, #15
 2479 0446 DBB2     		uxtb	r3, r3
 497:libraries/zf_driver/zf_driver_hrtim.c ****             (zf_gpio_pin_enum)(positive_pin & HRTIM_PWM_PIN_INDEX_MASK),
 2480              		.loc 1 497 9
 2481 0448 1A46     		mov	r2, r3
 2482 044a 1221     		movs	r1, #18
 2483 044c FFF7FEFF 		bl	zf_afio_init
 501:libraries/zf_driver/zf_driver_hrtim.c ****         zf_afio_init(
 2484              		.loc 1 501 9
 2485 0450 029B     		ldr	r3, [sp, #8]
 2486 0452 9BB2     		uxth	r3, r3
 502:libraries/zf_driver/zf_driver_hrtim.c ****             (zf_gpio_pin_enum)(negative_pin & HRTIM_PWM_PIN_INDEX_MASK),
 2487              		.loc 1 502 45
 2488 0454 C3F30B03 		ubfx	r3, r3, #0, #12
 2489 0458 98B2     		uxth	r0, r3
 503:libraries/zf_driver/zf_driver_hrtim.c ****             GPO_AF_PUSH_PULL,
 504:libraries/zf_driver/zf_driver_hrtim.c ****             (zf_gpio_af_enum)((negative_pin >> HRTIM_PWM_PIN_AF_OFFSET) & HRTIM_PWM_PIN_AF_MASK));
 2490              		.loc 1 504 45
 2491 045a 029B     		ldr	r3, [sp, #8]
 2492 045c 1B0B     		lsrs	r3, r3, #12
 501:libraries/zf_driver/zf_driver_hrtim.c ****             (zf_gpio_pin_enum)(negative_pin & HRTIM_PWM_PIN_INDEX_MASK),
 2493              		.loc 1 501 9
 2494 045e DBB2     		uxtb	r3, r3
 2495              		.loc 1 504 73
 2496 0460 03F00F03 		and	r3, r3, #15
 2497 0464 DBB2     		uxtb	r3, r3
 501:libraries/zf_driver/zf_driver_hrtim.c ****             (zf_gpio_pin_enum)(negative_pin & HRTIM_PWM_PIN_INDEX_MASK),
 2498              		.loc 1 501 9
 2499 0466 1A46     		mov	r2, r3
 2500 0468 1221     		movs	r1, #18
 2501 046a FFF7FEFF 		bl	zf_afio_init
 505:libraries/zf_driver/zf_driver_hrtim.c **** 
 506:libraries/zf_driver/zf_driver_hrtim.c ****         hrtim_obj_list[positive_hrtim_index].hrtimer_obj->sTimerxRegs[positive_channel_index % 6].S
 2502              		.loc 1 506 45
 2503 046e 9DF81E20 		ldrb	r2, [sp, #30]	@ zero_extendqisi2
 2504 0472 6949     		ldr	r1, .L75
 2505 0474 1346     		mov	r3, r2
 2506 0476 DB00     		lsls	r3, r3, #3
 2507 0478 9B1A     		subs	r3, r3, r2
 2508 047a DB00     		lsls	r3, r3, #3
 2509 047c 0B44     		add	r3, r3, r1
 2510 047e 1868     		ldr	r0, [r3]
 2511              		.loc 1 506 106
 2512 0480 9DF81D20 		ldrb	r2, [sp, #29]	@ zero_extendqisi2
 2513 0484 654B     		ldr	r3, .L75+4
 2514 0486 A3FB0213 		umull	r1, r3, r3, r2
 2515 048a 9908     		lsrs	r1, r3, #2
 2516 048c 0B46     		mov	r3, r1
 2517 048e 5B00     		lsls	r3, r3, #1
 2518 0490 0B44     		add	r3, r3, r1
 2519 0492 5B00     		lsls	r3, r3, #1
 2520 0494 D31A     		subs	r3, r2, r3
 2521 0496 DCB2     		uxtb	r4, r3
 2522 0498 2346     		mov	r3, r4
 2523 049a DB01     		lsls	r3, r3, #7
 2524 049c 0344     		add	r3, r3, r0
 2525 049e BC33     		adds	r3, r3, #188
 2526 04a0 1868     		ldr	r0, [r3]
 2527              		.loc 1 506 45
 2528 04a2 9DF81E20 		ldrb	r2, [sp, #30]	@ zero_extendqisi2
 2529 04a6 5C49     		ldr	r1, .L75
 2530 04a8 1346     		mov	r3, r2
 2531 04aa DB00     		lsls	r3, r3, #3
 2532 04ac 9B1A     		subs	r3, r3, r2
 2533 04ae DB00     		lsls	r3, r3, #3
 2534 04b0 0B44     		add	r3, r3, r1
 2535 04b2 1968     		ldr	r1, [r3]
 2536              		.loc 1 506 106
 2537 04b4 2346     		mov	r3, r4
 2538 04b6 40F00802 		orr	r2, r0, #8
 2539 04ba DB01     		lsls	r3, r3, #7
 2540 04bc 0B44     		add	r3, r3, r1
 2541 04be BC33     		adds	r3, r3, #188
 2542 04c0 1A60     		str	r2, [r3]
 507:libraries/zf_driver/zf_driver_hrtim.c ****         hrtim_obj_list[positive_hrtim_index].hrtimer_obj->sTimerxRegs[positive_channel_index % 6].R
 2543              		.loc 1 507 45
 2544 04c2 9DF81E20 		ldrb	r2, [sp, #30]	@ zero_extendqisi2
 2545 04c6 5449     		ldr	r1, .L75
 2546 04c8 1346     		mov	r3, r2
 2547 04ca DB00     		lsls	r3, r3, #3
 2548 04cc 9B1A     		subs	r3, r3, r2
 2549 04ce DB00     		lsls	r3, r3, #3
 2550 04d0 0B44     		add	r3, r3, r1
 2551 04d2 1868     		ldr	r0, [r3]
 2552              		.loc 1 507 106
 2553 04d4 9DF81D20 		ldrb	r2, [sp, #29]	@ zero_extendqisi2
 2554 04d8 504B     		ldr	r3, .L75+4
 2555 04da A3FB0213 		umull	r1, r3, r3, r2
 2556 04de 9908     		lsrs	r1, r3, #2
 2557 04e0 0B46     		mov	r3, r1
 2558 04e2 5B00     		lsls	r3, r3, #1
 2559 04e4 0B44     		add	r3, r3, r1
 2560 04e6 5B00     		lsls	r3, r3, #1
 2561 04e8 D31A     		subs	r3, r2, r3
 2562 04ea DCB2     		uxtb	r4, r3
 2563 04ec 2346     		mov	r3, r4
 2564 04ee DB01     		lsls	r3, r3, #7
 2565 04f0 0344     		add	r3, r3, r0
 2566 04f2 C033     		adds	r3, r3, #192
 2567 04f4 1868     		ldr	r0, [r3]
 2568              		.loc 1 507 45
 2569 04f6 9DF81E20 		ldrb	r2, [sp, #30]	@ zero_extendqisi2
 2570 04fa 4749     		ldr	r1, .L75
 2571 04fc 1346     		mov	r3, r2
 2572 04fe DB00     		lsls	r3, r3, #3
 2573 0500 9B1A     		subs	r3, r3, r2
 2574 0502 DB00     		lsls	r3, r3, #3
 2575 0504 0B44     		add	r3, r3, r1
 2576 0506 1968     		ldr	r1, [r3]
 2577              		.loc 1 507 106
 2578 0508 2346     		mov	r3, r4
 2579 050a 40F01002 		orr	r2, r0, #16
 2580 050e DB01     		lsls	r3, r3, #7
 2581 0510 0B44     		add	r3, r3, r1
 2582 0512 C033     		adds	r3, r3, #192
 2583 0514 1A60     		str	r2, [r3]
 508:libraries/zf_driver/zf_driver_hrtim.c ****         hrtim_obj_list[positive_hrtim_index].hrtimer_obj->sTimerxRegs[negative_channel_index % 6].S
 2584              		.loc 1 508 45
 2585 0516 9DF81E20 		ldrb	r2, [sp, #30]	@ zero_extendqisi2
 2586 051a 3F49     		ldr	r1, .L75
 2587 051c 1346     		mov	r3, r2
 2588 051e DB00     		lsls	r3, r3, #3
 2589 0520 9B1A     		subs	r3, r3, r2
 2590 0522 DB00     		lsls	r3, r3, #3
 2591 0524 0B44     		add	r3, r3, r1
 2592 0526 1868     		ldr	r0, [r3]
 2593              		.loc 1 508 106
 2594 0528 9DF81B20 		ldrb	r2, [sp, #27]	@ zero_extendqisi2
 2595 052c 3B4B     		ldr	r3, .L75+4
 2596 052e A3FB0213 		umull	r1, r3, r3, r2
 2597 0532 9908     		lsrs	r1, r3, #2
 2598 0534 0B46     		mov	r3, r1
 2599 0536 5B00     		lsls	r3, r3, #1
 2600 0538 0B44     		add	r3, r3, r1
 2601 053a 5B00     		lsls	r3, r3, #1
 2602 053c D31A     		subs	r3, r2, r3
 2603 053e DCB2     		uxtb	r4, r3
 2604 0540 2346     		mov	r3, r4
 2605 0542 DB01     		lsls	r3, r3, #7
 2606 0544 0344     		add	r3, r3, r0
 2607 0546 C433     		adds	r3, r3, #196
 2608 0548 1868     		ldr	r0, [r3]
 2609              		.loc 1 508 45
 2610 054a 9DF81E20 		ldrb	r2, [sp, #30]	@ zero_extendqisi2
 2611 054e 3249     		ldr	r1, .L75
 2612 0550 1346     		mov	r3, r2
 2613 0552 DB00     		lsls	r3, r3, #3
 2614 0554 9B1A     		subs	r3, r3, r2
 2615 0556 DB00     		lsls	r3, r3, #3
 2616 0558 0B44     		add	r3, r3, r1
 2617 055a 1968     		ldr	r1, [r3]
 2618              		.loc 1 508 106
 2619 055c 2346     		mov	r3, r4
 2620 055e 40F01002 		orr	r2, r0, #16
 2621 0562 DB01     		lsls	r3, r3, #7
 2622 0564 0B44     		add	r3, r3, r1
 2623 0566 C433     		adds	r3, r3, #196
 2624 0568 1A60     		str	r2, [r3]
 509:libraries/zf_driver/zf_driver_hrtim.c ****         hrtim_obj_list[positive_hrtim_index].hrtimer_obj->sTimerxRegs[negative_channel_index % 6].R
 2625              		.loc 1 509 45
 2626 056a 9DF81E20 		ldrb	r2, [sp, #30]	@ zero_extendqisi2
 2627 056e 2A49     		ldr	r1, .L75
 2628 0570 1346     		mov	r3, r2
 2629 0572 DB00     		lsls	r3, r3, #3
 2630 0574 9B1A     		subs	r3, r3, r2
 2631 0576 DB00     		lsls	r3, r3, #3
 2632 0578 0B44     		add	r3, r3, r1
 2633 057a 1868     		ldr	r0, [r3]
 2634              		.loc 1 509 106
 2635 057c 9DF81B20 		ldrb	r2, [sp, #27]	@ zero_extendqisi2
 2636 0580 264B     		ldr	r3, .L75+4
 2637 0582 A3FB0213 		umull	r1, r3, r3, r2
 2638 0586 9908     		lsrs	r1, r3, #2
 2639 0588 0B46     		mov	r3, r1
 2640 058a 5B00     		lsls	r3, r3, #1
 2641 058c 0B44     		add	r3, r3, r1
 2642 058e 5B00     		lsls	r3, r3, #1
 2643 0590 D31A     		subs	r3, r2, r3
 2644 0592 DCB2     		uxtb	r4, r3
 2645 0594 2346     		mov	r3, r4
 2646 0596 DB01     		lsls	r3, r3, #7
 2647 0598 0344     		add	r3, r3, r0
 2648 059a C833     		adds	r3, r3, #200
 2649 059c 1868     		ldr	r0, [r3]
 2650              		.loc 1 509 45
 2651 059e 9DF81E20 		ldrb	r2, [sp, #30]	@ zero_extendqisi2
 2652 05a2 1D49     		ldr	r1, .L75
 2653 05a4 1346     		mov	r3, r2
 2654 05a6 DB00     		lsls	r3, r3, #3
 2655 05a8 9B1A     		subs	r3, r3, r2
 2656 05aa DB00     		lsls	r3, r3, #3
 2657 05ac 0B44     		add	r3, r3, r1
 2658 05ae 1968     		ldr	r1, [r3]
 2659              		.loc 1 509 106
 2660 05b0 2346     		mov	r3, r4
 2661 05b2 40F00802 		orr	r2, r0, #8
 2662 05b6 DB01     		lsls	r3, r3, #7
 2663 05b8 0B44     		add	r3, r3, r1
 2664 05ba C833     		adds	r3, r3, #200
 2665 05bc 1A60     		str	r2, [r3]
 510:libraries/zf_driver/zf_driver_hrtim.c ****         hrtim_obj_list[positive_hrtim_index].hrtimer_obj->sCommonRegs.OENR |= (0x00000003 << ((posi
 2666              		.loc 1 510 45
 2667 05be 9DF81E20 		ldrb	r2, [sp, #30]	@ zero_extendqisi2
 2668 05c2 1549     		ldr	r1, .L75
 2669 05c4 1346     		mov	r3, r2
 2670 05c6 DB00     		lsls	r3, r3, #3
 2671 05c8 9B1A     		subs	r3, r3, r2
 2672 05ca DB00     		lsls	r3, r3, #3
 2673 05cc 0B44     		add	r3, r3, r1
 2674 05ce 1B68     		ldr	r3, [r3]
 2675              		.loc 1 510 76
 2676 05d0 D3F89403 		ldr	r0, [r3, #916]
 2677              		.loc 1 510 119
 2678 05d4 9DF81D20 		ldrb	r2, [sp, #29]	@ zero_extendqisi2
 2679 05d8 104B     		ldr	r3, .L75+4
 2680 05da A3FB0213 		umull	r1, r3, r3, r2
 2681 05de 9908     		lsrs	r1, r3, #2
 2682 05e0 0B46     		mov	r3, r1
 2683 05e2 5B00     		lsls	r3, r3, #1
 2684 05e4 0B44     		add	r3, r3, r1
 2685 05e6 5B00     		lsls	r3, r3, #1
 2686 05e8 D31A     		subs	r3, r2, r3
 2687 05ea DBB2     		uxtb	r3, r3
 2688              		.loc 1 510 124
 2689 05ec 5B00     		lsls	r3, r3, #1
 2690              		.loc 1 510 91
 2691 05ee 0322     		movs	r2, #3
 2692 05f0 02FA03F3 		lsl	r3, r2, r3
 2693 05f4 1C46     		mov	r4, r3
 2694              		.loc 1 510 45
 2695 05f6 9DF81E20 		ldrb	r2, [sp, #30]	@ zero_extendqisi2
 2696 05fa 0749     		ldr	r1, .L75
 2697 05fc 1346     		mov	r3, r2
 2698 05fe DB00     		lsls	r3, r3, #3
 2699 0600 9B1A     		subs	r3, r3, r2
 2700 0602 DB00     		lsls	r3, r3, #3
 2701 0604 0B44     		add	r3, r3, r1
 2702 0606 1B68     		ldr	r3, [r3]
 2703              		.loc 1 510 76
 2704 0608 40EA0402 		orr	r2, r0, r4
 2705 060c C3F89423 		str	r2, [r3, #916]
 511:libraries/zf_driver/zf_driver_hrtim.c **** 
 512:libraries/zf_driver/zf_driver_hrtim.c ****         return_state = HRTIM_OPERATION_DONE;
 2706              		.loc 1 512 22
 2707 0610 0023     		movs	r3, #0
 2708 0612 8DF81F30 		strb	r3, [sp, #31]
 2709 0616 03E0     		b	.L76
 2710              	.L77:
 2711              		.align	2
 2712              	.L75:
 2713 0618 00000000 		.word	hrtim_obj_list
 2714 061c ABAAAAAA 		.word	-1431655765
 2715              	.L76:
 2716              	.L63:
 2717              	.LBE12:
 513:libraries/zf_driver/zf_driver_hrtim.c ****     }while(0);
 514:libraries/zf_driver/zf_driver_hrtim.c **** 
 515:libraries/zf_driver/zf_driver_hrtim.c ****     return return_state;
 2718              		.loc 1 515 12
 2719 0620 9DF81F30 		ldrb	r3, [sp, #31]	@ zero_extendqisi2
 516:libraries/zf_driver/zf_driver_hrtim.c **** }
 2720              		.loc 1 516 1
 2721 0624 1846     		mov	r0, r3
 2722 0626 08B0     		add	sp, sp, #32
 2723              		.cfi_def_cfa_offset 8
 2724              		@ sp needed
 2725 0628 10BD     		pop	{r4, pc}
 2726              		.cfi_endproc
 2727              	.LFE186:
 2729 062a 00BF     		.section	.text.zf_hrtim_channel_init,"ax",%progbits
 2730              		.align	1
 2731              		.p2align 4,,15
 2732              		.global	zf_hrtim_channel_init
 2733              		.syntax unified
 2734              		.thumb
 2735              		.thumb_func
 2737              	zf_hrtim_channel_init:
 2738              	.LFB187:
 517:libraries/zf_driver/zf_driver_hrtim.c **** 
 518:libraries/zf_driver/zf_driver_hrtim.c **** //-------------------------------------------------------------------------------------------------
 519:libraries/zf_driver/zf_driver_hrtim.c **** // å‡½æ•°ç®€ä»‹     HRTIM é€šé“åˆå§‹åŒ–
 520:libraries/zf_driver/zf_driver_hrtim.c **** // å‚æ•°è¯´æ˜     pin                 é€‰æ‹© HRTIM PWM å¼•è„š (è¯¦è§ zf_driver_hrtim.h å†… zf_hr
 521:libraries/zf_driver/zf_driver_hrtim.c **** // å‚æ•°è¯´æ˜     duty                è®¾ç½®å ç©ºæ¯”
 522:libraries/zf_driver/zf_driver_hrtim.c **** // è¿”å›å‚æ•°     uint8               æ“ä½œçŠ¶æ€ ZF_NO_ERROR / ENCODER_OPERATION_DONE - å®Œæˆ 
 523:libraries/zf_driver/zf_driver_hrtim.c **** // ä½¿ç”¨ç¤ºä¾‹     zf_hrtim_channel_init(pin, duty);
 524:libraries/zf_driver/zf_driver_hrtim.c **** // å¤‡æ³¨ä¿¡æ¯     å¿…é¡»å…ˆè°ƒç”¨ zf_hrtim_module_init å…ˆåˆå§‹åŒ–æ¨¡å—
 525:libraries/zf_driver/zf_driver_hrtim.c **** //-------------------------------------------------------------------------------------------------
 526:libraries/zf_driver/zf_driver_hrtim.c **** uint8 zf_hrtim_channel_init (zf_hrtim_pwm_positive_channel_enum pin, const uint32 duty)
 527:libraries/zf_driver/zf_driver_hrtim.c **** {
 2739              		.loc 1 527 1
 2740              		.cfi_startproc
 2741              		@ args = 0, pretend = 0, frame = 16
 2742              		@ frame_needed = 0, uses_anonymous_args = 0
 2743 0000 10B5     		push	{r4, lr}
 2744              		.cfi_def_cfa_offset 8
 2745              		.cfi_offset 4, -8
 2746              		.cfi_offset 14, -4
 2747 0002 84B0     		sub	sp, sp, #16
 2748              		.cfi_def_cfa_offset 24
 2749 0004 0190     		str	r0, [sp, #4]
 2750 0006 0091     		str	r1, [sp]
 528:libraries/zf_driver/zf_driver_hrtim.c ****     zf_hrtim_operation_state_enum return_state = HRTIM_ERROR_UNKNOW;
 2751              		.loc 1 528 35
 2752 0008 0123     		movs	r3, #1
 2753 000a 8DF80F30 		strb	r3, [sp, #15]
 2754              	.LBB14:
 529:libraries/zf_driver/zf_driver_hrtim.c **** 
 530:libraries/zf_driver/zf_driver_hrtim.c ****     do
 531:libraries/zf_driver/zf_driver_hrtim.c ****     {
 532:libraries/zf_driver/zf_driver_hrtim.c ****         zf_hrtim_index_enum             hrtim_index     = (zf_hrtim_index_enum)((pin >> HRTIM_PWM_I
 2755              		.loc 1 532 86
 2756 000e 019B     		ldr	r3, [sp, #4]
 2757 0010 1B0C     		lsrs	r3, r3, #16
 2758              		.loc 1 532 59
 2759 0012 DBB2     		uxtb	r3, r3
 2760              		.loc 1 532 41
 2761 0014 03F00F03 		and	r3, r3, #15
 2762 0018 8DF80E30 		strb	r3, [sp, #14]
 533:libraries/zf_driver/zf_driver_hrtim.c ****         zf_hrtim_pwm_channel_index_enum channel_index   = (zf_hrtim_pwm_channel_index_enum)((pin >>
 2763              		.loc 1 533 98
 2764 001c 019B     		ldr	r3, [sp, #4]
 2765 001e 1B0D     		lsrs	r3, r3, #20
 2766              		.loc 1 533 59
 2767 0020 DBB2     		uxtb	r3, r3
 2768              		.loc 1 533 41
 2769 0022 03F00F03 		and	r3, r3, #15
 2770 0026 8DF80D30 		strb	r3, [sp, #13]
 534:libraries/zf_driver/zf_driver_hrtim.c **** 
 535:libraries/zf_driver/zf_driver_hrtim.c ****         if(zf_hrtim_assert(hrtim_obj_list[hrtim_index].freq))
 2771              		.loc 1 535 12
 2772 002a 9DF80E20 		ldrb	r2, [sp, #14]	@ zero_extendqisi2
 2773 002e 6849     		ldr	r1, .L87
 2774 0030 1346     		mov	r3, r2
 2775 0032 DB00     		lsls	r3, r3, #3
 2776 0034 9B1A     		subs	r3, r3, r2
 2777 0036 DB00     		lsls	r3, r3, #3
 2778 0038 0B44     		add	r3, r3, r1
 2779 003a 2833     		adds	r3, r3, #40
 2780 003c 1B68     		ldr	r3, [r3]
 2781              		.loc 1 535 11
 2782 003e 002B     		cmp	r3, #0
 2783 0040 0CD1     		bne	.L79
 2784              		.loc 1 535 12 discriminator 1
 2785 0042 0022     		movs	r2, #0
 2786 0044 40F21721 		movw	r1, #535
 2787 0048 6248     		ldr	r0, .L87+4
 2788 004a FFF7FEFF 		bl	zf_hrtim_assert_handler
 2789 004e 0346     		mov	r3, r0
 2790 0050 002B     		cmp	r3, #0
 2791 0052 03D0     		beq	.L79
 536:libraries/zf_driver/zf_driver_hrtim.c ****         {
 537:libraries/zf_driver/zf_driver_hrtim.c ****             // æ­¤å¤„å¦‚æœæ–­è¨€æŠ¥é”™ é‚£ä¹ˆè¯æ˜æœ¬æ¨¡å—æ²¡æœ‰åˆå§‹åŒ–è¿‡ æ˜¯ä¸å…è®¸ç›´æ¥æ
 538:libraries/zf_driver/zf_driver_hrtim.c ****             // æœªåˆå§‹åŒ–æ¨¡å—å¾ˆå¯èƒ½æ²¡æœ‰å¼€å¯æ¨¡å—æ—¶é’Ÿæˆ–è€…æ²¡æœ‰ä½¿èƒ½æ¨¡å—
 539:libraries/zf_driver/zf_driver_hrtim.c ****             // å¯¹äºéƒ¨åˆ†å•ç‰‡æœºæ²¡æœ‰ä½¿èƒ½æ¨¡å—ç›´æ¥æ“ä½œä¼šå¯¼è‡´æ€»çº¿å¼‚å¸¸æˆ–è€…ç¡¬ä»¶
 540:libraries/zf_driver/zf_driver_hrtim.c ****             return_state = HRTIM_ERROR_MODULE_NOT_INIT;
 2792              		.loc 1 540 26
 2793 0054 2123     		movs	r3, #33
 2794 0056 8DF80F30 		strb	r3, [sp, #15]
 541:libraries/zf_driver/zf_driver_hrtim.c ****             break;
 2795              		.loc 1 541 13
 2796 005a E7E1     		b	.L80
 2797              	.L79:
 542:libraries/zf_driver/zf_driver_hrtim.c ****         }
 543:libraries/zf_driver/zf_driver_hrtim.c ****         if(zf_hrtim_assert(
 2798              		.loc 1 543 12
 2799 005c 9DF80E20 		ldrb	r2, [sp, #14]	@ zero_extendqisi2
 2800 0060 5B49     		ldr	r1, .L87
 2801 0062 1346     		mov	r3, r2
 2802 0064 DB00     		lsls	r3, r3, #3
 2803 0066 9B1A     		subs	r3, r3, r2
 2804 0068 DB00     		lsls	r3, r3, #3
 2805 006a 0B44     		add	r3, r3, r1
 2806 006c 3033     		adds	r3, r3, #48
 2807 006e 1B88     		ldrh	r3, [r3]	@ movhi
 2808 0070 C3F30B03 		ubfx	r3, r3, #0, #12
 2809 0074 9BB2     		uxth	r3, r3
 2810 0076 1A46     		mov	r2, r3
 2811 0078 9DF80D30 		ldrb	r3, [sp, #13]	@ zero_extendqisi2
 2812 007c 42FA03F3 		asr	r3, r2, r3
 2813 0080 03F00103 		and	r3, r3, #1
 2814              		.loc 1 543 11
 2815 0084 002B     		cmp	r3, #0
 2816 0086 0BD0     		beq	.L81
 2817              		.loc 1 543 12 discriminator 1
 2818 0088 0022     		movs	r2, #0
 2819 008a 40F21F21 		movw	r1, #543
 2820 008e 5148     		ldr	r0, .L87+4
 2821 0090 FFF7FEFF 		bl	zf_hrtim_assert_handler
 2822 0094 0346     		mov	r3, r0
 2823 0096 002B     		cmp	r3, #0
 2824 0098 02D0     		beq	.L81
 544:libraries/zf_driver/zf_driver_hrtim.c ****             !(      hrtim_obj_list[hrtim_index].channel_state
 545:libraries/zf_driver/zf_driver_hrtim.c ****                 &   (0x0001 << channel_index))))
 546:libraries/zf_driver/zf_driver_hrtim.c ****         {
 547:libraries/zf_driver/zf_driver_hrtim.c ****             // æ­¤å¤„å¦‚æœæ–­è¨€æŠ¥é”™ é‚£ä¹ˆè¯æ˜å¼•è„šæ‰€åœ¨é€šé“å·²ç»è¢«åˆå§‹åŒ–è¿‡ ä¸èƒ½é
 548:libraries/zf_driver/zf_driver_hrtim.c ****             return_state = HRTIM_ERROR_CHANNEL_OCCUPIED;
 2825              		.loc 1 548 26
 2826 009a 2223     		movs	r3, #34
 2827 009c 8DF80F30 		strb	r3, [sp, #15]
 2828              	.L81:
 549:libraries/zf_driver/zf_driver_hrtim.c ****         }
 550:libraries/zf_driver/zf_driver_hrtim.c ****         if(zf_hrtim_assert(HRTIM_DUTY_MAX >= duty))
 2829              		.loc 1 550 11
 2830 00a0 009B     		ldr	r3, [sp]
 2831 00a2 42F21072 		movw	r2, #10000
 2832 00a6 9342     		cmp	r3, r2
 2833 00a8 0CD9     		bls	.L82
 2834              		.loc 1 550 12 discriminator 1
 2835 00aa 0022     		movs	r2, #0
 2836 00ac 40F22621 		movw	r1, #550
 2837 00b0 4848     		ldr	r0, .L87+4
 2838 00b2 FFF7FEFF 		bl	zf_hrtim_assert_handler
 2839 00b6 0346     		mov	r3, r0
 2840 00b8 002B     		cmp	r3, #0
 2841 00ba 03D0     		beq	.L82
 551:libraries/zf_driver/zf_driver_hrtim.c ****         {
 552:libraries/zf_driver/zf_driver_hrtim.c ****             // æ­¤å¤„å¦‚æœæ–­è¨€æŠ¥é”™ é‚£ä¹ˆè¯æ˜å ç©ºæ¯”è¶…è¿‡äº†é™å®šæœ€å¤§å€¼
 553:libraries/zf_driver/zf_driver_hrtim.c ****             return_state = HRTIM_ERROR_DUTY_ILLEGAL;                              // PWM å ç©ºæ¯”å
 2842              		.loc 1 553 26
 2843 00bc 2923     		movs	r3, #41
 2844 00be 8DF80F30 		strb	r3, [sp, #15]
 554:libraries/zf_driver/zf_driver_hrtim.c ****             break;
 2845              		.loc 1 554 13
 2846 00c2 B3E1     		b	.L80
 2847              	.L82:
 555:libraries/zf_driver/zf_driver_hrtim.c ****         }
 556:libraries/zf_driver/zf_driver_hrtim.c **** 
 557:libraries/zf_driver/zf_driver_hrtim.c ****         // å¦‚æœ 100% å ç©ºæ¯” é‚£ä¹ˆè¿™é‡Œå°±æ˜¯ match_temp = period
 558:libraries/zf_driver/zf_driver_hrtim.c ****         // å¦‚æœ 0%   å ç©ºæ¯” é‚£ä¹ˆè¿™é‡Œå°±æ˜¯ match_temp = 0
 559:libraries/zf_driver/zf_driver_hrtim.c ****         // è®¾è®¡æ˜¯ CMP1 åŒ¹é…æ‹‰é«˜ CMP2 åŒ¹é…æ‹‰ä½
 560:libraries/zf_driver/zf_driver_hrtim.c ****         uint16 period_temp = hrtim_obj_list[hrtim_index].period;
 2848              		.loc 1 560 57
 2849 00c4 9DF80E20 		ldrb	r2, [sp, #14]	@ zero_extendqisi2
 2850 00c8 4149     		ldr	r1, .L87
 2851 00ca 1346     		mov	r3, r2
 2852 00cc DB00     		lsls	r3, r3, #3
 2853 00ce 9B1A     		subs	r3, r3, r2
 2854 00d0 DB00     		lsls	r3, r3, #3
 2855 00d2 0B44     		add	r3, r3, r1
 2856 00d4 2C33     		adds	r3, r3, #44
 2857 00d6 1B68     		ldr	r3, [r3]
 2858              		.loc 1 560 16
 2859 00d8 ADF80A30 		strh	r3, [sp, #10]	@ movhi
 561:libraries/zf_driver/zf_driver_hrtim.c ****         if(duty >= HRTIM_DUTY_MAX / 100 * 98)
 2860              		.loc 1 561 11
 2861 00dc 009B     		ldr	r3, [sp]
 2862 00de 42F24762 		movw	r2, #9799
 2863 00e2 9342     		cmp	r3, r2
 2864 00e4 38D9     		bls	.L83
 562:libraries/zf_driver/zf_driver_hrtim.c ****         {
 563:libraries/zf_driver/zf_driver_hrtim.c ****             hrtim_obj_list[hrtim_index].hrtimer_obj->sTimerxRegs[channel_index % 6].CMP1xR = period
 2865              		.loc 1 563 106
 2866 00e6 BDF80A30 		ldrh	r3, [sp, #10]
 2867 00ea 5B08     		lsrs	r3, r3, #1
 2868 00ec 9CB2     		uxth	r4, r3
 2869              		.loc 1 563 40
 2870 00ee 9DF80E20 		ldrb	r2, [sp, #14]	@ zero_extendqisi2
 2871 00f2 3749     		ldr	r1, .L87
 2872 00f4 1346     		mov	r3, r2
 2873 00f6 DB00     		lsls	r3, r3, #3
 2874 00f8 9B1A     		subs	r3, r3, r2
 2875 00fa DB00     		lsls	r3, r3, #3
 2876 00fc 0B44     		add	r3, r3, r1
 2877 00fe 1868     		ldr	r0, [r3]
 2878              		.loc 1 563 80
 2879 0100 9DF80D20 		ldrb	r2, [sp, #13]	@ zero_extendqisi2
 2880 0104 344B     		ldr	r3, .L87+8
 2881 0106 A3FB0213 		umull	r1, r3, r3, r2
 2882 010a 9908     		lsrs	r1, r3, #2
 2883 010c 0B46     		mov	r3, r1
 2884 010e 5B00     		lsls	r3, r3, #1
 2885 0110 0B44     		add	r3, r3, r1
 2886 0112 5B00     		lsls	r3, r3, #1
 2887 0114 D31A     		subs	r3, r2, r3
 2888 0116 DBB2     		uxtb	r3, r3
 2889              		.loc 1 563 106
 2890 0118 2246     		mov	r2, r4
 2891              		.loc 1 563 92
 2892 011a DB01     		lsls	r3, r3, #7
 2893 011c 0344     		add	r3, r3, r0
 2894 011e 9C33     		adds	r3, r3, #156
 2895 0120 1A60     		str	r2, [r3]
 564:libraries/zf_driver/zf_driver_hrtim.c ****             hrtim_obj_list[hrtim_index].hrtimer_obj->sTimerxRegs[channel_index % 6].CMP2xR = 0;
 2896              		.loc 1 564 40
 2897 0122 9DF80E20 		ldrb	r2, [sp, #14]	@ zero_extendqisi2
 2898 0126 2A49     		ldr	r1, .L87
 2899 0128 1346     		mov	r3, r2
 2900 012a DB00     		lsls	r3, r3, #3
 2901 012c 9B1A     		subs	r3, r3, r2
 2902 012e DB00     		lsls	r3, r3, #3
 2903 0130 0B44     		add	r3, r3, r1
 2904 0132 1868     		ldr	r0, [r3]
 2905              		.loc 1 564 80
 2906 0134 9DF80D20 		ldrb	r2, [sp, #13]	@ zero_extendqisi2
 2907 0138 274B     		ldr	r3, .L87+8
 2908 013a A3FB0213 		umull	r1, r3, r3, r2
 2909 013e 9908     		lsrs	r1, r3, #2
 2910 0140 0B46     		mov	r3, r1
 2911 0142 5B00     		lsls	r3, r3, #1
 2912 0144 0B44     		add	r3, r3, r1
 2913 0146 5B00     		lsls	r3, r3, #1
 2914 0148 D31A     		subs	r3, r2, r3
 2915 014a DBB2     		uxtb	r3, r3
 2916              		.loc 1 564 92
 2917 014c DB01     		lsls	r3, r3, #7
 2918 014e 0344     		add	r3, r3, r0
 2919 0150 A433     		adds	r3, r3, #164
 2920 0152 0022     		movs	r2, #0
 2921 0154 1A60     		str	r2, [r3]
 2922 0156 A0E0     		b	.L84
 2923              	.L83:
 565:libraries/zf_driver/zf_driver_hrtim.c ****         }
 566:libraries/zf_driver/zf_driver_hrtim.c ****         else if(duty <= HRTIM_DUTY_MAX / 100 * 2)
 2924              		.loc 1 566 16
 2925 0158 009B     		ldr	r3, [sp]
 2926 015a C82B     		cmp	r3, #200
 2927 015c 40D8     		bhi	.L85
 567:libraries/zf_driver/zf_driver_hrtim.c ****         {
 568:libraries/zf_driver/zf_driver_hrtim.c ****             hrtim_obj_list[hrtim_index].hrtimer_obj->sTimerxRegs[channel_index % 6].CMP1xR = 0;
 2928              		.loc 1 568 40
 2929 015e 9DF80E20 		ldrb	r2, [sp, #14]	@ zero_extendqisi2
 2930 0162 1B49     		ldr	r1, .L87
 2931 0164 1346     		mov	r3, r2
 2932 0166 DB00     		lsls	r3, r3, #3
 2933 0168 9B1A     		subs	r3, r3, r2
 2934 016a DB00     		lsls	r3, r3, #3
 2935 016c 0B44     		add	r3, r3, r1
 2936 016e 1868     		ldr	r0, [r3]
 2937              		.loc 1 568 80
 2938 0170 9DF80D20 		ldrb	r2, [sp, #13]	@ zero_extendqisi2
 2939 0174 184B     		ldr	r3, .L87+8
 2940 0176 A3FB0213 		umull	r1, r3, r3, r2
 2941 017a 9908     		lsrs	r1, r3, #2
 2942 017c 0B46     		mov	r3, r1
 2943 017e 5B00     		lsls	r3, r3, #1
 2944 0180 0B44     		add	r3, r3, r1
 2945 0182 5B00     		lsls	r3, r3, #1
 2946 0184 D31A     		subs	r3, r2, r3
 2947 0186 DBB2     		uxtb	r3, r3
 2948              		.loc 1 568 92
 2949 0188 DB01     		lsls	r3, r3, #7
 2950 018a 0344     		add	r3, r3, r0
 2951 018c 9C33     		adds	r3, r3, #156
 2952 018e 0022     		movs	r2, #0
 2953 0190 1A60     		str	r2, [r3]
 569:libraries/zf_driver/zf_driver_hrtim.c ****             hrtim_obj_list[hrtim_index].hrtimer_obj->sTimerxRegs[channel_index % 6].CMP2xR = period
 2954              		.loc 1 569 106
 2955 0192 BDF80A30 		ldrh	r3, [sp, #10]
 2956 0196 5B08     		lsrs	r3, r3, #1
 2957 0198 9CB2     		uxth	r4, r3
 2958              		.loc 1 569 40
 2959 019a 9DF80E20 		ldrb	r2, [sp, #14]	@ zero_extendqisi2
 2960 019e 0C49     		ldr	r1, .L87
 2961 01a0 1346     		mov	r3, r2
 2962 01a2 DB00     		lsls	r3, r3, #3
 2963 01a4 9B1A     		subs	r3, r3, r2
 2964 01a6 DB00     		lsls	r3, r3, #3
 2965 01a8 0B44     		add	r3, r3, r1
 2966 01aa 1868     		ldr	r0, [r3]
 2967              		.loc 1 569 80
 2968 01ac 9DF80D20 		ldrb	r2, [sp, #13]	@ zero_extendqisi2
 2969 01b0 094B     		ldr	r3, .L87+8
 2970 01b2 A3FB0213 		umull	r1, r3, r3, r2
 2971 01b6 9908     		lsrs	r1, r3, #2
 2972 01b8 0B46     		mov	r3, r1
 2973 01ba 5B00     		lsls	r3, r3, #1
 2974 01bc 0B44     		add	r3, r3, r1
 2975 01be 5B00     		lsls	r3, r3, #1
 2976 01c0 D31A     		subs	r3, r2, r3
 2977 01c2 DBB2     		uxtb	r3, r3
 2978              		.loc 1 569 106
 2979 01c4 2246     		mov	r2, r4
 2980              		.loc 1 569 92
 2981 01c6 DB01     		lsls	r3, r3, #7
 2982 01c8 0344     		add	r3, r3, r0
 2983 01ca A433     		adds	r3, r3, #164
 2984 01cc 1A60     		str	r2, [r3]
 2985 01ce 64E0     		b	.L84
 2986              	.L88:
 2987              		.align	2
 2988              	.L87:
 2989 01d0 00000000 		.word	hrtim_obj_list
 2990 01d4 00000000 		.word	.LC0
 2991 01d8 ABAAAAAA 		.word	-1431655765
 2992 01dc 00401C46 		.word	1176256512
 2993              	.L85:
 2994              	.LBB15:
 570:libraries/zf_driver/zf_driver_hrtim.c ****         }
 571:libraries/zf_driver/zf_driver_hrtim.c ****         else
 572:libraries/zf_driver/zf_driver_hrtim.c ****         {
 573:libraries/zf_driver/zf_driver_hrtim.c ****             uint16 match_temp  = (uint16)(period_temp / 2 * ((float)duty / HRTIM_DUTY_MAX));
 2995              		.loc 1 573 55
 2996 01e0 BDF80A30 		ldrh	r3, [sp, #10]
 2997 01e4 5B08     		lsrs	r3, r3, #1
 2998 01e6 9BB2     		uxth	r3, r3
 2999 01e8 07EE903A 		vmov	s15, r3	@ int
 3000              		.loc 1 573 59
 3001 01ec B8EEE77A 		vcvt.f32.s32	s14, s15
 3002              		.loc 1 573 62
 3003 01f0 009B     		ldr	r3, [sp]
 3004 01f2 07EE903A 		vmov	s15, r3	@ int
 3005 01f6 F8EE676A 		vcvt.f32.u32	s13, s15
 3006              		.loc 1 573 74
 3007 01fa 1FED086A 		vldr.32	s12, .L87+12
 3008 01fe C6EE867A 		vdiv.f32	s15, s13, s12
 3009              		.loc 1 573 59
 3010 0202 67EE277A 		vmul.f32	s15, s14, s15
 3011              		.loc 1 573 20
 3012 0206 FCEEE77A 		vcvt.u32.f32	s15, s15
 3013 020a 17EE903A 		vmov	r3, s15	@ int
 3014 020e ADF80830 		strh	r3, [sp, #8]	@ movhi
 574:libraries/zf_driver/zf_driver_hrtim.c ****             hrtim_obj_list[hrtim_index].hrtimer_obj->sTimerxRegs[channel_index % 6].CMP1xR = (perio
 3015              		.loc 1 574 107
 3016 0212 BDF80A30 		ldrh	r3, [sp, #10]
 3017 0216 5B08     		lsrs	r3, r3, #1
 3018 0218 9BB2     		uxth	r3, r3
 3019 021a 1A46     		mov	r2, r3
 3020              		.loc 1 574 111
 3021 021c BDF80830 		ldrh	r3, [sp, #8]
 3022 0220 D41A     		subs	r4, r2, r3
 3023              		.loc 1 574 40
 3024 0222 9DF80E20 		ldrb	r2, [sp, #14]	@ zero_extendqisi2
 3025 0226 8449     		ldr	r1, .L89
 3026 0228 1346     		mov	r3, r2
 3027 022a DB00     		lsls	r3, r3, #3
 3028 022c 9B1A     		subs	r3, r3, r2
 3029 022e DB00     		lsls	r3, r3, #3
 3030 0230 0B44     		add	r3, r3, r1
 3031 0232 1868     		ldr	r0, [r3]
 3032              		.loc 1 574 80
 3033 0234 9DF80D20 		ldrb	r2, [sp, #13]	@ zero_extendqisi2
 3034 0238 804B     		ldr	r3, .L89+4
 3035 023a A3FB0213 		umull	r1, r3, r3, r2
 3036 023e 9908     		lsrs	r1, r3, #2
 3037 0240 0B46     		mov	r3, r1
 3038 0242 5B00     		lsls	r3, r3, #1
 3039 0244 0B44     		add	r3, r3, r1
 3040 0246 5B00     		lsls	r3, r3, #1
 3041 0248 D31A     		subs	r3, r2, r3
 3042 024a DBB2     		uxtb	r3, r3
 3043              		.loc 1 574 111
 3044 024c 2246     		mov	r2, r4
 3045              		.loc 1 574 92
 3046 024e DB01     		lsls	r3, r3, #7
 3047 0250 0344     		add	r3, r3, r0
 3048 0252 9C33     		adds	r3, r3, #156
 3049 0254 1A60     		str	r2, [r3]
 575:libraries/zf_driver/zf_driver_hrtim.c ****             hrtim_obj_list[hrtim_index].hrtimer_obj->sTimerxRegs[channel_index % 6].CMP2xR = (perio
 3050              		.loc 1 575 107
 3051 0256 BDF80A30 		ldrh	r3, [sp, #10]
 3052 025a 5B08     		lsrs	r3, r3, #1
 3053 025c 9BB2     		uxth	r3, r3
 3054 025e 1A46     		mov	r2, r3
 3055              		.loc 1 575 111
 3056 0260 BDF80830 		ldrh	r3, [sp, #8]
 3057 0264 D418     		adds	r4, r2, r3
 3058              		.loc 1 575 40
 3059 0266 9DF80E20 		ldrb	r2, [sp, #14]	@ zero_extendqisi2
 3060 026a 7349     		ldr	r1, .L89
 3061 026c 1346     		mov	r3, r2
 3062 026e DB00     		lsls	r3, r3, #3
 3063 0270 9B1A     		subs	r3, r3, r2
 3064 0272 DB00     		lsls	r3, r3, #3
 3065 0274 0B44     		add	r3, r3, r1
 3066 0276 1868     		ldr	r0, [r3]
 3067              		.loc 1 575 80
 3068 0278 9DF80D20 		ldrb	r2, [sp, #13]	@ zero_extendqisi2
 3069 027c 6F4B     		ldr	r3, .L89+4
 3070 027e A3FB0213 		umull	r1, r3, r3, r2
 3071 0282 9908     		lsrs	r1, r3, #2
 3072 0284 0B46     		mov	r3, r1
 3073 0286 5B00     		lsls	r3, r3, #1
 3074 0288 0B44     		add	r3, r3, r1
 3075 028a 5B00     		lsls	r3, r3, #1
 3076 028c D31A     		subs	r3, r2, r3
 3077 028e DBB2     		uxtb	r3, r3
 3078              		.loc 1 575 111
 3079 0290 2246     		mov	r2, r4
 3080              		.loc 1 575 92
 3081 0292 DB01     		lsls	r3, r3, #7
 3082 0294 0344     		add	r3, r3, r0
 3083 0296 A433     		adds	r3, r3, #164
 3084 0298 1A60     		str	r2, [r3]
 3085              	.L84:
 3086              	.LBE15:
 576:libraries/zf_driver/zf_driver_hrtim.c ****         }
 577:libraries/zf_driver/zf_driver_hrtim.c **** 
 578:libraries/zf_driver/zf_driver_hrtim.c ****         hrtim_obj_list[hrtim_index].channel_state |= (0x0001 << channel_index);
 3087              		.loc 1 578 51
 3088 029a 9DF80E20 		ldrb	r2, [sp, #14]	@ zero_extendqisi2
 3089 029e 6649     		ldr	r1, .L89
 3090 02a0 1346     		mov	r3, r2
 3091 02a2 DB00     		lsls	r3, r3, #3
 3092 02a4 9B1A     		subs	r3, r3, r2
 3093 02a6 DB00     		lsls	r3, r3, #3
 3094 02a8 0B44     		add	r3, r3, r1
 3095 02aa 3033     		adds	r3, r3, #48
 3096 02ac 1B88     		ldrh	r3, [r3]	@ movhi
 3097 02ae C3F30B03 		ubfx	r3, r3, #0, #12
 3098 02b2 9BB2     		uxth	r3, r3
 3099 02b4 1AB2     		sxth	r2, r3
 3100              		.loc 1 578 62
 3101 02b6 9DF80D30 		ldrb	r3, [sp, #13]	@ zero_extendqisi2
 3102 02ba 0121     		movs	r1, #1
 3103 02bc 01FA03F3 		lsl	r3, r1, r3
 3104              		.loc 1 578 51
 3105 02c0 1BB2     		sxth	r3, r3
 3106 02c2 1343     		orrs	r3, r3, r2
 3107 02c4 1BB2     		sxth	r3, r3
 3108 02c6 9DF80E20 		ldrb	r2, [sp, #14]	@ zero_extendqisi2
 3109 02ca C3F30B03 		ubfx	r3, r3, #0, #12
 3110 02ce 99B2     		uxth	r1, r3
 3111 02d0 5948     		ldr	r0, .L89
 3112 02d2 1346     		mov	r3, r2
 3113 02d4 DB00     		lsls	r3, r3, #3
 3114 02d6 9B1A     		subs	r3, r3, r2
 3115 02d8 DB00     		lsls	r3, r3, #3
 3116 02da 0344     		add	r3, r3, r0
 3117 02dc 03F13002 		add	r2, r3, #48
 3118 02e0 1388     		ldrh	r3, [r2]	@ movhi
 3119 02e2 61F30B03 		bfi	r3, r1, #0, #12
 3120 02e6 1380     		strh	r3, [r2]	@ movhi
 579:libraries/zf_driver/zf_driver_hrtim.c ****         hrtim_obj_list[hrtim_index].pin_list[channel_index] = (zf_gpio_pin_enum)(pin & HRTIM_PWM_PI
 3121              		.loc 1 579 63
 3122 02e8 019B     		ldr	r3, [sp, #4]
 3123 02ea 9BB2     		uxth	r3, r3
 3124              		.loc 1 579 45
 3125 02ec 9DF80E20 		ldrb	r2, [sp, #14]	@ zero_extendqisi2
 3126 02f0 9DF80D10 		ldrb	r1, [sp, #13]	@ zero_extendqisi2
 3127              		.loc 1 579 86
 3128 02f4 C3F30B03 		ubfx	r3, r3, #0, #12
 3129 02f8 9CB2     		uxth	r4, r3
 3130              		.loc 1 579 61
 3131 02fa 4F48     		ldr	r0, .L89
 3132 02fc 1346     		mov	r3, r2
 3133 02fe DB00     		lsls	r3, r3, #3
 3134 0300 9B1A     		subs	r3, r3, r2
 3135 0302 9B00     		lsls	r3, r3, #2
 3136 0304 0B44     		add	r3, r3, r1
 3137 0306 5B00     		lsls	r3, r3, #1
 3138 0308 0344     		add	r3, r3, r0
 3139 030a 2246     		mov	r2, r4	@ movhi
 3140 030c 9A80     		strh	r2, [r3, #4]	@ movhi
 580:libraries/zf_driver/zf_driver_hrtim.c ****         zf_afio_init(
 3141              		.loc 1 580 9
 3142 030e 019B     		ldr	r3, [sp, #4]
 3143 0310 9BB2     		uxth	r3, r3
 581:libraries/zf_driver/zf_driver_hrtim.c ****             (zf_gpio_pin_enum)(pin & HRTIM_PWM_PIN_INDEX_MASK),
 3144              		.loc 1 581 36
 3145 0312 C3F30B03 		ubfx	r3, r3, #0, #12
 3146 0316 98B2     		uxth	r0, r3
 582:libraries/zf_driver/zf_driver_hrtim.c ****             GPO_AF_PUSH_PULL,
 583:libraries/zf_driver/zf_driver_hrtim.c ****             (zf_gpio_af_enum)((pin >> HRTIM_PWM_PIN_AF_OFFSET) & HRTIM_PWM_PIN_AF_MASK));
 3147              		.loc 1 583 36
 3148 0318 019B     		ldr	r3, [sp, #4]
 3149 031a 1B0B     		lsrs	r3, r3, #12
 580:libraries/zf_driver/zf_driver_hrtim.c ****             (zf_gpio_pin_enum)(pin & HRTIM_PWM_PIN_INDEX_MASK),
 3150              		.loc 1 580 9
 3151 031c DBB2     		uxtb	r3, r3
 3152              		.loc 1 583 64
 3153 031e 03F00F03 		and	r3, r3, #15
 3154 0322 DBB2     		uxtb	r3, r3
 580:libraries/zf_driver/zf_driver_hrtim.c ****             (zf_gpio_pin_enum)(pin & HRTIM_PWM_PIN_INDEX_MASK),
 3155              		.loc 1 580 9
 3156 0324 1A46     		mov	r2, r3
 3157 0326 1221     		movs	r1, #18
 3158 0328 FFF7FEFF 		bl	zf_afio_init
 584:libraries/zf_driver/zf_driver_hrtim.c **** 
 585:libraries/zf_driver/zf_driver_hrtim.c ****         hrtim_obj_list[hrtim_index].hrtimer_obj->sTimerxRegs[channel_index % 6].SETx1R |= 0x0000000
 3159              		.loc 1 585 36
 3160 032c 9DF80E20 		ldrb	r2, [sp, #14]	@ zero_extendqisi2
 3161 0330 4149     		ldr	r1, .L89
 3162 0332 1346     		mov	r3, r2
 3163 0334 DB00     		lsls	r3, r3, #3
 3164 0336 9B1A     		subs	r3, r3, r2
 3165 0338 DB00     		lsls	r3, r3, #3
 3166 033a 0B44     		add	r3, r3, r1
 3167 033c 1868     		ldr	r0, [r3]
 3168              		.loc 1 585 88
 3169 033e 9DF80D20 		ldrb	r2, [sp, #13]	@ zero_extendqisi2
 3170 0342 3E4B     		ldr	r3, .L89+4
 3171 0344 A3FB0213 		umull	r1, r3, r3, r2
 3172 0348 9908     		lsrs	r1, r3, #2
 3173 034a 0B46     		mov	r3, r1
 3174 034c 5B00     		lsls	r3, r3, #1
 3175 034e 0B44     		add	r3, r3, r1
 3176 0350 5B00     		lsls	r3, r3, #1
 3177 0352 D31A     		subs	r3, r2, r3
 3178 0354 DCB2     		uxtb	r4, r3
 3179 0356 2346     		mov	r3, r4
 3180 0358 DB01     		lsls	r3, r3, #7
 3181 035a 0344     		add	r3, r3, r0
 3182 035c BC33     		adds	r3, r3, #188
 3183 035e 1868     		ldr	r0, [r3]
 3184              		.loc 1 585 36
 3185 0360 9DF80E20 		ldrb	r2, [sp, #14]	@ zero_extendqisi2
 3186 0364 3449     		ldr	r1, .L89
 3187 0366 1346     		mov	r3, r2
 3188 0368 DB00     		lsls	r3, r3, #3
 3189 036a 9B1A     		subs	r3, r3, r2
 3190 036c DB00     		lsls	r3, r3, #3
 3191 036e 0B44     		add	r3, r3, r1
 3192 0370 1968     		ldr	r1, [r3]
 3193              		.loc 1 585 88
 3194 0372 2346     		mov	r3, r4
 3195 0374 40F00802 		orr	r2, r0, #8
 3196 0378 DB01     		lsls	r3, r3, #7
 3197 037a 0B44     		add	r3, r3, r1
 3198 037c BC33     		adds	r3, r3, #188
 3199 037e 1A60     		str	r2, [r3]
 586:libraries/zf_driver/zf_driver_hrtim.c ****         hrtim_obj_list[hrtim_index].hrtimer_obj->sTimerxRegs[channel_index % 6].RSTx1R |= 0x0000001
 3200              		.loc 1 586 36
 3201 0380 9DF80E20 		ldrb	r2, [sp, #14]	@ zero_extendqisi2
 3202 0384 2C49     		ldr	r1, .L89
 3203 0386 1346     		mov	r3, r2
 3204 0388 DB00     		lsls	r3, r3, #3
 3205 038a 9B1A     		subs	r3, r3, r2
 3206 038c DB00     		lsls	r3, r3, #3
 3207 038e 0B44     		add	r3, r3, r1
 3208 0390 1868     		ldr	r0, [r3]
 3209              		.loc 1 586 88
 3210 0392 9DF80D20 		ldrb	r2, [sp, #13]	@ zero_extendqisi2
 3211 0396 294B     		ldr	r3, .L89+4
 3212 0398 A3FB0213 		umull	r1, r3, r3, r2
 3213 039c 9908     		lsrs	r1, r3, #2
 3214 039e 0B46     		mov	r3, r1
 3215 03a0 5B00     		lsls	r3, r3, #1
 3216 03a2 0B44     		add	r3, r3, r1
 3217 03a4 5B00     		lsls	r3, r3, #1
 3218 03a6 D31A     		subs	r3, r2, r3
 3219 03a8 DCB2     		uxtb	r4, r3
 3220 03aa 2346     		mov	r3, r4
 3221 03ac DB01     		lsls	r3, r3, #7
 3222 03ae 0344     		add	r3, r3, r0
 3223 03b0 C033     		adds	r3, r3, #192
 3224 03b2 1868     		ldr	r0, [r3]
 3225              		.loc 1 586 36
 3226 03b4 9DF80E20 		ldrb	r2, [sp, #14]	@ zero_extendqisi2
 3227 03b8 1F49     		ldr	r1, .L89
 3228 03ba 1346     		mov	r3, r2
 3229 03bc DB00     		lsls	r3, r3, #3
 3230 03be 9B1A     		subs	r3, r3, r2
 3231 03c0 DB00     		lsls	r3, r3, #3
 3232 03c2 0B44     		add	r3, r3, r1
 3233 03c4 1968     		ldr	r1, [r3]
 3234              		.loc 1 586 88
 3235 03c6 2346     		mov	r3, r4
 3236 03c8 40F01002 		orr	r2, r0, #16
 3237 03cc DB01     		lsls	r3, r3, #7
 3238 03ce 0B44     		add	r3, r3, r1
 3239 03d0 C033     		adds	r3, r3, #192
 3240 03d2 1A60     		str	r2, [r3]
 587:libraries/zf_driver/zf_driver_hrtim.c ****         hrtim_obj_list[hrtim_index].hrtimer_obj->sCommonRegs.OENR |= (0x00000001 << ((channel_index
 3241              		.loc 1 587 36
 3242 03d4 9DF80E20 		ldrb	r2, [sp, #14]	@ zero_extendqisi2
 3243 03d8 1749     		ldr	r1, .L89
 3244 03da 1346     		mov	r3, r2
 3245 03dc DB00     		lsls	r3, r3, #3
 3246 03de 9B1A     		subs	r3, r3, r2
 3247 03e0 DB00     		lsls	r3, r3, #3
 3248 03e2 0B44     		add	r3, r3, r1
 3249 03e4 1B68     		ldr	r3, [r3]
 3250              		.loc 1 587 67
 3251 03e6 D3F89403 		ldr	r0, [r3, #916]
 3252              		.loc 1 587 101
 3253 03ea 9DF80D20 		ldrb	r2, [sp, #13]	@ zero_extendqisi2
 3254 03ee 134B     		ldr	r3, .L89+4
 3255 03f0 A3FB0213 		umull	r1, r3, r3, r2
 3256 03f4 9908     		lsrs	r1, r3, #2
 3257 03f6 0B46     		mov	r3, r1
 3258 03f8 5B00     		lsls	r3, r3, #1
 3259 03fa 0B44     		add	r3, r3, r1
 3260 03fc 5B00     		lsls	r3, r3, #1
 3261 03fe D31A     		subs	r3, r2, r3
 3262 0400 DBB2     		uxtb	r3, r3
 3263              		.loc 1 587 106
 3264 0402 5B00     		lsls	r3, r3, #1
 3265              		.loc 1 587 82
 3266 0404 0122     		movs	r2, #1
 3267 0406 02FA03F3 		lsl	r3, r2, r3
 3268 040a 1C46     		mov	r4, r3
 3269              		.loc 1 587 36
 3270 040c 9DF80E20 		ldrb	r2, [sp, #14]	@ zero_extendqisi2
 3271 0410 0949     		ldr	r1, .L89
 3272 0412 1346     		mov	r3, r2
 3273 0414 DB00     		lsls	r3, r3, #3
 3274 0416 9B1A     		subs	r3, r3, r2
 3275 0418 DB00     		lsls	r3, r3, #3
 3276 041a 0B44     		add	r3, r3, r1
 3277 041c 1B68     		ldr	r3, [r3]
 3278              		.loc 1 587 67
 3279 041e 40EA0402 		orr	r2, r0, r4
 3280 0422 C3F89423 		str	r2, [r3, #916]
 588:libraries/zf_driver/zf_driver_hrtim.c **** 
 589:libraries/zf_driver/zf_driver_hrtim.c ****         return_state = HRTIM_OPERATION_DONE;
 3281              		.loc 1 589 22
 3282 0426 0023     		movs	r3, #0
 3283 0428 8DF80F30 		strb	r3, [sp, #15]
 3284              	.L80:
 3285              	.LBE14:
 590:libraries/zf_driver/zf_driver_hrtim.c ****     }while(0);
 591:libraries/zf_driver/zf_driver_hrtim.c **** 
 592:libraries/zf_driver/zf_driver_hrtim.c ****     return return_state;
 3286              		.loc 1 592 12
 3287 042c 9DF80F30 		ldrb	r3, [sp, #15]	@ zero_extendqisi2
 593:libraries/zf_driver/zf_driver_hrtim.c **** }
 3288              		.loc 1 593 1
 3289 0430 1846     		mov	r0, r3
 3290 0432 04B0     		add	sp, sp, #16
 3291              		.cfi_def_cfa_offset 8
 3292              		@ sp needed
 3293 0434 10BD     		pop	{r4, pc}
 3294              	.L90:
 3295 0436 00BF     		.align	2
 3296              	.L89:
 3297 0438 00000000 		.word	hrtim_obj_list
 3298 043c ABAAAAAA 		.word	-1431655765
 3299              		.cfi_endproc
 3300              	.LFE187:
 3302              		.section	.text.zf_hrtim_module_init,"ax",%progbits
 3303              		.align	1
 3304              		.p2align 4,,15
 3305              		.global	zf_hrtim_module_init
 3306              		.syntax unified
 3307              		.thumb
 3308              		.thumb_func
 3310              	zf_hrtim_module_init:
 3311              	.LFB188:
 594:libraries/zf_driver/zf_driver_hrtim.c **** 
 595:libraries/zf_driver/zf_driver_hrtim.c **** //-------------------------------------------------------------------------------------------------
 596:libraries/zf_driver/zf_driver_hrtim.c **** // å‡½æ•°ç®€ä»‹     HRTIM æ¨¡å—åˆå§‹åŒ–
 597:libraries/zf_driver/zf_driver_hrtim.c **** // å‚æ•°è¯´æ˜     hrtim_index         é€‰æ‹© HRTIM æ¨¡å—     (è¯¦è§ zf_driver_hrtim.h å†… zf_hr
 598:libraries/zf_driver/zf_driver_hrtim.c **** // å‚æ•°è¯´æ˜     freq                è®¾ç½®é¢‘ç‡ åŒä¸ªæ¨¡å—åªæœ‰æœ€åä¸€æ¬¡è®¾ç½®ç”Ÿæ•ˆ
 599:libraries/zf_driver/zf_driver_hrtim.c **** // è¿”å›å‚æ•°     uint8               æ“ä½œçŠ¶æ€ ZF_NO_ERROR / ENCODER_OPERATION_DONE - å®Œæˆ 
 600:libraries/zf_driver/zf_driver_hrtim.c **** // ä½¿ç”¨ç¤ºä¾‹     zf_hrtim_module_init(hrtim_index, freq);
 601:libraries/zf_driver/zf_driver_hrtim.c **** // å¤‡æ³¨ä¿¡æ¯     
 602:libraries/zf_driver/zf_driver_hrtim.c **** //-------------------------------------------------------------------------------------------------
 603:libraries/zf_driver/zf_driver_hrtim.c **** uint8 zf_hrtim_module_init (zf_hrtim_index_enum hrtim_index, const uint32 freq)
 604:libraries/zf_driver/zf_driver_hrtim.c **** {
 3312              		.loc 1 604 1
 3313              		.cfi_startproc
 3314              		@ args = 0, pretend = 0, frame = 40
 3315              		@ frame_needed = 0, uses_anonymous_args = 0
 3316 0000 2DE9F04F 		push	{r4, r5, r6, r7, r8, r9, r10, fp, lr}
 3317              		.cfi_def_cfa_offset 36
 3318              		.cfi_offset 4, -36
 3319              		.cfi_offset 5, -32
 3320              		.cfi_offset 6, -28
 3321              		.cfi_offset 7, -24
 3322              		.cfi_offset 8, -20
 3323              		.cfi_offset 9, -16
 3324              		.cfi_offset 10, -12
 3325              		.cfi_offset 11, -8
 3326              		.cfi_offset 14, -4
 3327 0004 8BB0     		sub	sp, sp, #44
 3328              		.cfi_def_cfa_offset 80
 3329 0006 0346     		mov	r3, r0
 3330 0008 0491     		str	r1, [sp, #16]
 3331 000a 8DF81730 		strb	r3, [sp, #23]
 605:libraries/zf_driver/zf_driver_hrtim.c ****     zf_hrtim_operation_state_enum return_state = HRTIM_ERROR_UNKNOW;
 3332              		.loc 1 605 35
 3333 000e 0123     		movs	r3, #1
 3334 0010 8DF82730 		strb	r3, [sp, #39]
 3335              	.LBB16:
 606:libraries/zf_driver/zf_driver_hrtim.c **** 
 607:libraries/zf_driver/zf_driver_hrtim.c ****     do
 608:libraries/zf_driver/zf_driver_hrtim.c ****     {
 609:libraries/zf_driver/zf_driver_hrtim.c ****         if(zf_hrtim_assert(!hrtim_obj_list[hrtim_index].freq))
 3336              		.loc 1 609 12
 3337 0014 9DF81720 		ldrb	r2, [sp, #23]	@ zero_extendqisi2
 3338 0018 B749     		ldr	r1, .L104
 3339 001a 1346     		mov	r3, r2
 3340 001c DB00     		lsls	r3, r3, #3
 3341 001e 9B1A     		subs	r3, r3, r2
 3342 0020 DB00     		lsls	r3, r3, #3
 3343 0022 0B44     		add	r3, r3, r1
 3344 0024 2833     		adds	r3, r3, #40
 3345 0026 1B68     		ldr	r3, [r3]
 3346              		.loc 1 609 11
 3347 0028 002B     		cmp	r3, #0
 3348 002a 0CD0     		beq	.L92
 3349              		.loc 1 609 12 discriminator 1
 3350 002c 0022     		movs	r2, #0
 3351 002e 40F26121 		movw	r1, #609
 3352 0032 B248     		ldr	r0, .L104+4
 3353 0034 FFF7FEFF 		bl	zf_hrtim_assert_handler
 3354 0038 0346     		mov	r3, r0
 3355 003a 002B     		cmp	r3, #0
 3356 003c 03D0     		beq	.L92
 610:libraries/zf_driver/zf_driver_hrtim.c ****         {
 611:libraries/zf_driver/zf_driver_hrtim.c ****             // æ­¤å¤„å¦‚æœæ–­è¨€æŠ¥é”™ é‚£ä¹ˆè¯æ˜æœ¬æ¨¡å—å·²ç»è¢«åˆå§‹åŒ–è¿‡ä¸€æ¬¡ é‡å¤åˆå
 612:libraries/zf_driver/zf_driver_hrtim.c ****             // å¦åˆ™åº”å½“å…ˆæ³¨é”€åˆå§‹åŒ–ä¹‹åå†é‡æ–°åˆå§‹åŒ–
 613:libraries/zf_driver/zf_driver_hrtim.c ****             return_state = HRTIM_ERROR_MODULE_OCCUPIED;
 3357              		.loc 1 613 26
 3358 003e 2023     		movs	r3, #32
 3359 0040 8DF82730 		strb	r3, [sp, #39]
 614:libraries/zf_driver/zf_driver_hrtim.c ****             break;
 3360              		.loc 1 614 13
 3361 0044 51E1     		b	.L93
 3362              	.L92:
 615:libraries/zf_driver/zf_driver_hrtim.c ****         }
 616:libraries/zf_driver/zf_driver_hrtim.c ****         if(zf_hrtim_assert(freq))
 3363              		.loc 1 616 11
 3364 0046 049B     		ldr	r3, [sp, #16]
 3365 0048 002B     		cmp	r3, #0
 3366 004a 0CD1     		bne	.L94
 3367              		.loc 1 616 12 discriminator 1
 3368 004c 0022     		movs	r2, #0
 3369 004e 4FF41A71 		mov	r1, #616
 3370 0052 AA48     		ldr	r0, .L104+4
 3371 0054 FFF7FEFF 		bl	zf_hrtim_assert_handler
 3372 0058 0346     		mov	r3, r0
 3373 005a 002B     		cmp	r3, #0
 3374 005c 03D0     		beq	.L94
 617:libraries/zf_driver/zf_driver_hrtim.c ****         {
 618:libraries/zf_driver/zf_driver_hrtim.c ****             // æ­¤å¤„å¦‚æœæ–­è¨€æŠ¥é”™ é‚£ä¹ˆè¯æ˜è¾“å…¥çš„é¢‘ç‡ä¸º 0
 619:libraries/zf_driver/zf_driver_hrtim.c ****             return_state = HRTIM_ERROR_FREQ_ILLEGAL;
 3375              		.loc 1 619 26
 3376 005e 2823     		movs	r3, #40
 3377 0060 8DF82730 		strb	r3, [sp, #39]
 620:libraries/zf_driver/zf_driver_hrtim.c ****             break;
 3378              		.loc 1 620 13
 3379 0064 41E1     		b	.L93
 3380              	.L94:
 621:libraries/zf_driver/zf_driver_hrtim.c ****         }
 622:libraries/zf_driver/zf_driver_hrtim.c **** 
 623:libraries/zf_driver/zf_driver_hrtim.c ****         zf_rcc_clock_enable(hrtim_rcc_index_list[hrtim_index]);
 3381              		.loc 1 623 9
 3382 0066 9DF81730 		ldrb	r3, [sp, #23]	@ zero_extendqisi2
 3383 006a A54A     		ldr	r2, .L104+8
 3384 006c 32F81330 		ldrh	r3, [r2, r3, lsl #1]
 3385 0070 1846     		mov	r0, r3
 3386 0072 FFF7FEFF 		bl	zf_rcc_clock_enable
 624:libraries/zf_driver/zf_driver_hrtim.c **** 
 625:libraries/zf_driver/zf_driver_hrtim.c ****         hrtim_obj_list[hrtim_index].hrtimer_obj->sCommonRegs.DLLCR = 0X00000002;
 3387              		.loc 1 625 36
 3388 0076 9DF81720 		ldrb	r2, [sp, #23]	@ zero_extendqisi2
 3389 007a 9F49     		ldr	r1, .L104
 3390 007c 1346     		mov	r3, r2
 3391 007e DB00     		lsls	r3, r3, #3
 3392 0080 9B1A     		subs	r3, r3, r2
 3393 0082 DB00     		lsls	r3, r3, #3
 3394 0084 0B44     		add	r3, r3, r1
 3395 0086 1B68     		ldr	r3, [r3]
 3396              		.loc 1 625 68
 3397 0088 0222     		movs	r2, #2
 3398 008a C3F8CC23 		str	r2, [r3, #972]
 626:libraries/zf_driver/zf_driver_hrtim.c **** 
 627:libraries/zf_driver/zf_driver_hrtim.c ****         hrtim_obj_list[hrtim_index].enable      = ZF_ENABLE;
 3399              		.loc 1 627 36
 3400 008e 9DF81720 		ldrb	r2, [sp, #23]	@ zero_extendqisi2
 3401              		.loc 1 627 49
 3402 0092 9949     		ldr	r1, .L104
 3403 0094 1346     		mov	r3, r2
 3404 0096 DB00     		lsls	r3, r3, #3
 3405 0098 9B1A     		subs	r3, r3, r2
 3406 009a DB00     		lsls	r3, r3, #3
 3407 009c 0B44     		add	r3, r3, r1
 3408 009e 03F13002 		add	r2, r3, #48
 3409 00a2 9378     		ldrb	r3, [r2, #2]
 3410 00a4 0121     		movs	r1, #1
 3411 00a6 61F38303 		bfi	r3, r1, #2, #2
 3412 00aa 9370     		strb	r3, [r2, #2]
 628:libraries/zf_driver/zf_driver_hrtim.c ****         hrtim_obj_list[hrtim_index].self_index  = hrtim_index;
 3413              		.loc 1 628 36
 3414 00ac 9DF81720 		ldrb	r2, [sp, #23]	@ zero_extendqisi2
 3415              		.loc 1 628 49
 3416 00b0 9DF81730 		ldrb	r3, [sp, #23]
 3417 00b4 03F03F03 		and	r3, r3, #63
 3418 00b8 D9B2     		uxtb	r1, r3
 3419 00ba 8F48     		ldr	r0, .L104
 3420 00bc 1346     		mov	r3, r2
 3421 00be DB00     		lsls	r3, r3, #3
 3422 00c0 9B1A     		subs	r3, r3, r2
 3423 00c2 DB00     		lsls	r3, r3, #3
 3424 00c4 0344     		add	r3, r3, r0
 3425 00c6 03F13002 		add	r2, r3, #48
 3426 00ca 5388     		ldrh	r3, [r2, #2]	@ movhi
 3427 00cc 61F30913 		bfi	r3, r1, #4, #6
 3428 00d0 5380     		strh	r3, [r2, #2]	@ movhi
 629:libraries/zf_driver/zf_driver_hrtim.c **** 
 630:libraries/zf_driver/zf_driver_hrtim.c ****         uint32 register_temp    = 0;
 3429              		.loc 1 630 16
 3430 00d2 0023     		movs	r3, #0
 3431 00d4 0693     		str	r3, [sp, #24]
 631:libraries/zf_driver/zf_driver_hrtim.c ****         uint16 freq_div         = 0;
 3432              		.loc 1 631 16
 3433 00d6 0023     		movs	r3, #0
 3434 00d8 ADF82430 		strh	r3, [sp, #36]	@ movhi
 632:libraries/zf_driver/zf_driver_hrtim.c ****         uint16 period_temp      = 0;
 3435              		.loc 1 632 16
 3436 00dc 0023     		movs	r3, #0
 3437 00de ADF82230 		strh	r3, [sp, #34]	@ movhi
 3438              	.LBB17:
 633:libraries/zf_driver/zf_driver_hrtim.c **** 
 634:libraries/zf_driver/zf_driver_hrtim.c ****         for(uint8 i = 1; i <= 128; i *= 2)
 3439              		.loc 1 634 19
 3440 00e2 0123     		movs	r3, #1
 3441 00e4 8DF82130 		strb	r3, [sp, #33]
 3442              		.loc 1 634 9
 3443 00e8 8DE0     		b	.L95
 3444              	.L98:
 635:libraries/zf_driver/zf_driver_hrtim.c ****         {
 636:libraries/zf_driver/zf_driver_hrtim.c ****             if(hrtim_obj_list[hrtim_index].clock_input / i / freq < 0xFF00)
 3445              		.loc 1 636 43
 3446 00ea 9DF81720 		ldrb	r2, [sp, #23]	@ zero_extendqisi2
 3447 00ee 8249     		ldr	r1, .L104
 3448 00f0 1346     		mov	r3, r2
 3449 00f2 DB00     		lsls	r3, r3, #3
 3450 00f4 9B1A     		subs	r3, r3, r2
 3451 00f6 DB00     		lsls	r3, r3, #3
 3452 00f8 0B44     		add	r3, r3, r1
 3453 00fa 2033     		adds	r3, r3, #32
 3454 00fc D3E90001 		ldrd	r0, [r3]
 3455              		.loc 1 636 56
 3456 0100 9DF82130 		ldrb	r3, [sp, #33]	@ zero_extendqisi2
 3457 0104 0022     		movs	r2, #0
 3458 0106 1C46     		mov	r4, r3
 3459 0108 1546     		mov	r5, r2
 3460 010a 2246     		mov	r2, r4
 3461 010c 2B46     		mov	r3, r5
 3462 010e FFF7FEFF 		bl	__aeabi_uldivmod
 3463 0112 0246     		mov	r2, r0
 3464 0114 0B46     		mov	r3, r1
 3465 0116 1046     		mov	r0, r2
 3466 0118 1946     		mov	r1, r3
 3467              		.loc 1 636 60
 3468 011a 049B     		ldr	r3, [sp, #16]
 3469 011c 0022     		movs	r2, #0
 3470 011e 1E46     		mov	r6, r3
 3471 0120 1746     		mov	r7, r2
 3472 0122 3246     		mov	r2, r6
 3473 0124 3B46     		mov	r3, r7
 3474 0126 FFF7FEFF 		bl	__aeabi_uldivmod
 3475 012a 0246     		mov	r2, r0
 3476 012c 0B46     		mov	r3, r1
 3477              		.loc 1 636 15
 3478 012e B2F57F4F 		cmp	r2, #65280
 3479 0132 73F10003 		sbcs	r3, r3, #0
 3480 0136 5CD2     		bcs	.L96
 637:libraries/zf_driver/zf_driver_hrtim.c ****             {
 638:libraries/zf_driver/zf_driver_hrtim.c ****                 period_temp = hrtim_obj_list[hrtim_index].clock_input / i / freq;
 3481              		.loc 1 638 58
 3482 0138 9DF81720 		ldrb	r2, [sp, #23]	@ zero_extendqisi2
 3483 013c 6E49     		ldr	r1, .L104
 3484 013e 1346     		mov	r3, r2
 3485 0140 DB00     		lsls	r3, r3, #3
 3486 0142 9B1A     		subs	r3, r3, r2
 3487 0144 DB00     		lsls	r3, r3, #3
 3488 0146 0B44     		add	r3, r3, r1
 3489 0148 2033     		adds	r3, r3, #32
 3490 014a D3E90001 		ldrd	r0, [r3]
 3491              		.loc 1 638 71
 3492 014e 9DF82130 		ldrb	r3, [sp, #33]	@ zero_extendqisi2
 3493 0152 0022     		movs	r2, #0
 3494 0154 9846     		mov	r8, r3
 3495 0156 9146     		mov	r9, r2
 3496 0158 4246     		mov	r2, r8
 3497 015a 4B46     		mov	r3, r9
 3498 015c FFF7FEFF 		bl	__aeabi_uldivmod
 3499 0160 0246     		mov	r2, r0
 3500 0162 0B46     		mov	r3, r1
 3501 0164 1046     		mov	r0, r2
 3502 0166 1946     		mov	r1, r3
 3503              		.loc 1 638 75
 3504 0168 049B     		ldr	r3, [sp, #16]
 3505 016a 0022     		movs	r2, #0
 3506 016c 9A46     		mov	r10, r3
 3507 016e 9346     		mov	fp, r2
 3508 0170 5246     		mov	r2, r10
 3509 0172 5B46     		mov	r3, fp
 3510 0174 FFF7FEFF 		bl	__aeabi_uldivmod
 3511 0178 0246     		mov	r2, r0
 3512 017a 0B46     		mov	r3, r1
 3513              		.loc 1 638 29
 3514 017c 1346     		mov	r3, r2	@ movhi
 3515 017e ADF82230 		strh	r3, [sp, #34]	@ movhi
 639:libraries/zf_driver/zf_driver_hrtim.c ****                 period_temp = period_temp + period_temp % 2;
 3516              		.loc 1 639 43
 3517 0182 BDF82230 		ldrh	r3, [sp, #34]	@ movhi
 3518 0186 0133     		adds	r3, r3, #1
 3519 0188 9BB2     		uxth	r3, r3
 3520              		.loc 1 639 29
 3521 018a 23F00103 		bic	r3, r3, #1
 3522 018e ADF82230 		strh	r3, [sp, #34]	@ movhi
 640:libraries/zf_driver/zf_driver_hrtim.c ****                 hrtim_obj_list[hrtim_index].freq = hrtim_obj_list[hrtim_index].clock_input / i / pe
 3523              		.loc 1 640 79
 3524 0192 9DF81720 		ldrb	r2, [sp, #23]	@ zero_extendqisi2
 3525 0196 5849     		ldr	r1, .L104
 3526 0198 1346     		mov	r3, r2
 3527 019a DB00     		lsls	r3, r3, #3
 3528 019c 9B1A     		subs	r3, r3, r2
 3529 019e DB00     		lsls	r3, r3, #3
 3530 01a0 0B44     		add	r3, r3, r1
 3531 01a2 2033     		adds	r3, r3, #32
 3532 01a4 D3E90001 		ldrd	r0, [r3]
 3533              		.loc 1 640 92
 3534 01a8 9DF82130 		ldrb	r3, [sp, #33]	@ zero_extendqisi2
 3535 01ac 0022     		movs	r2, #0
 3536 01ae 0093     		str	r3, [sp]
 3537 01b0 0192     		str	r2, [sp, #4]
 3538 01b2 DDE90023 		ldrd	r2, [sp]
 3539 01b6 FFF7FEFF 		bl	__aeabi_uldivmod
 3540 01ba 0246     		mov	r2, r0
 3541 01bc 0B46     		mov	r3, r1
 3542 01be 1046     		mov	r0, r2
 3543 01c0 1946     		mov	r1, r3
 3544              		.loc 1 640 96
 3545 01c2 BDF82230 		ldrh	r3, [sp, #34]
 3546 01c6 0022     		movs	r2, #0
 3547 01c8 0293     		str	r3, [sp, #8]
 3548 01ca 0392     		str	r2, [sp, #12]
 3549 01cc DDE90223 		ldrd	r2, [sp, #8]
 3550 01d0 FFF7FEFF 		bl	__aeabi_uldivmod
 3551 01d4 0246     		mov	r2, r0
 3552 01d6 0B46     		mov	r3, r1
 3553 01d8 1046     		mov	r0, r2
 3554 01da 1946     		mov	r1, r3
 3555              		.loc 1 640 44
 3556 01dc 9DF81720 		ldrb	r2, [sp, #23]	@ zero_extendqisi2
 3557              		.loc 1 640 50
 3558 01e0 4549     		ldr	r1, .L104
 3559 01e2 1346     		mov	r3, r2
 3560 01e4 DB00     		lsls	r3, r3, #3
 3561 01e6 9B1A     		subs	r3, r3, r2
 3562 01e8 DB00     		lsls	r3, r3, #3
 3563 01ea 0B44     		add	r3, r3, r1
 3564 01ec 2833     		adds	r3, r3, #40
 3565 01ee 1860     		str	r0, [r3]
 641:libraries/zf_driver/zf_driver_hrtim.c ****                 break;
 3566              		.loc 1 641 17
 3567 01f0 0EE0     		b	.L97
 3568              	.L96:
 642:libraries/zf_driver/zf_driver_hrtim.c ****             }
 643:libraries/zf_driver/zf_driver_hrtim.c ****             freq_div += 1;
 3569              		.loc 1 643 22 discriminator 2
 3570 01f2 BDF82430 		ldrh	r3, [sp, #36]	@ movhi
 3571 01f6 0133     		adds	r3, r3, #1
 3572 01f8 ADF82430 		strh	r3, [sp, #36]	@ movhi
 634:libraries/zf_driver/zf_driver_hrtim.c ****         {
 3573              		.loc 1 634 38 discriminator 2
 3574 01fc 9DF82130 		ldrb	r3, [sp, #33]
 3575 0200 5B00     		lsls	r3, r3, #1
 3576 0202 8DF82130 		strb	r3, [sp, #33]
 3577              	.L95:
 634:libraries/zf_driver/zf_driver_hrtim.c ****         {
 3578              		.loc 1 634 9 discriminator 1
 3579 0206 9DF82130 		ldrb	r3, [sp, #33]	@ zero_extendqisi2
 3580 020a 802B     		cmp	r3, #128
 3581 020c 7FF66DAF 		bls	.L98
 3582              	.L97:
 3583              	.LBE17:
 644:libraries/zf_driver/zf_driver_hrtim.c ****         }
 645:libraries/zf_driver/zf_driver_hrtim.c **** 
 646:libraries/zf_driver/zf_driver_hrtim.c ****         hrtim_obj_list[hrtim_index].hrtimer_obj->sMasterRegs.MPER = period_temp - 1;
 3584              		.loc 1 646 81
 3585 0210 BDF82230 		ldrh	r3, [sp, #34]
 3586 0214 581E     		subs	r0, r3, #1
 3587              		.loc 1 646 36
 3588 0216 9DF81720 		ldrb	r2, [sp, #23]	@ zero_extendqisi2
 3589 021a 3749     		ldr	r1, .L104
 3590 021c 1346     		mov	r3, r2
 3591 021e DB00     		lsls	r3, r3, #3
 3592 0220 9B1A     		subs	r3, r3, r2
 3593 0222 DB00     		lsls	r3, r3, #3
 3594 0224 0B44     		add	r3, r3, r1
 3595 0226 1B68     		ldr	r3, [r3]
 3596              		.loc 1 646 81
 3597 0228 0246     		mov	r2, r0
 3598              		.loc 1 646 67
 3599 022a 5A61     		str	r2, [r3, #20]
 3600              	.LBB18:
 647:libraries/zf_driver/zf_driver_hrtim.c ****         for(uint8 i = 0; i < 6; i ++)
 3601              		.loc 1 647 19
 3602 022c 0023     		movs	r3, #0
 3603 022e 8DF82030 		strb	r3, [sp, #32]
 3604              		.loc 1 647 9
 3605 0232 17E0     		b	.L99
 3606              	.L100:
 648:libraries/zf_driver/zf_driver_hrtim.c ****         {
 649:libraries/zf_driver/zf_driver_hrtim.c ****             hrtim_obj_list[hrtim_index].hrtimer_obj->sTimerxRegs[i].PERxR = period_temp - 1;
 3607              		.loc 1 649 89 discriminator 3
 3608 0234 BDF82230 		ldrh	r3, [sp, #34]
 3609 0238 581E     		subs	r0, r3, #1
 3610              		.loc 1 649 40 discriminator 3
 3611 023a 9DF81720 		ldrb	r2, [sp, #23]	@ zero_extendqisi2
 3612 023e 2E49     		ldr	r1, .L104
 3613 0240 1346     		mov	r3, r2
 3614 0242 DB00     		lsls	r3, r3, #3
 3615 0244 9B1A     		subs	r3, r3, r2
 3616 0246 DB00     		lsls	r3, r3, #3
 3617 0248 0B44     		add	r3, r3, r1
 3618 024a 1A68     		ldr	r2, [r3]
 3619              		.loc 1 649 68 discriminator 3
 3620 024c 9DF82030 		ldrb	r3, [sp, #32]	@ zero_extendqisi2
 3621              		.loc 1 649 89 discriminator 3
 3622 0250 0146     		mov	r1, r0
 3623              		.loc 1 649 75 discriminator 3
 3624 0252 DB01     		lsls	r3, r3, #7
 3625 0254 1344     		add	r3, r3, r2
 3626 0256 9433     		adds	r3, r3, #148
 3627 0258 1960     		str	r1, [r3]
 647:libraries/zf_driver/zf_driver_hrtim.c ****         for(uint8 i = 0; i < 6; i ++)
 3628              		.loc 1 647 35 discriminator 3
 3629 025a 9DF82030 		ldrb	r3, [sp, #32]	@ zero_extendqisi2
 3630 025e 0133     		adds	r3, r3, #1
 3631 0260 8DF82030 		strb	r3, [sp, #32]
 3632              	.L99:
 647:libraries/zf_driver/zf_driver_hrtim.c ****         for(uint8 i = 0; i < 6; i ++)
 3633              		.loc 1 647 9 discriminator 1
 3634 0264 9DF82030 		ldrb	r3, [sp, #32]	@ zero_extendqisi2
 3635 0268 052B     		cmp	r3, #5
 3636 026a E3D9     		bls	.L100
 3637              	.LBE18:
 650:libraries/zf_driver/zf_driver_hrtim.c ****         }
 651:libraries/zf_driver/zf_driver_hrtim.c ****         hrtim_obj_list[hrtim_index].period = period_temp;
 3638              		.loc 1 651 36
 3639 026c 9DF81720 		ldrb	r2, [sp, #23]	@ zero_extendqisi2
 3640              		.loc 1 651 44
 3641 0270 BDF82210 		ldrh	r1, [sp, #34]
 3642 0274 2048     		ldr	r0, .L104
 3643 0276 1346     		mov	r3, r2
 3644 0278 DB00     		lsls	r3, r3, #3
 3645 027a 9B1A     		subs	r3, r3, r2
 3646 027c DB00     		lsls	r3, r3, #3
 3647 027e 0344     		add	r3, r3, r0
 3648 0280 2C33     		adds	r3, r3, #44
 3649 0282 1960     		str	r1, [r3]
 652:libraries/zf_driver/zf_driver_hrtim.c **** 
 653:libraries/zf_driver/zf_driver_hrtim.c ****         register_temp = freq_div | 0x00000008;
 3650              		.loc 1 653 34
 3651 0284 BDF82430 		ldrh	r3, [sp, #36]	@ movhi
 3652 0288 43F00803 		orr	r3, r3, #8
 3653 028c 9BB2     		uxth	r3, r3
 3654              		.loc 1 653 23
 3655 028e 0693     		str	r3, [sp, #24]
 3656              	.LBB19:
 654:libraries/zf_driver/zf_driver_hrtim.c ****         for(uint8 i = 0; i < 6; i ++)
 3657              		.loc 1 654 19
 3658 0290 0023     		movs	r3, #0
 3659 0292 8DF81F30 		strb	r3, [sp, #31]
 3660              		.loc 1 654 9
 3661 0296 14E0     		b	.L101
 3662              	.L102:
 655:libraries/zf_driver/zf_driver_hrtim.c ****         {
 656:libraries/zf_driver/zf_driver_hrtim.c ****             hrtim_obj_list[hrtim_index].hrtimer_obj->sTimerxRegs[i].TIMxCR = register_temp;
 3663              		.loc 1 656 40 discriminator 3
 3664 0298 9DF81720 		ldrb	r2, [sp, #23]	@ zero_extendqisi2
 3665 029c 1649     		ldr	r1, .L104
 3666 029e 1346     		mov	r3, r2
 3667 02a0 DB00     		lsls	r3, r3, #3
 3668 02a2 9B1A     		subs	r3, r3, r2
 3669 02a4 DB00     		lsls	r3, r3, #3
 3670 02a6 0B44     		add	r3, r3, r1
 3671 02a8 1A68     		ldr	r2, [r3]
 3672              		.loc 1 656 68 discriminator 3
 3673 02aa 9DF81F30 		ldrb	r3, [sp, #31]	@ zero_extendqisi2
 3674              		.loc 1 656 76 discriminator 3
 3675 02ae 0133     		adds	r3, r3, #1
 3676 02b0 DB01     		lsls	r3, r3, #7
 3677 02b2 1344     		add	r3, r3, r2
 3678 02b4 069A     		ldr	r2, [sp, #24]
 3679 02b6 1A60     		str	r2, [r3]
 654:libraries/zf_driver/zf_driver_hrtim.c ****         for(uint8 i = 0; i < 6; i ++)
 3680              		.loc 1 654 35 discriminator 3
 3681 02b8 9DF81F30 		ldrb	r3, [sp, #31]	@ zero_extendqisi2
 3682 02bc 0133     		adds	r3, r3, #1
 3683 02be 8DF81F30 		strb	r3, [sp, #31]
 3684              	.L101:
 654:libraries/zf_driver/zf_driver_hrtim.c ****         for(uint8 i = 0; i < 6; i ++)
 3685              		.loc 1 654 9 discriminator 1
 3686 02c2 9DF81F30 		ldrb	r3, [sp, #31]	@ zero_extendqisi2
 3687 02c6 052B     		cmp	r3, #5
 3688 02c8 E6D9     		bls	.L102
 3689              	.LBE19:
 657:libraries/zf_driver/zf_driver_hrtim.c ****         }
 658:libraries/zf_driver/zf_driver_hrtim.c ****         hrtim_obj_list[hrtim_index].hrtimer_obj->sMasterRegs.MCR = register_temp | 0x007F0000;
 3690              		.loc 1 658 36
 3691 02ca 9DF81720 		ldrb	r2, [sp, #23]	@ zero_extendqisi2
 3692 02ce 0A49     		ldr	r1, .L104
 3693 02d0 1346     		mov	r3, r2
 3694 02d2 DB00     		lsls	r3, r3, #3
 3695 02d4 9B1A     		subs	r3, r3, r2
 3696 02d6 DB00     		lsls	r3, r3, #3
 3697 02d8 0B44     		add	r3, r3, r1
 3698 02da 1B68     		ldr	r3, [r3]
 3699              		.loc 1 658 82
 3700 02dc 069A     		ldr	r2, [sp, #24]
 3701 02de 42F4FE02 		orr	r2, r2, #8323072
 3702              		.loc 1 658 66
 3703 02e2 1A60     		str	r2, [r3]
 659:libraries/zf_driver/zf_driver_hrtim.c **** 
 660:libraries/zf_driver/zf_driver_hrtim.c ****         return_state = HRTIM_OPERATION_DONE;
 3704              		.loc 1 660 22
 3705 02e4 0023     		movs	r3, #0
 3706 02e6 8DF82730 		strb	r3, [sp, #39]
 3707              	.L93:
 3708              	.LBE16:
 661:libraries/zf_driver/zf_driver_hrtim.c ****     }while(0);
 662:libraries/zf_driver/zf_driver_hrtim.c **** 
 663:libraries/zf_driver/zf_driver_hrtim.c ****     return return_state;
 3709              		.loc 1 663 12
 3710 02ea 9DF82730 		ldrb	r3, [sp, #39]	@ zero_extendqisi2
 664:libraries/zf_driver/zf_driver_hrtim.c **** }
 3711              		.loc 1 664 1
 3712 02ee 1846     		mov	r0, r3
 3713 02f0 0BB0     		add	sp, sp, #44
 3714              		.cfi_def_cfa_offset 36
 3715              		@ sp needed
 3716 02f2 BDE8F08F 		pop	{r4, r5, r6, r7, r8, r9, r10, fp, pc}
 3717              	.L105:
 3718 02f6 00BF     		.align	2
 3719              	.L104:
 3720 02f8 00000000 		.word	hrtim_obj_list
 3721 02fc 00000000 		.word	.LC0
 3722 0300 00000000 		.word	hrtim_rcc_index_list
 3723              		.cfi_endproc
 3724              	.LFE188:
 3726              		.text
 3727              	.Letext0:
 3728              		.file 2 "c:\\stellarstudio-7.0\\sdks\\tools-1.4.0\\toolchain\\arm\\mingw64_nt\\10.3-2021.10\\arm-n
 3729              		.file 3 "c:\\stellarstudio-7.0\\sdks\\tools-1.4.0\\toolchain\\arm\\mingw64_nt\\10.3-2021.10\\arm-n
 3730              		.file 4 "libraries/zf_common/zf_common_typedef.h"
 3731              		.file 5 "C:/StellarStudio-7.0/SDKS/StellarESDK-1.7.0/Modules/Platform/MCU/include/sr5e1/SR5E1_HRTI
 3732              		.file 6 "C:/StellarStudio-7.0/SDKS/StellarESDK-1.7.0/Modules/Platform/MCU/include/sr5e1/sr5e1xx.h"
 3733              		.file 7 "libraries/zf_driver/zf_driver_rcc.h"
 3734              		.file 8 "libraries/zf_driver/zf_driver_gpio.h"
 3735              		.file 9 "libraries/zf_driver/zf_driver_hrtim.h"