   1              		.cpu cortex-m7
   2              		.arch armv7e-m
   3              		.fpu fpv5-d16
   4              		.eabi_attribute 28, 1
   5              		.eabi_attribute 20, 1
   6              		.eabi_attribute 21, 1
   7              		.eabi_attribute 23, 3
   8              		.eabi_attribute 24, 1
   9              		.eabi_attribute 25, 1
  10              		.eabi_attribute 26, 1
  11              		.eabi_attribute 30, 6
  12              		.eabi_attribute 34, 1
  13              		.eabi_attribute 18, 4
  14              		.file	"zf_driver_uart.c"
  15              		.text
  16              	.Ltext0:
  17              		.cfi_sections	.debug_frame
  18              		.global	uart_obj_list
  19              		.section	.data.uart_obj_list,"aw"
  20              		.align	2
  23              	uart_obj_list:
  24 0000 00000000 		.word	0
  25 0004 006C0042 		.word	1107323904
  26 0008 FF0F     		.short	4095
  27 000a FF0F     		.short	4095
  28 000c 00000000 		.word	0
  29 0010 00000000 		.word	0
  30 0014 006C0040 		.word	1073769472
  31 0018 FF0F     		.short	4095
  32 001a FF0F     		.short	4095
  33 001c 00000000 		.word	0
  34 0020 00000000 		.word	0
  35 0024 00700040 		.word	1073770496
  36 0028 FF0F     		.short	4095
  37 002a FF0F     		.short	4095
  38 002c 00000000 		.word	0
  39              		.global	uart_callback
  40              		.section	.data.uart_callback,"aw"
  41              		.align	2
  44              	uart_callback:
  45 0000 00000000 		.word	zf_uart_callbakc_defalut
  46 0004 00000000 		.word	uart_obj_list
  47 0008 00000000 		.word	zf_uart_callbakc_defalut
  48 000c 10000000 		.word	uart_obj_list+16
  49 0010 00000000 		.word	zf_uart_callbakc_defalut
  50 0014 20000000 		.word	uart_obj_list+32
  51              		.section	.rodata.uart_irq_index_list,"a"
  52              		.align	2
  55              	uart_irq_index_list:
  56 0000 25       		.byte	37
  57 0001 26       		.byte	38
  58 0002 27       		.byte	39
  59              		.section	.rodata.uart_rcc_index_list,"a"
  60              		.align	2
  63              	uart_rcc_index_list:
  64 0000 B501     		.short	437
  65 0002 B401     		.short	436
  66 0004 C401     		.short	452
  67              		.section	.text.zf_uart_callbakc_defalut,"ax",%progbits
  68              		.align	1
  69              		.p2align 4,,15
  70              		.syntax unified
  71              		.thumb
  72              		.thumb_func
  74              	zf_uart_callbakc_defalut:
  75              	.LFB180:
  76              		.file 1 "libraries/zf_driver/zf_driver_uart.c"
   1:libraries/zf_driver/zf_driver_uart.c **** /**************************************************************************************************
   2:libraries/zf_driver/zf_driver_uart.c **** * Stellar-SR5E1E3 Opensource Library Âç≥ÔºàStellar-SR5E1E3 ÂºÄÊ∫êÂ∫ìÔºâÊòØ‰∏Ä‰∏™Âü∫‰∫éÂÆòÊñπ SDK Êé
   3:libraries/zf_driver/zf_driver_uart.c **** * Copyright (c) 2022 SEEKFREE ÈÄêÈ£ûÁßëÊäÄ
   4:libraries/zf_driver/zf_driver_uart.c **** *
   5:libraries/zf_driver/zf_driver_uart.c **** * Êú¨Êñá‰ª∂ÊòØ Stellar-SR5E1E3 ÂºÄÊ∫êÂ∫ìÁöÑ‰∏ÄÈÉ®ÂàÜ
   6:libraries/zf_driver/zf_driver_uart.c **** *
   7:libraries/zf_driver/zf_driver_uart.c **** * Stellar-SR5E1E3 ÂºÄÊ∫êÂ∫ì ÊòØÂÖçË¥πËΩØ‰ª∂
   8:libraries/zf_driver/zf_driver_uart.c **** * ÊÇ®ÂèØ‰ª•Ê†πÊçÆËá™Áî±ËΩØ‰ª∂Âü∫Èáë‰ºöÂèëÂ∏ÉÁöÑ GPLÔºàGNU General Public LicenseÔºåÂç≥ GNUÈÄöÁî®ÂÖ¨
   9:libraries/zf_driver/zf_driver_uart.c **** * Âç≥ GPL ÁöÑÁ¨¨3ÁâàÔºàÂç≥ GPL3.0ÔºâÊàñÔºàÊÇ®ÈÄâÊã©ÁöÑÔºâ‰ªª‰ΩïÂêéÊù•ÁöÑÁâàÊú¨ÔºåÈáçÊñ∞ÂèëÂ∏ÉÂíå/Êà
  10:libraries/zf_driver/zf_driver_uart.c **** *
  11:libraries/zf_driver/zf_driver_uart.c **** * Êú¨ÂºÄÊ∫êÂ∫ìÁöÑÂèëÂ∏ÉÊòØÂ∏åÊúõÂÆÉËÉΩÂèëÊå•‰ΩúÁî®Ôºå‰ΩÜÂπ∂Êú™ÂØπÂÖ∂‰Ωú‰ªª‰ΩïÁöÑ‰øùËØÅ
  12:libraries/zf_driver/zf_driver_uart.c **** * ÁîöËá≥Ê≤°ÊúâÈöêÂê´ÁöÑÈÄÇÈîÄÊÄßÊàñÈÄÇÂêàÁâπÂÆöÁî®ÈÄîÁöÑ‰øùËØÅ
  13:libraries/zf_driver/zf_driver_uart.c **** * Êõ¥Â§öÁªÜËäÇËØ∑ÂèÇËßÅ GPL
  14:libraries/zf_driver/zf_driver_uart.c **** *
  15:libraries/zf_driver/zf_driver_uart.c **** * ÊÇ®Â∫îËØ•Âú®Êî∂Âà∞Êú¨ÂºÄÊ∫êÂ∫ìÁöÑÂêåÊó∂Êî∂Âà∞‰∏Ä‰ªΩ GPL ÁöÑÂâØÊú¨
  16:libraries/zf_driver/zf_driver_uart.c **** * Â¶ÇÊûúÊ≤°ÊúâÔºåËØ∑ÂèÇÈòÖ<https://www.gnu.org/licenses/>
  17:libraries/zf_driver/zf_driver_uart.c **** *
  18:libraries/zf_driver/zf_driver_uart.c **** * È¢ùÂ§ñÊ≥®ÊòéÔºö
  19:libraries/zf_driver/zf_driver_uart.c **** * Êú¨ÂºÄÊ∫êÂ∫ì‰ΩøÁî® GPL3.0 ÂºÄÊ∫êËÆ∏ÂèØËØÅÂçèËÆÆ ‰ª•‰∏äËÆ∏ÂèØÁî≥Êòé‰∏∫ËØëÊñáÁâàÊú¨
  20:libraries/zf_driver/zf_driver_uart.c **** * ËÆ∏ÂèØÁî≥ÊòéËã±ÊñáÁâàÂú® libraries/doc Êñá‰ª∂Â§π‰∏ãÁöÑ GPL3_permission_statement.txt Êñá‰ª∂‰∏≠
  21:libraries/zf_driver/zf_driver_uart.c **** * ËÆ∏ÂèØËØÅÂâØÊú¨Âú® libraries Êñá‰ª∂Â§π‰∏ã Âç≥ËØ•Êñá‰ª∂Â§π‰∏ãÁöÑ LICENSE Êñá‰ª∂
  22:libraries/zf_driver/zf_driver_uart.c **** * Ê¨¢ËøéÂêÑ‰Ωç‰ΩøÁî®Âπ∂‰º†Êí≠Êú¨Á®ãÂ∫è ‰ΩÜ‰øÆÊîπÂÜÖÂÆπÊó∂ÂøÖÈ°ª‰øùÁïôÈÄêÈ£ûÁßëÊäÄÁöÑÁâàÊùÉÂ£∞ÊòéÔºà
  23:libraries/zf_driver/zf_driver_uart.c **** *
  24:libraries/zf_driver/zf_driver_uart.c **** * Êñá‰ª∂ÂêçÁß∞          zf_driver_uart
  25:libraries/zf_driver/zf_driver_uart.c **** * ÂÖ¨Âè∏ÂêçÁß∞          ÊàêÈÉΩÈÄêÈ£ûÁßëÊäÄÊúâÈôêÂÖ¨Âè∏
  26:libraries/zf_driver/zf_driver_uart.c **** * ÁâàÊú¨‰ø°ÊÅØ          Êü•Áúã libraries/doc Êñá‰ª∂Â§πÂÜÖ version Êñá‰ª∂ ÁâàÊú¨ËØ¥Êòé
  27:libraries/zf_driver/zf_driver_uart.c **** * ÂºÄÂèëÁéØÂ¢É          StellarStudio 7.0.0
  28:libraries/zf_driver/zf_driver_uart.c **** * ÈÄÇÁî®Âπ≥Âè∞          Stellar-SR5E1E3
  29:libraries/zf_driver/zf_driver_uart.c **** * Â∫óÈì∫ÈìæÊé•          https://www.seekfree.cn/
  30:libraries/zf_driver/zf_driver_uart.c **** ***************************************************************************************************
  31:libraries/zf_driver/zf_driver_uart.c **** 
  32:libraries/zf_driver/zf_driver_uart.c **** // zf_common Â±ÇÂºïÁî®
  33:libraries/zf_driver/zf_driver_uart.c **** #include "zf_common_debug.h"
  34:libraries/zf_driver/zf_driver_uart.c **** #include "zf_common_fifo.h"
  35:libraries/zf_driver/zf_driver_uart.c **** #include "zf_common_memory.h"
  36:libraries/zf_driver/zf_driver_uart.c **** 
  37:libraries/zf_driver/zf_driver_uart.c **** // zf_driver Â±ÇÂºïÁî®
  38:libraries/zf_driver/zf_driver_uart.c **** #include "zf_driver_interrupt.h"
  39:libraries/zf_driver/zf_driver_uart.c **** #include "zf_driver_rcc.h"
  40:libraries/zf_driver/zf_driver_uart.c **** 
  41:libraries/zf_driver/zf_driver_uart.c **** // Ëá™Ë∫´Â§¥Êñá‰ª∂
  42:libraries/zf_driver/zf_driver_uart.c **** #include "zf_driver_uart.h"
  43:libraries/zf_driver/zf_driver_uart.c **** 
  44:libraries/zf_driver/zf_driver_uart.c **** // Ê≠§Â§ÑÂÆö‰πâ Êú¨Êñá‰ª∂Áî®‰ΩøÁî®ÁöÑÊ®°ÂùóÁÆ°ÁêÜÊï∞ÊçÆ ËøôÈáå‰∏çÂÖÅËÆ∏Áî®Êà∑‰øÆÊîπ ËøôÈáå‰∏çÂÖÅËÆ∏
  45:libraries/zf_driver/zf_driver_uart.c **** // >>>>>>>>>>>>>>>>>>>>>>>>>>>>>>>>>>>>>>>>> Part Start >>>>>>>>>>>>>>>>>>>>>>>>>>>>>>>>>>>>>>>>>
  46:libraries/zf_driver/zf_driver_uart.c **** #define UART_INPUT_CLOCK    ( 60000000 )
  47:libraries/zf_driver/zf_driver_uart.c **** 
  48:libraries/zf_driver/zf_driver_uart.c **** static void zf_uart_callbakc_defalut (uint32 event, void *ptr);
  49:libraries/zf_driver/zf_driver_uart.c **** 
  50:libraries/zf_driver/zf_driver_uart.c **** // Â≠òÂÇ®‰∫éÈ¢ÑÂºÄËæüÁöÑÂÜÖÂ≠òÊ±†‰∏≠ÁöÑÁÆ°ÁêÜ‰ø°ÊÅØ Êú¨ÈÉ®ÂàÜÂØπ‰∫éÁî®Êà∑Êù•ËØ¥ÊòØ‰∏çÂºÄÊîæÁöÑ
  51:libraries/zf_driver/zf_driver_uart.c **** AT_ZF_LIB_SECTION_START
  52:libraries/zf_driver/zf_driver_uart.c **** AT_ZF_LIB_SECTION zf_uart_obj_struct uart_obj_list[UART_NUM_MAX] = 
  53:libraries/zf_driver/zf_driver_uart.c **** {
  54:libraries/zf_driver/zf_driver_uart.c ****     {.baudrate = 0, .uart_ptr = UART1, .tx_pin = PIN_NULL, .rx_pin = PIN_NULL, .config_info = 0},
  55:libraries/zf_driver/zf_driver_uart.c ****     {.baudrate = 0, .uart_ptr = UART2, .tx_pin = PIN_NULL, .rx_pin = PIN_NULL, .config_info = 0},
  56:libraries/zf_driver/zf_driver_uart.c ****     {.baudrate = 0, .uart_ptr = UART3, .tx_pin = PIN_NULL, .rx_pin = PIN_NULL, .config_info = 0},
  57:libraries/zf_driver/zf_driver_uart.c **** };
  58:libraries/zf_driver/zf_driver_uart.c **** 
  59:libraries/zf_driver/zf_driver_uart.c **** // ‰∏≤Âè£‰∏≠Êñ≠ ÂõûË∞ÉÂáΩÊï∞Á¨¨‰∏Ä‰∏™ÂèÇÊï∞‰ª£Ë°®Ëß¶ÂèëÁ±ªÂûã ÂèëÈÄÅÁ©∫‰∏≠Êñ≠ÊàñÊé•Êî∂ÊúâÊïà‰∏≠Êñ≠ 
  60:libraries/zf_driver/zf_driver_uart.c **** AT_ZF_LIB_SECTION zf_interrupt_callback_struct uart_callback[UART_NUM_MAX] = 
  61:libraries/zf_driver/zf_driver_uart.c **** {
  62:libraries/zf_driver/zf_driver_uart.c ****     {zf_uart_callbakc_defalut, &uart_obj_list[0]},
  63:libraries/zf_driver/zf_driver_uart.c ****     {zf_uart_callbakc_defalut, &uart_obj_list[1]},
  64:libraries/zf_driver/zf_driver_uart.c ****     {zf_uart_callbakc_defalut, &uart_obj_list[2]},
  65:libraries/zf_driver/zf_driver_uart.c **** };
  66:libraries/zf_driver/zf_driver_uart.c **** AT_ZF_LIB_SECTION_END
  67:libraries/zf_driver/zf_driver_uart.c **** // <<<<<<<<<<<<<<<<<<<<<<<<<<<<<<<<<<<<<<<<< Part   End <<<<<<<<<<<<<<<<<<<<<<<<<<<<<<<<<<<<<<<<<
  68:libraries/zf_driver/zf_driver_uart.c **** 
  69:libraries/zf_driver/zf_driver_uart.c **** // Ê≠§Â§ÑÂÆö‰πâ Êú¨Êñá‰ª∂Áî®‰ΩøÁî®ÁöÑÈùôÊÄÅÊàñÂ∏∏‰∫ÆÊï∞ÊçÆ ËøôÈáå‰∏çÂÖÅËÆ∏Áî®Êà∑‰øÆÊîπ ËøôÈáå‰∏çÂÖÅ
  70:libraries/zf_driver/zf_driver_uart.c **** // >>>>>>>>>>>>>>>>>>>>>>>>>>>>>>>>>>>>>>>>> Part Start >>>>>>>>>>>>>>>>>>>>>>>>>>>>>>>>>>>>>>>>>
  71:libraries/zf_driver/zf_driver_uart.c **** // Áî®‰∫éÂõ∫ÂÆöÂÄºÊàñÊåáÂêëÁöÑÂÜÖÂÆπ ‰∏ªË¶ÅÊòØÁî®Â∞ëÈáèÂ≠òÂÇ®Âç†Áî®Êù•ÂáèÂ∞ëÊ†àÂºÄÈîÄ
  72:libraries/zf_driver/zf_driver_uart.c **** static const zf_interrupt_index_enum uart_irq_index_list[UART_NUM_MAX] =
  73:libraries/zf_driver/zf_driver_uart.c **** {
  74:libraries/zf_driver/zf_driver_uart.c ****     INTERRUPT_INDEX_UART1, INTERRUPT_INDEX_UART2, INTERRUPT_INDEX_UART3,
  75:libraries/zf_driver/zf_driver_uart.c **** };
  76:libraries/zf_driver/zf_driver_uart.c **** 
  77:libraries/zf_driver/zf_driver_uart.c **** static const zf_rcc_index_enum uart_rcc_index_list[UART_NUM_MAX] = 
  78:libraries/zf_driver/zf_driver_uart.c **** {
  79:libraries/zf_driver/zf_driver_uart.c ****     RCC_INDEX_UART1, RCC_INDEX_UART2, RCC_INDEX_UART3,
  80:libraries/zf_driver/zf_driver_uart.c **** };
  81:libraries/zf_driver/zf_driver_uart.c **** // <<<<<<<<<<<<<<<<<<<<<<<<<<<<<<<<<<<<<<<<< Part   End <<<<<<<<<<<<<<<<<<<<<<<<<<<<<<<<<<<<<<<<<
  82:libraries/zf_driver/zf_driver_uart.c **** 
  83:libraries/zf_driver/zf_driver_uart.c **** // Ê≠§Â§ÑÂÆö‰πâ Êú¨Êñá‰ª∂ÁöÑÂ§ñÈÉ®ÈáçËΩΩÂáΩÊï∞ ËøôÈáå‰∏çÂÖÅËÆ∏Áî®Êà∑‰øÆÊîπ
  84:libraries/zf_driver/zf_driver_uart.c **** // >>>>>>>>>>>>>>>>>>>>>>>>>>>>>>>>>>>>>>>>> Part Start >>>>>>>>>>>>>>>>>>>>>>>>>>>>>>>>>>>>>>>>>
  85:libraries/zf_driver/zf_driver_uart.c **** //-------------------------------------------------------------------------------------------------
  86:libraries/zf_driver/zf_driver_uart.c **** // ÂáΩÊï∞ÁÆÄ‰ªã     UART ‰∏≠Êñ≠ÈªòËÆ§ÂõûË∞ÉÂáΩÊï∞
  87:libraries/zf_driver/zf_driver_uart.c **** // ÂèÇÊï∞ËØ¥Êòé     event               Ëß¶Âèë‰∏≠Êñ≠ÁöÑ‰∫ã‰ª∂ Ê≠§Â§ÑÈªòËÆ§‰∏∫ 0
  88:libraries/zf_driver/zf_driver_uart.c **** // ÂèÇÊï∞ËØ¥Êòé     *ptr                ÂõûË∞ÉÂèÇÊï∞ Áî®Êà∑Ëá™ÊãüÂÆöÁöÑÂèÇÊï∞ÊåáÈíà ‰∏çÈúÄË¶ÅÁöÑËØù
  89:libraries/zf_driver/zf_driver_uart.c **** // ËøîÂõûÂèÇÊï∞     void
  90:libraries/zf_driver/zf_driver_uart.c **** // ‰ΩøÁî®Á§∫‰æã     
  91:libraries/zf_driver/zf_driver_uart.c **** // Â§áÊ≥®‰ø°ÊÅØ     
  92:libraries/zf_driver/zf_driver_uart.c **** //-------------------------------------------------------------------------------------------------
  93:libraries/zf_driver/zf_driver_uart.c **** static void zf_uart_callbakc_defalut (uint32 event, void *ptr)
  94:libraries/zf_driver/zf_driver_uart.c **** {
  77              		.loc 1 94 1
  78              		.cfi_startproc
  79              		@ args = 0, pretend = 0, frame = 8
  80              		@ frame_needed = 0, uses_anonymous_args = 0
  81              		@ link register save eliminated.
  82 0000 82B0     		sub	sp, sp, #8
  83              		.cfi_def_cfa_offset 8
  84 0002 0190     		str	r0, [sp, #4]
  85 0004 0091     		str	r1, [sp]
  95:libraries/zf_driver/zf_driver_uart.c **** 	(void)event;
  96:libraries/zf_driver/zf_driver_uart.c **** 	(void)ptr;
  97:libraries/zf_driver/zf_driver_uart.c **** }
  86              		.loc 1 97 1
  87 0006 00BF     		nop
  88 0008 02B0     		add	sp, sp, #8
  89              		.cfi_def_cfa_offset 0
  90              		@ sp needed
  91 000a 7047     		bx	lr
  92              		.cfi_endproc
  93              	.LFE180:
  95              		.section	.text.VectorD4,"ax",%progbits
  96              		.align	1
  97              		.p2align 4,,15
  98              		.global	VectorD4
  99              		.syntax unified
 100              		.thumb
 101              		.thumb_func
 103              	VectorD4:
 104              	.LFB181:
  98:libraries/zf_driver/zf_driver_uart.c **** 
  99:libraries/zf_driver/zf_driver_uart.c **** //-------------------------------------------------------------------------------------------------
 100:libraries/zf_driver/zf_driver_uart.c **** // ÂáΩÊï∞ÁÆÄ‰ªã     UART1 ÁöÑ‰∏≤Âè£‰∏≠Êñ≠ÊúçÂä°ÂáΩÊï∞
 101:libraries/zf_driver/zf_driver_uart.c **** // ÂèÇÊï∞ËØ¥Êòé     void
 102:libraries/zf_driver/zf_driver_uart.c **** // ËøîÂõûÂèÇÊï∞     void
 103:libraries/zf_driver/zf_driver_uart.c **** // ‰ΩøÁî®Á§∫‰æã     
 104:libraries/zf_driver/zf_driver_uart.c **** // Â§áÊ≥®‰ø°ÊÅØ     ÂêØÂä® .s Êñá‰ª∂ÂÆö‰πâ ‰∏çÂÖÅËÆ∏‰øÆÊîπÂáΩÊï∞ÂêçÁß∞
 105:libraries/zf_driver/zf_driver_uart.c **** //              uart_set_interrupt_priority(uart_index, priority);
 106:libraries/zf_driver/zf_driver_uart.c **** //-------------------------------------------------------------------------------------------------
 107:libraries/zf_driver/zf_driver_uart.c **** void IRQ_UART1_HANDLER (void)
 108:libraries/zf_driver/zf_driver_uart.c **** {
 105              		.loc 1 108 1
 106              		.cfi_startproc
 107              		@ args = 0, pretend = 0, frame = 8
 108              		@ frame_needed = 0, uses_anonymous_args = 0
 109 0000 00B5     		push	{lr}
 110              		.cfi_def_cfa_offset 4
 111              		.cfi_offset 14, -4
 112 0002 83B0     		sub	sp, sp, #12
 113              		.cfi_def_cfa_offset 16
 109:libraries/zf_driver/zf_driver_uart.c ****     #define TEMP_UART_INDEX         UART1
 110:libraries/zf_driver/zf_driver_uart.c ****     #define TEMP_UART_CALLBACK      uart_callback[UART_1]
 111:libraries/zf_driver/zf_driver_uart.c **** 
 112:libraries/zf_driver/zf_driver_uart.c ****     if(uart_obj_list[UART_1].baudrate)
 114              		.loc 1 112 29
 115 0004 234B     		ldr	r3, .L10
 116 0006 1B68     		ldr	r3, [r3]
 117              		.loc 1 112 7
 118 0008 002B     		cmp	r3, #0
 119 000a 38D0     		beq	.L3
 120              	.LBB11:
 113:libraries/zf_driver/zf_driver_uart.c ****     {
 114:libraries/zf_driver/zf_driver_uart.c ****         uint32 event_temp = UART_INTERRUPT_STATE_NONE;
 121              		.loc 1 114 16
 122 000c 0023     		movs	r3, #0
 123 000e 0193     		str	r3, [sp, #4]
 115:libraries/zf_driver/zf_driver_uart.c ****         if((TEMP_UART_INDEX->CR1 & UART_CR1_RXNEIE_RXFNEIE))
 124              		.loc 1 115 28
 125 0010 214B     		ldr	r3, .L10+4
 126 0012 1B68     		ldr	r3, [r3]
 127              		.loc 1 115 34
 128 0014 03F02003 		and	r3, r3, #32
 129              		.loc 1 115 11
 130 0018 002B     		cmp	r3, #0
 131 001a 0CD0     		beq	.L4
 116:libraries/zf_driver/zf_driver_uart.c ****         {
 117:libraries/zf_driver/zf_driver_uart.c ****             event_temp |= (TEMP_UART_INDEX->ISR & UART_ISR_RXNE_RXFNE) ? (UART_INTERRUPT_STATE_RX) 
 132              		.loc 1 117 43
 133 001c 1E4B     		ldr	r3, .L10+4
 134 001e DB69     		ldr	r3, [r3, #28]
 135              		.loc 1 117 49
 136 0020 03F02003 		and	r3, r3, #32
 137              		.loc 1 117 100
 138 0024 002B     		cmp	r3, #0
 139 0026 14BF     		ite	ne
 140 0028 0123     		movne	r3, #1
 141 002a 0023     		moveq	r3, #0
 142 002c DBB2     		uxtb	r3, r3
 143 002e 1A46     		mov	r2, r3
 144              		.loc 1 117 24
 145 0030 019B     		ldr	r3, [sp, #4]
 146 0032 1343     		orrs	r3, r3, r2
 147 0034 0193     		str	r3, [sp, #4]
 148              	.L4:
 118:libraries/zf_driver/zf_driver_uart.c ****         }
 119:libraries/zf_driver/zf_driver_uart.c ****         if((TEMP_UART_INDEX->CR1 & UART_CR1_TXEIE_TXFNFIE))
 149              		.loc 1 119 28
 150 0036 184B     		ldr	r3, .L10+4
 151 0038 1B68     		ldr	r3, [r3]
 152              		.loc 1 119 34
 153 003a 03F08003 		and	r3, r3, #128
 154              		.loc 1 119 11
 155 003e 002B     		cmp	r3, #0
 156 0040 0CD0     		beq	.L5
 120:libraries/zf_driver/zf_driver_uart.c ****         {
 121:libraries/zf_driver/zf_driver_uart.c ****             event_temp |= (TEMP_UART_INDEX->ISR & UART_ISR_TXE_TXFNF) ? (UART_INTERRUPT_STATE_TX) :
 157              		.loc 1 121 43
 158 0042 154B     		ldr	r3, .L10+4
 159 0044 DB69     		ldr	r3, [r3, #28]
 160              		.loc 1 121 49
 161 0046 03F08003 		and	r3, r3, #128
 162              		.loc 1 121 99
 163 004a 002B     		cmp	r3, #0
 164 004c 01D0     		beq	.L6
 165              		.loc 1 121 99 is_stmt 0 discriminator 1
 166 004e 0223     		movs	r3, #2
 167 0050 00E0     		b	.L7
 168              	.L6:
 169              		.loc 1 121 99 discriminator 2
 170 0052 0023     		movs	r3, #0
 171              	.L7:
 172              		.loc 1 121 99 discriminator 4
 173 0054 1A46     		mov	r2, r3
 174              		.loc 1 121 24 is_stmt 1 discriminator 4
 175 0056 019B     		ldr	r3, [sp, #4]
 176 0058 1343     		orrs	r3, r3, r2
 177 005a 0193     		str	r3, [sp, #4]
 178              	.L5:
 122:libraries/zf_driver/zf_driver_uart.c ****         }
 123:libraries/zf_driver/zf_driver_uart.c **** 
 124:libraries/zf_driver/zf_driver_uart.c ****         if(UART_INTERRUPT_STATE_NONE != event_temp)
 179              		.loc 1 124 11
 180 005c 019B     		ldr	r3, [sp, #4]
 181 005e 002B     		cmp	r3, #0
 182 0060 06D0     		beq	.L8
 125:libraries/zf_driver/zf_driver_uart.c ****         {
 126:libraries/zf_driver/zf_driver_uart.c ****             TEMP_UART_CALLBACK.callback(event_temp, TEMP_UART_CALLBACK.parameter_ptr);
 183              		.loc 1 126 31
 184 0062 0E4B     		ldr	r3, .L10+8
 185 0064 1B68     		ldr	r3, [r3]
 186              		.loc 1 126 13
 187 0066 0D4A     		ldr	r2, .L10+8
 188 0068 5268     		ldr	r2, [r2, #4]
 189 006a 1146     		mov	r1, r2
 190 006c 0198     		ldr	r0, [sp, #4]
 191 006e 9847     		blx	r3
 192              	.LVL0:
 193              	.L8:
 127:libraries/zf_driver/zf_driver_uart.c ****         }
 128:libraries/zf_driver/zf_driver_uart.c ****         TEMP_UART_INDEX->ICR |= 0xFFFFFFFF;
 194              		.loc 1 128 30
 195 0070 094B     		ldr	r3, .L10+4
 196 0072 1B6A     		ldr	r3, [r3, #32]
 197 0074 084B     		ldr	r3, .L10+4
 198 0076 4FF0FF32 		mov	r2, #-1
 199 007a 1A62     		str	r2, [r3, #32]
 200              	.LBE11:
 201 007c 02E0     		b	.L9
 202              	.L3:
 129:libraries/zf_driver/zf_driver_uart.c ****     }
 130:libraries/zf_driver/zf_driver_uart.c ****     else
 131:libraries/zf_driver/zf_driver_uart.c ****     {
 132:libraries/zf_driver/zf_driver_uart.c ****         IRQ_PROLOGUE();
 133:libraries/zf_driver/zf_driver_uart.c ****         __uart_serve_interrupt(&DRV_UART1);
 203              		.loc 1 133 9
 204 007e 0848     		ldr	r0, .L10+12
 205 0080 FFF7FEFF 		bl	__uart_serve_interrupt
 206              	.L9:
 207              	.LBB12:
 208              	.LBB13:
 209              		.file 2 "C:/StellarStudio-7.0/SDKS/StellarESDK-1.7.0/Modules/Platform/CMSIS/Core/Include/cmsis_gcc
   1:C:/StellarStudio-7.0/SDKS/StellarESDK-1.7.0/Modules/Platform/CMSIS/Core/Include\cmsis_gcc.h **** /**************************************************************************//**
   2:C:/StellarStudio-7.0/SDKS/StellarESDK-1.7.0/Modules/Platform/CMSIS/Core/Include\cmsis_gcc.h ****  * @file     cmsis_gcc.h
   3:C:/StellarStudio-7.0/SDKS/StellarESDK-1.7.0/Modules/Platform/CMSIS/Core/Include\cmsis_gcc.h ****  * @brief    CMSIS compiler GCC header file
   4:C:/StellarStudio-7.0/SDKS/StellarESDK-1.7.0/Modules/Platform/CMSIS/Core/Include\cmsis_gcc.h ****  * @version  V5.4.1
   5:C:/StellarStudio-7.0/SDKS/StellarESDK-1.7.0/Modules/Platform/CMSIS/Core/Include\cmsis_gcc.h ****  * @date     27. May 2021
   6:C:/StellarStudio-7.0/SDKS/StellarESDK-1.7.0/Modules/Platform/CMSIS/Core/Include\cmsis_gcc.h ****  ******************************************************************************/
   7:C:/StellarStudio-7.0/SDKS/StellarESDK-1.7.0/Modules/Platform/CMSIS/Core/Include\cmsis_gcc.h **** /*
   8:C:/StellarStudio-7.0/SDKS/StellarESDK-1.7.0/Modules/Platform/CMSIS/Core/Include\cmsis_gcc.h ****  * Copyright (c) 2009-2021 Arm Limited. All rights reserved.
   9:C:/StellarStudio-7.0/SDKS/StellarESDK-1.7.0/Modules/Platform/CMSIS/Core/Include\cmsis_gcc.h ****  *
  10:C:/StellarStudio-7.0/SDKS/StellarESDK-1.7.0/Modules/Platform/CMSIS/Core/Include\cmsis_gcc.h ****  * SPDX-License-Identifier: Apache-2.0
  11:C:/StellarStudio-7.0/SDKS/StellarESDK-1.7.0/Modules/Platform/CMSIS/Core/Include\cmsis_gcc.h ****  *
  12:C:/StellarStudio-7.0/SDKS/StellarESDK-1.7.0/Modules/Platform/CMSIS/Core/Include\cmsis_gcc.h ****  * Licensed under the Apache License, Version 2.0 (the License); you may
  13:C:/StellarStudio-7.0/SDKS/StellarESDK-1.7.0/Modules/Platform/CMSIS/Core/Include\cmsis_gcc.h ****  * not use this file except in compliance with the License.
  14:C:/StellarStudio-7.0/SDKS/StellarESDK-1.7.0/Modules/Platform/CMSIS/Core/Include\cmsis_gcc.h ****  * You may obtain a copy of the License at
  15:C:/StellarStudio-7.0/SDKS/StellarESDK-1.7.0/Modules/Platform/CMSIS/Core/Include\cmsis_gcc.h ****  *
  16:C:/StellarStudio-7.0/SDKS/StellarESDK-1.7.0/Modules/Platform/CMSIS/Core/Include\cmsis_gcc.h ****  * www.apache.org/licenses/LICENSE-2.0
  17:C:/StellarStudio-7.0/SDKS/StellarESDK-1.7.0/Modules/Platform/CMSIS/Core/Include\cmsis_gcc.h ****  *
  18:C:/StellarStudio-7.0/SDKS/StellarESDK-1.7.0/Modules/Platform/CMSIS/Core/Include\cmsis_gcc.h ****  * Unless required by applicable law or agreed to in writing, software
  19:C:/StellarStudio-7.0/SDKS/StellarESDK-1.7.0/Modules/Platform/CMSIS/Core/Include\cmsis_gcc.h ****  * distributed under the License is distributed on an AS IS BASIS, WITHOUT
  20:C:/StellarStudio-7.0/SDKS/StellarESDK-1.7.0/Modules/Platform/CMSIS/Core/Include\cmsis_gcc.h ****  * WARRANTIES OR CONDITIONS OF ANY KIND, either express or implied.
  21:C:/StellarStudio-7.0/SDKS/StellarESDK-1.7.0/Modules/Platform/CMSIS/Core/Include\cmsis_gcc.h ****  * See the License for the specific language governing permissions and
  22:C:/StellarStudio-7.0/SDKS/StellarESDK-1.7.0/Modules/Platform/CMSIS/Core/Include\cmsis_gcc.h ****  * limitations under the License.
  23:C:/StellarStudio-7.0/SDKS/StellarESDK-1.7.0/Modules/Platform/CMSIS/Core/Include\cmsis_gcc.h ****  */
  24:C:/StellarStudio-7.0/SDKS/StellarESDK-1.7.0/Modules/Platform/CMSIS/Core/Include\cmsis_gcc.h **** 
  25:C:/StellarStudio-7.0/SDKS/StellarESDK-1.7.0/Modules/Platform/CMSIS/Core/Include\cmsis_gcc.h **** #ifndef __CMSIS_GCC_H
  26:C:/StellarStudio-7.0/SDKS/StellarESDK-1.7.0/Modules/Platform/CMSIS/Core/Include\cmsis_gcc.h **** #define __CMSIS_GCC_H
  27:C:/StellarStudio-7.0/SDKS/StellarESDK-1.7.0/Modules/Platform/CMSIS/Core/Include\cmsis_gcc.h **** 
  28:C:/StellarStudio-7.0/SDKS/StellarESDK-1.7.0/Modules/Platform/CMSIS/Core/Include\cmsis_gcc.h **** /* ignore some GCC warnings */
  29:C:/StellarStudio-7.0/SDKS/StellarESDK-1.7.0/Modules/Platform/CMSIS/Core/Include\cmsis_gcc.h **** #pragma GCC diagnostic push
  30:C:/StellarStudio-7.0/SDKS/StellarESDK-1.7.0/Modules/Platform/CMSIS/Core/Include\cmsis_gcc.h **** #pragma GCC diagnostic ignored "-Wsign-conversion"
  31:C:/StellarStudio-7.0/SDKS/StellarESDK-1.7.0/Modules/Platform/CMSIS/Core/Include\cmsis_gcc.h **** #pragma GCC diagnostic ignored "-Wconversion"
  32:C:/StellarStudio-7.0/SDKS/StellarESDK-1.7.0/Modules/Platform/CMSIS/Core/Include\cmsis_gcc.h **** #pragma GCC diagnostic ignored "-Wunused-parameter"
  33:C:/StellarStudio-7.0/SDKS/StellarESDK-1.7.0/Modules/Platform/CMSIS/Core/Include\cmsis_gcc.h **** 
  34:C:/StellarStudio-7.0/SDKS/StellarESDK-1.7.0/Modules/Platform/CMSIS/Core/Include\cmsis_gcc.h **** /* Fallback for __has_builtin */
  35:C:/StellarStudio-7.0/SDKS/StellarESDK-1.7.0/Modules/Platform/CMSIS/Core/Include\cmsis_gcc.h **** #ifndef __has_builtin
  36:C:/StellarStudio-7.0/SDKS/StellarESDK-1.7.0/Modules/Platform/CMSIS/Core/Include\cmsis_gcc.h ****   #define __has_builtin(x) (0)
  37:C:/StellarStudio-7.0/SDKS/StellarESDK-1.7.0/Modules/Platform/CMSIS/Core/Include\cmsis_gcc.h **** #endif
  38:C:/StellarStudio-7.0/SDKS/StellarESDK-1.7.0/Modules/Platform/CMSIS/Core/Include\cmsis_gcc.h **** 
  39:C:/StellarStudio-7.0/SDKS/StellarESDK-1.7.0/Modules/Platform/CMSIS/Core/Include\cmsis_gcc.h **** /* CMSIS compiler specific defines */
  40:C:/StellarStudio-7.0/SDKS/StellarESDK-1.7.0/Modules/Platform/CMSIS/Core/Include\cmsis_gcc.h **** #ifndef   __ASM
  41:C:/StellarStudio-7.0/SDKS/StellarESDK-1.7.0/Modules/Platform/CMSIS/Core/Include\cmsis_gcc.h ****   #define __ASM                                  __asm
  42:C:/StellarStudio-7.0/SDKS/StellarESDK-1.7.0/Modules/Platform/CMSIS/Core/Include\cmsis_gcc.h **** #endif
  43:C:/StellarStudio-7.0/SDKS/StellarESDK-1.7.0/Modules/Platform/CMSIS/Core/Include\cmsis_gcc.h **** #ifndef   __INLINE
  44:C:/StellarStudio-7.0/SDKS/StellarESDK-1.7.0/Modules/Platform/CMSIS/Core/Include\cmsis_gcc.h ****   #define __INLINE                               inline
  45:C:/StellarStudio-7.0/SDKS/StellarESDK-1.7.0/Modules/Platform/CMSIS/Core/Include\cmsis_gcc.h **** #endif
  46:C:/StellarStudio-7.0/SDKS/StellarESDK-1.7.0/Modules/Platform/CMSIS/Core/Include\cmsis_gcc.h **** #ifndef   __STATIC_INLINE
  47:C:/StellarStudio-7.0/SDKS/StellarESDK-1.7.0/Modules/Platform/CMSIS/Core/Include\cmsis_gcc.h ****   #define __STATIC_INLINE                        static inline
  48:C:/StellarStudio-7.0/SDKS/StellarESDK-1.7.0/Modules/Platform/CMSIS/Core/Include\cmsis_gcc.h **** #endif
  49:C:/StellarStudio-7.0/SDKS/StellarESDK-1.7.0/Modules/Platform/CMSIS/Core/Include\cmsis_gcc.h **** #ifndef   __STATIC_FORCEINLINE
  50:C:/StellarStudio-7.0/SDKS/StellarESDK-1.7.0/Modules/Platform/CMSIS/Core/Include\cmsis_gcc.h ****   #define __STATIC_FORCEINLINE                   __attribute__((always_inline)) static inline
  51:C:/StellarStudio-7.0/SDKS/StellarESDK-1.7.0/Modules/Platform/CMSIS/Core/Include\cmsis_gcc.h **** #endif
  52:C:/StellarStudio-7.0/SDKS/StellarESDK-1.7.0/Modules/Platform/CMSIS/Core/Include\cmsis_gcc.h **** #ifndef   __NO_RETURN
  53:C:/StellarStudio-7.0/SDKS/StellarESDK-1.7.0/Modules/Platform/CMSIS/Core/Include\cmsis_gcc.h ****   #define __NO_RETURN                            __attribute__((__noreturn__))
  54:C:/StellarStudio-7.0/SDKS/StellarESDK-1.7.0/Modules/Platform/CMSIS/Core/Include\cmsis_gcc.h **** #endif
  55:C:/StellarStudio-7.0/SDKS/StellarESDK-1.7.0/Modules/Platform/CMSIS/Core/Include\cmsis_gcc.h **** #ifndef   __USED
  56:C:/StellarStudio-7.0/SDKS/StellarESDK-1.7.0/Modules/Platform/CMSIS/Core/Include\cmsis_gcc.h ****   #define __USED                                 __attribute__((used))
  57:C:/StellarStudio-7.0/SDKS/StellarESDK-1.7.0/Modules/Platform/CMSIS/Core/Include\cmsis_gcc.h **** #endif
  58:C:/StellarStudio-7.0/SDKS/StellarESDK-1.7.0/Modules/Platform/CMSIS/Core/Include\cmsis_gcc.h **** #ifndef   __WEAK
  59:C:/StellarStudio-7.0/SDKS/StellarESDK-1.7.0/Modules/Platform/CMSIS/Core/Include\cmsis_gcc.h ****   #define __WEAK                                 __attribute__((weak))
  60:C:/StellarStudio-7.0/SDKS/StellarESDK-1.7.0/Modules/Platform/CMSIS/Core/Include\cmsis_gcc.h **** #endif
  61:C:/StellarStudio-7.0/SDKS/StellarESDK-1.7.0/Modules/Platform/CMSIS/Core/Include\cmsis_gcc.h **** #ifndef   __PACKED
  62:C:/StellarStudio-7.0/SDKS/StellarESDK-1.7.0/Modules/Platform/CMSIS/Core/Include\cmsis_gcc.h ****   #define __PACKED                               __attribute__((packed, aligned(1)))
  63:C:/StellarStudio-7.0/SDKS/StellarESDK-1.7.0/Modules/Platform/CMSIS/Core/Include\cmsis_gcc.h **** #endif
  64:C:/StellarStudio-7.0/SDKS/StellarESDK-1.7.0/Modules/Platform/CMSIS/Core/Include\cmsis_gcc.h **** #ifndef   __PACKED_STRUCT
  65:C:/StellarStudio-7.0/SDKS/StellarESDK-1.7.0/Modules/Platform/CMSIS/Core/Include\cmsis_gcc.h ****   #define __PACKED_STRUCT                        struct __attribute__((packed, aligned(1)))
  66:C:/StellarStudio-7.0/SDKS/StellarESDK-1.7.0/Modules/Platform/CMSIS/Core/Include\cmsis_gcc.h **** #endif
  67:C:/StellarStudio-7.0/SDKS/StellarESDK-1.7.0/Modules/Platform/CMSIS/Core/Include\cmsis_gcc.h **** #ifndef   __PACKED_UNION
  68:C:/StellarStudio-7.0/SDKS/StellarESDK-1.7.0/Modules/Platform/CMSIS/Core/Include\cmsis_gcc.h ****   #define __PACKED_UNION                         union __attribute__((packed, aligned(1)))
  69:C:/StellarStudio-7.0/SDKS/StellarESDK-1.7.0/Modules/Platform/CMSIS/Core/Include\cmsis_gcc.h **** #endif
  70:C:/StellarStudio-7.0/SDKS/StellarESDK-1.7.0/Modules/Platform/CMSIS/Core/Include\cmsis_gcc.h **** #ifndef   __UNALIGNED_UINT32        /* deprecated */
  71:C:/StellarStudio-7.0/SDKS/StellarESDK-1.7.0/Modules/Platform/CMSIS/Core/Include\cmsis_gcc.h ****   #pragma GCC diagnostic push
  72:C:/StellarStudio-7.0/SDKS/StellarESDK-1.7.0/Modules/Platform/CMSIS/Core/Include\cmsis_gcc.h ****   #pragma GCC diagnostic ignored "-Wpacked"
  73:C:/StellarStudio-7.0/SDKS/StellarESDK-1.7.0/Modules/Platform/CMSIS/Core/Include\cmsis_gcc.h ****   #pragma GCC diagnostic ignored "-Wattributes"
  74:C:/StellarStudio-7.0/SDKS/StellarESDK-1.7.0/Modules/Platform/CMSIS/Core/Include\cmsis_gcc.h ****   struct __attribute__((packed)) T_UINT32 { uint32_t v; };
  75:C:/StellarStudio-7.0/SDKS/StellarESDK-1.7.0/Modules/Platform/CMSIS/Core/Include\cmsis_gcc.h ****   #pragma GCC diagnostic pop
  76:C:/StellarStudio-7.0/SDKS/StellarESDK-1.7.0/Modules/Platform/CMSIS/Core/Include\cmsis_gcc.h ****   #define __UNALIGNED_UINT32(x)                  (((struct T_UINT32 *)(x))->v)
  77:C:/StellarStudio-7.0/SDKS/StellarESDK-1.7.0/Modules/Platform/CMSIS/Core/Include\cmsis_gcc.h **** #endif
  78:C:/StellarStudio-7.0/SDKS/StellarESDK-1.7.0/Modules/Platform/CMSIS/Core/Include\cmsis_gcc.h **** #ifndef   __UNALIGNED_UINT16_WRITE
  79:C:/StellarStudio-7.0/SDKS/StellarESDK-1.7.0/Modules/Platform/CMSIS/Core/Include\cmsis_gcc.h ****   #pragma GCC diagnostic push
  80:C:/StellarStudio-7.0/SDKS/StellarESDK-1.7.0/Modules/Platform/CMSIS/Core/Include\cmsis_gcc.h ****   #pragma GCC diagnostic ignored "-Wpacked"
  81:C:/StellarStudio-7.0/SDKS/StellarESDK-1.7.0/Modules/Platform/CMSIS/Core/Include\cmsis_gcc.h ****   #pragma GCC diagnostic ignored "-Wattributes"
  82:C:/StellarStudio-7.0/SDKS/StellarESDK-1.7.0/Modules/Platform/CMSIS/Core/Include\cmsis_gcc.h ****   __PACKED_STRUCT T_UINT16_WRITE { uint16_t v; };
  83:C:/StellarStudio-7.0/SDKS/StellarESDK-1.7.0/Modules/Platform/CMSIS/Core/Include\cmsis_gcc.h ****   #pragma GCC diagnostic pop
  84:C:/StellarStudio-7.0/SDKS/StellarESDK-1.7.0/Modules/Platform/CMSIS/Core/Include\cmsis_gcc.h ****   #define __UNALIGNED_UINT16_WRITE(addr, val)    (void)((((struct T_UINT16_WRITE *)(void *)(addr))-
  85:C:/StellarStudio-7.0/SDKS/StellarESDK-1.7.0/Modules/Platform/CMSIS/Core/Include\cmsis_gcc.h **** #endif
  86:C:/StellarStudio-7.0/SDKS/StellarESDK-1.7.0/Modules/Platform/CMSIS/Core/Include\cmsis_gcc.h **** #ifndef   __UNALIGNED_UINT16_READ
  87:C:/StellarStudio-7.0/SDKS/StellarESDK-1.7.0/Modules/Platform/CMSIS/Core/Include\cmsis_gcc.h ****   #pragma GCC diagnostic push
  88:C:/StellarStudio-7.0/SDKS/StellarESDK-1.7.0/Modules/Platform/CMSIS/Core/Include\cmsis_gcc.h ****   #pragma GCC diagnostic ignored "-Wpacked"
  89:C:/StellarStudio-7.0/SDKS/StellarESDK-1.7.0/Modules/Platform/CMSIS/Core/Include\cmsis_gcc.h ****   #pragma GCC diagnostic ignored "-Wattributes"
  90:C:/StellarStudio-7.0/SDKS/StellarESDK-1.7.0/Modules/Platform/CMSIS/Core/Include\cmsis_gcc.h ****   __PACKED_STRUCT T_UINT16_READ { uint16_t v; };
  91:C:/StellarStudio-7.0/SDKS/StellarESDK-1.7.0/Modules/Platform/CMSIS/Core/Include\cmsis_gcc.h ****   #pragma GCC diagnostic pop
  92:C:/StellarStudio-7.0/SDKS/StellarESDK-1.7.0/Modules/Platform/CMSIS/Core/Include\cmsis_gcc.h ****   #define __UNALIGNED_UINT16_READ(addr)          (((const struct T_UINT16_READ *)(const void *)(add
  93:C:/StellarStudio-7.0/SDKS/StellarESDK-1.7.0/Modules/Platform/CMSIS/Core/Include\cmsis_gcc.h **** #endif
  94:C:/StellarStudio-7.0/SDKS/StellarESDK-1.7.0/Modules/Platform/CMSIS/Core/Include\cmsis_gcc.h **** #ifndef   __UNALIGNED_UINT32_WRITE
  95:C:/StellarStudio-7.0/SDKS/StellarESDK-1.7.0/Modules/Platform/CMSIS/Core/Include\cmsis_gcc.h ****   #pragma GCC diagnostic push
  96:C:/StellarStudio-7.0/SDKS/StellarESDK-1.7.0/Modules/Platform/CMSIS/Core/Include\cmsis_gcc.h ****   #pragma GCC diagnostic ignored "-Wpacked"
  97:C:/StellarStudio-7.0/SDKS/StellarESDK-1.7.0/Modules/Platform/CMSIS/Core/Include\cmsis_gcc.h ****   #pragma GCC diagnostic ignored "-Wattributes"
  98:C:/StellarStudio-7.0/SDKS/StellarESDK-1.7.0/Modules/Platform/CMSIS/Core/Include\cmsis_gcc.h ****   __PACKED_STRUCT T_UINT32_WRITE { uint32_t v; };
  99:C:/StellarStudio-7.0/SDKS/StellarESDK-1.7.0/Modules/Platform/CMSIS/Core/Include\cmsis_gcc.h ****   #pragma GCC diagnostic pop
 100:C:/StellarStudio-7.0/SDKS/StellarESDK-1.7.0/Modules/Platform/CMSIS/Core/Include\cmsis_gcc.h ****   #define __UNALIGNED_UINT32_WRITE(addr, val)    (void)((((struct T_UINT32_WRITE *)(void *)(addr))-
 101:C:/StellarStudio-7.0/SDKS/StellarESDK-1.7.0/Modules/Platform/CMSIS/Core/Include\cmsis_gcc.h **** #endif
 102:C:/StellarStudio-7.0/SDKS/StellarESDK-1.7.0/Modules/Platform/CMSIS/Core/Include\cmsis_gcc.h **** #ifndef   __UNALIGNED_UINT32_READ
 103:C:/StellarStudio-7.0/SDKS/StellarESDK-1.7.0/Modules/Platform/CMSIS/Core/Include\cmsis_gcc.h ****   #pragma GCC diagnostic push
 104:C:/StellarStudio-7.0/SDKS/StellarESDK-1.7.0/Modules/Platform/CMSIS/Core/Include\cmsis_gcc.h ****   #pragma GCC diagnostic ignored "-Wpacked"
 105:C:/StellarStudio-7.0/SDKS/StellarESDK-1.7.0/Modules/Platform/CMSIS/Core/Include\cmsis_gcc.h ****   #pragma GCC diagnostic ignored "-Wattributes"
 106:C:/StellarStudio-7.0/SDKS/StellarESDK-1.7.0/Modules/Platform/CMSIS/Core/Include\cmsis_gcc.h ****   __PACKED_STRUCT T_UINT32_READ { uint32_t v; };
 107:C:/StellarStudio-7.0/SDKS/StellarESDK-1.7.0/Modules/Platform/CMSIS/Core/Include\cmsis_gcc.h ****   #pragma GCC diagnostic pop
 108:C:/StellarStudio-7.0/SDKS/StellarESDK-1.7.0/Modules/Platform/CMSIS/Core/Include\cmsis_gcc.h ****   #define __UNALIGNED_UINT32_READ(addr)          (((const struct T_UINT32_READ *)(const void *)(add
 109:C:/StellarStudio-7.0/SDKS/StellarESDK-1.7.0/Modules/Platform/CMSIS/Core/Include\cmsis_gcc.h **** #endif
 110:C:/StellarStudio-7.0/SDKS/StellarESDK-1.7.0/Modules/Platform/CMSIS/Core/Include\cmsis_gcc.h **** #ifndef   __ALIGNED
 111:C:/StellarStudio-7.0/SDKS/StellarESDK-1.7.0/Modules/Platform/CMSIS/Core/Include\cmsis_gcc.h ****   #define __ALIGNED(x)                           __attribute__((aligned(x)))
 112:C:/StellarStudio-7.0/SDKS/StellarESDK-1.7.0/Modules/Platform/CMSIS/Core/Include\cmsis_gcc.h **** #endif
 113:C:/StellarStudio-7.0/SDKS/StellarESDK-1.7.0/Modules/Platform/CMSIS/Core/Include\cmsis_gcc.h **** #ifndef   __RESTRICT
 114:C:/StellarStudio-7.0/SDKS/StellarESDK-1.7.0/Modules/Platform/CMSIS/Core/Include\cmsis_gcc.h ****   #define __RESTRICT                             __restrict
 115:C:/StellarStudio-7.0/SDKS/StellarESDK-1.7.0/Modules/Platform/CMSIS/Core/Include\cmsis_gcc.h **** #endif
 116:C:/StellarStudio-7.0/SDKS/StellarESDK-1.7.0/Modules/Platform/CMSIS/Core/Include\cmsis_gcc.h **** #ifndef   __COMPILER_BARRIER
 117:C:/StellarStudio-7.0/SDKS/StellarESDK-1.7.0/Modules/Platform/CMSIS/Core/Include\cmsis_gcc.h ****   #define __COMPILER_BARRIER()                   __ASM volatile("":::"memory")
 118:C:/StellarStudio-7.0/SDKS/StellarESDK-1.7.0/Modules/Platform/CMSIS/Core/Include\cmsis_gcc.h **** #endif
 119:C:/StellarStudio-7.0/SDKS/StellarESDK-1.7.0/Modules/Platform/CMSIS/Core/Include\cmsis_gcc.h **** 
 120:C:/StellarStudio-7.0/SDKS/StellarESDK-1.7.0/Modules/Platform/CMSIS/Core/Include\cmsis_gcc.h **** /* #########################  Startup and Lowlevel Init  ######################## */
 121:C:/StellarStudio-7.0/SDKS/StellarESDK-1.7.0/Modules/Platform/CMSIS/Core/Include\cmsis_gcc.h **** 
 122:C:/StellarStudio-7.0/SDKS/StellarESDK-1.7.0/Modules/Platform/CMSIS/Core/Include\cmsis_gcc.h **** #ifndef __PROGRAM_START
 123:C:/StellarStudio-7.0/SDKS/StellarESDK-1.7.0/Modules/Platform/CMSIS/Core/Include\cmsis_gcc.h **** 
 124:C:/StellarStudio-7.0/SDKS/StellarESDK-1.7.0/Modules/Platform/CMSIS/Core/Include\cmsis_gcc.h **** /**
 125:C:/StellarStudio-7.0/SDKS/StellarESDK-1.7.0/Modules/Platform/CMSIS/Core/Include\cmsis_gcc.h ****   \brief   Initializes data and bss sections
 126:C:/StellarStudio-7.0/SDKS/StellarESDK-1.7.0/Modules/Platform/CMSIS/Core/Include\cmsis_gcc.h ****   \details This default implementations initialized all data and additional bss
 127:C:/StellarStudio-7.0/SDKS/StellarESDK-1.7.0/Modules/Platform/CMSIS/Core/Include\cmsis_gcc.h ****            sections relying on .copy.table and .zero.table specified properly
 128:C:/StellarStudio-7.0/SDKS/StellarESDK-1.7.0/Modules/Platform/CMSIS/Core/Include\cmsis_gcc.h ****            in the used linker script.
 129:C:/StellarStudio-7.0/SDKS/StellarESDK-1.7.0/Modules/Platform/CMSIS/Core/Include\cmsis_gcc.h **** 
 130:C:/StellarStudio-7.0/SDKS/StellarESDK-1.7.0/Modules/Platform/CMSIS/Core/Include\cmsis_gcc.h ****  */
 131:C:/StellarStudio-7.0/SDKS/StellarESDK-1.7.0/Modules/Platform/CMSIS/Core/Include\cmsis_gcc.h **** __STATIC_FORCEINLINE __NO_RETURN void __cmsis_start(void)
 132:C:/StellarStudio-7.0/SDKS/StellarESDK-1.7.0/Modules/Platform/CMSIS/Core/Include\cmsis_gcc.h **** {
 133:C:/StellarStudio-7.0/SDKS/StellarESDK-1.7.0/Modules/Platform/CMSIS/Core/Include\cmsis_gcc.h ****   extern void _start(void) __NO_RETURN;
 134:C:/StellarStudio-7.0/SDKS/StellarESDK-1.7.0/Modules/Platform/CMSIS/Core/Include\cmsis_gcc.h **** 
 135:C:/StellarStudio-7.0/SDKS/StellarESDK-1.7.0/Modules/Platform/CMSIS/Core/Include\cmsis_gcc.h ****   typedef struct {
 136:C:/StellarStudio-7.0/SDKS/StellarESDK-1.7.0/Modules/Platform/CMSIS/Core/Include\cmsis_gcc.h ****     uint32_t const* src;
 137:C:/StellarStudio-7.0/SDKS/StellarESDK-1.7.0/Modules/Platform/CMSIS/Core/Include\cmsis_gcc.h ****     uint32_t* dest;
 138:C:/StellarStudio-7.0/SDKS/StellarESDK-1.7.0/Modules/Platform/CMSIS/Core/Include\cmsis_gcc.h ****     uint32_t  wlen;
 139:C:/StellarStudio-7.0/SDKS/StellarESDK-1.7.0/Modules/Platform/CMSIS/Core/Include\cmsis_gcc.h ****   } __copy_table_t;
 140:C:/StellarStudio-7.0/SDKS/StellarESDK-1.7.0/Modules/Platform/CMSIS/Core/Include\cmsis_gcc.h **** 
 141:C:/StellarStudio-7.0/SDKS/StellarESDK-1.7.0/Modules/Platform/CMSIS/Core/Include\cmsis_gcc.h ****   typedef struct {
 142:C:/StellarStudio-7.0/SDKS/StellarESDK-1.7.0/Modules/Platform/CMSIS/Core/Include\cmsis_gcc.h ****     uint32_t* dest;
 143:C:/StellarStudio-7.0/SDKS/StellarESDK-1.7.0/Modules/Platform/CMSIS/Core/Include\cmsis_gcc.h ****     uint32_t  wlen;
 144:C:/StellarStudio-7.0/SDKS/StellarESDK-1.7.0/Modules/Platform/CMSIS/Core/Include\cmsis_gcc.h ****   } __zero_table_t;
 145:C:/StellarStudio-7.0/SDKS/StellarESDK-1.7.0/Modules/Platform/CMSIS/Core/Include\cmsis_gcc.h **** 
 146:C:/StellarStudio-7.0/SDKS/StellarESDK-1.7.0/Modules/Platform/CMSIS/Core/Include\cmsis_gcc.h ****   extern const __copy_table_t __copy_table_start__;
 147:C:/StellarStudio-7.0/SDKS/StellarESDK-1.7.0/Modules/Platform/CMSIS/Core/Include\cmsis_gcc.h ****   extern const __copy_table_t __copy_table_end__;
 148:C:/StellarStudio-7.0/SDKS/StellarESDK-1.7.0/Modules/Platform/CMSIS/Core/Include\cmsis_gcc.h ****   extern const __zero_table_t __zero_table_start__;
 149:C:/StellarStudio-7.0/SDKS/StellarESDK-1.7.0/Modules/Platform/CMSIS/Core/Include\cmsis_gcc.h ****   extern const __zero_table_t __zero_table_end__;
 150:C:/StellarStudio-7.0/SDKS/StellarESDK-1.7.0/Modules/Platform/CMSIS/Core/Include\cmsis_gcc.h **** 
 151:C:/StellarStudio-7.0/SDKS/StellarESDK-1.7.0/Modules/Platform/CMSIS/Core/Include\cmsis_gcc.h ****   for (__copy_table_t const* pTable = &__copy_table_start__; pTable < &__copy_table_end__; ++pTable
 152:C:/StellarStudio-7.0/SDKS/StellarESDK-1.7.0/Modules/Platform/CMSIS/Core/Include\cmsis_gcc.h ****     for(uint32_t i=0u; i<pTable->wlen; ++i) {
 153:C:/StellarStudio-7.0/SDKS/StellarESDK-1.7.0/Modules/Platform/CMSIS/Core/Include\cmsis_gcc.h ****       pTable->dest[i] = pTable->src[i];
 154:C:/StellarStudio-7.0/SDKS/StellarESDK-1.7.0/Modules/Platform/CMSIS/Core/Include\cmsis_gcc.h ****     }
 155:C:/StellarStudio-7.0/SDKS/StellarESDK-1.7.0/Modules/Platform/CMSIS/Core/Include\cmsis_gcc.h ****   }
 156:C:/StellarStudio-7.0/SDKS/StellarESDK-1.7.0/Modules/Platform/CMSIS/Core/Include\cmsis_gcc.h **** 
 157:C:/StellarStudio-7.0/SDKS/StellarESDK-1.7.0/Modules/Platform/CMSIS/Core/Include\cmsis_gcc.h ****   for (__zero_table_t const* pTable = &__zero_table_start__; pTable < &__zero_table_end__; ++pTable
 158:C:/StellarStudio-7.0/SDKS/StellarESDK-1.7.0/Modules/Platform/CMSIS/Core/Include\cmsis_gcc.h ****     for(uint32_t i=0u; i<pTable->wlen; ++i) {
 159:C:/StellarStudio-7.0/SDKS/StellarESDK-1.7.0/Modules/Platform/CMSIS/Core/Include\cmsis_gcc.h ****       pTable->dest[i] = 0u;
 160:C:/StellarStudio-7.0/SDKS/StellarESDK-1.7.0/Modules/Platform/CMSIS/Core/Include\cmsis_gcc.h ****     }
 161:C:/StellarStudio-7.0/SDKS/StellarESDK-1.7.0/Modules/Platform/CMSIS/Core/Include\cmsis_gcc.h ****   }
 162:C:/StellarStudio-7.0/SDKS/StellarESDK-1.7.0/Modules/Platform/CMSIS/Core/Include\cmsis_gcc.h **** 
 163:C:/StellarStudio-7.0/SDKS/StellarESDK-1.7.0/Modules/Platform/CMSIS/Core/Include\cmsis_gcc.h ****   _start();
 164:C:/StellarStudio-7.0/SDKS/StellarESDK-1.7.0/Modules/Platform/CMSIS/Core/Include\cmsis_gcc.h **** }
 165:C:/StellarStudio-7.0/SDKS/StellarESDK-1.7.0/Modules/Platform/CMSIS/Core/Include\cmsis_gcc.h **** 
 166:C:/StellarStudio-7.0/SDKS/StellarESDK-1.7.0/Modules/Platform/CMSIS/Core/Include\cmsis_gcc.h **** #define __PROGRAM_START           __cmsis_start
 167:C:/StellarStudio-7.0/SDKS/StellarESDK-1.7.0/Modules/Platform/CMSIS/Core/Include\cmsis_gcc.h **** #endif
 168:C:/StellarStudio-7.0/SDKS/StellarESDK-1.7.0/Modules/Platform/CMSIS/Core/Include\cmsis_gcc.h **** 
 169:C:/StellarStudio-7.0/SDKS/StellarESDK-1.7.0/Modules/Platform/CMSIS/Core/Include\cmsis_gcc.h **** #ifndef __INITIAL_SP
 170:C:/StellarStudio-7.0/SDKS/StellarESDK-1.7.0/Modules/Platform/CMSIS/Core/Include\cmsis_gcc.h **** #define __INITIAL_SP              __StackTop
 171:C:/StellarStudio-7.0/SDKS/StellarESDK-1.7.0/Modules/Platform/CMSIS/Core/Include\cmsis_gcc.h **** #endif
 172:C:/StellarStudio-7.0/SDKS/StellarESDK-1.7.0/Modules/Platform/CMSIS/Core/Include\cmsis_gcc.h **** 
 173:C:/StellarStudio-7.0/SDKS/StellarESDK-1.7.0/Modules/Platform/CMSIS/Core/Include\cmsis_gcc.h **** #ifndef __STACK_LIMIT
 174:C:/StellarStudio-7.0/SDKS/StellarESDK-1.7.0/Modules/Platform/CMSIS/Core/Include\cmsis_gcc.h **** #define __STACK_LIMIT             __StackLimit
 175:C:/StellarStudio-7.0/SDKS/StellarESDK-1.7.0/Modules/Platform/CMSIS/Core/Include\cmsis_gcc.h **** #endif
 176:C:/StellarStudio-7.0/SDKS/StellarESDK-1.7.0/Modules/Platform/CMSIS/Core/Include\cmsis_gcc.h **** 
 177:C:/StellarStudio-7.0/SDKS/StellarESDK-1.7.0/Modules/Platform/CMSIS/Core/Include\cmsis_gcc.h **** #ifndef __VECTOR_TABLE
 178:C:/StellarStudio-7.0/SDKS/StellarESDK-1.7.0/Modules/Platform/CMSIS/Core/Include\cmsis_gcc.h **** #define __VECTOR_TABLE            __Vectors
 179:C:/StellarStudio-7.0/SDKS/StellarESDK-1.7.0/Modules/Platform/CMSIS/Core/Include\cmsis_gcc.h **** #endif
 180:C:/StellarStudio-7.0/SDKS/StellarESDK-1.7.0/Modules/Platform/CMSIS/Core/Include\cmsis_gcc.h **** 
 181:C:/StellarStudio-7.0/SDKS/StellarESDK-1.7.0/Modules/Platform/CMSIS/Core/Include\cmsis_gcc.h **** #ifndef __VECTOR_TABLE_ATTRIBUTE
 182:C:/StellarStudio-7.0/SDKS/StellarESDK-1.7.0/Modules/Platform/CMSIS/Core/Include\cmsis_gcc.h **** #define __VECTOR_TABLE_ATTRIBUTE  __attribute__((used, section(".vectors")))
 183:C:/StellarStudio-7.0/SDKS/StellarESDK-1.7.0/Modules/Platform/CMSIS/Core/Include\cmsis_gcc.h **** #endif
 184:C:/StellarStudio-7.0/SDKS/StellarESDK-1.7.0/Modules/Platform/CMSIS/Core/Include\cmsis_gcc.h **** 
 185:C:/StellarStudio-7.0/SDKS/StellarESDK-1.7.0/Modules/Platform/CMSIS/Core/Include\cmsis_gcc.h **** #if defined (__ARM_FEATURE_CMSE) && (__ARM_FEATURE_CMSE == 3U)
 186:C:/StellarStudio-7.0/SDKS/StellarESDK-1.7.0/Modules/Platform/CMSIS/Core/Include\cmsis_gcc.h **** #ifndef __STACK_SEAL
 187:C:/StellarStudio-7.0/SDKS/StellarESDK-1.7.0/Modules/Platform/CMSIS/Core/Include\cmsis_gcc.h **** #define __STACK_SEAL              __StackSeal
 188:C:/StellarStudio-7.0/SDKS/StellarESDK-1.7.0/Modules/Platform/CMSIS/Core/Include\cmsis_gcc.h **** #endif
 189:C:/StellarStudio-7.0/SDKS/StellarESDK-1.7.0/Modules/Platform/CMSIS/Core/Include\cmsis_gcc.h **** 
 190:C:/StellarStudio-7.0/SDKS/StellarESDK-1.7.0/Modules/Platform/CMSIS/Core/Include\cmsis_gcc.h **** #ifndef __TZ_STACK_SEAL_SIZE
 191:C:/StellarStudio-7.0/SDKS/StellarESDK-1.7.0/Modules/Platform/CMSIS/Core/Include\cmsis_gcc.h **** #define __TZ_STACK_SEAL_SIZE      8U
 192:C:/StellarStudio-7.0/SDKS/StellarESDK-1.7.0/Modules/Platform/CMSIS/Core/Include\cmsis_gcc.h **** #endif
 193:C:/StellarStudio-7.0/SDKS/StellarESDK-1.7.0/Modules/Platform/CMSIS/Core/Include\cmsis_gcc.h **** 
 194:C:/StellarStudio-7.0/SDKS/StellarESDK-1.7.0/Modules/Platform/CMSIS/Core/Include\cmsis_gcc.h **** #ifndef __TZ_STACK_SEAL_VALUE
 195:C:/StellarStudio-7.0/SDKS/StellarESDK-1.7.0/Modules/Platform/CMSIS/Core/Include\cmsis_gcc.h **** #define __TZ_STACK_SEAL_VALUE     0xFEF5EDA5FEF5EDA5ULL
 196:C:/StellarStudio-7.0/SDKS/StellarESDK-1.7.0/Modules/Platform/CMSIS/Core/Include\cmsis_gcc.h **** #endif
 197:C:/StellarStudio-7.0/SDKS/StellarESDK-1.7.0/Modules/Platform/CMSIS/Core/Include\cmsis_gcc.h **** 
 198:C:/StellarStudio-7.0/SDKS/StellarESDK-1.7.0/Modules/Platform/CMSIS/Core/Include\cmsis_gcc.h **** 
 199:C:/StellarStudio-7.0/SDKS/StellarESDK-1.7.0/Modules/Platform/CMSIS/Core/Include\cmsis_gcc.h **** __STATIC_FORCEINLINE void __TZ_set_STACKSEAL_S (uint32_t* stackTop) {
 200:C:/StellarStudio-7.0/SDKS/StellarESDK-1.7.0/Modules/Platform/CMSIS/Core/Include\cmsis_gcc.h ****   *((uint64_t *)stackTop) = __TZ_STACK_SEAL_VALUE;
 201:C:/StellarStudio-7.0/SDKS/StellarESDK-1.7.0/Modules/Platform/CMSIS/Core/Include\cmsis_gcc.h **** }
 202:C:/StellarStudio-7.0/SDKS/StellarESDK-1.7.0/Modules/Platform/CMSIS/Core/Include\cmsis_gcc.h **** #endif
 203:C:/StellarStudio-7.0/SDKS/StellarESDK-1.7.0/Modules/Platform/CMSIS/Core/Include\cmsis_gcc.h **** 
 204:C:/StellarStudio-7.0/SDKS/StellarESDK-1.7.0/Modules/Platform/CMSIS/Core/Include\cmsis_gcc.h **** 
 205:C:/StellarStudio-7.0/SDKS/StellarESDK-1.7.0/Modules/Platform/CMSIS/Core/Include\cmsis_gcc.h **** /* ##########################  Core Instruction Access  ######################### */
 206:C:/StellarStudio-7.0/SDKS/StellarESDK-1.7.0/Modules/Platform/CMSIS/Core/Include\cmsis_gcc.h **** /** \defgroup CMSIS_Core_InstructionInterface CMSIS Core Instruction Interface
 207:C:/StellarStudio-7.0/SDKS/StellarESDK-1.7.0/Modules/Platform/CMSIS/Core/Include\cmsis_gcc.h ****   Access to dedicated instructions
 208:C:/StellarStudio-7.0/SDKS/StellarESDK-1.7.0/Modules/Platform/CMSIS/Core/Include\cmsis_gcc.h ****   @{
 209:C:/StellarStudio-7.0/SDKS/StellarESDK-1.7.0/Modules/Platform/CMSIS/Core/Include\cmsis_gcc.h **** */
 210:C:/StellarStudio-7.0/SDKS/StellarESDK-1.7.0/Modules/Platform/CMSIS/Core/Include\cmsis_gcc.h **** 
 211:C:/StellarStudio-7.0/SDKS/StellarESDK-1.7.0/Modules/Platform/CMSIS/Core/Include\cmsis_gcc.h **** /* Define macros for porting to both thumb1 and thumb2.
 212:C:/StellarStudio-7.0/SDKS/StellarESDK-1.7.0/Modules/Platform/CMSIS/Core/Include\cmsis_gcc.h ****  * For thumb1, use low register (r0-r7), specified by constraint "l"
 213:C:/StellarStudio-7.0/SDKS/StellarESDK-1.7.0/Modules/Platform/CMSIS/Core/Include\cmsis_gcc.h ****  * Otherwise, use general registers, specified by constraint "r" */
 214:C:/StellarStudio-7.0/SDKS/StellarESDK-1.7.0/Modules/Platform/CMSIS/Core/Include\cmsis_gcc.h **** #if defined (__thumb__) && !defined (__thumb2__)
 215:C:/StellarStudio-7.0/SDKS/StellarESDK-1.7.0/Modules/Platform/CMSIS/Core/Include\cmsis_gcc.h **** #define __CMSIS_GCC_OUT_REG(r) "=l" (r)
 216:C:/StellarStudio-7.0/SDKS/StellarESDK-1.7.0/Modules/Platform/CMSIS/Core/Include\cmsis_gcc.h **** #define __CMSIS_GCC_RW_REG(r) "+l" (r)
 217:C:/StellarStudio-7.0/SDKS/StellarESDK-1.7.0/Modules/Platform/CMSIS/Core/Include\cmsis_gcc.h **** #define __CMSIS_GCC_USE_REG(r) "l" (r)
 218:C:/StellarStudio-7.0/SDKS/StellarESDK-1.7.0/Modules/Platform/CMSIS/Core/Include\cmsis_gcc.h **** #else
 219:C:/StellarStudio-7.0/SDKS/StellarESDK-1.7.0/Modules/Platform/CMSIS/Core/Include\cmsis_gcc.h **** #define __CMSIS_GCC_OUT_REG(r) "=r" (r)
 220:C:/StellarStudio-7.0/SDKS/StellarESDK-1.7.0/Modules/Platform/CMSIS/Core/Include\cmsis_gcc.h **** #define __CMSIS_GCC_RW_REG(r) "+r" (r)
 221:C:/StellarStudio-7.0/SDKS/StellarESDK-1.7.0/Modules/Platform/CMSIS/Core/Include\cmsis_gcc.h **** #define __CMSIS_GCC_USE_REG(r) "r" (r)
 222:C:/StellarStudio-7.0/SDKS/StellarESDK-1.7.0/Modules/Platform/CMSIS/Core/Include\cmsis_gcc.h **** #endif
 223:C:/StellarStudio-7.0/SDKS/StellarESDK-1.7.0/Modules/Platform/CMSIS/Core/Include\cmsis_gcc.h **** 
 224:C:/StellarStudio-7.0/SDKS/StellarESDK-1.7.0/Modules/Platform/CMSIS/Core/Include\cmsis_gcc.h **** /**
 225:C:/StellarStudio-7.0/SDKS/StellarESDK-1.7.0/Modules/Platform/CMSIS/Core/Include\cmsis_gcc.h ****   \brief   No Operation
 226:C:/StellarStudio-7.0/SDKS/StellarESDK-1.7.0/Modules/Platform/CMSIS/Core/Include\cmsis_gcc.h ****   \details No Operation does nothing. This instruction can be used for code alignment purposes.
 227:C:/StellarStudio-7.0/SDKS/StellarESDK-1.7.0/Modules/Platform/CMSIS/Core/Include\cmsis_gcc.h ****  */
 228:C:/StellarStudio-7.0/SDKS/StellarESDK-1.7.0/Modules/Platform/CMSIS/Core/Include\cmsis_gcc.h **** #define __NOP()                             __ASM volatile ("nop")
 229:C:/StellarStudio-7.0/SDKS/StellarESDK-1.7.0/Modules/Platform/CMSIS/Core/Include\cmsis_gcc.h **** 
 230:C:/StellarStudio-7.0/SDKS/StellarESDK-1.7.0/Modules/Platform/CMSIS/Core/Include\cmsis_gcc.h **** /**
 231:C:/StellarStudio-7.0/SDKS/StellarESDK-1.7.0/Modules/Platform/CMSIS/Core/Include\cmsis_gcc.h ****   \brief   Wait For Interrupt
 232:C:/StellarStudio-7.0/SDKS/StellarESDK-1.7.0/Modules/Platform/CMSIS/Core/Include\cmsis_gcc.h ****   \details Wait For Interrupt is a hint instruction that suspends execution until one of a number o
 233:C:/StellarStudio-7.0/SDKS/StellarESDK-1.7.0/Modules/Platform/CMSIS/Core/Include\cmsis_gcc.h ****  */
 234:C:/StellarStudio-7.0/SDKS/StellarESDK-1.7.0/Modules/Platform/CMSIS/Core/Include\cmsis_gcc.h **** #define __WFI()                             __ASM volatile ("wfi":::"memory")
 235:C:/StellarStudio-7.0/SDKS/StellarESDK-1.7.0/Modules/Platform/CMSIS/Core/Include\cmsis_gcc.h **** 
 236:C:/StellarStudio-7.0/SDKS/StellarESDK-1.7.0/Modules/Platform/CMSIS/Core/Include\cmsis_gcc.h **** 
 237:C:/StellarStudio-7.0/SDKS/StellarESDK-1.7.0/Modules/Platform/CMSIS/Core/Include\cmsis_gcc.h **** /**
 238:C:/StellarStudio-7.0/SDKS/StellarESDK-1.7.0/Modules/Platform/CMSIS/Core/Include\cmsis_gcc.h ****   \brief   Wait For Event
 239:C:/StellarStudio-7.0/SDKS/StellarESDK-1.7.0/Modules/Platform/CMSIS/Core/Include\cmsis_gcc.h ****   \details Wait For Event is a hint instruction that permits the processor to enter
 240:C:/StellarStudio-7.0/SDKS/StellarESDK-1.7.0/Modules/Platform/CMSIS/Core/Include\cmsis_gcc.h ****            a low-power state until one of a number of events occurs.
 241:C:/StellarStudio-7.0/SDKS/StellarESDK-1.7.0/Modules/Platform/CMSIS/Core/Include\cmsis_gcc.h ****  */
 242:C:/StellarStudio-7.0/SDKS/StellarESDK-1.7.0/Modules/Platform/CMSIS/Core/Include\cmsis_gcc.h **** #define __WFE()                             __ASM volatile ("wfe":::"memory")
 243:C:/StellarStudio-7.0/SDKS/StellarESDK-1.7.0/Modules/Platform/CMSIS/Core/Include\cmsis_gcc.h **** 
 244:C:/StellarStudio-7.0/SDKS/StellarESDK-1.7.0/Modules/Platform/CMSIS/Core/Include\cmsis_gcc.h **** 
 245:C:/StellarStudio-7.0/SDKS/StellarESDK-1.7.0/Modules/Platform/CMSIS/Core/Include\cmsis_gcc.h **** /**
 246:C:/StellarStudio-7.0/SDKS/StellarESDK-1.7.0/Modules/Platform/CMSIS/Core/Include\cmsis_gcc.h ****   \brief   Send Event
 247:C:/StellarStudio-7.0/SDKS/StellarESDK-1.7.0/Modules/Platform/CMSIS/Core/Include\cmsis_gcc.h ****   \details Send Event is a hint instruction. It causes an event to be signaled to the CPU.
 248:C:/StellarStudio-7.0/SDKS/StellarESDK-1.7.0/Modules/Platform/CMSIS/Core/Include\cmsis_gcc.h ****  */
 249:C:/StellarStudio-7.0/SDKS/StellarESDK-1.7.0/Modules/Platform/CMSIS/Core/Include\cmsis_gcc.h **** #define __SEV()                             __ASM volatile ("sev")
 250:C:/StellarStudio-7.0/SDKS/StellarESDK-1.7.0/Modules/Platform/CMSIS/Core/Include\cmsis_gcc.h **** 
 251:C:/StellarStudio-7.0/SDKS/StellarESDK-1.7.0/Modules/Platform/CMSIS/Core/Include\cmsis_gcc.h **** 
 252:C:/StellarStudio-7.0/SDKS/StellarESDK-1.7.0/Modules/Platform/CMSIS/Core/Include\cmsis_gcc.h **** /**
 253:C:/StellarStudio-7.0/SDKS/StellarESDK-1.7.0/Modules/Platform/CMSIS/Core/Include\cmsis_gcc.h ****   \brief   Instruction Synchronization Barrier
 254:C:/StellarStudio-7.0/SDKS/StellarESDK-1.7.0/Modules/Platform/CMSIS/Core/Include\cmsis_gcc.h ****   \details Instruction Synchronization Barrier flushes the pipeline in the processor,
 255:C:/StellarStudio-7.0/SDKS/StellarESDK-1.7.0/Modules/Platform/CMSIS/Core/Include\cmsis_gcc.h ****            so that all instructions following the ISB are fetched from cache or memory,
 256:C:/StellarStudio-7.0/SDKS/StellarESDK-1.7.0/Modules/Platform/CMSIS/Core/Include\cmsis_gcc.h ****            after the instruction has been completed.
 257:C:/StellarStudio-7.0/SDKS/StellarESDK-1.7.0/Modules/Platform/CMSIS/Core/Include\cmsis_gcc.h ****  */
 258:C:/StellarStudio-7.0/SDKS/StellarESDK-1.7.0/Modules/Platform/CMSIS/Core/Include\cmsis_gcc.h **** __STATIC_FORCEINLINE void __ISB(void)
 259:C:/StellarStudio-7.0/SDKS/StellarESDK-1.7.0/Modules/Platform/CMSIS/Core/Include\cmsis_gcc.h **** {
 260:C:/StellarStudio-7.0/SDKS/StellarESDK-1.7.0/Modules/Platform/CMSIS/Core/Include\cmsis_gcc.h ****   __ASM volatile ("isb 0xF":::"memory");
 261:C:/StellarStudio-7.0/SDKS/StellarESDK-1.7.0/Modules/Platform/CMSIS/Core/Include\cmsis_gcc.h **** }
 262:C:/StellarStudio-7.0/SDKS/StellarESDK-1.7.0/Modules/Platform/CMSIS/Core/Include\cmsis_gcc.h **** 
 263:C:/StellarStudio-7.0/SDKS/StellarESDK-1.7.0/Modules/Platform/CMSIS/Core/Include\cmsis_gcc.h **** 
 264:C:/StellarStudio-7.0/SDKS/StellarESDK-1.7.0/Modules/Platform/CMSIS/Core/Include\cmsis_gcc.h **** /**
 265:C:/StellarStudio-7.0/SDKS/StellarESDK-1.7.0/Modules/Platform/CMSIS/Core/Include\cmsis_gcc.h ****   \brief   Data Synchronization Barrier
 266:C:/StellarStudio-7.0/SDKS/StellarESDK-1.7.0/Modules/Platform/CMSIS/Core/Include\cmsis_gcc.h ****   \details Acts as a special kind of Data Memory Barrier.
 267:C:/StellarStudio-7.0/SDKS/StellarESDK-1.7.0/Modules/Platform/CMSIS/Core/Include\cmsis_gcc.h ****            It completes when all explicit memory accesses before this instruction complete.
 268:C:/StellarStudio-7.0/SDKS/StellarESDK-1.7.0/Modules/Platform/CMSIS/Core/Include\cmsis_gcc.h ****  */
 269:C:/StellarStudio-7.0/SDKS/StellarESDK-1.7.0/Modules/Platform/CMSIS/Core/Include\cmsis_gcc.h **** __STATIC_FORCEINLINE void __DSB(void)
 270:C:/StellarStudio-7.0/SDKS/StellarESDK-1.7.0/Modules/Platform/CMSIS/Core/Include\cmsis_gcc.h **** {
 271:C:/StellarStudio-7.0/SDKS/StellarESDK-1.7.0/Modules/Platform/CMSIS/Core/Include\cmsis_gcc.h ****   __ASM volatile ("dsb 0xF":::"memory");
 210              		.loc 2 271 3
 211              		.syntax unified
 212              	@ 271 "C:/StellarStudio-7.0/SDKS/StellarESDK-1.7.0/Modules/Platform/CMSIS/Core/Include/cmsis_gcc.h"
 213 0084 BFF34F8F 		dsb 0xF
 214              	@ 0 "" 2
 272:C:/StellarStudio-7.0/SDKS/StellarESDK-1.7.0/Modules/Platform/CMSIS/Core/Include\cmsis_gcc.h **** }
 215              		.loc 2 272 1
 216              		.thumb
 217              		.syntax unified
 218 0088 00BF     		nop
 219              	.LBE13:
 220              	.LBE12:
 134:libraries/zf_driver/zf_driver_uart.c ****         IRQ_EPILOGUE();
 135:libraries/zf_driver/zf_driver_uart.c ****     }
 136:libraries/zf_driver/zf_driver_uart.c **** 
 137:libraries/zf_driver/zf_driver_uart.c ****     #undef  TEMP_UART_INDEX 
 138:libraries/zf_driver/zf_driver_uart.c ****     #undef  TEMP_UART_CALLBACK 
 139:libraries/zf_driver/zf_driver_uart.c **** 
 140:libraries/zf_driver/zf_driver_uart.c ****     ZF_DSB();
 141:libraries/zf_driver/zf_driver_uart.c **** }
 221              		.loc 1 141 1
 222 008a 00BF     		nop
 223 008c 03B0     		add	sp, sp, #12
 224              		.cfi_def_cfa_offset 4
 225              		@ sp needed
 226 008e 5DF804FB 		ldr	pc, [sp], #4
 227              	.L11:
 228 0092 00BF     		.align	2
 229              	.L10:
 230 0094 00000000 		.word	uart_obj_list
 231 0098 006C0042 		.word	1107323904
 232 009c 00000000 		.word	uart_callback
 233 00a0 00000000 		.word	DRV_UART1
 234              		.cfi_endproc
 235              	.LFE181:
 237              		.section	.text.VectorD8,"ax",%progbits
 238              		.align	1
 239              		.p2align 4,,15
 240              		.global	VectorD8
 241              		.syntax unified
 242              		.thumb
 243              		.thumb_func
 245              	VectorD8:
 246              	.LFB182:
 142:libraries/zf_driver/zf_driver_uart.c **** 
 143:libraries/zf_driver/zf_driver_uart.c **** //-------------------------------------------------------------------------------------------------
 144:libraries/zf_driver/zf_driver_uart.c **** // ÂáΩÊï∞ÁÆÄ‰ªã     UART2 ÁöÑ‰∏≤Âè£‰∏≠Êñ≠ÊúçÂä°ÂáΩÊï∞
 145:libraries/zf_driver/zf_driver_uart.c **** // ÂèÇÊï∞ËØ¥Êòé     void
 146:libraries/zf_driver/zf_driver_uart.c **** // ËøîÂõûÂèÇÊï∞     void
 147:libraries/zf_driver/zf_driver_uart.c **** // ‰ΩøÁî®Á§∫‰æã     
 148:libraries/zf_driver/zf_driver_uart.c **** // Â§áÊ≥®‰ø°ÊÅØ     ÂêØÂä® .s Êñá‰ª∂ÂÆö‰πâ ‰∏çÂÖÅËÆ∏‰øÆÊîπÂáΩÊï∞ÂêçÁß∞
 149:libraries/zf_driver/zf_driver_uart.c **** //              uart_set_interrupt_priority(uart_index, priority);
 150:libraries/zf_driver/zf_driver_uart.c **** //-------------------------------------------------------------------------------------------------
 151:libraries/zf_driver/zf_driver_uart.c **** void IRQ_UART2_HANDLER (void)
 152:libraries/zf_driver/zf_driver_uart.c **** {
 247              		.loc 1 152 1
 248              		.cfi_startproc
 249              		@ args = 0, pretend = 0, frame = 8
 250              		@ frame_needed = 0, uses_anonymous_args = 0
 251 0000 00B5     		push	{lr}
 252              		.cfi_def_cfa_offset 4
 253              		.cfi_offset 14, -4
 254 0002 83B0     		sub	sp, sp, #12
 255              		.cfi_def_cfa_offset 16
 153:libraries/zf_driver/zf_driver_uart.c ****     #define TEMP_UART_INDEX         UART2
 154:libraries/zf_driver/zf_driver_uart.c ****     #define TEMP_UART_CALLBACK      uart_callback[UART_2]
 155:libraries/zf_driver/zf_driver_uart.c **** 
 156:libraries/zf_driver/zf_driver_uart.c ****     if(uart_obj_list[UART_2].baudrate)
 256              		.loc 1 156 29
 257 0004 234B     		ldr	r3, .L20
 258 0006 1B69     		ldr	r3, [r3, #16]
 259              		.loc 1 156 7
 260 0008 002B     		cmp	r3, #0
 261 000a 38D0     		beq	.L13
 262              	.LBB14:
 157:libraries/zf_driver/zf_driver_uart.c ****     {
 158:libraries/zf_driver/zf_driver_uart.c ****         uint32 event_temp = UART_INTERRUPT_STATE_NONE;
 263              		.loc 1 158 16
 264 000c 0023     		movs	r3, #0
 265 000e 0193     		str	r3, [sp, #4]
 159:libraries/zf_driver/zf_driver_uart.c ****         if((TEMP_UART_INDEX->CR1 & UART_CR1_RXNEIE_RXFNEIE))
 266              		.loc 1 159 28
 267 0010 214B     		ldr	r3, .L20+4
 268 0012 1B68     		ldr	r3, [r3]
 269              		.loc 1 159 34
 270 0014 03F02003 		and	r3, r3, #32
 271              		.loc 1 159 11
 272 0018 002B     		cmp	r3, #0
 273 001a 0CD0     		beq	.L14
 160:libraries/zf_driver/zf_driver_uart.c ****         {
 161:libraries/zf_driver/zf_driver_uart.c ****             event_temp |= (TEMP_UART_INDEX->ISR & UART_ISR_RXNE_RXFNE) ? (UART_INTERRUPT_STATE_RX) 
 274              		.loc 1 161 43
 275 001c 1E4B     		ldr	r3, .L20+4
 276 001e DB69     		ldr	r3, [r3, #28]
 277              		.loc 1 161 49
 278 0020 03F02003 		and	r3, r3, #32
 279              		.loc 1 161 100
 280 0024 002B     		cmp	r3, #0
 281 0026 14BF     		ite	ne
 282 0028 0123     		movne	r3, #1
 283 002a 0023     		moveq	r3, #0
 284 002c DBB2     		uxtb	r3, r3
 285 002e 1A46     		mov	r2, r3
 286              		.loc 1 161 24
 287 0030 019B     		ldr	r3, [sp, #4]
 288 0032 1343     		orrs	r3, r3, r2
 289 0034 0193     		str	r3, [sp, #4]
 290              	.L14:
 162:libraries/zf_driver/zf_driver_uart.c ****         }
 163:libraries/zf_driver/zf_driver_uart.c ****         if((TEMP_UART_INDEX->CR1 & UART_CR1_TXEIE_TXFNFIE))
 291              		.loc 1 163 28
 292 0036 184B     		ldr	r3, .L20+4
 293 0038 1B68     		ldr	r3, [r3]
 294              		.loc 1 163 34
 295 003a 03F08003 		and	r3, r3, #128
 296              		.loc 1 163 11
 297 003e 002B     		cmp	r3, #0
 298 0040 0CD0     		beq	.L15
 164:libraries/zf_driver/zf_driver_uart.c ****         {
 165:libraries/zf_driver/zf_driver_uart.c ****             event_temp |= (TEMP_UART_INDEX->ISR & UART_ISR_TXE_TXFNF) ? (UART_INTERRUPT_STATE_TX) :
 299              		.loc 1 165 43
 300 0042 154B     		ldr	r3, .L20+4
 301 0044 DB69     		ldr	r3, [r3, #28]
 302              		.loc 1 165 49
 303 0046 03F08003 		and	r3, r3, #128
 304              		.loc 1 165 99
 305 004a 002B     		cmp	r3, #0
 306 004c 01D0     		beq	.L16
 307              		.loc 1 165 99 is_stmt 0 discriminator 1
 308 004e 0223     		movs	r3, #2
 309 0050 00E0     		b	.L17
 310              	.L16:
 311              		.loc 1 165 99 discriminator 2
 312 0052 0023     		movs	r3, #0
 313              	.L17:
 314              		.loc 1 165 99 discriminator 4
 315 0054 1A46     		mov	r2, r3
 316              		.loc 1 165 24 is_stmt 1 discriminator 4
 317 0056 019B     		ldr	r3, [sp, #4]
 318 0058 1343     		orrs	r3, r3, r2
 319 005a 0193     		str	r3, [sp, #4]
 320              	.L15:
 166:libraries/zf_driver/zf_driver_uart.c ****         }
 167:libraries/zf_driver/zf_driver_uart.c **** 
 168:libraries/zf_driver/zf_driver_uart.c ****         if(UART_INTERRUPT_STATE_NONE != event_temp)
 321              		.loc 1 168 11
 322 005c 019B     		ldr	r3, [sp, #4]
 323 005e 002B     		cmp	r3, #0
 324 0060 06D0     		beq	.L18
 169:libraries/zf_driver/zf_driver_uart.c ****         {
 170:libraries/zf_driver/zf_driver_uart.c ****             TEMP_UART_CALLBACK.callback(event_temp, TEMP_UART_CALLBACK.parameter_ptr);
 325              		.loc 1 170 31
 326 0062 0E4B     		ldr	r3, .L20+8
 327 0064 9B68     		ldr	r3, [r3, #8]
 328              		.loc 1 170 13
 329 0066 0D4A     		ldr	r2, .L20+8
 330 0068 D268     		ldr	r2, [r2, #12]
 331 006a 1146     		mov	r1, r2
 332 006c 0198     		ldr	r0, [sp, #4]
 333 006e 9847     		blx	r3
 334              	.LVL1:
 335              	.L18:
 171:libraries/zf_driver/zf_driver_uart.c ****         }
 172:libraries/zf_driver/zf_driver_uart.c ****         TEMP_UART_INDEX->ICR |= 0xFFFFFFFF;
 336              		.loc 1 172 30
 337 0070 094B     		ldr	r3, .L20+4
 338 0072 1B6A     		ldr	r3, [r3, #32]
 339 0074 084B     		ldr	r3, .L20+4
 340 0076 4FF0FF32 		mov	r2, #-1
 341 007a 1A62     		str	r2, [r3, #32]
 342              	.LBE14:
 343 007c 02E0     		b	.L19
 344              	.L13:
 173:libraries/zf_driver/zf_driver_uart.c ****     }
 174:libraries/zf_driver/zf_driver_uart.c ****     else
 175:libraries/zf_driver/zf_driver_uart.c ****     {
 176:libraries/zf_driver/zf_driver_uart.c ****         IRQ_PROLOGUE();
 177:libraries/zf_driver/zf_driver_uart.c ****         __uart_serve_interrupt(&DRV_UART2);
 345              		.loc 1 177 9
 346 007e 0848     		ldr	r0, .L20+12
 347 0080 FFF7FEFF 		bl	__uart_serve_interrupt
 348              	.L19:
 349              	.LBB15:
 350              	.LBB16:
 271:C:/StellarStudio-7.0/SDKS/StellarESDK-1.7.0/Modules/Platform/CMSIS/Core/Include\cmsis_gcc.h **** }
 351              		.loc 2 271 3
 352              		.syntax unified
 353              	@ 271 "C:/StellarStudio-7.0/SDKS/StellarESDK-1.7.0/Modules/Platform/CMSIS/Core/Include/cmsis_gcc.h"
 354 0084 BFF34F8F 		dsb 0xF
 355              	@ 0 "" 2
 356              		.loc 2 272 1
 357              		.thumb
 358              		.syntax unified
 359 0088 00BF     		nop
 360              	.LBE16:
 361              	.LBE15:
 178:libraries/zf_driver/zf_driver_uart.c ****         IRQ_EPILOGUE();
 179:libraries/zf_driver/zf_driver_uart.c ****     }
 180:libraries/zf_driver/zf_driver_uart.c **** 
 181:libraries/zf_driver/zf_driver_uart.c ****     #undef  TEMP_UART_INDEX 
 182:libraries/zf_driver/zf_driver_uart.c ****     #undef  TEMP_UART_CALLBACK 
 183:libraries/zf_driver/zf_driver_uart.c **** 
 184:libraries/zf_driver/zf_driver_uart.c ****     ZF_DSB();
 185:libraries/zf_driver/zf_driver_uart.c **** }
 362              		.loc 1 185 1
 363 008a 00BF     		nop
 364 008c 03B0     		add	sp, sp, #12
 365              		.cfi_def_cfa_offset 4
 366              		@ sp needed
 367 008e 5DF804FB 		ldr	pc, [sp], #4
 368              	.L21:
 369 0092 00BF     		.align	2
 370              	.L20:
 371 0094 00000000 		.word	uart_obj_list
 372 0098 006C0040 		.word	1073769472
 373 009c 00000000 		.word	uart_callback
 374 00a0 00000000 		.word	DRV_UART2
 375              		.cfi_endproc
 376              	.LFE182:
 378              		.section	.text.VectorDC,"ax",%progbits
 379              		.align	1
 380              		.p2align 4,,15
 381              		.global	VectorDC
 382              		.syntax unified
 383              		.thumb
 384              		.thumb_func
 386              	VectorDC:
 387              	.LFB183:
 186:libraries/zf_driver/zf_driver_uart.c **** 
 187:libraries/zf_driver/zf_driver_uart.c **** //-------------------------------------------------------------------------------------------------
 188:libraries/zf_driver/zf_driver_uart.c **** // ÂáΩÊï∞ÁÆÄ‰ªã     UART3 ÁöÑ‰∏≤Âè£‰∏≠Êñ≠ÊúçÂä°ÂáΩÊï∞
 189:libraries/zf_driver/zf_driver_uart.c **** // ÂèÇÊï∞ËØ¥Êòé     void
 190:libraries/zf_driver/zf_driver_uart.c **** // ËøîÂõûÂèÇÊï∞     void
 191:libraries/zf_driver/zf_driver_uart.c **** // ‰ΩøÁî®Á§∫‰æã     
 192:libraries/zf_driver/zf_driver_uart.c **** // Â§áÊ≥®‰ø°ÊÅØ     ÂêØÂä® .s Êñá‰ª∂ÂÆö‰πâ ‰∏çÂÖÅËÆ∏‰øÆÊîπÂáΩÊï∞ÂêçÁß∞
 193:libraries/zf_driver/zf_driver_uart.c **** //              uart_set_interrupt_priority(uart_index, priority);
 194:libraries/zf_driver/zf_driver_uart.c **** //-------------------------------------------------------------------------------------------------
 195:libraries/zf_driver/zf_driver_uart.c **** void IRQ_UART3_HANDLER (void)
 196:libraries/zf_driver/zf_driver_uart.c **** {
 388              		.loc 1 196 1
 389              		.cfi_startproc
 390              		@ args = 0, pretend = 0, frame = 8
 391              		@ frame_needed = 0, uses_anonymous_args = 0
 392 0000 00B5     		push	{lr}
 393              		.cfi_def_cfa_offset 4
 394              		.cfi_offset 14, -4
 395 0002 83B0     		sub	sp, sp, #12
 396              		.cfi_def_cfa_offset 16
 197:libraries/zf_driver/zf_driver_uart.c ****     #define TEMP_UART_INDEX         UART3
 198:libraries/zf_driver/zf_driver_uart.c ****     #define TEMP_UART_CALLBACK      uart_callback[UART_3]
 199:libraries/zf_driver/zf_driver_uart.c **** 
 200:libraries/zf_driver/zf_driver_uart.c ****     if(uart_obj_list[UART_3].baudrate)
 397              		.loc 1 200 29
 398 0004 234B     		ldr	r3, .L30
 399 0006 1B6A     		ldr	r3, [r3, #32]
 400              		.loc 1 200 7
 401 0008 002B     		cmp	r3, #0
 402 000a 38D0     		beq	.L23
 403              	.LBB17:
 201:libraries/zf_driver/zf_driver_uart.c ****     {
 202:libraries/zf_driver/zf_driver_uart.c ****         uint32 event_temp = UART_INTERRUPT_STATE_NONE;
 404              		.loc 1 202 16
 405 000c 0023     		movs	r3, #0
 406 000e 0193     		str	r3, [sp, #4]
 203:libraries/zf_driver/zf_driver_uart.c ****         if((TEMP_UART_INDEX->CR1 & UART_CR1_RXNEIE_RXFNEIE))
 407              		.loc 1 203 28
 408 0010 214B     		ldr	r3, .L30+4
 409 0012 1B68     		ldr	r3, [r3]
 410              		.loc 1 203 34
 411 0014 03F02003 		and	r3, r3, #32
 412              		.loc 1 203 11
 413 0018 002B     		cmp	r3, #0
 414 001a 0CD0     		beq	.L24
 204:libraries/zf_driver/zf_driver_uart.c ****         {
 205:libraries/zf_driver/zf_driver_uart.c ****             event_temp |= (TEMP_UART_INDEX->ISR & UART_ISR_RXNE_RXFNE) ? (UART_INTERRUPT_STATE_RX) 
 415              		.loc 1 205 43
 416 001c 1E4B     		ldr	r3, .L30+4
 417 001e DB69     		ldr	r3, [r3, #28]
 418              		.loc 1 205 49
 419 0020 03F02003 		and	r3, r3, #32
 420              		.loc 1 205 100
 421 0024 002B     		cmp	r3, #0
 422 0026 14BF     		ite	ne
 423 0028 0123     		movne	r3, #1
 424 002a 0023     		moveq	r3, #0
 425 002c DBB2     		uxtb	r3, r3
 426 002e 1A46     		mov	r2, r3
 427              		.loc 1 205 24
 428 0030 019B     		ldr	r3, [sp, #4]
 429 0032 1343     		orrs	r3, r3, r2
 430 0034 0193     		str	r3, [sp, #4]
 431              	.L24:
 206:libraries/zf_driver/zf_driver_uart.c ****         }
 207:libraries/zf_driver/zf_driver_uart.c ****         if((TEMP_UART_INDEX->CR1 & UART_CR1_TXEIE_TXFNFIE))
 432              		.loc 1 207 28
 433 0036 184B     		ldr	r3, .L30+4
 434 0038 1B68     		ldr	r3, [r3]
 435              		.loc 1 207 34
 436 003a 03F08003 		and	r3, r3, #128
 437              		.loc 1 207 11
 438 003e 002B     		cmp	r3, #0
 439 0040 0CD0     		beq	.L25
 208:libraries/zf_driver/zf_driver_uart.c ****         {
 209:libraries/zf_driver/zf_driver_uart.c ****             event_temp |= (TEMP_UART_INDEX->ISR & UART_ISR_TXE_TXFNF) ? (UART_INTERRUPT_STATE_TX) :
 440              		.loc 1 209 43
 441 0042 154B     		ldr	r3, .L30+4
 442 0044 DB69     		ldr	r3, [r3, #28]
 443              		.loc 1 209 49
 444 0046 03F08003 		and	r3, r3, #128
 445              		.loc 1 209 99
 446 004a 002B     		cmp	r3, #0
 447 004c 01D0     		beq	.L26
 448              		.loc 1 209 99 is_stmt 0 discriminator 1
 449 004e 0223     		movs	r3, #2
 450 0050 00E0     		b	.L27
 451              	.L26:
 452              		.loc 1 209 99 discriminator 2
 453 0052 0023     		movs	r3, #0
 454              	.L27:
 455              		.loc 1 209 99 discriminator 4
 456 0054 1A46     		mov	r2, r3
 457              		.loc 1 209 24 is_stmt 1 discriminator 4
 458 0056 019B     		ldr	r3, [sp, #4]
 459 0058 1343     		orrs	r3, r3, r2
 460 005a 0193     		str	r3, [sp, #4]
 461              	.L25:
 210:libraries/zf_driver/zf_driver_uart.c ****         }
 211:libraries/zf_driver/zf_driver_uart.c **** 
 212:libraries/zf_driver/zf_driver_uart.c ****         if(UART_INTERRUPT_STATE_NONE != event_temp)
 462              		.loc 1 212 11
 463 005c 019B     		ldr	r3, [sp, #4]
 464 005e 002B     		cmp	r3, #0
 465 0060 06D0     		beq	.L28
 213:libraries/zf_driver/zf_driver_uart.c ****         {
 214:libraries/zf_driver/zf_driver_uart.c ****             TEMP_UART_CALLBACK.callback(event_temp, TEMP_UART_CALLBACK.parameter_ptr);
 466              		.loc 1 214 31
 467 0062 0E4B     		ldr	r3, .L30+8
 468 0064 1B69     		ldr	r3, [r3, #16]
 469              		.loc 1 214 13
 470 0066 0D4A     		ldr	r2, .L30+8
 471 0068 5269     		ldr	r2, [r2, #20]
 472 006a 1146     		mov	r1, r2
 473 006c 0198     		ldr	r0, [sp, #4]
 474 006e 9847     		blx	r3
 475              	.LVL2:
 476              	.L28:
 215:libraries/zf_driver/zf_driver_uart.c ****         }
 216:libraries/zf_driver/zf_driver_uart.c ****         TEMP_UART_INDEX->ICR |= 0xFFFFFFFF;
 477              		.loc 1 216 30
 478 0070 094B     		ldr	r3, .L30+4
 479 0072 1B6A     		ldr	r3, [r3, #32]
 480 0074 084B     		ldr	r3, .L30+4
 481 0076 4FF0FF32 		mov	r2, #-1
 482 007a 1A62     		str	r2, [r3, #32]
 483              	.LBE17:
 484 007c 02E0     		b	.L29
 485              	.L23:
 217:libraries/zf_driver/zf_driver_uart.c ****     }
 218:libraries/zf_driver/zf_driver_uart.c ****     else
 219:libraries/zf_driver/zf_driver_uart.c ****     {
 220:libraries/zf_driver/zf_driver_uart.c ****         IRQ_PROLOGUE();
 221:libraries/zf_driver/zf_driver_uart.c ****         __uart_serve_interrupt(&DRV_UART3);
 486              		.loc 1 221 9
 487 007e 0848     		ldr	r0, .L30+12
 488 0080 FFF7FEFF 		bl	__uart_serve_interrupt
 489              	.L29:
 490              	.LBB18:
 491              	.LBB19:
 271:C:/StellarStudio-7.0/SDKS/StellarESDK-1.7.0/Modules/Platform/CMSIS/Core/Include\cmsis_gcc.h **** }
 492              		.loc 2 271 3
 493              		.syntax unified
 494              	@ 271 "C:/StellarStudio-7.0/SDKS/StellarESDK-1.7.0/Modules/Platform/CMSIS/Core/Include/cmsis_gcc.h"
 495 0084 BFF34F8F 		dsb 0xF
 496              	@ 0 "" 2
 497              		.loc 2 272 1
 498              		.thumb
 499              		.syntax unified
 500 0088 00BF     		nop
 501              	.LBE19:
 502              	.LBE18:
 222:libraries/zf_driver/zf_driver_uart.c ****         IRQ_EPILOGUE();
 223:libraries/zf_driver/zf_driver_uart.c ****     }
 224:libraries/zf_driver/zf_driver_uart.c **** 
 225:libraries/zf_driver/zf_driver_uart.c ****     #undef  TEMP_UART_INDEX 
 226:libraries/zf_driver/zf_driver_uart.c ****     #undef  TEMP_UART_CALLBACK 
 227:libraries/zf_driver/zf_driver_uart.c **** 
 228:libraries/zf_driver/zf_driver_uart.c ****     ZF_DSB();
 229:libraries/zf_driver/zf_driver_uart.c **** }
 503              		.loc 1 229 1
 504 008a 00BF     		nop
 505 008c 03B0     		add	sp, sp, #12
 506              		.cfi_def_cfa_offset 4
 507              		@ sp needed
 508 008e 5DF804FB 		ldr	pc, [sp], #4
 509              	.L31:
 510 0092 00BF     		.align	2
 511              	.L30:
 512 0094 00000000 		.word	uart_obj_list
 513 0098 00700040 		.word	1073770496
 514 009c 00000000 		.word	uart_callback
 515 00a0 00000000 		.word	DRV_UART3
 516              		.cfi_endproc
 517              	.LFE183:
 519              		.section	.text.debug_uart_interrupr_handler,"ax",%progbits
 520              		.align	1
 521              		.p2align 4,,15
 522              		.global	debug_uart_interrupr_handler
 523              		.syntax unified
 524              		.thumb
 525              		.thumb_func
 527              	debug_uart_interrupr_handler:
 528              	.LFB184:
 230:libraries/zf_driver/zf_driver_uart.c **** 
 231:libraries/zf_driver/zf_driver_uart.c **** 
 232:libraries/zf_driver/zf_driver_uart.c **** //-------------------------------------------------------------------------------------------------
 233:libraries/zf_driver/zf_driver_uart.c **** // ÂáΩÊï∞ÁÆÄ‰ªã     debug ‰∏≤Âè£‰∏≠Êñ≠Â§ÑÁêÜÂáΩÊï∞ isr.c ‰∏≠ÂØπÂ∫î‰∏≤Âè£‰∏≠Êñ≠ÊúçÂä°ÂáΩÊï∞Ë∞ÉÁî®
 234:libraries/zf_driver/zf_driver_uart.c **** // ÂèÇÊï∞ËØ¥Êòé     event               ‰∏≠Êñ≠‰∫ã‰ª∂
 235:libraries/zf_driver/zf_driver_uart.c **** // ÂèÇÊï∞ËØ¥Êòé     *ptr                ÈªòËÆ§‰º†ÂÖ•ÊòØ‰∏Ä‰∏™ fifo ÂØπË±°
 236:libraries/zf_driver/zf_driver_uart.c **** // ËøîÂõûÂèÇÊï∞     void
 237:libraries/zf_driver/zf_driver_uart.c **** // ‰ΩøÁî®Á§∫‰æã     debug_interrupr_handler();
 238:libraries/zf_driver/zf_driver_uart.c **** // Â§áÊ≥®‰ø°ÊÅØ     Êú¨ÂáΩÊï∞ÈúÄË¶ÅÂºÄÂêØ DEBUG_UART_USE_INTERRUPT ÂÆèÂÆö‰πâÊâçÂèØ‰ΩøÁî®
 239:libraries/zf_driver/zf_driver_uart.c **** //-------------------------------------------------------------------------------------------------
 240:libraries/zf_driver/zf_driver_uart.c **** void debug_uart_interrupr_handler (uint32 event, void *ptr)
 241:libraries/zf_driver/zf_driver_uart.c **** {
 529              		.loc 1 241 1
 530              		.cfi_startproc
 531              		@ args = 0, pretend = 0, frame = 16
 532              		@ frame_needed = 0, uses_anonymous_args = 0
 533 0000 00B5     		push	{lr}
 534              		.cfi_def_cfa_offset 4
 535              		.cfi_offset 14, -4
 536 0002 85B0     		sub	sp, sp, #20
 537              		.cfi_def_cfa_offset 24
 538 0004 0190     		str	r0, [sp, #4]
 539 0006 0091     		str	r1, [sp]
 242:libraries/zf_driver/zf_driver_uart.c **** 	(void)event;
 243:libraries/zf_driver/zf_driver_uart.c ****     uint8 debug_uart_data;
 244:libraries/zf_driver/zf_driver_uart.c ****     zf_uart_query_byte(DEBUG_UART_INDEX, &debug_uart_data);                     // ËØªÂèñ‰∏≤Âè£Êï∞Ê
 540              		.loc 1 244 5
 541 0008 0DF10F03 		add	r3, sp, #15
 542 000c 1946     		mov	r1, r3
 543 000e 0220     		movs	r0, #2
 544 0010 FFF7FEFF 		bl	zf_uart_query_byte
 245:libraries/zf_driver/zf_driver_uart.c ****     zf_fifo_write_element((zf_fifo_obj_struct *)ptr, debug_uart_data);          // Â≠òÂÖ• FIFO
 545              		.loc 1 245 5
 546 0014 9DF80F30 		ldrb	r3, [sp, #15]	@ zero_extendqisi2
 547 0018 1946     		mov	r1, r3
 548 001a 0098     		ldr	r0, [sp]
 549 001c FFF7FEFF 		bl	zf_fifo_write_element
 246:libraries/zf_driver/zf_driver_uart.c **** }
 550              		.loc 1 246 1
 551 0020 00BF     		nop
 552 0022 05B0     		add	sp, sp, #20
 553              		.cfi_def_cfa_offset 4
 554              		@ sp needed
 555 0024 5DF804FB 		ldr	pc, [sp], #4
 556              		.cfi_endproc
 557              	.LFE184:
 559              		.section	.text.debug_uart_str_output_handler,"ax",%progbits
 560              		.align	1
 561              		.p2align 4,,15
 562              		.global	debug_uart_str_output_handler
 563              		.syntax unified
 564              		.thumb
 565              		.thumb_func
 567              	debug_uart_str_output_handler:
 568              	.LFB185:
 247:libraries/zf_driver/zf_driver_uart.c **** 
 248:libraries/zf_driver/zf_driver_uart.c **** //-------------------------------------------------------------------------------------------------
 249:libraries/zf_driver/zf_driver_uart.c **** // ÂáΩÊï∞ÁÆÄ‰ªã     debug ‰∏≤Âè£Â≠óÁ¨¶ËæìÂá∫Êé•Âè£
 250:libraries/zf_driver/zf_driver_uart.c **** // ÂèÇÊï∞ËØ¥Êòé     *str                ÈúÄË¶ÅËæìÂá∫ÁöÑÂ≠óÁ¨¶‰∏≤
 251:libraries/zf_driver/zf_driver_uart.c **** // ËøîÂõûÂèÇÊï∞     void
 252:libraries/zf_driver/zf_driver_uart.c **** // ‰ΩøÁî®Á§∫‰æã     debug_uart_str_output_handler("Log message");
 253:libraries/zf_driver/zf_driver_uart.c **** // Â§áÊ≥®‰ø°ÊÅØ     Êú¨ÂáΩÊï∞Âú®Êñá‰ª∂ÂÜÖÈÉ®Ë∞ÉÁî® Áî®Êà∑‰∏çÁî®ÂÖ≥Ê≥® ‰πü‰∏çÂèØ‰øÆÊîπ
 254:libraries/zf_driver/zf_driver_uart.c **** //-------------------------------------------------------------------------------------------------
 255:libraries/zf_driver/zf_driver_uart.c **** void debug_uart_str_output_handler (const char *str)
 256:libraries/zf_driver/zf_driver_uart.c **** {
 569              		.loc 1 256 1
 570              		.cfi_startproc
 571              		@ args = 0, pretend = 0, frame = 8
 572              		@ frame_needed = 0, uses_anonymous_args = 0
 573 0000 00B5     		push	{lr}
 574              		.cfi_def_cfa_offset 4
 575              		.cfi_offset 14, -4
 576 0002 83B0     		sub	sp, sp, #12
 577              		.cfi_def_cfa_offset 16
 578 0004 0190     		str	r0, [sp, #4]
 257:libraries/zf_driver/zf_driver_uart.c ****     zf_uart_write_string(DEBUG_UART_INDEX, str);
 579              		.loc 1 257 5
 580 0006 0199     		ldr	r1, [sp, #4]
 581 0008 0220     		movs	r0, #2
 582 000a FFF7FEFF 		bl	zf_uart_write_string
 258:libraries/zf_driver/zf_driver_uart.c **** }
 583              		.loc 1 258 1
 584 000e 00BF     		nop
 585 0010 03B0     		add	sp, sp, #12
 586              		.cfi_def_cfa_offset 4
 587              		@ sp needed
 588 0012 5DF804FB 		ldr	pc, [sp], #4
 589              		.cfi_endproc
 590              	.LFE185:
 592 0016 00BF     		.section	.text.debug_uart_write_buffer,"ax",%progbits
 593              		.align	1
 594              		.p2align 4,,15
 595              		.global	debug_uart_write_buffer
 596              		.syntax unified
 597              		.thumb
 598              		.thumb_func
 600              	debug_uart_write_buffer:
 601              	.LFB186:
 259:libraries/zf_driver/zf_driver_uart.c **** 
 260:libraries/zf_driver/zf_driver_uart.c **** //-------------------------------------------------------------------------------------------------
 261:libraries/zf_driver/zf_driver_uart.c **** // ÂáΩÊï∞ÁÆÄ‰ªã     debug ‰∏≤Âè£ËæìÂá∫Êé•Âè£
 262:libraries/zf_driver/zf_driver_uart.c **** // ÂèÇÊï∞ËØ¥Êòé     *buff           Êï∞ÊçÆÂú∞ÂùÄ
 263:libraries/zf_driver/zf_driver_uart.c **** // ÂèÇÊï∞ËØ¥Êòé     *length         ÈïøÂ∫¶
 264:libraries/zf_driver/zf_driver_uart.c **** // ËøîÂõûÂèÇÊï∞     uint32          Ââ©‰ΩôÊú™ÂèëÈÄÅÊï∞ÊçÆÈïøÂ∫¶
 265:libraries/zf_driver/zf_driver_uart.c **** // Â§áÊ≥®‰ø°ÊÅØ     Êú¨ÂáΩÊï∞Âú®Êñá‰ª∂ÂÜÖÈÉ®Ë∞ÉÁî® Áî®Êà∑‰∏çÁî®ÂÖ≥Ê≥® ‰πü‰∏çÂèØ‰øÆÊîπ
 266:libraries/zf_driver/zf_driver_uart.c **** //-------------------------------------------------------------------------------------------------
 267:libraries/zf_driver/zf_driver_uart.c **** uint8 debug_uart_write_buffer (const uint8 *buff, uint32 *length)
 268:libraries/zf_driver/zf_driver_uart.c **** {
 602              		.loc 1 268 1
 603              		.cfi_startproc
 604              		@ args = 0, pretend = 0, frame = 8
 605              		@ frame_needed = 0, uses_anonymous_args = 0
 606 0000 00B5     		push	{lr}
 607              		.cfi_def_cfa_offset 4
 608              		.cfi_offset 14, -4
 609 0002 83B0     		sub	sp, sp, #12
 610              		.cfi_def_cfa_offset 16
 611 0004 0190     		str	r0, [sp, #4]
 612 0006 0091     		str	r1, [sp]
 269:libraries/zf_driver/zf_driver_uart.c **** 	return zf_uart_write_buffer(DEBUG_UART_INDEX, buff, *length);
 613              		.loc 1 269 9
 614 0008 009B     		ldr	r3, [sp]
 615 000a 1B68     		ldr	r3, [r3]
 616 000c 1A46     		mov	r2, r3
 617 000e 0199     		ldr	r1, [sp, #4]
 618 0010 0220     		movs	r0, #2
 619 0012 FFF7FEFF 		bl	zf_uart_write_buffer
 620 0016 0346     		mov	r3, r0
 270:libraries/zf_driver/zf_driver_uart.c **** }
 621              		.loc 1 270 1
 622 0018 1846     		mov	r0, r3
 623 001a 03B0     		add	sp, sp, #12
 624              		.cfi_def_cfa_offset 4
 625              		@ sp needed
 626 001c 5DF804FB 		ldr	pc, [sp], #4
 627              		.cfi_endproc
 628              	.LFE186:
 630              		.section	.text.debug_uart_read_buffer,"ax",%progbits
 631              		.align	1
 632              		.p2align 4,,15
 633              		.global	debug_uart_read_buffer
 634              		.syntax unified
 635              		.thumb
 636              		.thumb_func
 638              	debug_uart_read_buffer:
 639              	.LFB187:
 271:libraries/zf_driver/zf_driver_uart.c **** 
 272:libraries/zf_driver/zf_driver_uart.c **** //-------------------------------------------------------------------------------------------------
 273:libraries/zf_driver/zf_driver_uart.c **** // ÂáΩÊï∞ÁÆÄ‰ªã     debug ‰∏≤Âè£ËØªÂèñÊé•Âè£
 274:libraries/zf_driver/zf_driver_uart.c **** // ÂèÇÊï∞ËØ¥Êòé     *buff           Êï∞ÊçÆÂú∞ÂùÄ
 275:libraries/zf_driver/zf_driver_uart.c **** // ÂèÇÊï∞ËØ¥Êòé     *length         ÈïøÂ∫¶
 276:libraries/zf_driver/zf_driver_uart.c **** // ËøîÂõûÂèÇÊï∞     void
 277:libraries/zf_driver/zf_driver_uart.c **** // ‰ΩøÁî®Á§∫‰æã     debug_uart_str_output_handler("Log message");
 278:libraries/zf_driver/zf_driver_uart.c **** // Â§áÊ≥®‰ø°ÊÅØ     Êú¨ÂáΩÊï∞Âú®Êñá‰ª∂ÂÜÖÈÉ®Ë∞ÉÁî® Áî®Êà∑‰∏çÁî®ÂÖ≥Ê≥® ‰πü‰∏çÂèØ‰øÆÊîπ
 279:libraries/zf_driver/zf_driver_uart.c **** //-------------------------------------------------------------------------------------------------
 280:libraries/zf_driver/zf_driver_uart.c **** uint8 debug_uart_read_buffer (uint8 *buff, uint32 *length)
 281:libraries/zf_driver/zf_driver_uart.c **** {
 640              		.loc 1 281 1
 641              		.cfi_startproc
 642              		@ args = 0, pretend = 0, frame = 8
 643              		@ frame_needed = 0, uses_anonymous_args = 0
 644 0000 00B5     		push	{lr}
 645              		.cfi_def_cfa_offset 4
 646              		.cfi_offset 14, -4
 647 0002 83B0     		sub	sp, sp, #12
 648              		.cfi_def_cfa_offset 16
 649 0004 0190     		str	r0, [sp, #4]
 650 0006 0091     		str	r1, [sp]
 282:libraries/zf_driver/zf_driver_uart.c ****     if(DEBUG_UART_USE_INTERRUPT)
 283:libraries/zf_driver/zf_driver_uart.c ****     {
 284:libraries/zf_driver/zf_driver_uart.c ****         debug_read_ring_buffer(buff, *length);
 651              		.loc 1 284 9
 652 0008 009B     		ldr	r3, [sp]
 653 000a 1B68     		ldr	r3, [r3]
 654 000c 1946     		mov	r1, r3
 655 000e 0198     		ldr	r0, [sp, #4]
 656 0010 FFF7FEFF 		bl	debug_read_ring_buffer
 285:libraries/zf_driver/zf_driver_uart.c ****     }
 286:libraries/zf_driver/zf_driver_uart.c ****     else
 287:libraries/zf_driver/zf_driver_uart.c ****     {
 288:libraries/zf_driver/zf_driver_uart.c ****         zf_uart_read_buffer(DEBUG_UART_INDEX, buff, *length);
 289:libraries/zf_driver/zf_driver_uart.c ****     }
 290:libraries/zf_driver/zf_driver_uart.c ****     return ZF_NO_ERROR;
 657              		.loc 1 290 12
 658 0014 0023     		movs	r3, #0
 291:libraries/zf_driver/zf_driver_uart.c **** }
 659              		.loc 1 291 1
 660 0016 1846     		mov	r0, r3
 661 0018 03B0     		add	sp, sp, #12
 662              		.cfi_def_cfa_offset 4
 663              		@ sp needed
 664 001a 5DF804FB 		ldr	pc, [sp], #4
 665              		.cfi_endproc
 666              	.LFE187:
 668 001e 00BF     		.section	.text.debug_uart_transfer_handler,"ax",%progbits
 669              		.align	1
 670              		.p2align 4,,15
 671              		.global	debug_uart_transfer_handler
 672              		.syntax unified
 673              		.thumb
 674              		.thumb_func
 676              	debug_uart_transfer_handler:
 677              	.LFB188:
 292:libraries/zf_driver/zf_driver_uart.c **** 
 293:libraries/zf_driver/zf_driver_uart.c **** //-------------------------------------------------------------------------------------------------
 294:libraries/zf_driver/zf_driver_uart.c **** // ÂáΩÊï∞ÁÆÄ‰ªã     debug ‰∏≤Âè£‰º†ËæìÊé•Âè£
 295:libraries/zf_driver/zf_driver_uart.c **** // ÂèÇÊï∞ËØ¥Êòé     *out                ËæìÂá∫Êï∞ÊçÆÁºìÂÜ≤Âå∫
 296:libraries/zf_driver/zf_driver_uart.c **** // ÂèÇÊï∞ËØ¥Êòé     out_len             ËæìÂá∫ÈïøÂ∫¶
 297:libraries/zf_driver/zf_driver_uart.c **** // ÂèÇÊï∞ËØ¥Êòé     *in                 Êé•Êî∂Êï∞ÊçÆÁºìÂÜ≤Âå∫
 298:libraries/zf_driver/zf_driver_uart.c **** // ÂèÇÊï∞ËØ¥Êòé     in_len              Êé•Êî∂ÈïøÂ∫¶
 299:libraries/zf_driver/zf_driver_uart.c **** // ËøîÂõûÂèÇÊï∞     void
 300:libraries/zf_driver/zf_driver_uart.c **** // ‰ΩøÁî®Á§∫‰æã     debug_uart_transfer_handler(out, out_len, in, in_len);
 301:libraries/zf_driver/zf_driver_uart.c **** // Â§áÊ≥®‰ø°ÊÅØ     Êú¨ÂáΩÊï∞Âú®Êñá‰ª∂ÂÜÖÈÉ®Ë∞ÉÁî® Áî®Êà∑‰∏çÁî®ÂÖ≥Ê≥® ‰πü‰∏çÂèØ‰øÆÊîπ
 302:libraries/zf_driver/zf_driver_uart.c **** //-------------------------------------------------------------------------------------------------
 303:libraries/zf_driver/zf_driver_uart.c **** void debug_uart_transfer_handler (const uint8 *out, uint32 out_len, uint8 *in, uint32 in_len)
 304:libraries/zf_driver/zf_driver_uart.c **** {
 678              		.loc 1 304 1
 679              		.cfi_startproc
 680              		@ args = 0, pretend = 0, frame = 16
 681              		@ frame_needed = 0, uses_anonymous_args = 0
 682 0000 00B5     		push	{lr}
 683              		.cfi_def_cfa_offset 4
 684              		.cfi_offset 14, -4
 685 0002 85B0     		sub	sp, sp, #20
 686              		.cfi_def_cfa_offset 24
 687 0004 0390     		str	r0, [sp, #12]
 688 0006 0291     		str	r1, [sp, #8]
 689 0008 0192     		str	r2, [sp, #4]
 690 000a 0093     		str	r3, [sp]
 305:libraries/zf_driver/zf_driver_uart.c ****     if(NULL != out)
 691              		.loc 1 305 7
 692 000c 039B     		ldr	r3, [sp, #12]
 693 000e 002B     		cmp	r3, #0
 694 0010 04D0     		beq	.L39
 306:libraries/zf_driver/zf_driver_uart.c ****     {
 307:libraries/zf_driver/zf_driver_uart.c ****         zf_uart_write_buffer(DEBUG_UART_INDEX, out, out_len);
 695              		.loc 1 307 9
 696 0012 029A     		ldr	r2, [sp, #8]
 697 0014 0399     		ldr	r1, [sp, #12]
 698 0016 0220     		movs	r0, #2
 699 0018 FFF7FEFF 		bl	zf_uart_write_buffer
 700              	.L39:
 308:libraries/zf_driver/zf_driver_uart.c ****     }
 309:libraries/zf_driver/zf_driver_uart.c ****     if(NULL != in)
 701              		.loc 1 309 7
 702 001c 019B     		ldr	r3, [sp, #4]
 703 001e 002B     		cmp	r3, #0
 704 0020 07D0     		beq	.L42
 310:libraries/zf_driver/zf_driver_uart.c ****     {
 311:libraries/zf_driver/zf_driver_uart.c ****         if(DEBUG_UART_USE_INTERRUPT)
 312:libraries/zf_driver/zf_driver_uart.c ****         {
 313:libraries/zf_driver/zf_driver_uart.c ****             while(!debug_read_ring_buffer(in, in_len));
 705              		.loc 1 313 18
 706 0022 00BF     		nop
 707              	.L41:
 708              		.loc 1 313 20 discriminator 1
 709 0024 0099     		ldr	r1, [sp]
 710 0026 0198     		ldr	r0, [sp, #4]
 711 0028 FFF7FEFF 		bl	debug_read_ring_buffer
 712 002c 0346     		mov	r3, r0
 713              		.loc 1 313 18 discriminator 1
 714 002e 002B     		cmp	r3, #0
 715 0030 F8D0     		beq	.L41
 716              	.L42:
 314:libraries/zf_driver/zf_driver_uart.c ****         }
 315:libraries/zf_driver/zf_driver_uart.c ****         else
 316:libraries/zf_driver/zf_driver_uart.c ****         {
 317:libraries/zf_driver/zf_driver_uart.c ****             zf_uart_read_buffer(DEBUG_UART_INDEX, in, in_len);
 318:libraries/zf_driver/zf_driver_uart.c ****         }
 319:libraries/zf_driver/zf_driver_uart.c ****     }
 320:libraries/zf_driver/zf_driver_uart.c **** }
 717              		.loc 1 320 1
 718 0032 00BF     		nop
 719 0034 05B0     		add	sp, sp, #20
 720              		.cfi_def_cfa_offset 4
 721              		@ sp needed
 722 0036 5DF804FB 		ldr	pc, [sp], #4
 723              		.cfi_endproc
 724              	.LFE188:
 726 003a 00BF     		.section	.text.debug_uart_init_handler,"ax",%progbits
 727              		.align	1
 728              		.p2align 4,,15
 729              		.global	debug_uart_init_handler
 730              		.syntax unified
 731              		.thumb
 732              		.thumb_func
 734              	debug_uart_init_handler:
 735              	.LFB189:
 321:libraries/zf_driver/zf_driver_uart.c **** 
 322:libraries/zf_driver/zf_driver_uart.c **** //-------------------------------------------------------------------------------------------------
 323:libraries/zf_driver/zf_driver_uart.c **** // ÂáΩÊï∞ÁÆÄ‰ªã     debug ‰∏≤Âè£ÂàùÂßãÂåñÊìç‰Ωú
 324:libraries/zf_driver/zf_driver_uart.c **** // ÂèÇÊï∞ËØ¥Êòé     *obj                Debug ÂØπË±°ÊåáÈíà
 325:libraries/zf_driver/zf_driver_uart.c **** // ÂèÇÊï∞ËØ¥Êòé     callback            ÂõûË∞ÉÂáΩÊï∞ ‰∏∫Êó†ËøîÂõûÂÄº uint32 Âä† void * ÂèÇÊï∞ÁöÑÂáΩ
 326:libraries/zf_driver/zf_driver_uart.c **** // ÂèÇÊï∞ËØ¥Êòé     *ptr                ÂõûË∞ÉÂèÇÊï∞ Áî®Êà∑Ëá™ÊãüÂÆöÁöÑÂèÇÊï∞ÊåáÈíà ‰∏çÈúÄË¶ÅÁöÑËØù
 327:libraries/zf_driver/zf_driver_uart.c **** // ËøîÂõûÂèÇÊï∞     void
 328:libraries/zf_driver/zf_driver_uart.c **** // ‰ΩøÁî®Á§∫‰æã     debug_uart_init_handler(obj, callback, ptr);
 329:libraries/zf_driver/zf_driver_uart.c **** // Â§áÊ≥®‰ø°ÊÅØ     Êú¨ÂáΩÊï∞Âú®Êñá‰ª∂ÂÜÖÈÉ®Ë∞ÉÁî® Áî®Êà∑‰∏çÁî®ÂÖ≥Ê≥® ‰πü‰∏çÂèØ‰øÆÊîπ
 330:libraries/zf_driver/zf_driver_uart.c **** //-------------------------------------------------------------------------------------------------
 331:libraries/zf_driver/zf_driver_uart.c **** void debug_uart_init_handler (debug_obj_struct *obj, void_callback_uint32_ptr callback, void *ptr)
 332:libraries/zf_driver/zf_driver_uart.c **** {
 736              		.loc 1 332 1
 737              		.cfi_startproc
 738              		@ args = 0, pretend = 0, frame = 16
 739              		@ frame_needed = 0, uses_anonymous_args = 0
 740 0000 00B5     		push	{lr}
 741              		.cfi_def_cfa_offset 4
 742              		.cfi_offset 14, -4
 743 0002 85B0     		sub	sp, sp, #20
 744              		.cfi_def_cfa_offset 24
 745 0004 0390     		str	r0, [sp, #12]
 746 0006 0291     		str	r1, [sp, #8]
 747 0008 0192     		str	r2, [sp, #4]
 333:libraries/zf_driver/zf_driver_uart.c ****     zf_uart_init(
 748              		.loc 1 333 5
 749 000a 0E4B     		ldr	r3, .L46
 750 000c 0E4A     		ldr	r2, .L46+4
 751 000e 4FF4E131 		mov	r1, #115200
 752 0012 0220     		movs	r0, #2
 753 0014 FFF7FEFF 		bl	zf_uart_init
 334:libraries/zf_driver/zf_driver_uart.c ****         DEBUG_UART_INDEX,                                                       // Âú® zf_common_de
 335:libraries/zf_driver/zf_driver_uart.c ****         DEBUG_UART_BAUDRATE,                                                    // Âú® zf_common_de
 336:libraries/zf_driver/zf_driver_uart.c ****         DEBUG_UART_TX_PIN,                                                      // Âú® zf_common_de
 337:libraries/zf_driver/zf_driver_uart.c ****         DEBUG_UART_RX_PIN);                                                     // Âú® zf_common_de
 338:libraries/zf_driver/zf_driver_uart.c **** 
 339:libraries/zf_driver/zf_driver_uart.c ****     obj->device_index = DEBUG_UART_INDEX;
 754              		.loc 1 339 23
 755 0018 039B     		ldr	r3, [sp, #12]
 756 001a 0222     		movs	r2, #2
 757 001c 9A60     		str	r2, [r3, #8]
 340:libraries/zf_driver/zf_driver_uart.c ****     if(NULL != ptr)
 758              		.loc 1 340 7
 759 001e 019B     		ldr	r3, [sp, #4]
 760 0020 002B     		cmp	r3, #0
 761 0022 0BD0     		beq	.L45
 341:libraries/zf_driver/zf_driver_uart.c ****     {
 342:libraries/zf_driver/zf_driver_uart.c ****         obj->type_index = DEBUG_OBJ_TYPE_UART_INTERRUPT;
 762              		.loc 1 342 25
 763 0024 039B     		ldr	r3, [sp, #12]
 764 0026 0222     		movs	r2, #2
 765 0028 1A70     		strb	r2, [r3]
 343:libraries/zf_driver/zf_driver_uart.c ****         zf_uart_set_interrupt_callback(DEBUG_UART_INDEX, callback, ptr);
 766              		.loc 1 343 9
 767 002a 019A     		ldr	r2, [sp, #4]
 768 002c 0299     		ldr	r1, [sp, #8]
 769 002e 0220     		movs	r0, #2
 770 0030 FFF7FEFF 		bl	zf_uart_set_interrupt_callback
 344:libraries/zf_driver/zf_driver_uart.c ****         zf_uart_set_interrupt_config(DEBUG_UART_INDEX, UART_INTERRUPT_CONFIG_RX_ENABLE);
 771              		.loc 1 344 9
 772 0034 0421     		movs	r1, #4
 773 0036 0220     		movs	r0, #2
 774 0038 FFF7FEFF 		bl	zf_uart_set_interrupt_config
 775              	.L45:
 345:libraries/zf_driver/zf_driver_uart.c ****     }
 346:libraries/zf_driver/zf_driver_uart.c **** 
 347:libraries/zf_driver/zf_driver_uart.c **** }
 776              		.loc 1 347 1
 777 003c 00BF     		nop
 778 003e 05B0     		add	sp, sp, #20
 779              		.cfi_def_cfa_offset 4
 780              		@ sp needed
 781 0040 5DF804FB 		ldr	pc, [sp], #4
 782              	.L47:
 783              		.align	2
 784              	.L46:
 785 0044 CE700200 		.word	159950
 786 0048 CF700200 		.word	159951
 787              		.cfi_endproc
 788              	.LFE189:
 790              		.section	.text.zf_uart_assert_handler,"ax",%progbits
 791              		.align	1
 792              		.p2align 4,,15
 793              		.global	zf_uart_assert_handler
 794              		.syntax unified
 795              		.thumb
 796              		.thumb_func
 798              	zf_uart_assert_handler:
 799              	.LFB190:
 348:libraries/zf_driver/zf_driver_uart.c **** // <<<<<<<<<<<<<<<<<<<<<<<<<<<<<<<<<<<<<<<<< Part   End <<<<<<<<<<<<<<<<<<<<<<<<<<<<<<<<<<<<<<<<<
 349:libraries/zf_driver/zf_driver_uart.c **** 
 350:libraries/zf_driver/zf_driver_uart.c **** // Ê≠§Â§ÑÂÆö‰πâ Êú¨Êñá‰ª∂ÁöÑÊâÄÊúâÂáΩÊï∞ÂÖ∑‰ΩìÂÆö‰πâ ËøôÈáå‰∏çÂÖÅËÆ∏Áî®Êà∑‰øÆÊîπ ËøôÈáå‰∏çÂÖÅËÆ∏Áî®
 351:libraries/zf_driver/zf_driver_uart.c **** // >>>>>>>>>>>>>>>>>>>>>>>>>>>>>>>>>>>>>>>>> Part Start >>>>>>>>>>>>>>>>>>>>>>>>>>>>>>>>>>>>>>>>>
 352:libraries/zf_driver/zf_driver_uart.c **** //-------------------------------------------------------------------------------------------------
 353:libraries/zf_driver/zf_driver_uart.c **** // ÂáΩÊï∞ÁÆÄ‰ªã     UART Êñ≠Ë®ÄÂ§ÑÁêÜ
 354:libraries/zf_driver/zf_driver_uart.c **** // ÂèÇÊï∞ËØ¥Êòé     *file               Êñá‰ª∂Ë∑ØÂæÑ
 355:libraries/zf_driver/zf_driver_uart.c **** // ÂèÇÊï∞ËØ¥Êòé     line                Êä•ÈîôË°å
 356:libraries/zf_driver/zf_driver_uart.c **** // ÂèÇÊï∞ËØ¥Êòé     *tips               ËæìÂá∫‰ø°ÊÅØ
 357:libraries/zf_driver/zf_driver_uart.c **** // ËøîÂõûÂèÇÊï∞     uint8               Êìç‰ΩúÁä∂ÊÄÅ ZF_NO_ERROR / GPIO_OPERATION_DONE - ÂÆåÊàê ÂÖ∂
 358:libraries/zf_driver/zf_driver_uart.c **** // ‰ΩøÁî®Á§∫‰æã     zf_uart_assert_handler(file, line, tips);
 359:libraries/zf_driver/zf_driver_uart.c **** // Â§áÊ≥®‰ø°ÊÅØ
 360:libraries/zf_driver/zf_driver_uart.c **** //-------------------------------------------------------------------------------------------------
 361:libraries/zf_driver/zf_driver_uart.c **** uint8 zf_uart_assert_handler (char *file, int line, char *tips)
 362:libraries/zf_driver/zf_driver_uart.c **** {
 800              		.loc 1 362 1
 801              		.cfi_startproc
 802              		@ args = 0, pretend = 0, frame = 16
 803              		@ frame_needed = 0, uses_anonymous_args = 0
 804 0000 00B5     		push	{lr}
 805              		.cfi_def_cfa_offset 4
 806              		.cfi_offset 14, -4
 807 0002 87B0     		sub	sp, sp, #28
 808              		.cfi_def_cfa_offset 32
 809 0004 0590     		str	r0, [sp, #20]
 810 0006 0491     		str	r1, [sp, #16]
 811 0008 0392     		str	r2, [sp, #12]
 363:libraries/zf_driver/zf_driver_uart.c ****     debug_message_handler(DEBUG_OUTPUT_LEVEL_ASSERT, ZF_FALSE, tips, file, line);
 812              		.loc 1 363 5
 813 000a 049B     		ldr	r3, [sp, #16]
 814 000c 0093     		str	r3, [sp]
 815 000e 059B     		ldr	r3, [sp, #20]
 816 0010 039A     		ldr	r2, [sp, #12]
 817 0012 0021     		movs	r1, #0
 818 0014 0220     		movs	r0, #2
 819 0016 FFF7FEFF 		bl	debug_message_handler
 820              	.L49:
 364:libraries/zf_driver/zf_driver_uart.c ****     while(1);
 821              		.loc 1 364 10 discriminator 1
 822 001a FEE7     		b	.L49
 823              		.cfi_endproc
 824              	.LFE190:
 826              		.section	.rodata
 827              		.align	2
 828              	.LC0:
 829 0000 6C696272 		.ascii	"libraries/zf_driver/zf_driver_uart.c\000"
 829      61726965 
 829      732F7A66 
 829      5F647269 
 829      7665722F 
 830              		.section	.text.zf_uart_write_byte,"ax",%progbits
 831              		.align	1
 832              		.p2align 4,,15
 833              		.global	zf_uart_write_byte
 834              		.syntax unified
 835              		.thumb
 836              		.thumb_func
 838              	zf_uart_write_byte:
 839              	.LFB191:
 365:libraries/zf_driver/zf_driver_uart.c ****     return ZF_ERROR;
 366:libraries/zf_driver/zf_driver_uart.c **** }
 367:libraries/zf_driver/zf_driver_uart.c **** 
 368:libraries/zf_driver/zf_driver_uart.c **** //-------------------------------------------------------------------------------------------------
 369:libraries/zf_driver/zf_driver_uart.c **** // ÂáΩÊï∞ÁÆÄ‰ªã     UART Â≠óËäÇËæìÂá∫
 370:libraries/zf_driver/zf_driver_uart.c **** // ÂèÇÊï∞ËØ¥Êòé     uart_index          UART Ê®°ÂùóÂè∑     (ËØ¶ËßÅ zf_driver_uart.h ÂÜÖ zf_uart_ind
 371:libraries/zf_driver/zf_driver_uart.c **** // ÂèÇÊï∞ËØ¥Êòé     data                ÈúÄË¶ÅÂèëÈÄÅÁöÑÂ≠óËäÇ
 372:libraries/zf_driver/zf_driver_uart.c **** // ËøîÂõûÂèÇÊï∞     uint8               Êìç‰ΩúÁä∂ÊÄÅ ZF_NO_ERROR / UART_OPERATION_DONE - ÂÆåÊàê ÂÖ∂
 373:libraries/zf_driver/zf_driver_uart.c **** // ‰ΩøÁî®Á§∫‰æã     zf_uart_write_byte(uart_index, data);
 374:libraries/zf_driver/zf_driver_uart.c **** // Â§áÊ≥®‰ø°ÊÅØ     
 375:libraries/zf_driver/zf_driver_uart.c **** //-------------------------------------------------------------------------------------------------
 376:libraries/zf_driver/zf_driver_uart.c **** uint8 zf_uart_write_byte (zf_uart_index_enum uart_index, const uint8 data)
 377:libraries/zf_driver/zf_driver_uart.c **** {
 840              		.loc 1 377 1
 841              		.cfi_startproc
 842              		@ args = 0, pretend = 0, frame = 16
 843              		@ frame_needed = 0, uses_anonymous_args = 0
 844 0000 00B5     		push	{lr}
 845              		.cfi_def_cfa_offset 4
 846              		.cfi_offset 14, -4
 847 0002 85B0     		sub	sp, sp, #20
 848              		.cfi_def_cfa_offset 24
 849 0004 0346     		mov	r3, r0
 850 0006 0A46     		mov	r2, r1
 851 0008 8DF80730 		strb	r3, [sp, #7]
 852 000c 1346     		mov	r3, r2
 853 000e 8DF80630 		strb	r3, [sp, #6]
 378:libraries/zf_driver/zf_driver_uart.c ****     zf_uart_operation_state_enum     return_state    =   UART_ERROR_UNKNOW;
 854              		.loc 1 378 38
 855 0012 0123     		movs	r3, #1
 856 0014 8DF80F30 		strb	r3, [sp, #15]
 857              	.LBB20:
 379:libraries/zf_driver/zf_driver_uart.c **** 
 380:libraries/zf_driver/zf_driver_uart.c ****     do
 381:libraries/zf_driver/zf_driver_uart.c ****     {
 382:libraries/zf_driver/zf_driver_uart.c ****         if(zf_uart_assert(uart_obj_list[uart_index].baudrate))                  // Ê£ÄÊü• Ê®°ÂùóÂàù
 858              		.loc 1 382 12
 859 0018 9DF80730 		ldrb	r3, [sp, #7]	@ zero_extendqisi2
 860 001c 294A     		ldr	r2, .L58
 861 001e 1B01     		lsls	r3, r3, #4
 862 0020 1344     		add	r3, r3, r2
 863 0022 1B68     		ldr	r3, [r3]
 864              		.loc 1 382 11
 865 0024 002B     		cmp	r3, #0
 866 0026 0CD1     		bne	.L51
 867              		.loc 1 382 12 discriminator 1
 868 0028 0022     		movs	r2, #0
 869 002a 4FF4BF71 		mov	r1, #382
 870 002e 2648     		ldr	r0, .L58+4
 871 0030 FFF7FEFF 		bl	zf_uart_assert_handler
 872 0034 0346     		mov	r3, r0
 873 0036 002B     		cmp	r3, #0
 874 0038 03D0     		beq	.L51
 383:libraries/zf_driver/zf_driver_uart.c ****         {
 384:libraries/zf_driver/zf_driver_uart.c ****             // Ê≠§Â§ÑÂ¶ÇÊûúÊñ≠Ë®ÄÊä•Èîô ÈÇ£‰πàËØÅÊòéÊú¨Ê®°ÂùóÊ≤°ÊúâÂàùÂßãÂåñËøá ÊòØ‰∏çÂÖÅËÆ∏Áõ¥Êé•Ê
 385:libraries/zf_driver/zf_driver_uart.c ****             // Êú™ÂàùÂßãÂåñÊ®°ÂùóÂæàÂèØËÉΩÊ≤°ÊúâÂºÄÂêØÊ®°ÂùóÊó∂ÈíüÊàñËÄÖÊ≤°Êúâ‰ΩøËÉΩÊ®°Âùó
 386:libraries/zf_driver/zf_driver_uart.c ****             // ÂØπ‰∫éÈÉ®ÂàÜÂçïÁâáÊú∫Ê≤°Êúâ‰ΩøËÉΩÊ®°ÂùóÁõ¥Êé•Êìç‰Ωú‰ºöÂØºËá¥ÊÄªÁ∫øÂºÇÂ∏∏ÊàñËÄÖÁ°¨‰ª∂
 387:libraries/zf_driver/zf_driver_uart.c ****             return_state = UART_ERROR_MODULE_NOT_INIT;                          // UART Ê®°ÂùóÊú™Âà
 875              		.loc 1 387 26
 876 003a 2123     		movs	r3, #33
 877 003c 8DF80F30 		strb	r3, [sp, #15]
 388:libraries/zf_driver/zf_driver_uart.c ****             break;
 878              		.loc 1 388 13
 879 0040 39E0     		b	.L52
 880              	.L51:
 389:libraries/zf_driver/zf_driver_uart.c ****         }
 390:libraries/zf_driver/zf_driver_uart.c **** 
 391:libraries/zf_driver/zf_driver_uart.c ****         if(ZF_DISABLE == uart_obj_list[uart_index].enable)
 881              		.loc 1 391 51
 882 0042 9DF80730 		ldrb	r3, [sp, #7]	@ zero_extendqisi2
 883 0046 1F4A     		ldr	r2, .L58
 884 0048 1B01     		lsls	r3, r3, #4
 885 004a 1344     		add	r3, r3, r2
 886 004c 0833     		adds	r3, r3, #8
 887 004e 1B79     		ldrb	r3, [r3, #4]
 888 0050 C3F30303 		ubfx	r3, r3, #0, #4
 889 0054 DBB2     		uxtb	r3, r3
 890              		.loc 1 391 11
 891 0056 002B     		cmp	r3, #0
 892 0058 03D1     		bne	.L53
 392:libraries/zf_driver/zf_driver_uart.c ****         {
 393:libraries/zf_driver/zf_driver_uart.c ****             return_state = UART_WARNING_MODULE_DISABLE;                         // UART Ê®°ÂùóÂ§±ËÉ
 893              		.loc 1 393 26
 894 005a 1023     		movs	r3, #16
 895 005c 8DF80F30 		strb	r3, [sp, #15]
 394:libraries/zf_driver/zf_driver_uart.c ****             break;
 896              		.loc 1 394 13
 897 0060 29E0     		b	.L52
 898              	.L53:
 395:libraries/zf_driver/zf_driver_uart.c ****         }
 396:libraries/zf_driver/zf_driver_uart.c **** 
 397:libraries/zf_driver/zf_driver_uart.c ****         vuint32 timeout_count   = 0;
 899              		.loc 1 397 17
 900 0062 0023     		movs	r3, #0
 901 0064 0293     		str	r3, [sp, #8]
 398:libraries/zf_driver/zf_driver_uart.c ****         uart_obj_list[uart_index].uart_ptr->TDR = data;
 902              		.loc 1 398 34
 903 0066 9DF80730 		ldrb	r3, [sp, #7]	@ zero_extendqisi2
 904 006a 164A     		ldr	r2, .L58
 905 006c 1B01     		lsls	r3, r3, #4
 906 006e 1344     		add	r3, r3, r2
 907 0070 0433     		adds	r3, r3, #4
 908 0072 1B68     		ldr	r3, [r3]
 909              		.loc 1 398 49
 910 0074 9DF80620 		ldrb	r2, [sp, #6]	@ zero_extendqisi2
 911 0078 9A62     		str	r2, [r3, #40]
 399:libraries/zf_driver/zf_driver_uart.c ****         while(  timeout_count ++ <= UART_DEFAULT_TIMEOUT_COUNT
 912              		.loc 1 399 14
 913 007a 00BF     		nop
 914              	.L55:
 915              		.loc 1 399 31
 916 007c 029B     		ldr	r3, [sp, #8]
 917 007e 5A1C     		adds	r2, r3, #1
 918 0080 0292     		str	r2, [sp, #8]
 919              		.loc 1 399 14
 920 0082 B3F5001F 		cmp	r3, #2097152
 921 0086 0BD2     		bcs	.L54
 400:libraries/zf_driver/zf_driver_uart.c ****             &&  !(uart_obj_list[uart_index].uart_ptr->ISR & UART_ISR_TXE_TXFNF));   // Á≠âÂæÖÂèëÈÄÅ
 922              		.loc 1 400 44
 923 0088 9DF80730 		ldrb	r3, [sp, #7]	@ zero_extendqisi2
 924 008c 0D4A     		ldr	r2, .L58
 925 008e 1B01     		lsls	r3, r3, #4
 926 0090 1344     		add	r3, r3, r2
 927 0092 0433     		adds	r3, r3, #4
 928 0094 1B68     		ldr	r3, [r3]
 929              		.loc 1 400 53
 930 0096 DB69     		ldr	r3, [r3, #28]
 931              		.loc 1 400 59
 932 0098 03F08003 		and	r3, r3, #128
 933              		.loc 1 400 13
 934 009c 002B     		cmp	r3, #0
 935 009e EDD0     		beq	.L55
 936              	.L54:
 401:libraries/zf_driver/zf_driver_uart.c ****         if(timeout_count >= UART_DEFAULT_TIMEOUT_COUNT)
 937              		.loc 1 401 26
 938 00a0 029B     		ldr	r3, [sp, #8]
 939              		.loc 1 401 11
 940 00a2 0A4A     		ldr	r2, .L58+8
 941 00a4 9342     		cmp	r3, r2
 942 00a6 03D9     		bls	.L56
 402:libraries/zf_driver/zf_driver_uart.c ****         {
 403:libraries/zf_driver/zf_driver_uart.c ****             return_state = UART_WARNING_OPERATION_TIMEOUT;                      // UART Êìç‰ΩúË∂ÖÊó
 943              		.loc 1 403 26
 944 00a8 1123     		movs	r3, #17
 945 00aa 8DF80F30 		strb	r3, [sp, #15]
 404:libraries/zf_driver/zf_driver_uart.c ****             break;
 946              		.loc 1 404 13
 947 00ae 02E0     		b	.L52
 948              	.L56:
 405:libraries/zf_driver/zf_driver_uart.c ****         }
 406:libraries/zf_driver/zf_driver_uart.c **** 
 407:libraries/zf_driver/zf_driver_uart.c ****         return_state = UART_OPERATION_DONE;
 949              		.loc 1 407 22
 950 00b0 0023     		movs	r3, #0
 951 00b2 8DF80F30 		strb	r3, [sp, #15]
 952              	.L52:
 953              	.LBE20:
 408:libraries/zf_driver/zf_driver_uart.c ****     }while(0);
 409:libraries/zf_driver/zf_driver_uart.c **** 
 410:libraries/zf_driver/zf_driver_uart.c ****     return return_state;
 954              		.loc 1 410 12
 955 00b6 9DF80F30 		ldrb	r3, [sp, #15]	@ zero_extendqisi2
 411:libraries/zf_driver/zf_driver_uart.c **** }
 956              		.loc 1 411 1
 957 00ba 1846     		mov	r0, r3
 958 00bc 05B0     		add	sp, sp, #20
 959              		.cfi_def_cfa_offset 4
 960              		@ sp needed
 961 00be 5DF804FB 		ldr	pc, [sp], #4
 962              	.L59:
 963 00c2 00BF     		.align	2
 964              	.L58:
 965 00c4 00000000 		.word	uart_obj_list
 966 00c8 00000000 		.word	.LC0
 967 00cc FEFF1F00 		.word	2097150
 968              		.cfi_endproc
 969              	.LFE191:
 971              		.section	.text.zf_uart_write_buffer,"ax",%progbits
 972              		.align	1
 973              		.p2align 4,,15
 974              		.global	zf_uart_write_buffer
 975              		.syntax unified
 976              		.thumb
 977              		.thumb_func
 979              	zf_uart_write_buffer:
 980              	.LFB192:
 412:libraries/zf_driver/zf_driver_uart.c **** 
 413:libraries/zf_driver/zf_driver_uart.c **** //-------------------------------------------------------------------------------------------------
 414:libraries/zf_driver/zf_driver_uart.c **** // ÂáΩÊï∞ÁÆÄ‰ªã     UART ÂèëÈÄÅÊï∞ÁªÑ
 415:libraries/zf_driver/zf_driver_uart.c **** // ÂèÇÊï∞ËØ¥Êòé     uart_index          UART Ê®°ÂùóÂè∑     (ËØ¶ËßÅ zf_driver_uart.h ÂÜÖ zf_uart_ind
 416:libraries/zf_driver/zf_driver_uart.c **** // ÂèÇÊï∞ËØ¥Êòé     *buff               Ë¶ÅÂèëÈÄÅÁöÑÊï∞ÁªÑÂú∞ÂùÄ
 417:libraries/zf_driver/zf_driver_uart.c **** // ÂèÇÊï∞ËØ¥Êòé     len                 ÂèëÈÄÅÈïøÂ∫¶
 418:libraries/zf_driver/zf_driver_uart.c **** // ËøîÂõûÂèÇÊï∞     uint8               Êìç‰ΩúÁä∂ÊÄÅ ZF_NO_ERROR / UART_OPERATION_DONE - ÂÆåÊàê ÂÖ∂
 419:libraries/zf_driver/zf_driver_uart.c **** // ‰ΩøÁî®Á§∫‰æã     zf_uart_write_buffer(uart_index, buff, len);
 420:libraries/zf_driver/zf_driver_uart.c **** // Â§áÊ≥®‰ø°ÊÅØ     
 421:libraries/zf_driver/zf_driver_uart.c **** //-------------------------------------------------------------------------------------------------
 422:libraries/zf_driver/zf_driver_uart.c **** uint8 zf_uart_write_buffer (zf_uart_index_enum uart_index, const uint8 *buff, uint32 len)
 423:libraries/zf_driver/zf_driver_uart.c **** {
 981              		.loc 1 423 1
 982              		.cfi_startproc
 983              		@ args = 0, pretend = 0, frame = 24
 984              		@ frame_needed = 0, uses_anonymous_args = 0
 985 0000 00B5     		push	{lr}
 986              		.cfi_def_cfa_offset 4
 987              		.cfi_offset 14, -4
 988 0002 87B0     		sub	sp, sp, #28
 989              		.cfi_def_cfa_offset 32
 990 0004 0346     		mov	r3, r0
 991 0006 0291     		str	r1, [sp, #8]
 992 0008 0192     		str	r2, [sp, #4]
 993 000a 8DF80F30 		strb	r3, [sp, #15]
 424:libraries/zf_driver/zf_driver_uart.c ****     zf_uart_operation_state_enum    return_state    =   UART_ERROR_UNKNOW;
 994              		.loc 1 424 37
 995 000e 0123     		movs	r3, #1
 996 0010 8DF81730 		strb	r3, [sp, #23]
 425:libraries/zf_driver/zf_driver_uart.c **** 
 426:libraries/zf_driver/zf_driver_uart.c ****     do
 427:libraries/zf_driver/zf_driver_uart.c ****     {
 428:libraries/zf_driver/zf_driver_uart.c ****         if(zf_uart_assert(uart_obj_list[uart_index].baudrate))                  // Ê£ÄÊü• Ê®°ÂùóÂàù
 997              		.loc 1 428 12
 998 0014 9DF80F30 		ldrb	r3, [sp, #15]	@ zero_extendqisi2
 999 0018 374A     		ldr	r2, .L71
 1000 001a 1B01     		lsls	r3, r3, #4
 1001 001c 1344     		add	r3, r3, r2
 1002 001e 1B68     		ldr	r3, [r3]
 1003              		.loc 1 428 11
 1004 0020 002B     		cmp	r3, #0
 1005 0022 0CD1     		bne	.L61
 1006              		.loc 1 428 12 discriminator 1
 1007 0024 0022     		movs	r2, #0
 1008 0026 4FF4D671 		mov	r1, #428
 1009 002a 3448     		ldr	r0, .L71+4
 1010 002c FFF7FEFF 		bl	zf_uart_assert_handler
 1011 0030 0346     		mov	r3, r0
 1012 0032 002B     		cmp	r3, #0
 1013 0034 03D0     		beq	.L61
 429:libraries/zf_driver/zf_driver_uart.c ****         {
 430:libraries/zf_driver/zf_driver_uart.c ****             // Ê≠§Â§ÑÂ¶ÇÊûúÊñ≠Ë®ÄÊä•Èîô ÈÇ£‰πàËØÅÊòéÊú¨Ê®°ÂùóÊ≤°ÊúâÂàùÂßãÂåñËøá ÊòØ‰∏çÂÖÅËÆ∏Áõ¥Êé•Ê
 431:libraries/zf_driver/zf_driver_uart.c ****             // Êú™ÂàùÂßãÂåñÊ®°ÂùóÂæàÂèØËÉΩÊ≤°ÊúâÂºÄÂêØÊ®°ÂùóÊó∂ÈíüÊàñËÄÖÊ≤°Êúâ‰ΩøËÉΩÊ®°Âùó
 432:libraries/zf_driver/zf_driver_uart.c ****             // ÂØπ‰∫éÈÉ®ÂàÜÂçïÁâáÊú∫Ê≤°Êúâ‰ΩøËÉΩÊ®°ÂùóÁõ¥Êé•Êìç‰Ωú‰ºöÂØºËá¥ÊÄªÁ∫øÂºÇÂ∏∏ÊàñËÄÖÁ°¨‰ª∂
 433:libraries/zf_driver/zf_driver_uart.c ****             return_state = UART_ERROR_MODULE_NOT_INIT;                          // UART Ê®°ÂùóÊú™Âà
 1014              		.loc 1 433 26
 1015 0036 2123     		movs	r3, #33
 1016 0038 8DF81730 		strb	r3, [sp, #23]
 434:libraries/zf_driver/zf_driver_uart.c ****             break;
 1017              		.loc 1 434 13
 1018 003c 55E0     		b	.L62
 1019              	.L61:
 435:libraries/zf_driver/zf_driver_uart.c ****         }
 436:libraries/zf_driver/zf_driver_uart.c ****         if(zf_uart_assert(NULL != buff))                                        // Ê£ÄÊü• Êï∞ÊçÆÁºì
 1020              		.loc 1 436 11
 1021 003e 029B     		ldr	r3, [sp, #8]
 1022 0040 002B     		cmp	r3, #0
 1023 0042 0CD1     		bne	.L63
 1024              		.loc 1 436 12 discriminator 1
 1025 0044 0022     		movs	r2, #0
 1026 0046 4FF4DA71 		mov	r1, #436
 1027 004a 2C48     		ldr	r0, .L71+4
 1028 004c FFF7FEFF 		bl	zf_uart_assert_handler
 1029 0050 0346     		mov	r3, r0
 1030 0052 002B     		cmp	r3, #0
 1031 0054 03D0     		beq	.L63
 437:libraries/zf_driver/zf_driver_uart.c ****         {
 438:libraries/zf_driver/zf_driver_uart.c ****             // Ê≠§Â§ÑÂ¶ÇÊûúÊñ≠Ë®ÄÊä•Èîô ÈÇ£‰πàËØÅÊòé‰º†ÂÖ•Êï∞ÊçÆÊåáÈíà‰∏∫ NULL Á©∫ÊåáÈíà
 439:libraries/zf_driver/zf_driver_uart.c ****             // ‰∏çÂèØ‰ª•ÂØπÁ©∫ÊåáÈíàËøõË°åÊìç‰Ωú
 440:libraries/zf_driver/zf_driver_uart.c ****             return_state = UART_ERROR_DATA_BUFFER_NULL;                         // UART Êï∞ÊçÆÊåáÈí
 1032              		.loc 1 440 26
 1033 0056 2723     		movs	r3, #39
 1034 0058 8DF81730 		strb	r3, [sp, #23]
 441:libraries/zf_driver/zf_driver_uart.c ****             break;
 1035              		.loc 1 441 13
 1036 005c 45E0     		b	.L62
 1037              	.L63:
 442:libraries/zf_driver/zf_driver_uart.c ****         }
 443:libraries/zf_driver/zf_driver_uart.c **** 
 444:libraries/zf_driver/zf_driver_uart.c ****         if(ZF_DISABLE == uart_obj_list[uart_index].enable)
 1038              		.loc 1 444 51
 1039 005e 9DF80F30 		ldrb	r3, [sp, #15]	@ zero_extendqisi2
 1040 0062 254A     		ldr	r2, .L71
 1041 0064 1B01     		lsls	r3, r3, #4
 1042 0066 1344     		add	r3, r3, r2
 1043 0068 0833     		adds	r3, r3, #8
 1044 006a 1B79     		ldrb	r3, [r3, #4]
 1045 006c C3F30303 		ubfx	r3, r3, #0, #4
 1046 0070 DBB2     		uxtb	r3, r3
 1047              		.loc 1 444 11
 1048 0072 002B     		cmp	r3, #0
 1049 0074 03D1     		bne	.L64
 445:libraries/zf_driver/zf_driver_uart.c ****         {
 446:libraries/zf_driver/zf_driver_uart.c ****             return_state = UART_WARNING_MODULE_DISABLE;                         // UART Ê®°ÂùóÂ§±ËÉ
 1050              		.loc 1 446 26
 1051 0076 1023     		movs	r3, #16
 1052 0078 8DF81730 		strb	r3, [sp, #23]
 447:libraries/zf_driver/zf_driver_uart.c ****             break;
 1053              		.loc 1 447 13
 1054 007c 35E0     		b	.L62
 1055              	.L64:
 448:libraries/zf_driver/zf_driver_uart.c ****         }
 449:libraries/zf_driver/zf_driver_uart.c **** 
 450:libraries/zf_driver/zf_driver_uart.c ****         return_state = UART_WARNING_OPERATION_TIMEOUT;
 1056              		.loc 1 450 22
 1057 007e 1123     		movs	r3, #17
 1058 0080 8DF81730 		strb	r3, [sp, #23]
 451:libraries/zf_driver/zf_driver_uart.c ****         while(len --)                                                           // Âæ™ÁéØÂà∞ÂèëÈÄÅÂ
 1059              		.loc 1 451 14
 1060 0084 29E0     		b	.L65
 1061              	.L69:
 1062              	.LBB21:
 452:libraries/zf_driver/zf_driver_uart.c ****         {
 453:libraries/zf_driver/zf_driver_uart.c ****             vuint32 timeout_count   = 0;
 1063              		.loc 1 453 21
 1064 0086 0023     		movs	r3, #0
 1065 0088 0493     		str	r3, [sp, #16]
 454:libraries/zf_driver/zf_driver_uart.c ****             uart_obj_list[uart_index].uart_ptr->TDR = *buff ++;
 1066              		.loc 1 454 61
 1067 008a 029B     		ldr	r3, [sp, #8]
 1068 008c 5A1C     		adds	r2, r3, #1
 1069 008e 0292     		str	r2, [sp, #8]
 1070              		.loc 1 454 55
 1071 0090 1978     		ldrb	r1, [r3]	@ zero_extendqisi2
 1072              		.loc 1 454 38
 1073 0092 9DF80F30 		ldrb	r3, [sp, #15]	@ zero_extendqisi2
 1074 0096 184A     		ldr	r2, .L71
 1075 0098 1B01     		lsls	r3, r3, #4
 1076 009a 1344     		add	r3, r3, r2
 1077 009c 0433     		adds	r3, r3, #4
 1078 009e 1B68     		ldr	r3, [r3]
 1079              		.loc 1 454 55
 1080 00a0 0A46     		mov	r2, r1
 1081              		.loc 1 454 53
 1082 00a2 9A62     		str	r2, [r3, #40]
 455:libraries/zf_driver/zf_driver_uart.c ****             while(  timeout_count ++ <= UART_DEFAULT_TIMEOUT_COUNT
 1083              		.loc 1 455 18
 1084 00a4 00BF     		nop
 1085              	.L67:
 1086              		.loc 1 455 35
 1087 00a6 049B     		ldr	r3, [sp, #16]
 1088 00a8 5A1C     		adds	r2, r3, #1
 1089 00aa 0492     		str	r2, [sp, #16]
 1090              		.loc 1 455 18
 1091 00ac B3F5001F 		cmp	r3, #2097152
 1092 00b0 0BD2     		bcs	.L66
 456:libraries/zf_driver/zf_driver_uart.c ****                 &&  !(uart_obj_list[uart_index].uart_ptr->ISR & UART_ISR_TXE_TXFNF));   // Á≠âÂæÖÂè
 1093              		.loc 1 456 48
 1094 00b2 9DF80F30 		ldrb	r3, [sp, #15]	@ zero_extendqisi2
 1095 00b6 104A     		ldr	r2, .L71
 1096 00b8 1B01     		lsls	r3, r3, #4
 1097 00ba 1344     		add	r3, r3, r2
 1098 00bc 0433     		adds	r3, r3, #4
 1099 00be 1B68     		ldr	r3, [r3]
 1100              		.loc 1 456 57
 1101 00c0 DB69     		ldr	r3, [r3, #28]
 1102              		.loc 1 456 63
 1103 00c2 03F08003 		and	r3, r3, #128
 1104              		.loc 1 456 17
 1105 00c6 002B     		cmp	r3, #0
 1106 00c8 EDD0     		beq	.L67
 1107              	.L66:
 457:libraries/zf_driver/zf_driver_uart.c ****             if(timeout_count >= UART_DEFAULT_TIMEOUT_COUNT)
 1108              		.loc 1 457 30
 1109 00ca 049B     		ldr	r3, [sp, #16]
 1110              		.loc 1 457 15
 1111 00cc 0C4A     		ldr	r2, .L71+8
 1112 00ce 9342     		cmp	r3, r2
 1113 00d0 03D9     		bls	.L65
 458:libraries/zf_driver/zf_driver_uart.c ****             {
 459:libraries/zf_driver/zf_driver_uart.c ****                 return_state = UART_WARNING_OPERATION_TIMEOUT;                  // UART Êìç‰ΩúË∂ÖÊó
 1114              		.loc 1 459 30
 1115 00d2 1123     		movs	r3, #17
 1116 00d4 8DF81730 		strb	r3, [sp, #23]
 460:libraries/zf_driver/zf_driver_uart.c ****                 break;
 1117              		.loc 1 460 17
 1118 00d8 04E0     		b	.L68
 1119              	.L65:
 1120              	.LBE21:
 451:libraries/zf_driver/zf_driver_uart.c ****         {
 1121              		.loc 1 451 19
 1122 00da 019B     		ldr	r3, [sp, #4]
 1123 00dc 5A1E     		subs	r2, r3, #1
 1124 00de 0192     		str	r2, [sp, #4]
 451:libraries/zf_driver/zf_driver_uart.c ****         {
 1125              		.loc 1 451 14
 1126 00e0 002B     		cmp	r3, #0
 1127 00e2 D0D1     		bne	.L69
 1128              	.L68:
 461:libraries/zf_driver/zf_driver_uart.c ****             }
 462:libraries/zf_driver/zf_driver_uart.c ****         }
 463:libraries/zf_driver/zf_driver_uart.c **** 
 464:libraries/zf_driver/zf_driver_uart.c ****         return_state = UART_OPERATION_DONE;
 1129              		.loc 1 464 22
 1130 00e4 0023     		movs	r3, #0
 1131 00e6 8DF81730 		strb	r3, [sp, #23]
 1132              	.L62:
 465:libraries/zf_driver/zf_driver_uart.c ****     }while(0);
 466:libraries/zf_driver/zf_driver_uart.c **** 
 467:libraries/zf_driver/zf_driver_uart.c ****     return return_state;
 1133              		.loc 1 467 12
 1134 00ea 9DF81730 		ldrb	r3, [sp, #23]	@ zero_extendqisi2
 468:libraries/zf_driver/zf_driver_uart.c **** }
 1135              		.loc 1 468 1
 1136 00ee 1846     		mov	r0, r3
 1137 00f0 07B0     		add	sp, sp, #28
 1138              		.cfi_def_cfa_offset 4
 1139              		@ sp needed
 1140 00f2 5DF804FB 		ldr	pc, [sp], #4
 1141              	.L72:
 1142 00f6 00BF     		.align	2
 1143              	.L71:
 1144 00f8 00000000 		.word	uart_obj_list
 1145 00fc 00000000 		.word	.LC0
 1146 0100 FEFF1F00 		.word	2097150
 1147              		.cfi_endproc
 1148              	.LFE192:
 1150              		.section	.text.zf_uart_write_string,"ax",%progbits
 1151              		.align	1
 1152              		.p2align 4,,15
 1153              		.global	zf_uart_write_string
 1154              		.syntax unified
 1155              		.thumb
 1156              		.thumb_func
 1158              	zf_uart_write_string:
 1159              	.LFB193:
 469:libraries/zf_driver/zf_driver_uart.c **** 
 470:libraries/zf_driver/zf_driver_uart.c **** //-------------------------------------------------------------------------------------------------
 471:libraries/zf_driver/zf_driver_uart.c **** // ÂáΩÊï∞ÁÆÄ‰ªã     UART ÂèëÈÄÅÂ≠óÁ¨¶‰∏≤
 472:libraries/zf_driver/zf_driver_uart.c **** // ÂèÇÊï∞ËØ¥Êòé     uart_index          UART Ê®°ÂùóÂè∑     (ËØ¶ËßÅ zf_driver_uart.h ÂÜÖ zf_uart_ind
 473:libraries/zf_driver/zf_driver_uart.c **** // ÂèÇÊï∞ËØ¥Êòé     *str                Ë¶ÅÂèëÈÄÅÁöÑÂ≠óÁ¨¶‰∏≤Âú∞ÂùÄ
 474:libraries/zf_driver/zf_driver_uart.c **** // ËøîÂõûÂèÇÊï∞     uint8               Êìç‰ΩúÁä∂ÊÄÅ ZF_NO_ERROR / UART_OPERATION_DONE - ÂÆåÊàê ÂÖ∂
 475:libraries/zf_driver/zf_driver_uart.c **** // ‰ΩøÁî®Á§∫‰æã     zf_uart_write_string(uart_index, str); 
 476:libraries/zf_driver/zf_driver_uart.c **** // Â§áÊ≥®‰ø°ÊÅØ     
 477:libraries/zf_driver/zf_driver_uart.c **** //-------------------------------------------------------------------------------------------------
 478:libraries/zf_driver/zf_driver_uart.c **** uint8 zf_uart_write_string (zf_uart_index_enum uart_index, const char *str)
 479:libraries/zf_driver/zf_driver_uart.c **** {
 1160              		.loc 1 479 1
 1161              		.cfi_startproc
 1162              		@ args = 0, pretend = 0, frame = 16
 1163              		@ frame_needed = 0, uses_anonymous_args = 0
 1164 0000 00B5     		push	{lr}
 1165              		.cfi_def_cfa_offset 4
 1166              		.cfi_offset 14, -4
 1167 0002 85B0     		sub	sp, sp, #20
 1168              		.cfi_def_cfa_offset 24
 1169 0004 0346     		mov	r3, r0
 1170 0006 0091     		str	r1, [sp]
 1171 0008 8DF80730 		strb	r3, [sp, #7]
 480:libraries/zf_driver/zf_driver_uart.c ****     zf_uart_operation_state_enum    return_state    =   UART_ERROR_UNKNOW;
 1172              		.loc 1 480 37
 1173 000c 0123     		movs	r3, #1
 1174 000e 8DF80F30 		strb	r3, [sp, #15]
 481:libraries/zf_driver/zf_driver_uart.c **** 
 482:libraries/zf_driver/zf_driver_uart.c ****     do
 483:libraries/zf_driver/zf_driver_uart.c ****     {
 484:libraries/zf_driver/zf_driver_uart.c ****         if(zf_uart_assert(uart_obj_list[uart_index].baudrate))                  // Ê£ÄÊü• Ê®°ÂùóÂàù
 1175              		.loc 1 484 12
 1176 0012 9DF80730 		ldrb	r3, [sp, #7]	@ zero_extendqisi2
 1177 0016 384A     		ldr	r2, .L84
 1178 0018 1B01     		lsls	r3, r3, #4
 1179 001a 1344     		add	r3, r3, r2
 1180 001c 1B68     		ldr	r3, [r3]
 1181              		.loc 1 484 11
 1182 001e 002B     		cmp	r3, #0
 1183 0020 0CD1     		bne	.L74
 1184              		.loc 1 484 12 discriminator 1
 1185 0022 0022     		movs	r2, #0
 1186 0024 4FF4F271 		mov	r1, #484
 1187 0028 3448     		ldr	r0, .L84+4
 1188 002a FFF7FEFF 		bl	zf_uart_assert_handler
 1189 002e 0346     		mov	r3, r0
 1190 0030 002B     		cmp	r3, #0
 1191 0032 03D0     		beq	.L74
 485:libraries/zf_driver/zf_driver_uart.c ****         {
 486:libraries/zf_driver/zf_driver_uart.c ****             // Ê≠§Â§ÑÂ¶ÇÊûúÊñ≠Ë®ÄÊä•Èîô ÈÇ£‰πàËØÅÊòéÊú¨Ê®°ÂùóÊ≤°ÊúâÂàùÂßãÂåñËøá ÊòØ‰∏çÂÖÅËÆ∏Áõ¥Êé•Ê
 487:libraries/zf_driver/zf_driver_uart.c ****             // Êú™ÂàùÂßãÂåñÊ®°ÂùóÂæàÂèØËÉΩÊ≤°ÊúâÂºÄÂêØÊ®°ÂùóÊó∂ÈíüÊàñËÄÖÊ≤°Êúâ‰ΩøËÉΩÊ®°Âùó
 488:libraries/zf_driver/zf_driver_uart.c ****             // ÂØπ‰∫éÈÉ®ÂàÜÂçïÁâáÊú∫Ê≤°Êúâ‰ΩøËÉΩÊ®°ÂùóÁõ¥Êé•Êìç‰Ωú‰ºöÂØºËá¥ÊÄªÁ∫øÂºÇÂ∏∏ÊàñËÄÖÁ°¨‰ª∂
 489:libraries/zf_driver/zf_driver_uart.c ****             return_state = UART_ERROR_MODULE_NOT_INIT;                          // UART Ê®°ÂùóÊú™Âà
 1192              		.loc 1 489 26
 1193 0034 2123     		movs	r3, #33
 1194 0036 8DF80F30 		strb	r3, [sp, #15]
 490:libraries/zf_driver/zf_driver_uart.c ****             break;
 1195              		.loc 1 490 13
 1196 003a 56E0     		b	.L75
 1197              	.L74:
 491:libraries/zf_driver/zf_driver_uart.c ****         }
 492:libraries/zf_driver/zf_driver_uart.c ****         if(zf_uart_assert(NULL != str))                                         // Ê£ÄÊü• Êï∞ÊçÆÁºì
 1198              		.loc 1 492 11
 1199 003c 009B     		ldr	r3, [sp]
 1200 003e 002B     		cmp	r3, #0
 1201 0040 0CD1     		bne	.L76
 1202              		.loc 1 492 12 discriminator 1
 1203 0042 0022     		movs	r2, #0
 1204 0044 4FF4F671 		mov	r1, #492
 1205 0048 2C48     		ldr	r0, .L84+4
 1206 004a FFF7FEFF 		bl	zf_uart_assert_handler
 1207 004e 0346     		mov	r3, r0
 1208 0050 002B     		cmp	r3, #0
 1209 0052 03D0     		beq	.L76
 493:libraries/zf_driver/zf_driver_uart.c ****         {
 494:libraries/zf_driver/zf_driver_uart.c ****             // Ê≠§Â§ÑÂ¶ÇÊûúÊñ≠Ë®ÄÊä•Èîô ÈÇ£‰πàËØÅÊòé‰º†ÂÖ•Êï∞ÊçÆÊåáÈíà‰∏∫ NULL Á©∫ÊåáÈíà
 495:libraries/zf_driver/zf_driver_uart.c ****             // ‰∏çÂèØ‰ª•ÂØπÁ©∫ÊåáÈíàËøõË°åÊìç‰Ωú
 496:libraries/zf_driver/zf_driver_uart.c ****             return_state = UART_ERROR_DATA_BUFFER_NULL;                         // UART Êï∞ÊçÆÊåáÈí
 1210              		.loc 1 496 26
 1211 0054 2723     		movs	r3, #39
 1212 0056 8DF80F30 		strb	r3, [sp, #15]
 497:libraries/zf_driver/zf_driver_uart.c ****             break;
 1213              		.loc 1 497 13
 1214 005a 46E0     		b	.L75
 1215              	.L76:
 498:libraries/zf_driver/zf_driver_uart.c ****         }
 499:libraries/zf_driver/zf_driver_uart.c **** 
 500:libraries/zf_driver/zf_driver_uart.c ****         if(ZF_DISABLE == uart_obj_list[uart_index].enable)
 1216              		.loc 1 500 51
 1217 005c 9DF80730 		ldrb	r3, [sp, #7]	@ zero_extendqisi2
 1218 0060 254A     		ldr	r2, .L84
 1219 0062 1B01     		lsls	r3, r3, #4
 1220 0064 1344     		add	r3, r3, r2
 1221 0066 0833     		adds	r3, r3, #8
 1222 0068 1B79     		ldrb	r3, [r3, #4]
 1223 006a C3F30303 		ubfx	r3, r3, #0, #4
 1224 006e DBB2     		uxtb	r3, r3
 1225              		.loc 1 500 11
 1226 0070 002B     		cmp	r3, #0
 1227 0072 03D1     		bne	.L77
 501:libraries/zf_driver/zf_driver_uart.c ****         {
 502:libraries/zf_driver/zf_driver_uart.c ****             return_state = UART_WARNING_MODULE_DISABLE;                         // UART Ê®°ÂùóÂ§±ËÉ
 1228              		.loc 1 502 26
 1229 0074 1023     		movs	r3, #16
 1230 0076 8DF80F30 		strb	r3, [sp, #15]
 503:libraries/zf_driver/zf_driver_uart.c ****             break;
 1231              		.loc 1 503 13
 1232 007a 36E0     		b	.L75
 1233              	.L77:
 504:libraries/zf_driver/zf_driver_uart.c ****         }
 505:libraries/zf_driver/zf_driver_uart.c **** 
 506:libraries/zf_driver/zf_driver_uart.c ****         return_state = UART_WARNING_OPERATION_TIMEOUT;
 1234              		.loc 1 506 22
 1235 007c 1123     		movs	r3, #17
 1236 007e 8DF80F30 		strb	r3, [sp, #15]
 507:libraries/zf_driver/zf_driver_uart.c ****         while(*str)                                                             // ‰∏ÄÁõ¥Âæ™ÁéØÂà∞Á
 1237              		.loc 1 507 14
 1238 0082 2AE0     		b	.L78
 1239              	.L82:
 1240              	.LBB22:
 508:libraries/zf_driver/zf_driver_uart.c ****         {
 509:libraries/zf_driver/zf_driver_uart.c ****             vuint32 timeout_count   = 0;
 1241              		.loc 1 509 21
 1242 0084 0023     		movs	r3, #0
 1243 0086 0293     		str	r3, [sp, #8]
 510:libraries/zf_driver/zf_driver_uart.c ****             uart_obj_list[uart_index].uart_ptr->TDR = *str ++;
 1244              		.loc 1 510 60
 1245 0088 009B     		ldr	r3, [sp]
 1246 008a 5A1C     		adds	r2, r3, #1
 1247 008c 0092     		str	r2, [sp]
 1248              		.loc 1 510 55
 1249 008e 93F90010 		ldrsb	r1, [r3]
 1250              		.loc 1 510 38
 1251 0092 9DF80730 		ldrb	r3, [sp, #7]	@ zero_extendqisi2
 1252 0096 184A     		ldr	r2, .L84
 1253 0098 1B01     		lsls	r3, r3, #4
 1254 009a 1344     		add	r3, r3, r2
 1255 009c 0433     		adds	r3, r3, #4
 1256 009e 1B68     		ldr	r3, [r3]
 1257              		.loc 1 510 55
 1258 00a0 0A46     		mov	r2, r1
 1259              		.loc 1 510 53
 1260 00a2 9A62     		str	r2, [r3, #40]
 511:libraries/zf_driver/zf_driver_uart.c ****             while(  timeout_count ++ <= UART_DEFAULT_TIMEOUT_COUNT
 1261              		.loc 1 511 18
 1262 00a4 00BF     		nop
 1263              	.L80:
 1264              		.loc 1 511 35
 1265 00a6 029B     		ldr	r3, [sp, #8]
 1266 00a8 5A1C     		adds	r2, r3, #1
 1267 00aa 0292     		str	r2, [sp, #8]
 1268              		.loc 1 511 18
 1269 00ac B3F5001F 		cmp	r3, #2097152
 1270 00b0 0BD2     		bcs	.L79
 512:libraries/zf_driver/zf_driver_uart.c ****                 &&  !(uart_obj_list[uart_index].uart_ptr->ISR & UART_ISR_TXE_TXFNF));   // Á≠âÂæÖÂè
 1271              		.loc 1 512 48
 1272 00b2 9DF80730 		ldrb	r3, [sp, #7]	@ zero_extendqisi2
 1273 00b6 104A     		ldr	r2, .L84
 1274 00b8 1B01     		lsls	r3, r3, #4
 1275 00ba 1344     		add	r3, r3, r2
 1276 00bc 0433     		adds	r3, r3, #4
 1277 00be 1B68     		ldr	r3, [r3]
 1278              		.loc 1 512 57
 1279 00c0 DB69     		ldr	r3, [r3, #28]
 1280              		.loc 1 512 63
 1281 00c2 03F08003 		and	r3, r3, #128
 1282              		.loc 1 512 17
 1283 00c6 002B     		cmp	r3, #0
 1284 00c8 EDD0     		beq	.L80
 1285              	.L79:
 513:libraries/zf_driver/zf_driver_uart.c ****             if(timeout_count >= UART_DEFAULT_TIMEOUT_COUNT)
 1286              		.loc 1 513 30
 1287 00ca 029B     		ldr	r3, [sp, #8]
 1288              		.loc 1 513 15
 1289 00cc 0C4A     		ldr	r2, .L84+8
 1290 00ce 9342     		cmp	r3, r2
 1291 00d0 03D9     		bls	.L78
 514:libraries/zf_driver/zf_driver_uart.c ****             {
 515:libraries/zf_driver/zf_driver_uart.c ****                 return_state = UART_WARNING_OPERATION_TIMEOUT;                  // UART Êìç‰ΩúË∂ÖÊó
 1292              		.loc 1 515 30
 1293 00d2 1123     		movs	r3, #17
 1294 00d4 8DF80F30 		strb	r3, [sp, #15]
 516:libraries/zf_driver/zf_driver_uart.c ****                 break;
 1295              		.loc 1 516 17
 1296 00d8 04E0     		b	.L81
 1297              	.L78:
 1298              	.LBE22:
 507:libraries/zf_driver/zf_driver_uart.c ****         {
 1299              		.loc 1 507 15
 1300 00da 009B     		ldr	r3, [sp]
 1301 00dc 93F90030 		ldrsb	r3, [r3]
 507:libraries/zf_driver/zf_driver_uart.c ****         {
 1302              		.loc 1 507 14
 1303 00e0 002B     		cmp	r3, #0
 1304 00e2 CFD1     		bne	.L82
 1305              	.L81:
 517:libraries/zf_driver/zf_driver_uart.c ****             }
 518:libraries/zf_driver/zf_driver_uart.c ****         }
 519:libraries/zf_driver/zf_driver_uart.c **** 
 520:libraries/zf_driver/zf_driver_uart.c ****         return_state = UART_OPERATION_DONE;
 1306              		.loc 1 520 22
 1307 00e4 0023     		movs	r3, #0
 1308 00e6 8DF80F30 		strb	r3, [sp, #15]
 1309              	.L75:
 521:libraries/zf_driver/zf_driver_uart.c ****     }while(0);
 522:libraries/zf_driver/zf_driver_uart.c **** 
 523:libraries/zf_driver/zf_driver_uart.c ****     return return_state;
 1310              		.loc 1 523 12
 1311 00ea 9DF80F30 		ldrb	r3, [sp, #15]	@ zero_extendqisi2
 524:libraries/zf_driver/zf_driver_uart.c **** }
 1312              		.loc 1 524 1
 1313 00ee 1846     		mov	r0, r3
 1314 00f0 05B0     		add	sp, sp, #20
 1315              		.cfi_def_cfa_offset 4
 1316              		@ sp needed
 1317 00f2 5DF804FB 		ldr	pc, [sp], #4
 1318              	.L85:
 1319 00f6 00BF     		.align	2
 1320              	.L84:
 1321 00f8 00000000 		.word	uart_obj_list
 1322 00fc 00000000 		.word	.LC0
 1323 0100 FEFF1F00 		.word	2097150
 1324              		.cfi_endproc
 1325              	.LFE193:
 1327              		.section	.text.zf_uart_read_byte,"ax",%progbits
 1328              		.align	1
 1329              		.p2align 4,,15
 1330              		.global	zf_uart_read_byte
 1331              		.syntax unified
 1332              		.thumb
 1333              		.thumb_func
 1335              	zf_uart_read_byte:
 1336              	.LFB194:
 525:libraries/zf_driver/zf_driver_uart.c **** 
 526:libraries/zf_driver/zf_driver_uart.c **** //-------------------------------------------------------------------------------------------------
 527:libraries/zf_driver/zf_driver_uart.c **** // ÂáΩÊï∞ÁÆÄ‰ªã     UART ËØªÂèñÊé•Êî∂ÁöÑÊï∞ÊçÆÔºàÈòªÂ°ûÂºè whlie Á≠âÂæÖ ‰ºöË∂ÖÊó∂ÈÄÄÂá∫Ôºâ
 528:libraries/zf_driver/zf_driver_uart.c **** // ÂèÇÊï∞ËØ¥Êòé     uart_index          UART Ê®°ÂùóÂè∑     (ËØ¶ËßÅ zf_driver_uart.h ÂÜÖ zf_uart_ind
 529:libraries/zf_driver/zf_driver_uart.c **** // ÂèÇÊï∞ËØ¥Êòé     *data               Êï∞ÊçÆÂ≠òÊîæÁºìÂÜ≤Âå∫
 530:libraries/zf_driver/zf_driver_uart.c **** // ËøîÂõûÂèÇÊï∞     uint8               Êìç‰ΩúÁä∂ÊÄÅ ZF_NO_ERROR / UART_OPERATION_DONE - ÂÆåÊàê ÂÖ∂
 531:libraries/zf_driver/zf_driver_uart.c **** //                                  UART_WARNING_OPERATION_TIMEOUT Ê†áËØÜË∂ÖËøáËØªÂèñÊó∂Èó¥ÈôêÂà∂
 532:libraries/zf_driver/zf_driver_uart.c **** // ‰ΩøÁî®Á§∫‰æã     zf_uart_read_byte(uart_index, data);
 533:libraries/zf_driver/zf_driver_uart.c **** // Â§áÊ≥®‰ø°ÊÅØ     
 534:libraries/zf_driver/zf_driver_uart.c **** //-------------------------------------------------------------------------------------------------
 535:libraries/zf_driver/zf_driver_uart.c **** uint8 zf_uart_read_byte (zf_uart_index_enum uart_index, uint8 *data)
 536:libraries/zf_driver/zf_driver_uart.c **** {
 1337              		.loc 1 536 1
 1338              		.cfi_startproc
 1339              		@ args = 0, pretend = 0, frame = 16
 1340              		@ frame_needed = 0, uses_anonymous_args = 0
 1341 0000 00B5     		push	{lr}
 1342              		.cfi_def_cfa_offset 4
 1343              		.cfi_offset 14, -4
 1344 0002 85B0     		sub	sp, sp, #20
 1345              		.cfi_def_cfa_offset 24
 1346 0004 0346     		mov	r3, r0
 1347 0006 0091     		str	r1, [sp]
 1348 0008 8DF80730 		strb	r3, [sp, #7]
 537:libraries/zf_driver/zf_driver_uart.c ****     zf_uart_operation_state_enum    return_state    =   UART_ERROR_UNKNOW;
 1349              		.loc 1 537 37
 1350 000c 0123     		movs	r3, #1
 1351 000e 8DF80F30 		strb	r3, [sp, #15]
 1352              	.LBB23:
 538:libraries/zf_driver/zf_driver_uart.c **** 
 539:libraries/zf_driver/zf_driver_uart.c ****     do
 540:libraries/zf_driver/zf_driver_uart.c ****     {
 541:libraries/zf_driver/zf_driver_uart.c ****         if(zf_uart_assert(uart_obj_list[uart_index].baudrate))                  // Ê£ÄÊü• Ê®°ÂùóÂàù
 1353              		.loc 1 541 12
 1354 0012 9DF80730 		ldrb	r3, [sp, #7]	@ zero_extendqisi2
 1355 0016 324A     		ldr	r2, .L95
 1356 0018 1B01     		lsls	r3, r3, #4
 1357 001a 1344     		add	r3, r3, r2
 1358 001c 1B68     		ldr	r3, [r3]
 1359              		.loc 1 541 11
 1360 001e 002B     		cmp	r3, #0
 1361 0020 0CD1     		bne	.L87
 1362              		.loc 1 541 12 discriminator 1
 1363 0022 0022     		movs	r2, #0
 1364 0024 40F21D21 		movw	r1, #541
 1365 0028 2E48     		ldr	r0, .L95+4
 1366 002a FFF7FEFF 		bl	zf_uart_assert_handler
 1367 002e 0346     		mov	r3, r0
 1368 0030 002B     		cmp	r3, #0
 1369 0032 03D0     		beq	.L87
 542:libraries/zf_driver/zf_driver_uart.c ****         {
 543:libraries/zf_driver/zf_driver_uart.c ****             // Ê≠§Â§ÑÂ¶ÇÊûúÊñ≠Ë®ÄÊä•Èîô ÈÇ£‰πàËØÅÊòéÊú¨Ê®°ÂùóÊ≤°ÊúâÂàùÂßãÂåñËøá ÊòØ‰∏çÂÖÅËÆ∏Áõ¥Êé•Ê
 544:libraries/zf_driver/zf_driver_uart.c ****             // Êú™ÂàùÂßãÂåñÊ®°ÂùóÂæàÂèØËÉΩÊ≤°ÊúâÂºÄÂêØÊ®°ÂùóÊó∂ÈíüÊàñËÄÖÊ≤°Êúâ‰ΩøËÉΩÊ®°Âùó
 545:libraries/zf_driver/zf_driver_uart.c ****             // ÂØπ‰∫éÈÉ®ÂàÜÂçïÁâáÊú∫Ê≤°Êúâ‰ΩøËÉΩÊ®°ÂùóÁõ¥Êé•Êìç‰Ωú‰ºöÂØºËá¥ÊÄªÁ∫øÂºÇÂ∏∏ÊàñËÄÖÁ°¨‰ª∂
 546:libraries/zf_driver/zf_driver_uart.c ****             return_state = UART_ERROR_MODULE_NOT_INIT;                          // UART Ê®°ÂùóÊú™Âà
 1370              		.loc 1 546 26
 1371 0034 2123     		movs	r3, #33
 1372 0036 8DF80F30 		strb	r3, [sp, #15]
 547:libraries/zf_driver/zf_driver_uart.c ****             break;
 1373              		.loc 1 547 13
 1374 003a 4AE0     		b	.L88
 1375              	.L87:
 548:libraries/zf_driver/zf_driver_uart.c ****         }
 549:libraries/zf_driver/zf_driver_uart.c ****         if(zf_uart_assert(NULL != data))                                        // Ê£ÄÊü• Êï∞ÊçÆÁºì
 1376              		.loc 1 549 11
 1377 003c 009B     		ldr	r3, [sp]
 1378 003e 002B     		cmp	r3, #0
 1379 0040 0CD1     		bne	.L89
 1380              		.loc 1 549 12 discriminator 1
 1381 0042 0022     		movs	r2, #0
 1382 0044 40F22521 		movw	r1, #549
 1383 0048 2648     		ldr	r0, .L95+4
 1384 004a FFF7FEFF 		bl	zf_uart_assert_handler
 1385 004e 0346     		mov	r3, r0
 1386 0050 002B     		cmp	r3, #0
 1387 0052 03D0     		beq	.L89
 550:libraries/zf_driver/zf_driver_uart.c ****         {
 551:libraries/zf_driver/zf_driver_uart.c ****             // Ê≠§Â§ÑÂ¶ÇÊûúÊñ≠Ë®ÄÊä•Èîô ÈÇ£‰πàËØÅÊòé‰º†ÂÖ•Êï∞ÊçÆÊåáÈíà‰∏∫ NULL Á©∫ÊåáÈíà
 552:libraries/zf_driver/zf_driver_uart.c ****             // ‰∏çÂèØ‰ª•ÂØπÁ©∫ÊåáÈíàËøõË°åÊìç‰Ωú
 553:libraries/zf_driver/zf_driver_uart.c ****             return_state = UART_ERROR_DATA_BUFFER_NULL;                         // UART Êï∞ÊçÆÊåáÈí
 1388              		.loc 1 553 26
 1389 0054 2723     		movs	r3, #39
 1390 0056 8DF80F30 		strb	r3, [sp, #15]
 554:libraries/zf_driver/zf_driver_uart.c ****             break;
 1391              		.loc 1 554 13
 1392 005a 3AE0     		b	.L88
 1393              	.L89:
 555:libraries/zf_driver/zf_driver_uart.c ****         }
 556:libraries/zf_driver/zf_driver_uart.c **** 
 557:libraries/zf_driver/zf_driver_uart.c ****         if(ZF_DISABLE == uart_obj_list[uart_index].enable)
 1394              		.loc 1 557 51
 1395 005c 9DF80730 		ldrb	r3, [sp, #7]	@ zero_extendqisi2
 1396 0060 1F4A     		ldr	r2, .L95
 1397 0062 1B01     		lsls	r3, r3, #4
 1398 0064 1344     		add	r3, r3, r2
 1399 0066 0833     		adds	r3, r3, #8
 1400 0068 1B79     		ldrb	r3, [r3, #4]
 1401 006a C3F30303 		ubfx	r3, r3, #0, #4
 1402 006e DBB2     		uxtb	r3, r3
 1403              		.loc 1 557 11
 1404 0070 002B     		cmp	r3, #0
 1405 0072 03D1     		bne	.L90
 558:libraries/zf_driver/zf_driver_uart.c ****         {
 559:libraries/zf_driver/zf_driver_uart.c ****             return_state = UART_WARNING_MODULE_DISABLE;                         // UART Ê®°ÂùóÂ§±ËÉ
 1406              		.loc 1 559 26
 1407 0074 1023     		movs	r3, #16
 1408 0076 8DF80F30 		strb	r3, [sp, #15]
 560:libraries/zf_driver/zf_driver_uart.c ****             break;
 1409              		.loc 1 560 13
 1410 007a 2AE0     		b	.L88
 1411              	.L90:
 561:libraries/zf_driver/zf_driver_uart.c ****         }
 562:libraries/zf_driver/zf_driver_uart.c **** 
 563:libraries/zf_driver/zf_driver_uart.c ****         vuint32 timeout_count   = 0;
 1412              		.loc 1 563 17
 1413 007c 0023     		movs	r3, #0
 1414 007e 0293     		str	r3, [sp, #8]
 564:libraries/zf_driver/zf_driver_uart.c ****         while(  timeout_count ++ <= UART_DEFAULT_TIMEOUT_COUNT
 1415              		.loc 1 564 14
 1416 0080 00BF     		nop
 1417              	.L92:
 1418              		.loc 1 564 31
 1419 0082 029B     		ldr	r3, [sp, #8]
 1420 0084 5A1C     		adds	r2, r3, #1
 1421 0086 0292     		str	r2, [sp, #8]
 1422              		.loc 1 564 14
 1423 0088 B3F5001F 		cmp	r3, #2097152
 1424 008c 0BD2     		bcs	.L91
 565:libraries/zf_driver/zf_driver_uart.c ****             &&  !(uart_obj_list[uart_index].uart_ptr->ISR & UART_ISR_RXNE_RXFNE));  // Á≠âÂæÖËØªÂèñ
 1425              		.loc 1 565 44
 1426 008e 9DF80730 		ldrb	r3, [sp, #7]	@ zero_extendqisi2
 1427 0092 134A     		ldr	r2, .L95
 1428 0094 1B01     		lsls	r3, r3, #4
 1429 0096 1344     		add	r3, r3, r2
 1430 0098 0433     		adds	r3, r3, #4
 1431 009a 1B68     		ldr	r3, [r3]
 1432              		.loc 1 565 53
 1433 009c DB69     		ldr	r3, [r3, #28]
 1434              		.loc 1 565 59
 1435 009e 03F02003 		and	r3, r3, #32
 1436              		.loc 1 565 13
 1437 00a2 002B     		cmp	r3, #0
 1438 00a4 EDD0     		beq	.L92
 1439              	.L91:
 566:libraries/zf_driver/zf_driver_uart.c ****         if(timeout_count >= UART_DEFAULT_TIMEOUT_COUNT)
 1440              		.loc 1 566 26
 1441 00a6 029B     		ldr	r3, [sp, #8]
 1442              		.loc 1 566 11
 1443 00a8 0F4A     		ldr	r2, .L95+8
 1444 00aa 9342     		cmp	r3, r2
 1445 00ac 03D9     		bls	.L93
 567:libraries/zf_driver/zf_driver_uart.c ****         {
 568:libraries/zf_driver/zf_driver_uart.c ****             return_state = UART_WARNING_OPERATION_TIMEOUT;                      // UART Êìç‰ΩúË∂ÖÊó
 1446              		.loc 1 568 26
 1447 00ae 1123     		movs	r3, #17
 1448 00b0 8DF80F30 		strb	r3, [sp, #15]
 569:libraries/zf_driver/zf_driver_uart.c ****             break;
 1449              		.loc 1 569 13
 1450 00b4 0DE0     		b	.L88
 1451              	.L93:
 570:libraries/zf_driver/zf_driver_uart.c ****         }
 571:libraries/zf_driver/zf_driver_uart.c ****         *data = uart_obj_list[uart_index].uart_ptr->RDR;
 1452              		.loc 1 571 42
 1453 00b6 9DF80730 		ldrb	r3, [sp, #7]	@ zero_extendqisi2
 1454 00ba 094A     		ldr	r2, .L95
 1455 00bc 1B01     		lsls	r3, r3, #4
 1456 00be 1344     		add	r3, r3, r2
 1457 00c0 0433     		adds	r3, r3, #4
 1458 00c2 1B68     		ldr	r3, [r3]
 1459              		.loc 1 571 51
 1460 00c4 5B6A     		ldr	r3, [r3, #36]
 1461              		.loc 1 571 15
 1462 00c6 DAB2     		uxtb	r2, r3
 1463 00c8 009B     		ldr	r3, [sp]
 1464 00ca 1A70     		strb	r2, [r3]
 572:libraries/zf_driver/zf_driver_uart.c **** 
 573:libraries/zf_driver/zf_driver_uart.c ****         return_state = UART_OPERATION_DONE;
 1465              		.loc 1 573 22
 1466 00cc 0023     		movs	r3, #0
 1467 00ce 8DF80F30 		strb	r3, [sp, #15]
 1468              	.L88:
 1469              	.LBE23:
 574:libraries/zf_driver/zf_driver_uart.c ****     }while(0);
 575:libraries/zf_driver/zf_driver_uart.c **** 
 576:libraries/zf_driver/zf_driver_uart.c ****     return return_state;
 1470              		.loc 1 576 12
 1471 00d2 9DF80F30 		ldrb	r3, [sp, #15]	@ zero_extendqisi2
 577:libraries/zf_driver/zf_driver_uart.c **** }
 1472              		.loc 1 577 1
 1473 00d6 1846     		mov	r0, r3
 1474 00d8 05B0     		add	sp, sp, #20
 1475              		.cfi_def_cfa_offset 4
 1476              		@ sp needed
 1477 00da 5DF804FB 		ldr	pc, [sp], #4
 1478              	.L96:
 1479 00de 00BF     		.align	2
 1480              	.L95:
 1481 00e0 00000000 		.word	uart_obj_list
 1482 00e4 00000000 		.word	.LC0
 1483 00e8 FEFF1F00 		.word	2097150
 1484              		.cfi_endproc
 1485              	.LFE194:
 1487              		.section	.text.zf_uart_query_byte,"ax",%progbits
 1488              		.align	1
 1489              		.p2align 4,,15
 1490              		.global	zf_uart_query_byte
 1491              		.syntax unified
 1492              		.thumb
 1493              		.thumb_func
 1495              	zf_uart_query_byte:
 1496              	.LFB195:
 578:libraries/zf_driver/zf_driver_uart.c **** 
 579:libraries/zf_driver/zf_driver_uart.c **** //-------------------------------------------------------------------------------------------------
 580:libraries/zf_driver/zf_driver_uart.c **** // ÂáΩÊï∞ÁÆÄ‰ªã     UART ËØªÂèñÊé•Êî∂ÁöÑÊï∞ÊçÆÔºàÊü•ËØ¢Êé•Êî∂Ôºâ
 581:libraries/zf_driver/zf_driver_uart.c **** // ÂèÇÊï∞ËØ¥Êòé     uart_index          UART Ê®°ÂùóÂè∑     (ËØ¶ËßÅ zf_driver_uart.h ÂÜÖ zf_uart_ind
 582:libraries/zf_driver/zf_driver_uart.c **** // ÂèÇÊï∞ËØ¥Êòé     *data               Êï∞ÊçÆÂ≠òÊîæÁºìÂÜ≤Âå∫
 583:libraries/zf_driver/zf_driver_uart.c **** // ËøîÂõûÂèÇÊï∞     uint8               Êìç‰ΩúÁä∂ÊÄÅ ZF_NO_ERROR / UART_OPERATION_DONE - ÂÆåÊàê ÂÖ∂
 584:libraries/zf_driver/zf_driver_uart.c **** // ‰ΩøÁî®Á§∫‰æã     art_query_byte(uart_index, data);
 585:libraries/zf_driver/zf_driver_uart.c **** // Â§áÊ≥®‰ø°ÊÅØ     
 586:libraries/zf_driver/zf_driver_uart.c **** //-------------------------------------------------------------------------------------------------
 587:libraries/zf_driver/zf_driver_uart.c **** uint8 zf_uart_query_byte (zf_uart_index_enum uart_index, uint8 *data)
 588:libraries/zf_driver/zf_driver_uart.c **** {
 1497              		.loc 1 588 1
 1498              		.cfi_startproc
 1499              		@ args = 0, pretend = 0, frame = 16
 1500              		@ frame_needed = 0, uses_anonymous_args = 0
 1501 0000 00B5     		push	{lr}
 1502              		.cfi_def_cfa_offset 4
 1503              		.cfi_offset 14, -4
 1504 0002 85B0     		sub	sp, sp, #20
 1505              		.cfi_def_cfa_offset 24
 1506 0004 0346     		mov	r3, r0
 1507 0006 0091     		str	r1, [sp]
 1508 0008 8DF80730 		strb	r3, [sp, #7]
 589:libraries/zf_driver/zf_driver_uart.c ****     zf_uart_operation_state_enum    return_state    =   UART_ERROR_UNKNOW;
 1509              		.loc 1 589 37
 1510 000c 0123     		movs	r3, #1
 1511 000e 8DF80F30 		strb	r3, [sp, #15]
 590:libraries/zf_driver/zf_driver_uart.c **** 
 591:libraries/zf_driver/zf_driver_uart.c ****     do
 592:libraries/zf_driver/zf_driver_uart.c ****     {
 593:libraries/zf_driver/zf_driver_uart.c ****         if(zf_uart_assert(uart_obj_list[uart_index].baudrate))                  // Ê£ÄÊü• Ê®°ÂùóÂàù
 1512              		.loc 1 593 12
 1513 0012 9DF80730 		ldrb	r3, [sp, #7]	@ zero_extendqisi2
 1514 0016 2B4A     		ldr	r2, .L103
 1515 0018 1B01     		lsls	r3, r3, #4
 1516 001a 1344     		add	r3, r3, r2
 1517 001c 1B68     		ldr	r3, [r3]
 1518              		.loc 1 593 11
 1519 001e 002B     		cmp	r3, #0
 1520 0020 0CD1     		bne	.L98
 1521              		.loc 1 593 12 discriminator 1
 1522 0022 0022     		movs	r2, #0
 1523 0024 40F25121 		movw	r1, #593
 1524 0028 2748     		ldr	r0, .L103+4
 1525 002a FFF7FEFF 		bl	zf_uart_assert_handler
 1526 002e 0346     		mov	r3, r0
 1527 0030 002B     		cmp	r3, #0
 1528 0032 03D0     		beq	.L98
 594:libraries/zf_driver/zf_driver_uart.c ****         {
 595:libraries/zf_driver/zf_driver_uart.c ****             // Ê≠§Â§ÑÂ¶ÇÊûúÊñ≠Ë®ÄÊä•Èîô ÈÇ£‰πàËØÅÊòéÊú¨Ê®°ÂùóÊ≤°ÊúâÂàùÂßãÂåñËøá ÊòØ‰∏çÂÖÅËÆ∏Áõ¥Êé•Ê
 596:libraries/zf_driver/zf_driver_uart.c ****             // Êú™ÂàùÂßãÂåñÊ®°ÂùóÂæàÂèØËÉΩÊ≤°ÊúâÂºÄÂêØÊ®°ÂùóÊó∂ÈíüÊàñËÄÖÊ≤°Êúâ‰ΩøËÉΩÊ®°Âùó
 597:libraries/zf_driver/zf_driver_uart.c ****             // ÂØπ‰∫éÈÉ®ÂàÜÂçïÁâáÊú∫Ê≤°Êúâ‰ΩøËÉΩÊ®°ÂùóÁõ¥Êé•Êìç‰Ωú‰ºöÂØºËá¥ÊÄªÁ∫øÂºÇÂ∏∏ÊàñËÄÖÁ°¨‰ª∂
 598:libraries/zf_driver/zf_driver_uart.c ****             return_state = UART_ERROR_MODULE_NOT_INIT;                          // UART Ê®°ÂùóÊú™Âà
 1529              		.loc 1 598 26
 1530 0034 2123     		movs	r3, #33
 1531 0036 8DF80F30 		strb	r3, [sp, #15]
 599:libraries/zf_driver/zf_driver_uart.c ****             break;
 1532              		.loc 1 599 13
 1533 003a 3CE0     		b	.L99
 1534              	.L98:
 600:libraries/zf_driver/zf_driver_uart.c ****         }
 601:libraries/zf_driver/zf_driver_uart.c ****         if(zf_uart_assert(NULL != data))                                        // Ê£ÄÊü• Êï∞ÊçÆÁºì
 1535              		.loc 1 601 11
 1536 003c 009B     		ldr	r3, [sp]
 1537 003e 002B     		cmp	r3, #0
 1538 0040 0CD1     		bne	.L100
 1539              		.loc 1 601 12 discriminator 1
 1540 0042 0022     		movs	r2, #0
 1541 0044 40F25921 		movw	r1, #601
 1542 0048 1F48     		ldr	r0, .L103+4
 1543 004a FFF7FEFF 		bl	zf_uart_assert_handler
 1544 004e 0346     		mov	r3, r0
 1545 0050 002B     		cmp	r3, #0
 1546 0052 03D0     		beq	.L100
 602:libraries/zf_driver/zf_driver_uart.c ****         {
 603:libraries/zf_driver/zf_driver_uart.c ****             // Ê≠§Â§ÑÂ¶ÇÊûúÊñ≠Ë®ÄÊä•Èîô ÈÇ£‰πàËØÅÊòé‰º†ÂÖ•Êï∞ÊçÆÊåáÈíà‰∏∫ NULL Á©∫ÊåáÈíà
 604:libraries/zf_driver/zf_driver_uart.c ****             // ‰∏çÂèØ‰ª•ÂØπÁ©∫ÊåáÈíàËøõË°åÊìç‰Ωú
 605:libraries/zf_driver/zf_driver_uart.c ****             return_state = UART_ERROR_DATA_BUFFER_NULL;                         // UART Êï∞ÊçÆÊåáÈí
 1547              		.loc 1 605 26
 1548 0054 2723     		movs	r3, #39
 1549 0056 8DF80F30 		strb	r3, [sp, #15]
 606:libraries/zf_driver/zf_driver_uart.c ****             break;
 1550              		.loc 1 606 13
 1551 005a 2CE0     		b	.L99
 1552              	.L100:
 607:libraries/zf_driver/zf_driver_uart.c ****         }
 608:libraries/zf_driver/zf_driver_uart.c **** 
 609:libraries/zf_driver/zf_driver_uart.c ****         if(ZF_DISABLE == uart_obj_list[uart_index].enable)
 1553              		.loc 1 609 51
 1554 005c 9DF80730 		ldrb	r3, [sp, #7]	@ zero_extendqisi2
 1555 0060 184A     		ldr	r2, .L103
 1556 0062 1B01     		lsls	r3, r3, #4
 1557 0064 1344     		add	r3, r3, r2
 1558 0066 0833     		adds	r3, r3, #8
 1559 0068 1B79     		ldrb	r3, [r3, #4]
 1560 006a C3F30303 		ubfx	r3, r3, #0, #4
 1561 006e DBB2     		uxtb	r3, r3
 1562              		.loc 1 609 11
 1563 0070 002B     		cmp	r3, #0
 1564 0072 03D1     		bne	.L101
 610:libraries/zf_driver/zf_driver_uart.c ****         {
 611:libraries/zf_driver/zf_driver_uart.c ****             return_state = UART_WARNING_MODULE_DISABLE;                         // UART Ê®°ÂùóÂ§±ËÉ
 1565              		.loc 1 611 26
 1566 0074 1023     		movs	r3, #16
 1567 0076 8DF80F30 		strb	r3, [sp, #15]
 612:libraries/zf_driver/zf_driver_uart.c ****             break;
 1568              		.loc 1 612 13
 1569 007a 1CE0     		b	.L99
 1570              	.L101:
 613:libraries/zf_driver/zf_driver_uart.c ****         }
 614:libraries/zf_driver/zf_driver_uart.c **** 
 615:libraries/zf_driver/zf_driver_uart.c ****         return_state = UART_WARNING_NO_DATA;
 1571              		.loc 1 615 22
 1572 007c 1223     		movs	r3, #18
 1573 007e 8DF80F30 		strb	r3, [sp, #15]
 616:libraries/zf_driver/zf_driver_uart.c ****         if(uart_obj_list[uart_index].uart_ptr->ISR & UART_ISR_RXNE_RXFNE)       // ËØªÂèñÂà∞‰∏Ä‰∏™Ê
 1574              		.loc 1 616 37
 1575 0082 9DF80730 		ldrb	r3, [sp, #7]	@ zero_extendqisi2
 1576 0086 0F4A     		ldr	r2, .L103
 1577 0088 1B01     		lsls	r3, r3, #4
 1578 008a 1344     		add	r3, r3, r2
 1579 008c 0433     		adds	r3, r3, #4
 1580 008e 1B68     		ldr	r3, [r3]
 1581              		.loc 1 616 46
 1582 0090 DB69     		ldr	r3, [r3, #28]
 1583              		.loc 1 616 52
 1584 0092 03F02003 		and	r3, r3, #32
 1585              		.loc 1 616 11
 1586 0096 002B     		cmp	r3, #0
 1587 0098 0DD0     		beq	.L99
 617:libraries/zf_driver/zf_driver_uart.c ****         {
 618:libraries/zf_driver/zf_driver_uart.c ****             *data = uart_obj_list[uart_index].uart_ptr->RDR;                    // Â≠òÂÇ®‰∏Ä‰∏™Êï∞Ê
 1588              		.loc 1 618 46
 1589 009a 9DF80730 		ldrb	r3, [sp, #7]	@ zero_extendqisi2
 1590 009e 094A     		ldr	r2, .L103
 1591 00a0 1B01     		lsls	r3, r3, #4
 1592 00a2 1344     		add	r3, r3, r2
 1593 00a4 0433     		adds	r3, r3, #4
 1594 00a6 1B68     		ldr	r3, [r3]
 1595              		.loc 1 618 55
 1596 00a8 5B6A     		ldr	r3, [r3, #36]
 1597              		.loc 1 618 19
 1598 00aa DAB2     		uxtb	r2, r3
 1599 00ac 009B     		ldr	r3, [sp]
 1600 00ae 1A70     		strb	r2, [r3]
 619:libraries/zf_driver/zf_driver_uart.c ****             return_state = UART_OPERATION_DONE;
 1601              		.loc 1 619 26
 1602 00b0 0023     		movs	r3, #0
 1603 00b2 8DF80F30 		strb	r3, [sp, #15]
 1604              	.L99:
 620:libraries/zf_driver/zf_driver_uart.c ****         }
 621:libraries/zf_driver/zf_driver_uart.c ****     }while(0);
 622:libraries/zf_driver/zf_driver_uart.c **** 
 623:libraries/zf_driver/zf_driver_uart.c ****     return return_state;
 1605              		.loc 1 623 12
 1606 00b6 9DF80F30 		ldrb	r3, [sp, #15]	@ zero_extendqisi2
 624:libraries/zf_driver/zf_driver_uart.c **** }
 1607              		.loc 1 624 1
 1608 00ba 1846     		mov	r0, r3
 1609 00bc 05B0     		add	sp, sp, #20
 1610              		.cfi_def_cfa_offset 4
 1611              		@ sp needed
 1612 00be 5DF804FB 		ldr	pc, [sp], #4
 1613              	.L104:
 1614 00c2 00BF     		.align	2
 1615              	.L103:
 1616 00c4 00000000 		.word	uart_obj_list
 1617 00c8 00000000 		.word	.LC0
 1618              		.cfi_endproc
 1619              	.LFE195:
 1621              		.section	.text.zf_uart_read_buffer,"ax",%progbits
 1622              		.align	1
 1623              		.p2align 4,,15
 1624              		.global	zf_uart_read_buffer
 1625              		.syntax unified
 1626              		.thumb
 1627              		.thumb_func
 1629              	zf_uart_read_buffer:
 1630              	.LFB196:
 625:libraries/zf_driver/zf_driver_uart.c **** 
 626:libraries/zf_driver/zf_driver_uart.c **** //-------------------------------------------------------------------------------------------------
 627:libraries/zf_driver/zf_driver_uart.c **** // ÂáΩÊï∞ÁÆÄ‰ªã     UART ËØªÂèñÊé•Êî∂ÁöÑÊï∞ÊçÆÔºàÈòªÂ°ûÂºè whlie Á≠âÂæÖ ‰ºöË∂ÖÊó∂ÈÄÄÂá∫Ôºâ
 628:libraries/zf_driver/zf_driver_uart.c **** // ÂèÇÊï∞ËØ¥Êòé     uart_index          UART Ê®°ÂùóÂè∑     (ËØ¶ËßÅ zf_driver_uart.h ÂÜÖ zf_uart_ind
 629:libraries/zf_driver/zf_driver_uart.c **** // ÂèÇÊï∞ËØ¥Êòé     *data               Êï∞ÊçÆÂ≠òÊîæÁºìÂÜ≤Âå∫
 630:libraries/zf_driver/zf_driver_uart.c **** // ÂèÇÊï∞ËØ¥Êòé     len                 ËØªÂèñÈïøÂ∫¶
 631:libraries/zf_driver/zf_driver_uart.c **** // ËøîÂõûÂèÇÊï∞     uint8               Êìç‰ΩúÁä∂ÊÄÅ ZF_NO_ERROR / UART_OPERATION_DONE - ÂÆåÊàê ÂÖ∂
 632:libraries/zf_driver/zf_driver_uart.c **** //                                  UART_WARNING_OPERATION_TIMEOUT Ê†áËØÜË∂ÖËøáËØªÂèñÊó∂Èó¥ÈôêÂà∂
 633:libraries/zf_driver/zf_driver_uart.c **** // ‰ΩøÁî®Á§∫‰æã     zf_uart_read_buffer(uart_index, buff, len);
 634:libraries/zf_driver/zf_driver_uart.c **** // Â§áÊ≥®‰ø°ÊÅØ     
 635:libraries/zf_driver/zf_driver_uart.c **** //-------------------------------------------------------------------------------------------------
 636:libraries/zf_driver/zf_driver_uart.c **** uint8 zf_uart_read_buffer (zf_uart_index_enum uart_index, uint8 *buff, uint32 len)
 637:libraries/zf_driver/zf_driver_uart.c **** {
 1631              		.loc 1 637 1
 1632              		.cfi_startproc
 1633              		@ args = 0, pretend = 0, frame = 24
 1634              		@ frame_needed = 0, uses_anonymous_args = 0
 1635 0000 00B5     		push	{lr}
 1636              		.cfi_def_cfa_offset 4
 1637              		.cfi_offset 14, -4
 1638 0002 87B0     		sub	sp, sp, #28
 1639              		.cfi_def_cfa_offset 32
 1640 0004 0346     		mov	r3, r0
 1641 0006 0291     		str	r1, [sp, #8]
 1642 0008 0192     		str	r2, [sp, #4]
 1643 000a 8DF80F30 		strb	r3, [sp, #15]
 638:libraries/zf_driver/zf_driver_uart.c ****     zf_uart_operation_state_enum    return_state    =   UART_ERROR_UNKNOW;
 1644              		.loc 1 638 37
 1645 000e 0123     		movs	r3, #1
 1646 0010 8DF81730 		strb	r3, [sp, #23]
 639:libraries/zf_driver/zf_driver_uart.c **** 
 640:libraries/zf_driver/zf_driver_uart.c ****     do
 641:libraries/zf_driver/zf_driver_uart.c ****     {
 642:libraries/zf_driver/zf_driver_uart.c ****         if(zf_uart_assert(uart_obj_list[uart_index].baudrate))                  // Ê£ÄÊü• Ê®°ÂùóÂàù
 1647              		.loc 1 642 12
 1648 0014 9DF80F30 		ldrb	r3, [sp, #15]	@ zero_extendqisi2
 1649 0018 354A     		ldr	r2, .L117
 1650 001a 1B01     		lsls	r3, r3, #4
 1651 001c 1344     		add	r3, r3, r2
 1652 001e 1B68     		ldr	r3, [r3]
 1653              		.loc 1 642 11
 1654 0020 002B     		cmp	r3, #0
 1655 0022 0CD1     		bne	.L106
 1656              		.loc 1 642 12 discriminator 1
 1657 0024 0022     		movs	r2, #0
 1658 0026 40F28221 		movw	r1, #642
 1659 002a 3248     		ldr	r0, .L117+4
 1660 002c FFF7FEFF 		bl	zf_uart_assert_handler
 1661 0030 0346     		mov	r3, r0
 1662 0032 002B     		cmp	r3, #0
 1663 0034 03D0     		beq	.L106
 643:libraries/zf_driver/zf_driver_uart.c ****         {
 644:libraries/zf_driver/zf_driver_uart.c ****             // Ê≠§Â§ÑÂ¶ÇÊûúÊñ≠Ë®ÄÊä•Èîô ÈÇ£‰πàËØÅÊòéÊú¨Ê®°ÂùóÊ≤°ÊúâÂàùÂßãÂåñËøá ÊòØ‰∏çÂÖÅËÆ∏Áõ¥Êé•Ê
 645:libraries/zf_driver/zf_driver_uart.c ****             // Êú™ÂàùÂßãÂåñÊ®°ÂùóÂæàÂèØËÉΩÊ≤°ÊúâÂºÄÂêØÊ®°ÂùóÊó∂ÈíüÊàñËÄÖÊ≤°Êúâ‰ΩøËÉΩÊ®°Âùó
 646:libraries/zf_driver/zf_driver_uart.c ****             // ÂØπ‰∫éÈÉ®ÂàÜÂçïÁâáÊú∫Ê≤°Êúâ‰ΩøËÉΩÊ®°ÂùóÁõ¥Êé•Êìç‰Ωú‰ºöÂØºËá¥ÊÄªÁ∫øÂºÇÂ∏∏ÊàñËÄÖÁ°¨‰ª∂
 647:libraries/zf_driver/zf_driver_uart.c ****             return_state = UART_ERROR_MODULE_NOT_INIT;                          // UART Ê®°ÂùóÊú™Âà
 1664              		.loc 1 647 26
 1665 0036 2123     		movs	r3, #33
 1666 0038 8DF81730 		strb	r3, [sp, #23]
 648:libraries/zf_driver/zf_driver_uart.c ****             break;
 1667              		.loc 1 648 13
 1668 003c 51E0     		b	.L107
 1669              	.L106:
 649:libraries/zf_driver/zf_driver_uart.c ****         }
 650:libraries/zf_driver/zf_driver_uart.c ****         if(zf_uart_assert(NULL != buff))                                        // Ê£ÄÊü• Êï∞ÊçÆÁºì
 1670              		.loc 1 650 11
 1671 003e 029B     		ldr	r3, [sp, #8]
 1672 0040 002B     		cmp	r3, #0
 1673 0042 0CD1     		bne	.L108
 1674              		.loc 1 650 12 discriminator 1
 1675 0044 0022     		movs	r2, #0
 1676 0046 40F28A21 		movw	r1, #650
 1677 004a 2A48     		ldr	r0, .L117+4
 1678 004c FFF7FEFF 		bl	zf_uart_assert_handler
 1679 0050 0346     		mov	r3, r0
 1680 0052 002B     		cmp	r3, #0
 1681 0054 03D0     		beq	.L108
 651:libraries/zf_driver/zf_driver_uart.c ****         {
 652:libraries/zf_driver/zf_driver_uart.c ****             // Ê≠§Â§ÑÂ¶ÇÊûúÊñ≠Ë®ÄÊä•Èîô ÈÇ£‰πàËØÅÊòé‰º†ÂÖ•Êï∞ÊçÆÊåáÈíà‰∏∫ NULL Á©∫ÊåáÈíà
 653:libraries/zf_driver/zf_driver_uart.c ****             // ‰∏çÂèØ‰ª•ÂØπÁ©∫ÊåáÈíàËøõË°åÊìç‰Ωú
 654:libraries/zf_driver/zf_driver_uart.c ****             return_state = UART_ERROR_DATA_BUFFER_NULL;                         // UART Êï∞ÊçÆÊåáÈí
 1682              		.loc 1 654 26
 1683 0056 2723     		movs	r3, #39
 1684 0058 8DF81730 		strb	r3, [sp, #23]
 655:libraries/zf_driver/zf_driver_uart.c ****             break;
 1685              		.loc 1 655 13
 1686 005c 41E0     		b	.L107
 1687              	.L108:
 656:libraries/zf_driver/zf_driver_uart.c ****         }
 657:libraries/zf_driver/zf_driver_uart.c **** 
 658:libraries/zf_driver/zf_driver_uart.c ****         if(ZF_DISABLE == uart_obj_list[uart_index].enable)
 1688              		.loc 1 658 51
 1689 005e 9DF80F30 		ldrb	r3, [sp, #15]	@ zero_extendqisi2
 1690 0062 234A     		ldr	r2, .L117
 1691 0064 1B01     		lsls	r3, r3, #4
 1692 0066 1344     		add	r3, r3, r2
 1693 0068 0833     		adds	r3, r3, #8
 1694 006a 1B79     		ldrb	r3, [r3, #4]
 1695 006c C3F30303 		ubfx	r3, r3, #0, #4
 1696 0070 DBB2     		uxtb	r3, r3
 1697              		.loc 1 658 11
 1698 0072 002B     		cmp	r3, #0
 1699 0074 2DD1     		bne	.L110
 659:libraries/zf_driver/zf_driver_uart.c ****         {
 660:libraries/zf_driver/zf_driver_uart.c ****             return_state = UART_WARNING_MODULE_DISABLE;                         // UART Ê®°ÂùóÂ§±ËÉ
 1700              		.loc 1 660 26
 1701 0076 1023     		movs	r3, #16
 1702 0078 8DF81730 		strb	r3, [sp, #23]
 661:libraries/zf_driver/zf_driver_uart.c ****             break;
 1703              		.loc 1 661 13
 1704 007c 31E0     		b	.L107
 1705              	.L115:
 1706              	.LBB24:
 662:libraries/zf_driver/zf_driver_uart.c ****         }
 663:libraries/zf_driver/zf_driver_uart.c **** 
 664:libraries/zf_driver/zf_driver_uart.c ****         while(len -- > 0)
 665:libraries/zf_driver/zf_driver_uart.c ****         {
 666:libraries/zf_driver/zf_driver_uart.c ****             vuint32 timeout_count   = 0;
 1707              		.loc 1 666 21
 1708 007e 0023     		movs	r3, #0
 1709 0080 0493     		str	r3, [sp, #16]
 667:libraries/zf_driver/zf_driver_uart.c ****             while(  timeout_count ++ <= UART_DEFAULT_TIMEOUT_COUNT
 1710              		.loc 1 667 18
 1711 0082 00BF     		nop
 1712              	.L112:
 1713              		.loc 1 667 35
 1714 0084 049B     		ldr	r3, [sp, #16]
 1715 0086 5A1C     		adds	r2, r3, #1
 1716 0088 0492     		str	r2, [sp, #16]
 1717              		.loc 1 667 18
 1718 008a B3F5001F 		cmp	r3, #2097152
 1719 008e 0BD2     		bcs	.L111
 668:libraries/zf_driver/zf_driver_uart.c ****                 &&  !(uart_obj_list[uart_index].uart_ptr->ISR & UART_ISR_RXNE_RXFNE));  // Á≠âÂæÖËØ
 1720              		.loc 1 668 48
 1721 0090 9DF80F30 		ldrb	r3, [sp, #15]	@ zero_extendqisi2
 1722 0094 164A     		ldr	r2, .L117
 1723 0096 1B01     		lsls	r3, r3, #4
 1724 0098 1344     		add	r3, r3, r2
 1725 009a 0433     		adds	r3, r3, #4
 1726 009c 1B68     		ldr	r3, [r3]
 1727              		.loc 1 668 57
 1728 009e DB69     		ldr	r3, [r3, #28]
 1729              		.loc 1 668 63
 1730 00a0 03F02003 		and	r3, r3, #32
 1731              		.loc 1 668 17
 1732 00a4 002B     		cmp	r3, #0
 1733 00a6 EDD0     		beq	.L112
 1734              	.L111:
 669:libraries/zf_driver/zf_driver_uart.c ****             if(timeout_count >= UART_DEFAULT_TIMEOUT_COUNT)
 1735              		.loc 1 669 30
 1736 00a8 049B     		ldr	r3, [sp, #16]
 1737              		.loc 1 669 15
 1738 00aa 134A     		ldr	r2, .L117+8
 1739 00ac 9342     		cmp	r3, r2
 1740 00ae 03D9     		bls	.L113
 670:libraries/zf_driver/zf_driver_uart.c ****             {
 671:libraries/zf_driver/zf_driver_uart.c ****                 return_state = UART_WARNING_OPERATION_TIMEOUT;                  // UART Êìç‰ΩúË∂ÖÊó
 1741              		.loc 1 671 30
 1742 00b0 1123     		movs	r3, #17
 1743 00b2 8DF81730 		strb	r3, [sp, #23]
 672:libraries/zf_driver/zf_driver_uart.c ****                 break;
 1744              		.loc 1 672 17
 1745 00b6 11E0     		b	.L114
 1746              	.L113:
 673:libraries/zf_driver/zf_driver_uart.c ****             }
 674:libraries/zf_driver/zf_driver_uart.c ****             *buff ++ = uart_obj_list[uart_index].uart_ptr->RDR;
 1747              		.loc 1 674 49
 1748 00b8 9DF80F30 		ldrb	r3, [sp, #15]	@ zero_extendqisi2
 1749 00bc 0C4A     		ldr	r2, .L117
 1750 00be 1B01     		lsls	r3, r3, #4
 1751 00c0 1344     		add	r3, r3, r2
 1752 00c2 0433     		adds	r3, r3, #4
 1753 00c4 1B68     		ldr	r3, [r3]
 1754              		.loc 1 674 58
 1755 00c6 596A     		ldr	r1, [r3, #36]
 1756              		.loc 1 674 19
 1757 00c8 029B     		ldr	r3, [sp, #8]
 1758 00ca 5A1C     		adds	r2, r3, #1
 1759 00cc 0292     		str	r2, [sp, #8]
 1760              		.loc 1 674 22
 1761 00ce CAB2     		uxtb	r2, r1
 1762 00d0 1A70     		strb	r2, [r3]
 1763              	.L110:
 1764              	.LBE24:
 664:libraries/zf_driver/zf_driver_uart.c ****         {
 1765              		.loc 1 664 19
 1766 00d2 019B     		ldr	r3, [sp, #4]
 1767 00d4 5A1E     		subs	r2, r3, #1
 1768 00d6 0192     		str	r2, [sp, #4]
 664:libraries/zf_driver/zf_driver_uart.c ****         {
 1769              		.loc 1 664 14
 1770 00d8 002B     		cmp	r3, #0
 1771 00da D0D1     		bne	.L115
 1772              	.L114:
 675:libraries/zf_driver/zf_driver_uart.c ****         }
 676:libraries/zf_driver/zf_driver_uart.c **** 
 677:libraries/zf_driver/zf_driver_uart.c ****         return_state = UART_OPERATION_DONE;
 1773              		.loc 1 677 22
 1774 00dc 0023     		movs	r3, #0
 1775 00de 8DF81730 		strb	r3, [sp, #23]
 1776              	.L107:
 678:libraries/zf_driver/zf_driver_uart.c ****     }while(0);
 679:libraries/zf_driver/zf_driver_uart.c **** 
 680:libraries/zf_driver/zf_driver_uart.c ****     return return_state;
 1777              		.loc 1 680 12
 1778 00e2 9DF81730 		ldrb	r3, [sp, #23]	@ zero_extendqisi2
 681:libraries/zf_driver/zf_driver_uart.c **** }
 1779              		.loc 1 681 1
 1780 00e6 1846     		mov	r0, r3
 1781 00e8 07B0     		add	sp, sp, #28
 1782              		.cfi_def_cfa_offset 4
 1783              		@ sp needed
 1784 00ea 5DF804FB 		ldr	pc, [sp], #4
 1785              	.L118:
 1786 00ee 00BF     		.align	2
 1787              	.L117:
 1788 00f0 00000000 		.word	uart_obj_list
 1789 00f4 00000000 		.word	.LC0
 1790 00f8 FEFF1F00 		.word	2097150
 1791              		.cfi_endproc
 1792              	.LFE196:
 1794              		.section	.text.zf_uart_set_interrupt_callback,"ax",%progbits
 1795              		.align	1
 1796              		.p2align 4,,15
 1797              		.global	zf_uart_set_interrupt_callback
 1798              		.syntax unified
 1799              		.thumb
 1800              		.thumb_func
 1802              	zf_uart_set_interrupt_callback:
 1803              	.LFB197:
 682:libraries/zf_driver/zf_driver_uart.c **** 
 683:libraries/zf_driver/zf_driver_uart.c **** //-------------------------------------------------------------------------------------------------
 684:libraries/zf_driver/zf_driver_uart.c **** // ÂáΩÊï∞ÁÆÄ‰ªã     UART ‰∏≠Êñ≠ËÆæÁΩÆÂõûË∞ÉÂáΩÊï∞
 685:libraries/zf_driver/zf_driver_uart.c **** // ÂèÇÊï∞ËØ¥Êòé     uart_index          UART Ê®°ÂùóÂè∑     (ËØ¶ËßÅ zf_driver_uart.h ÂÜÖ zf_uart_ind
 686:libraries/zf_driver/zf_driver_uart.c **** // ÂèÇÊï∞ËØ¥Êòé     callback            ÂõûË∞ÉÂáΩÊï∞ ‰∏∫Êó†ËøîÂõûÂÄº uint32 Âä† void * ÂèÇÊï∞ÁöÑÂáΩ
 687:libraries/zf_driver/zf_driver_uart.c **** // ÂèÇÊï∞ËØ¥Êòé     *ptr                ÂõûË∞ÉÂèÇÊï∞ Áî®Êà∑Ëá™ÊãüÂÆöÁöÑÂèÇÊï∞ÊåáÈíà ‰∏çÈúÄË¶ÅÁöÑËØù
 688:libraries/zf_driver/zf_driver_uart.c **** // ËøîÂõûÂèÇÊï∞     uint8               Êìç‰ΩúÁä∂ÊÄÅ ZF_NO_ERROR / UART_OPERATION_DONE - ÂÆåÊàê ÂÖ∂
 689:libraries/zf_driver/zf_driver_uart.c **** // ‰ΩøÁî®Á§∫‰æã     zf_uart_set_interrupt_callback(uart_index, callback, ptr);
 690:libraries/zf_driver/zf_driver_uart.c **** // Â§áÊ≥®‰ø°ÊÅØ     
 691:libraries/zf_driver/zf_driver_uart.c **** //-------------------------------------------------------------------------------------------------
 692:libraries/zf_driver/zf_driver_uart.c **** uint8 zf_uart_set_interrupt_callback (zf_uart_index_enum uart_index, void_callback_uint32_ptr callb
 693:libraries/zf_driver/zf_driver_uart.c **** {
 1804              		.loc 1 693 1
 1805              		.cfi_startproc
 1806              		@ args = 0, pretend = 0, frame = 24
 1807              		@ frame_needed = 0, uses_anonymous_args = 0
 1808 0000 00B5     		push	{lr}
 1809              		.cfi_def_cfa_offset 4
 1810              		.cfi_offset 14, -4
 1811 0002 87B0     		sub	sp, sp, #28
 1812              		.cfi_def_cfa_offset 32
 1813 0004 0346     		mov	r3, r0
 1814 0006 0291     		str	r1, [sp, #8]
 1815 0008 0192     		str	r2, [sp, #4]
 1816 000a 8DF80F30 		strb	r3, [sp, #15]
 694:libraries/zf_driver/zf_driver_uart.c ****     zf_uart_operation_state_enum    return_state    =   UART_ERROR_UNKNOW;
 1817              		.loc 1 694 37
 1818 000e 0123     		movs	r3, #1
 1819 0010 8DF81730 		strb	r3, [sp, #23]
 695:libraries/zf_driver/zf_driver_uart.c **** 
 696:libraries/zf_driver/zf_driver_uart.c ****     do
 697:libraries/zf_driver/zf_driver_uart.c ****     {
 698:libraries/zf_driver/zf_driver_uart.c ****         if(zf_uart_assert(NULL != callback))                                    // Ê£ÄÊü• ÂõûË∞ÉÂáΩ
 1820              		.loc 1 698 11
 1821 0014 029B     		ldr	r3, [sp, #8]
 1822 0016 002B     		cmp	r3, #0
 1823 0018 0CD1     		bne	.L120
 1824              		.loc 1 698 12 discriminator 1
 1825 001a 0022     		movs	r2, #0
 1826 001c 40F2BA21 		movw	r1, #698
 1827 0020 2E48     		ldr	r0, .L127
 1828 0022 FFF7FEFF 		bl	zf_uart_assert_handler
 1829 0026 0346     		mov	r3, r0
 1830 0028 002B     		cmp	r3, #0
 1831 002a 03D0     		beq	.L120
 699:libraries/zf_driver/zf_driver_uart.c ****         {
 700:libraries/zf_driver/zf_driver_uart.c ****             // Ê≠§Â§ÑÂ¶ÇÊûúÊñ≠Ë®ÄÊä•Èîô ÈÇ£‰πàËØÅÊòé‰º†ÂÖ•Êï∞ÊçÆÊåáÈíà‰∏∫ NULL Á©∫ÊåáÈíà
 701:libraries/zf_driver/zf_driver_uart.c ****             // ‰∏çÂèØ‰ª•ÂØπÁ©∫ÊåáÈíàËøõË°åÊìç‰Ωú
 702:libraries/zf_driver/zf_driver_uart.c ****             return_state = UART_ERROR_INTERRUPT_CALLBACK_ILLEGAL;               // UART ‰∏≠Êñ≠ÂõûË∞
 1832              		.loc 1 702 26
 1833 002c 2623     		movs	r3, #38
 1834 002e 8DF81730 		strb	r3, [sp, #23]
 703:libraries/zf_driver/zf_driver_uart.c ****             break;
 1835              		.loc 1 703 13
 1836 0032 4DE0     		b	.L121
 1837              	.L120:
 704:libraries/zf_driver/zf_driver_uart.c ****         }
 705:libraries/zf_driver/zf_driver_uart.c **** 
 706:libraries/zf_driver/zf_driver_uart.c ****         // ‰øÆÊîπÂõûË∞ÉÂáΩÊï∞ÈúÄË¶ÅÂÖàÁ¶ÅÊ≠¢‰∏≠Êñ≠Ëß¶Âèë
 707:libraries/zf_driver/zf_driver_uart.c ****         // ÈÅøÂÖçÂú®‰øÆÊîπËøáÁ®ã‰∏≠Ëß¶Âèë‰∏≠Êñ≠ÂØºËá¥Á®ãÂ∫èÂºÇÂ∏∏
 708:libraries/zf_driver/zf_driver_uart.c **** 
 709:libraries/zf_driver/zf_driver_uart.c ****         // Áî±‰∫éÊú¨Ê®°Âùó‰∏≠Êñ≠Âπ∂‰∏çÊòØÁªëÂÆöÂàùÂßãÂåñ
 710:libraries/zf_driver/zf_driver_uart.c ****         // Âõ†Ê≠§‰∏çËÉΩÁ°ÆÂÆöËÆæÁΩÆ‰∏≠Êñ≠ÂõûË∞ÉÊó∂ÊòØÂê¶ÂàùÂßãÂåñËøáÊ®°Âùó
 711:libraries/zf_driver/zf_driver_uart.c ****         // ÊâÄ‰ª•‰∏çËÉΩÁõ¥Êé•Êìç‰ΩúÊ®°ÂùóÁöÑÂØÑÂ≠òÂô®Êù•ÂºÄÂÖ≥‰∏≠Êñ≠
 712:libraries/zf_driver/zf_driver_uart.c ****         // ÈÇ£‰πàÂè™ËÉΩÂéªÊìç‰Ωú NVIC Êù•Áõ¥Êé•ÂÖ≥Êéâ‰∏≠Êñ≠
 713:libraries/zf_driver/zf_driver_uart.c ****         if(uart_obj_list[uart_index].tx_interrupt || uart_obj_list[uart_index].rx_interrupt)
 1838              		.loc 1 713 37
 1839 0034 9DF80F30 		ldrb	r3, [sp, #15]	@ zero_extendqisi2
 1840 0038 294A     		ldr	r2, .L127+4
 1841 003a 1B01     		lsls	r3, r3, #4
 1842 003c 1344     		add	r3, r3, r2
 1843 003e 0833     		adds	r3, r3, #8
 1844 0040 9B79     		ldrb	r3, [r3, #6]
 1845 0042 C3F30313 		ubfx	r3, r3, #4, #4
 1846 0046 DBB2     		uxtb	r3, r3
 1847              		.loc 1 713 11
 1848 0048 002B     		cmp	r3, #0
 1849 004a 0BD1     		bne	.L122
 1850              		.loc 1 713 79 discriminator 1
 1851 004c 9DF80F30 		ldrb	r3, [sp, #15]	@ zero_extendqisi2
 1852 0050 234A     		ldr	r2, .L127+4
 1853 0052 1B01     		lsls	r3, r3, #4
 1854 0054 1344     		add	r3, r3, r2
 1855 0056 0833     		adds	r3, r3, #8
 1856 0058 DB79     		ldrb	r3, [r3, #7]
 1857 005a C3F30303 		ubfx	r3, r3, #0, #4
 1858 005e DBB2     		uxtb	r3, r3
 1859              		.loc 1 713 51 discriminator 1
 1860 0060 002B     		cmp	r3, #0
 1861 0062 06D0     		beq	.L123
 1862              	.L122:
 714:libraries/zf_driver/zf_driver_uart.c ****         {
 715:libraries/zf_driver/zf_driver_uart.c ****         	zf_interrupt_disable(uart_irq_index_list[uart_index]);
 1863              		.loc 1 715 10
 1864 0064 9DF80F30 		ldrb	r3, [sp, #15]	@ zero_extendqisi2
 1865 0068 1E4A     		ldr	r2, .L127+8
 1866 006a D35C     		ldrb	r3, [r2, r3]	@ zero_extendqisi2
 1867 006c 1846     		mov	r0, r3
 1868 006e FFF7FEFF 		bl	zf_interrupt_disable
 1869              	.L123:
 716:libraries/zf_driver/zf_driver_uart.c ****         }
 717:libraries/zf_driver/zf_driver_uart.c ****         uart_callback[uart_index].callback      = callback;
 1870              		.loc 1 717 34
 1871 0072 9DF80F30 		ldrb	r3, [sp, #15]	@ zero_extendqisi2
 1872              		.loc 1 717 49
 1873 0076 1C49     		ldr	r1, .L127+12
 1874 0078 029A     		ldr	r2, [sp, #8]
 1875 007a 41F83320 		str	r2, [r1, r3, lsl #3]
 718:libraries/zf_driver/zf_driver_uart.c ****         uart_callback[uart_index].parameter_ptr = ptr;
 1876              		.loc 1 718 34
 1877 007e 9DF80F30 		ldrb	r3, [sp, #15]	@ zero_extendqisi2
 1878              		.loc 1 718 49
 1879 0082 194A     		ldr	r2, .L127+12
 1880 0084 DB00     		lsls	r3, r3, #3
 1881 0086 1344     		add	r3, r3, r2
 1882 0088 019A     		ldr	r2, [sp, #4]
 1883 008a 5A60     		str	r2, [r3, #4]
 719:libraries/zf_driver/zf_driver_uart.c ****         if(uart_obj_list[uart_index].tx_interrupt || uart_obj_list[uart_index].rx_interrupt)
 1884              		.loc 1 719 37
 1885 008c 9DF80F30 		ldrb	r3, [sp, #15]	@ zero_extendqisi2
 1886 0090 134A     		ldr	r2, .L127+4
 1887 0092 1B01     		lsls	r3, r3, #4
 1888 0094 1344     		add	r3, r3, r2
 1889 0096 0833     		adds	r3, r3, #8
 1890 0098 9B79     		ldrb	r3, [r3, #6]
 1891 009a C3F30313 		ubfx	r3, r3, #4, #4
 1892 009e DBB2     		uxtb	r3, r3
 1893              		.loc 1 719 11
 1894 00a0 002B     		cmp	r3, #0
 1895 00a2 0BD1     		bne	.L124
 1896              		.loc 1 719 79 discriminator 1
 1897 00a4 9DF80F30 		ldrb	r3, [sp, #15]	@ zero_extendqisi2
 1898 00a8 0D4A     		ldr	r2, .L127+4
 1899 00aa 1B01     		lsls	r3, r3, #4
 1900 00ac 1344     		add	r3, r3, r2
 1901 00ae 0833     		adds	r3, r3, #8
 1902 00b0 DB79     		ldrb	r3, [r3, #7]
 1903 00b2 C3F30303 		ubfx	r3, r3, #0, #4
 1904 00b6 DBB2     		uxtb	r3, r3
 1905              		.loc 1 719 51 discriminator 1
 1906 00b8 002B     		cmp	r3, #0
 1907 00ba 06D0     		beq	.L125
 1908              	.L124:
 720:libraries/zf_driver/zf_driver_uart.c ****         {
 721:libraries/zf_driver/zf_driver_uart.c ****         	zf_interrupt_enable(uart_irq_index_list[uart_index]);
 1909              		.loc 1 721 10
 1910 00bc 9DF80F30 		ldrb	r3, [sp, #15]	@ zero_extendqisi2
 1911 00c0 084A     		ldr	r2, .L127+8
 1912 00c2 D35C     		ldrb	r3, [r2, r3]	@ zero_extendqisi2
 1913 00c4 1846     		mov	r0, r3
 1914 00c6 FFF7FEFF 		bl	zf_interrupt_enable
 1915              	.L125:
 722:libraries/zf_driver/zf_driver_uart.c ****         }
 723:libraries/zf_driver/zf_driver_uart.c **** 
 724:libraries/zf_driver/zf_driver_uart.c ****         return_state = UART_OPERATION_DONE;
 1916              		.loc 1 724 22
 1917 00ca 0023     		movs	r3, #0
 1918 00cc 8DF81730 		strb	r3, [sp, #23]
 1919              	.L121:
 725:libraries/zf_driver/zf_driver_uart.c ****     }while(0);
 726:libraries/zf_driver/zf_driver_uart.c **** 
 727:libraries/zf_driver/zf_driver_uart.c ****     return return_state;
 1920              		.loc 1 727 12
 1921 00d0 9DF81730 		ldrb	r3, [sp, #23]	@ zero_extendqisi2
 728:libraries/zf_driver/zf_driver_uart.c **** }
 1922              		.loc 1 728 1
 1923 00d4 1846     		mov	r0, r3
 1924 00d6 07B0     		add	sp, sp, #28
 1925              		.cfi_def_cfa_offset 4
 1926              		@ sp needed
 1927 00d8 5DF804FB 		ldr	pc, [sp], #4
 1928              	.L128:
 1929              		.align	2
 1930              	.L127:
 1931 00dc 00000000 		.word	.LC0
 1932 00e0 00000000 		.word	uart_obj_list
 1933 00e4 00000000 		.word	uart_irq_index_list
 1934 00e8 00000000 		.word	uart_callback
 1935              		.cfi_endproc
 1936              	.LFE197:
 1938              		.section	.text.zf_uart_set_interrupt_config,"ax",%progbits
 1939              		.align	1
 1940              		.p2align 4,,15
 1941              		.global	zf_uart_set_interrupt_config
 1942              		.syntax unified
 1943              		.thumb
 1944              		.thumb_func
 1946              	zf_uart_set_interrupt_config:
 1947              	.LFB198:
 729:libraries/zf_driver/zf_driver_uart.c **** 
 730:libraries/zf_driver/zf_driver_uart.c **** //-------------------------------------------------------------------------------------------------
 731:libraries/zf_driver/zf_driver_uart.c **** // ÂáΩÊï∞ÁÆÄ‰ªã     UART ËÆæÁΩÆ‰∏≠Êñ≠ÈÖçÁΩÆ
 732:libraries/zf_driver/zf_driver_uart.c **** // ÂèÇÊï∞ËØ¥Êòé     uart_index          UART Ê®°ÂùóÂè∑     (ËØ¶ËßÅ zf_driver_uart.h ÂÜÖ zf_uart_ind
 733:libraries/zf_driver/zf_driver_uart.c **** // ÂèÇÊï∞ËØ¥Êòé     config              ‰∏≠Êñ≠ÈÖçÁΩÆ        (ËØ¶ËßÅ zf_driver_uart.h ÂÜÖ zf_uart_in
 734:libraries/zf_driver/zf_driver_uart.c **** // ËøîÂõûÂèÇÊï∞     uint8               Êìç‰ΩúÁä∂ÊÄÅ ZF_NO_ERROR / UART_OPERATION_DONE - ÂÆåÊàê ÂÖ∂
 735:libraries/zf_driver/zf_driver_uart.c **** // ‰ΩøÁî®Á§∫‰æã     zf_uart_set_interrupt_config(uart_index, config);
 736:libraries/zf_driver/zf_driver_uart.c **** // Â§áÊ≥®‰ø°ÊÅØ     
 737:libraries/zf_driver/zf_driver_uart.c **** //-------------------------------------------------------------------------------------------------
 738:libraries/zf_driver/zf_driver_uart.c **** uint8 zf_uart_set_interrupt_config (zf_uart_index_enum uart_index, zf_uart_interrupt_config_enum co
 739:libraries/zf_driver/zf_driver_uart.c **** {
 1948              		.loc 1 739 1
 1949              		.cfi_startproc
 1950              		@ args = 0, pretend = 0, frame = 16
 1951              		@ frame_needed = 0, uses_anonymous_args = 0
 1952 0000 00B5     		push	{lr}
 1953              		.cfi_def_cfa_offset 4
 1954              		.cfi_offset 14, -4
 1955 0002 85B0     		sub	sp, sp, #20
 1956              		.cfi_def_cfa_offset 24
 1957 0004 0346     		mov	r3, r0
 1958 0006 0A46     		mov	r2, r1
 1959 0008 8DF80730 		strb	r3, [sp, #7]
 1960 000c 1346     		mov	r3, r2
 1961 000e 8DF80630 		strb	r3, [sp, #6]
 740:libraries/zf_driver/zf_driver_uart.c ****     zf_uart_operation_state_enum    return_state    =   UART_ERROR_UNKNOW;
 1962              		.loc 1 740 37
 1963 0012 0123     		movs	r3, #1
 1964 0014 8DF80F30 		strb	r3, [sp, #15]
 1965              	.LBB25:
 741:libraries/zf_driver/zf_driver_uart.c **** 
 742:libraries/zf_driver/zf_driver_uart.c ****     do
 743:libraries/zf_driver/zf_driver_uart.c ****     {
 744:libraries/zf_driver/zf_driver_uart.c ****         if(zf_uart_assert(uart_obj_list[uart_index].baudrate))                  // Ê£ÄÊü• Ê®°ÂùóÂàù
 1966              		.loc 1 744 12
 1967 0018 9DF80730 		ldrb	r3, [sp, #7]	@ zero_extendqisi2
 1968 001c 774A     		ldr	r2, .L144
 1969 001e 1B01     		lsls	r3, r3, #4
 1970 0020 1344     		add	r3, r3, r2
 1971 0022 1B68     		ldr	r3, [r3]
 1972              		.loc 1 744 11
 1973 0024 002B     		cmp	r3, #0
 1974 0026 0CD1     		bne	.L130
 1975              		.loc 1 744 12 discriminator 1
 1976 0028 0022     		movs	r2, #0
 1977 002a 4FF43A71 		mov	r1, #744
 1978 002e 7448     		ldr	r0, .L144+4
 1979 0030 FFF7FEFF 		bl	zf_uart_assert_handler
 1980 0034 0346     		mov	r3, r0
 1981 0036 002B     		cmp	r3, #0
 1982 0038 03D0     		beq	.L130
 745:libraries/zf_driver/zf_driver_uart.c ****         {
 746:libraries/zf_driver/zf_driver_uart.c ****             // Ê≠§Â§ÑÂ¶ÇÊûúÊñ≠Ë®ÄÊä•Èîô ÈÇ£‰πàËØÅÊòéÊú¨Ê®°ÂùóÊ≤°ÊúâÂàùÂßãÂåñËøá ÊòØ‰∏çÂÖÅËÆ∏Áõ¥Êé•Ê
 747:libraries/zf_driver/zf_driver_uart.c ****             // Êú™ÂàùÂßãÂåñÊ®°ÂùóÂæàÂèØËÉΩÊ≤°ÊúâÂºÄÂêØÊ®°ÂùóÊó∂ÈíüÊàñËÄÖÊ≤°Êúâ‰ΩøËÉΩÊ®°Âùó
 748:libraries/zf_driver/zf_driver_uart.c ****             // ÂØπ‰∫éÈÉ®ÂàÜÂçïÁâáÊú∫Ê≤°Êúâ‰ΩøËÉΩÊ®°ÂùóÁõ¥Êé•Êìç‰Ωú‰ºöÂØºËá¥ÊÄªÁ∫øÂºÇÂ∏∏ÊàñËÄÖÁ°¨‰ª∂
 749:libraries/zf_driver/zf_driver_uart.c ****             return_state = UART_ERROR_MODULE_NOT_INIT;                          // UART Ê®°ÂùóÊú™Âà
 1983              		.loc 1 749 26
 1984 003a 2123     		movs	r3, #33
 1985 003c 8DF80F30 		strb	r3, [sp, #15]
 750:libraries/zf_driver/zf_driver_uart.c ****             break;
 1986              		.loc 1 750 13
 1987 0040 D6E0     		b	.L131
 1988              	.L130:
 751:libraries/zf_driver/zf_driver_uart.c ****         }
 752:libraries/zf_driver/zf_driver_uart.c ****         if(zf_uart_assert(                                                      // Debug ËæìÂá∫Ê£ÄÊ
 1989              		.loc 1 752 11
 1990 0042 9DF80630 		ldrb	r3, [sp, #6]	@ zero_extendqisi2
 1991 0046 022B     		cmp	r3, #2
 1992 0048 0ED9     		bls	.L132
 1993              		.loc 1 752 12 discriminator 2
 1994 004a 9DF80730 		ldrb	r3, [sp, #7]	@ zero_extendqisi2
 1995 004e 6D4A     		ldr	r2, .L144+8
 1996 0050 52F83330 		ldr	r3, [r2, r3, lsl #3]
 1997 0054 002B     		cmp	r3, #0
 1998 0056 07D0     		beq	.L132
 1999              		.loc 1 752 12 is_stmt 0 discriminator 4
 2000 0058 9DF80730 		ldrb	r3, [sp, #7]	@ zero_extendqisi2
 2001 005c 694A     		ldr	r2, .L144+8
 2002 005e 52F83330 		ldr	r3, [r2, r3, lsl #3]
 2003 0062 694A     		ldr	r2, .L144+12
 2004 0064 9342     		cmp	r3, r2
 2005 0066 0CD1     		bne	.L133
 2006              	.L132:
 2007              		.loc 1 752 12 discriminator 5
 2008 0068 0022     		movs	r2, #0
 2009 006a 4FF43C71 		mov	r1, #752
 2010 006e 6448     		ldr	r0, .L144+4
 2011 0070 FFF7FEFF 		bl	zf_uart_assert_handler
 2012 0074 0346     		mov	r3, r0
 2013 0076 002B     		cmp	r3, #0
 2014 0078 03D0     		beq	.L133
 753:libraries/zf_driver/zf_driver_uart.c ****                 UART_INTERRUPT_CONFIG_TX_ENABLE <= config                       // ÂºÄÂêØ‰∏≠Êñ≠
 754:libraries/zf_driver/zf_driver_uart.c ****             &&  NULL != uart_callback[uart_index].callback                      // ÂõûË∞É‰∏çËÉΩ‰∏∫Á
 755:libraries/zf_driver/zf_driver_uart.c ****             &&  zf_uart_callbakc_defalut != uart_callback[uart_index].callback))// ÂõûË∞É‰∏çËÉΩ‰∏∫È
 756:libraries/zf_driver/zf_driver_uart.c ****         {
 757:libraries/zf_driver/zf_driver_uart.c ****             // Ê≠§Â§ÑÂ¶ÇÊûúÊñ≠Ë®ÄÊä•Èîô ÈÇ£‰πàËØÅÊòé‰Ω†ÊÉ≥Ë¶ÅÂºÄÂêØ‰∏≠Êñ≠ ‰ΩÜÊòØÊ≤°ÊúâËÆæÁΩÆ‰∏≠Êñ≠Â
 758:libraries/zf_driver/zf_driver_uart.c ****             // ÂøÖÈ°ªÂú®ÂºÄÂêØ‰∏≠Êñ≠‰πãÂâçÂÖàËÆæÁΩÆÂ•Ω‰∏≠Êñ≠ÂõûË∞ÉÂáΩÊï∞
 759:libraries/zf_driver/zf_driver_uart.c ****             return_state = UART_ERROR_INTERRUPT_CALLBACK_NOT_SET;               // UART ‰∏≠Êñ≠ÂõûË∞
 2015              		.loc 1 759 26 is_stmt 1
 2016 007a 2523     		movs	r3, #37
 2017 007c 8DF80F30 		strb	r3, [sp, #15]
 760:libraries/zf_driver/zf_driver_uart.c ****             break;
 2018              		.loc 1 760 13
 2019 0080 B6E0     		b	.L131
 2020              	.L133:
 761:libraries/zf_driver/zf_driver_uart.c ****         }
 762:libraries/zf_driver/zf_driver_uart.c **** 
 763:libraries/zf_driver/zf_driver_uart.c ****         zf_interrupt_disable(uart_irq_index_list[uart_index]);
 2021              		.loc 1 763 9
 2022 0082 9DF80730 		ldrb	r3, [sp, #7]	@ zero_extendqisi2
 2023 0086 614A     		ldr	r2, .L144+16
 2024 0088 D35C     		ldrb	r3, [r2, r3]	@ zero_extendqisi2
 2025 008a 1846     		mov	r0, r3
 2026 008c FFF7FEFF 		bl	zf_interrupt_disable
 764:libraries/zf_driver/zf_driver_uart.c ****         uint32 register_temp = uart_obj_list[uart_index].uart_ptr->CR1;
 2027              		.loc 1 764 57
 2028 0090 9DF80730 		ldrb	r3, [sp, #7]	@ zero_extendqisi2
 2029 0094 594A     		ldr	r2, .L144
 2030 0096 1B01     		lsls	r3, r3, #4
 2031 0098 1344     		add	r3, r3, r2
 2032 009a 0433     		adds	r3, r3, #4
 2033 009c 1B68     		ldr	r3, [r3]
 2034              		.loc 1 764 16
 2035 009e 1B68     		ldr	r3, [r3]
 2036 00a0 0293     		str	r3, [sp, #8]
 765:libraries/zf_driver/zf_driver_uart.c ****         switch(config)
 2037              		.loc 1 765 9
 2038 00a2 9DF80630 		ldrb	r3, [sp, #6]	@ zero_extendqisi2
 2039 00a6 052B     		cmp	r3, #5
 2040 00a8 00F28A80 		bhi	.L134
 2041 00ac 01A2     		adr	r2, .L136
 2042 00ae 52F823F0 		ldr	pc, [r2, r3, lsl #2]
 2043 00b2 00BF     		.p2align 2
 2044              	.L136:
 2045 00b4 CD000000 		.word	.L141+1
 2046 00b8 ED000000 		.word	.L140+1
 2047 00bc 0D010000 		.word	.L139+1
 2048 00c0 43010000 		.word	.L138+1
 2049 00c4 65010000 		.word	.L137+1
 2050 00c8 87010000 		.word	.L135+1
 2051              		.p2align 1
 2052              	.L141:
 766:libraries/zf_driver/zf_driver_uart.c ****         {
 767:libraries/zf_driver/zf_driver_uart.c ****             case UART_INTERRUPT_CONFIG_TX_DISABLE:
 768:libraries/zf_driver/zf_driver_uart.c ****             {
 769:libraries/zf_driver/zf_driver_uart.c ****                 uart_obj_list[uart_index].tx_interrupt = ZF_DISABLE;
 2053              		.loc 1 769 42
 2054 00cc 9DF80730 		ldrb	r3, [sp, #7]	@ zero_extendqisi2
 2055              		.loc 1 769 56
 2056 00d0 4A4A     		ldr	r2, .L144
 2057 00d2 1B01     		lsls	r3, r3, #4
 2058 00d4 1344     		add	r3, r3, r2
 2059 00d6 03F10802 		add	r2, r3, #8
 2060 00da 9379     		ldrb	r3, [r2, #6]
 2061 00dc 6FF30713 		bfc	r3, #4, #4
 2062 00e0 9371     		strb	r3, [r2, #6]
 770:libraries/zf_driver/zf_driver_uart.c ****                 register_temp &= ~(UART_CR1_TXEIE_TXFNFIE);
 2063              		.loc 1 770 31
 2064 00e2 029B     		ldr	r3, [sp, #8]
 2065 00e4 23F08003 		bic	r3, r3, #128
 2066 00e8 0293     		str	r3, [sp, #8]
 771:libraries/zf_driver/zf_driver_uart.c ****             }break;
 2067              		.loc 1 771 13
 2068 00ea 69E0     		b	.L134
 2069              	.L140:
 772:libraries/zf_driver/zf_driver_uart.c ****             case UART_INTERRUPT_CONFIG_RX_DISABLE:
 773:libraries/zf_driver/zf_driver_uart.c ****             {
 774:libraries/zf_driver/zf_driver_uart.c ****                 uart_obj_list[uart_index].rx_interrupt = ZF_DISABLE;
 2070              		.loc 1 774 42
 2071 00ec 9DF80730 		ldrb	r3, [sp, #7]	@ zero_extendqisi2
 2072              		.loc 1 774 56
 2073 00f0 424A     		ldr	r2, .L144
 2074 00f2 1B01     		lsls	r3, r3, #4
 2075 00f4 1344     		add	r3, r3, r2
 2076 00f6 03F10802 		add	r2, r3, #8
 2077 00fa D379     		ldrb	r3, [r2, #7]
 2078 00fc 6FF30303 		bfc	r3, #0, #4
 2079 0100 D371     		strb	r3, [r2, #7]
 775:libraries/zf_driver/zf_driver_uart.c ****                 register_temp &= ~(UART_CR1_RXNEIE_RXFNEIE);
 2080              		.loc 1 775 31
 2081 0102 029B     		ldr	r3, [sp, #8]
 2082 0104 23F02003 		bic	r3, r3, #32
 2083 0108 0293     		str	r3, [sp, #8]
 776:libraries/zf_driver/zf_driver_uart.c ****             }break;
 2084              		.loc 1 776 13
 2085 010a 59E0     		b	.L134
 2086              	.L139:
 777:libraries/zf_driver/zf_driver_uart.c ****             case UART_INTERRUPT_CONFIG_ALL_DISABLE:
 778:libraries/zf_driver/zf_driver_uart.c ****             {
 779:libraries/zf_driver/zf_driver_uart.c ****                 uart_obj_list[uart_index].tx_interrupt = ZF_DISABLE;
 2087              		.loc 1 779 42
 2088 010c 9DF80730 		ldrb	r3, [sp, #7]	@ zero_extendqisi2
 2089              		.loc 1 779 56
 2090 0110 3A4A     		ldr	r2, .L144
 2091 0112 1B01     		lsls	r3, r3, #4
 2092 0114 1344     		add	r3, r3, r2
 2093 0116 03F10802 		add	r2, r3, #8
 2094 011a 9379     		ldrb	r3, [r2, #6]
 2095 011c 6FF30713 		bfc	r3, #4, #4
 2096 0120 9371     		strb	r3, [r2, #6]
 780:libraries/zf_driver/zf_driver_uart.c ****                 uart_obj_list[uart_index].rx_interrupt = ZF_DISABLE;
 2097              		.loc 1 780 42
 2098 0122 9DF80730 		ldrb	r3, [sp, #7]	@ zero_extendqisi2
 2099              		.loc 1 780 56
 2100 0126 354A     		ldr	r2, .L144
 2101 0128 1B01     		lsls	r3, r3, #4
 2102 012a 1344     		add	r3, r3, r2
 2103 012c 03F10802 		add	r2, r3, #8
 2104 0130 D379     		ldrb	r3, [r2, #7]
 2105 0132 6FF30303 		bfc	r3, #0, #4
 2106 0136 D371     		strb	r3, [r2, #7]
 781:libraries/zf_driver/zf_driver_uart.c ****                 register_temp &= ~(UART_CR1_TXEIE_TXFNFIE |UART_CR1_RXNEIE_RXFNEIE);
 2107              		.loc 1 781 31
 2108 0138 029B     		ldr	r3, [sp, #8]
 2109 013a 23F0A003 		bic	r3, r3, #160
 2110 013e 0293     		str	r3, [sp, #8]
 782:libraries/zf_driver/zf_driver_uart.c ****             }break;
 2111              		.loc 1 782 13
 2112 0140 3EE0     		b	.L134
 2113              	.L138:
 783:libraries/zf_driver/zf_driver_uart.c ****             case UART_INTERRUPT_CONFIG_TX_ENABLE:
 784:libraries/zf_driver/zf_driver_uart.c ****             {
 785:libraries/zf_driver/zf_driver_uart.c ****                 uart_obj_list[uart_index].tx_interrupt = ZF_ENABLE;
 2114              		.loc 1 785 42
 2115 0142 9DF80730 		ldrb	r3, [sp, #7]	@ zero_extendqisi2
 2116              		.loc 1 785 56
 2117 0146 2D4A     		ldr	r2, .L144
 2118 0148 1B01     		lsls	r3, r3, #4
 2119 014a 1344     		add	r3, r3, r2
 2120 014c 03F10802 		add	r2, r3, #8
 2121 0150 9379     		ldrb	r3, [r2, #6]
 2122 0152 0121     		movs	r1, #1
 2123 0154 61F30713 		bfi	r3, r1, #4, #4
 2124 0158 9371     		strb	r3, [r2, #6]
 786:libraries/zf_driver/zf_driver_uart.c ****                 register_temp |= UART_CR1_TXEIE_TXFNFIE;
 2125              		.loc 1 786 31
 2126 015a 029B     		ldr	r3, [sp, #8]
 2127 015c 43F08003 		orr	r3, r3, #128
 2128 0160 0293     		str	r3, [sp, #8]
 787:libraries/zf_driver/zf_driver_uart.c ****             }break;
 2129              		.loc 1 787 13
 2130 0162 2DE0     		b	.L134
 2131              	.L137:
 788:libraries/zf_driver/zf_driver_uart.c ****             case UART_INTERRUPT_CONFIG_RX_ENABLE:
 789:libraries/zf_driver/zf_driver_uart.c ****             {
 790:libraries/zf_driver/zf_driver_uart.c ****                 uart_obj_list[uart_index].rx_interrupt = ZF_ENABLE;
 2132              		.loc 1 790 42
 2133 0164 9DF80730 		ldrb	r3, [sp, #7]	@ zero_extendqisi2
 2134              		.loc 1 790 56
 2135 0168 244A     		ldr	r2, .L144
 2136 016a 1B01     		lsls	r3, r3, #4
 2137 016c 1344     		add	r3, r3, r2
 2138 016e 03F10802 		add	r2, r3, #8
 2139 0172 D379     		ldrb	r3, [r2, #7]
 2140 0174 0121     		movs	r1, #1
 2141 0176 61F30303 		bfi	r3, r1, #0, #4
 2142 017a D371     		strb	r3, [r2, #7]
 791:libraries/zf_driver/zf_driver_uart.c ****                 register_temp |= UART_CR1_RXNEIE_RXFNEIE;
 2143              		.loc 1 791 31
 2144 017c 029B     		ldr	r3, [sp, #8]
 2145 017e 43F02003 		orr	r3, r3, #32
 2146 0182 0293     		str	r3, [sp, #8]
 792:libraries/zf_driver/zf_driver_uart.c ****             }break;
 2147              		.loc 1 792 13
 2148 0184 1CE0     		b	.L134
 2149              	.L135:
 793:libraries/zf_driver/zf_driver_uart.c ****             case UART_INTERRUPT_CONFIG_ALL_ENABLE:
 794:libraries/zf_driver/zf_driver_uart.c ****             {
 795:libraries/zf_driver/zf_driver_uart.c ****                 uart_obj_list[uart_index].tx_interrupt = ZF_ENABLE;
 2150              		.loc 1 795 42
 2151 0186 9DF80730 		ldrb	r3, [sp, #7]	@ zero_extendqisi2
 2152              		.loc 1 795 56
 2153 018a 1C4A     		ldr	r2, .L144
 2154 018c 1B01     		lsls	r3, r3, #4
 2155 018e 1344     		add	r3, r3, r2
 2156 0190 03F10802 		add	r2, r3, #8
 2157 0194 9379     		ldrb	r3, [r2, #6]
 2158 0196 0121     		movs	r1, #1
 2159 0198 61F30713 		bfi	r3, r1, #4, #4
 2160 019c 9371     		strb	r3, [r2, #6]
 796:libraries/zf_driver/zf_driver_uart.c ****                 uart_obj_list[uart_index].rx_interrupt = ZF_ENABLE;
 2161              		.loc 1 796 42
 2162 019e 9DF80730 		ldrb	r3, [sp, #7]	@ zero_extendqisi2
 2163              		.loc 1 796 56
 2164 01a2 164A     		ldr	r2, .L144
 2165 01a4 1B01     		lsls	r3, r3, #4
 2166 01a6 1344     		add	r3, r3, r2
 2167 01a8 03F10802 		add	r2, r3, #8
 2168 01ac D379     		ldrb	r3, [r2, #7]
 2169 01ae 0121     		movs	r1, #1
 2170 01b0 61F30303 		bfi	r3, r1, #0, #4
 2171 01b4 D371     		strb	r3, [r2, #7]
 797:libraries/zf_driver/zf_driver_uart.c ****                 register_temp |= (UART_CR1_TXEIE_TXFNFIE |UART_CR1_RXNEIE_RXFNEIE);
 2172              		.loc 1 797 31
 2173 01b6 029B     		ldr	r3, [sp, #8]
 2174 01b8 43F0A003 		orr	r3, r3, #160
 2175 01bc 0293     		str	r3, [sp, #8]
 798:libraries/zf_driver/zf_driver_uart.c ****             }break;
 2176              		.loc 1 798 13
 2177 01be 00BF     		nop
 2178              	.L134:
 799:libraries/zf_driver/zf_driver_uart.c ****         }
 800:libraries/zf_driver/zf_driver_uart.c ****         uart_obj_list[uart_index].uart_ptr->CR1 = register_temp;
 2179              		.loc 1 800 34
 2180 01c0 9DF80730 		ldrb	r3, [sp, #7]	@ zero_extendqisi2
 2181 01c4 0D4A     		ldr	r2, .L144
 2182 01c6 1B01     		lsls	r3, r3, #4
 2183 01c8 1344     		add	r3, r3, r2
 2184 01ca 0433     		adds	r3, r3, #4
 2185 01cc 1B68     		ldr	r3, [r3]
 2186              		.loc 1 800 49
 2187 01ce 029A     		ldr	r2, [sp, #8]
 2188 01d0 1A60     		str	r2, [r3]
 801:libraries/zf_driver/zf_driver_uart.c ****         if((UART_CR1_TXEIE_TXFNFIE | UART_CR1_RXNEIE_RXFNEIE) & register_temp)
 2189              		.loc 1 801 63
 2190 01d2 029B     		ldr	r3, [sp, #8]
 2191 01d4 03F0A003 		and	r3, r3, #160
 2192              		.loc 1 801 11
 2193 01d8 002B     		cmp	r3, #0
 2194 01da 06D0     		beq	.L142
 802:libraries/zf_driver/zf_driver_uart.c ****         {
 803:libraries/zf_driver/zf_driver_uart.c ****         	zf_interrupt_enable(uart_irq_index_list[uart_index]);
 2195              		.loc 1 803 10
 2196 01dc 9DF80730 		ldrb	r3, [sp, #7]	@ zero_extendqisi2
 2197 01e0 0A4A     		ldr	r2, .L144+16
 2198 01e2 D35C     		ldrb	r3, [r2, r3]	@ zero_extendqisi2
 2199 01e4 1846     		mov	r0, r3
 2200 01e6 FFF7FEFF 		bl	zf_interrupt_enable
 2201              	.L142:
 804:libraries/zf_driver/zf_driver_uart.c ****         }
 805:libraries/zf_driver/zf_driver_uart.c **** 
 806:libraries/zf_driver/zf_driver_uart.c ****         return_state = UART_OPERATION_DONE;
 2202              		.loc 1 806 22
 2203 01ea 0023     		movs	r3, #0
 2204 01ec 8DF80F30 		strb	r3, [sp, #15]
 2205              	.L131:
 2206              	.LBE25:
 807:libraries/zf_driver/zf_driver_uart.c ****     }while(0);
 808:libraries/zf_driver/zf_driver_uart.c **** 
 809:libraries/zf_driver/zf_driver_uart.c ****     return return_state;
 2207              		.loc 1 809 12
 2208 01f0 9DF80F30 		ldrb	r3, [sp, #15]	@ zero_extendqisi2
 810:libraries/zf_driver/zf_driver_uart.c **** }
 2209              		.loc 1 810 1
 2210 01f4 1846     		mov	r0, r3
 2211 01f6 05B0     		add	sp, sp, #20
 2212              		.cfi_def_cfa_offset 4
 2213              		@ sp needed
 2214 01f8 5DF804FB 		ldr	pc, [sp], #4
 2215              	.L145:
 2216              		.align	2
 2217              	.L144:
 2218 01fc 00000000 		.word	uart_obj_list
 2219 0200 00000000 		.word	.LC0
 2220 0204 00000000 		.word	uart_callback
 2221 0208 00000000 		.word	zf_uart_callbakc_defalut
 2222 020c 00000000 		.word	uart_irq_index_list
 2223              		.cfi_endproc
 2224              	.LFE198:
 2226              		.section	.text.zf_uart_set_interrupt_priority,"ax",%progbits
 2227              		.align	1
 2228              		.p2align 4,,15
 2229              		.global	zf_uart_set_interrupt_priority
 2230              		.syntax unified
 2231              		.thumb
 2232              		.thumb_func
 2234              	zf_uart_set_interrupt_priority:
 2235              	.LFB199:
 811:libraries/zf_driver/zf_driver_uart.c **** 
 812:libraries/zf_driver/zf_driver_uart.c **** //-------------------------------------------------------------------------------------------------
 813:libraries/zf_driver/zf_driver_uart.c **** // ÂáΩÊï∞ÁÆÄ‰ªã     UART ‰∏≠Êñ≠ËÆæÁΩÆ‰ºòÂÖàÁ∫ß
 814:libraries/zf_driver/zf_driver_uart.c **** // ÂèÇÊï∞ËØ¥Êòé     uart_index          UART Ê®°ÂùóÂè∑     (ËØ¶ËßÅ zf_driver_uart.h ÂÜÖ zf_uart_ind
 815:libraries/zf_driver/zf_driver_uart.c **** // ÂèÇÊï∞ËØ¥Êòé     priority            ‰∏≠Êñ≠‰ºòÂÖàÁ∫ß
 816:libraries/zf_driver/zf_driver_uart.c **** // ËøîÂõûÂèÇÊï∞     void
 817:libraries/zf_driver/zf_driver_uart.c **** // ‰ΩøÁî®Á§∫‰æã     zf_uart_set_interrupt_priority(uart_index, priority);
 818:libraries/zf_driver/zf_driver_uart.c **** // Â§áÊ≥®‰ø°ÊÅØ     
 819:libraries/zf_driver/zf_driver_uart.c **** //-------------------------------------------------------------------------------------------------
 820:libraries/zf_driver/zf_driver_uart.c **** void zf_uart_set_interrupt_priority (zf_uart_index_enum uart_index, uint8 priority)
 821:libraries/zf_driver/zf_driver_uart.c **** {
 2236              		.loc 1 821 1
 2237              		.cfi_startproc
 2238              		@ args = 0, pretend = 0, frame = 8
 2239              		@ frame_needed = 0, uses_anonymous_args = 0
 2240 0000 00B5     		push	{lr}
 2241              		.cfi_def_cfa_offset 4
 2242              		.cfi_offset 14, -4
 2243 0002 83B0     		sub	sp, sp, #12
 2244              		.cfi_def_cfa_offset 16
 2245 0004 0346     		mov	r3, r0
 2246 0006 0A46     		mov	r2, r1
 2247 0008 8DF80730 		strb	r3, [sp, #7]
 2248 000c 1346     		mov	r3, r2
 2249 000e 8DF80630 		strb	r3, [sp, #6]
 822:libraries/zf_driver/zf_driver_uart.c **** 	zf_interrupt_set_priority(uart_irq_index_list[uart_index], priority);
 2250              		.loc 1 822 2
 2251 0012 9DF80730 		ldrb	r3, [sp, #7]	@ zero_extendqisi2
 2252 0016 064A     		ldr	r2, .L147
 2253 0018 D35C     		ldrb	r3, [r2, r3]	@ zero_extendqisi2
 2254 001a 9DF80620 		ldrb	r2, [sp, #6]	@ zero_extendqisi2
 2255 001e 1146     		mov	r1, r2
 2256 0020 1846     		mov	r0, r3
 2257 0022 FFF7FEFF 		bl	zf_interrupt_set_priority
 823:libraries/zf_driver/zf_driver_uart.c **** }
 2258              		.loc 1 823 1
 2259 0026 00BF     		nop
 2260 0028 03B0     		add	sp, sp, #12
 2261              		.cfi_def_cfa_offset 4
 2262              		@ sp needed
 2263 002a 5DF804FB 		ldr	pc, [sp], #4
 2264              	.L148:
 2265 002e 00BF     		.align	2
 2266              	.L147:
 2267 0030 00000000 		.word	uart_irq_index_list
 2268              		.cfi_endproc
 2269              	.LFE199:
 2271              		.section	.text.zf_uart_set_config,"ax",%progbits
 2272              		.align	1
 2273              		.p2align 4,,15
 2274              		.global	zf_uart_set_config
 2275              		.syntax unified
 2276              		.thumb
 2277              		.thumb_func
 2279              	zf_uart_set_config:
 2280              	.LFB200:
 824:libraries/zf_driver/zf_driver_uart.c **** 
 825:libraries/zf_driver/zf_driver_uart.c **** //-------------------------------------------------------------------------------------------------
 826:libraries/zf_driver/zf_driver_uart.c **** // ÂáΩÊï∞ÁÆÄ‰ªã     UART ÈÖçÁΩÆËÆæÁΩÆ
 827:libraries/zf_driver/zf_driver_uart.c **** // ÂèÇÊï∞ËØ¥Êòé     uart_index          UART Ê®°ÂùóÂè∑     (ËØ¶ËßÅ zf_driver_uart.h ÂÜÖ zf_uart_ind
 828:libraries/zf_driver/zf_driver_uart.c **** // ÂèÇÊï∞ËØ¥Êòé     item                UART ÈÖçÁΩÆ       (ËØ¶ËßÅ zf_driver_uart.h ÂÜÖ zf_uart_conf
 829:libraries/zf_driver/zf_driver_uart.c **** // ËøîÂõûÂèÇÊï∞     uint8               Êìç‰ΩúÁä∂ÊÄÅ ZF_NO_ERROR / UART_OPERATION_DONE - ÂÆåÊàê ÂÖ∂
 830:libraries/zf_driver/zf_driver_uart.c **** // ‰ΩøÁî®Á§∫‰æã     zf_uart_set_config(uart_index, item);
 831:libraries/zf_driver/zf_driver_uart.c **** // Â§áÊ≥®‰ø°ÊÅØ     
 832:libraries/zf_driver/zf_driver_uart.c **** //-------------------------------------------------------------------------------------------------
 833:libraries/zf_driver/zf_driver_uart.c **** uint8 zf_uart_set_config (zf_uart_index_enum uart_index, zf_uart_config_item_enum item)
 834:libraries/zf_driver/zf_driver_uart.c **** {
 2281              		.loc 1 834 1
 2282              		.cfi_startproc
 2283              		@ args = 0, pretend = 0, frame = 24
 2284              		@ frame_needed = 0, uses_anonymous_args = 0
 2285 0000 00B5     		push	{lr}
 2286              		.cfi_def_cfa_offset 4
 2287              		.cfi_offset 14, -4
 2288 0002 87B0     		sub	sp, sp, #28
 2289              		.cfi_def_cfa_offset 32
 2290 0004 0346     		mov	r3, r0
 2291 0006 0A46     		mov	r2, r1
 2292 0008 8DF80730 		strb	r3, [sp, #7]
 2293 000c 1346     		mov	r3, r2
 2294 000e 8DF80630 		strb	r3, [sp, #6]
 835:libraries/zf_driver/zf_driver_uart.c ****     zf_uart_operation_state_enum    return_state    =   UART_ERROR_UNKNOW;
 2295              		.loc 1 835 37
 2296 0012 0123     		movs	r3, #1
 2297 0014 8DF81730 		strb	r3, [sp, #23]
 2298              	.LBB26:
 836:libraries/zf_driver/zf_driver_uart.c **** 
 837:libraries/zf_driver/zf_driver_uart.c ****     do
 838:libraries/zf_driver/zf_driver_uart.c ****     {
 839:libraries/zf_driver/zf_driver_uart.c ****         if(zf_uart_assert(uart_obj_list[uart_index].baudrate))                  // Ê£ÄÊü• Ê®°ÂùóÂàù
 2299              		.loc 1 839 12
 2300 0018 9DF80730 		ldrb	r3, [sp, #7]	@ zero_extendqisi2
 2301 001c A54A     		ldr	r2, .L186
 2302 001e 1B01     		lsls	r3, r3, #4
 2303 0020 1344     		add	r3, r3, r2
 2304 0022 1B68     		ldr	r3, [r3]
 2305              		.loc 1 839 11
 2306 0024 002B     		cmp	r3, #0
 2307 0026 0CD1     		bne	.L150
 2308              		.loc 1 839 12 discriminator 1
 2309 0028 0022     		movs	r2, #0
 2310 002a 40F24731 		movw	r1, #839
 2311 002e A248     		ldr	r0, .L186+4
 2312 0030 FFF7FEFF 		bl	zf_uart_assert_handler
 2313 0034 0346     		mov	r3, r0
 2314 0036 002B     		cmp	r3, #0
 2315 0038 03D0     		beq	.L150
 840:libraries/zf_driver/zf_driver_uart.c ****         {
 841:libraries/zf_driver/zf_driver_uart.c ****             // Ê≠§Â§ÑÂ¶ÇÊûúÊñ≠Ë®ÄÊä•Èîô ÈÇ£‰πàËØÅÊòéÊú¨Ê®°ÂùóÊ≤°ÊúâÂàùÂßãÂåñËøá ÊòØ‰∏çÂÖÅËÆ∏Áõ¥Êé•Ê
 842:libraries/zf_driver/zf_driver_uart.c ****             // Êú™ÂàùÂßãÂåñÊ®°ÂùóÂæàÂèØËÉΩÊ≤°ÊúâÂºÄÂêØÊ®°ÂùóÊó∂ÈíüÊàñËÄÖÊ≤°Êúâ‰ΩøËÉΩÊ®°Âùó
 843:libraries/zf_driver/zf_driver_uart.c ****             // ÂØπ‰∫éÈÉ®ÂàÜÂçïÁâáÊú∫Ê≤°Êúâ‰ΩøËÉΩÊ®°ÂùóÁõ¥Êé•Êìç‰Ωú‰ºöÂØºËá¥ÊÄªÁ∫øÂºÇÂ∏∏ÊàñËÄÖÁ°¨‰ª∂
 844:libraries/zf_driver/zf_driver_uart.c ****             return_state = UART_ERROR_MODULE_NOT_INIT;                          // UART Ê®°ÂùóÊú™Âà
 2316              		.loc 1 844 26
 2317 003a 2123     		movs	r3, #33
 2318 003c 8DF81730 		strb	r3, [sp, #23]
 845:libraries/zf_driver/zf_driver_uart.c ****             break;
 2319              		.loc 1 845 13
 2320 0040 C8E1     		b	.L151
 2321              	.L150:
 846:libraries/zf_driver/zf_driver_uart.c ****         }
 847:libraries/zf_driver/zf_driver_uart.c **** 
 848:libraries/zf_driver/zf_driver_uart.c ****         uint8   enable  = (uart_obj_list[uart_index].uart_ptr->CR1 & UART_CR1_UE) ? (1) : (0);
 2322              		.loc 1 848 53
 2323 0042 9DF80730 		ldrb	r3, [sp, #7]	@ zero_extendqisi2
 2324 0046 9B4A     		ldr	r2, .L186
 2325 0048 1B01     		lsls	r3, r3, #4
 2326 004a 1344     		add	r3, r3, r2
 2327 004c 0433     		adds	r3, r3, #4
 2328 004e 1B68     		ldr	r3, [r3]
 2329              		.loc 1 848 62
 2330 0050 1B68     		ldr	r3, [r3]
 2331              		.loc 1 848 68
 2332 0052 03F00103 		and	r3, r3, #1
 2333              		.loc 1 848 89
 2334 0056 002B     		cmp	r3, #0
 2335 0058 14BF     		ite	ne
 2336 005a 0123     		movne	r3, #1
 2337 005c 0023     		moveq	r3, #0
 2338 005e DBB2     		uxtb	r3, r3
 2339              		.loc 1 848 17
 2340 0060 8DF80F30 		strb	r3, [sp, #15]
 849:libraries/zf_driver/zf_driver_uart.c ****         uint32  register_temp = 0;
 2341              		.loc 1 849 17
 2342 0064 0023     		movs	r3, #0
 2343 0066 0493     		str	r3, [sp, #16]
 850:libraries/zf_driver/zf_driver_uart.c **** 
 851:libraries/zf_driver/zf_driver_uart.c ****         zf_interrupt_disable(uart_irq_index_list[uart_index]);
 2344              		.loc 1 851 9
 2345 0068 9DF80730 		ldrb	r3, [sp, #7]	@ zero_extendqisi2
 2346 006c 934A     		ldr	r2, .L186+8
 2347 006e D35C     		ldrb	r3, [r2, r3]	@ zero_extendqisi2
 2348 0070 1846     		mov	r0, r3
 2349 0072 FFF7FEFF 		bl	zf_interrupt_disable
 852:libraries/zf_driver/zf_driver_uart.c ****         uart_obj_list[uart_index].uart_ptr->CR1 &= ~UART_CR1_UE;
 2350              		.loc 1 852 34
 2351 0076 9DF80730 		ldrb	r3, [sp, #7]	@ zero_extendqisi2
 2352 007a 8E4A     		ldr	r2, .L186
 2353 007c 1B01     		lsls	r3, r3, #4
 2354 007e 1344     		add	r3, r3, r2
 2355 0080 0433     		adds	r3, r3, #4
 2356 0082 1B68     		ldr	r3, [r3]
 2357              		.loc 1 852 49
 2358 0084 1A68     		ldr	r2, [r3]
 2359              		.loc 1 852 34
 2360 0086 9DF80730 		ldrb	r3, [sp, #7]	@ zero_extendqisi2
 2361 008a 8A49     		ldr	r1, .L186
 2362 008c 1B01     		lsls	r3, r3, #4
 2363 008e 0B44     		add	r3, r3, r1
 2364 0090 0433     		adds	r3, r3, #4
 2365 0092 1B68     		ldr	r3, [r3]
 2366              		.loc 1 852 49
 2367 0094 22F00102 		bic	r2, r2, #1
 2368 0098 1A60     		str	r2, [r3]
 853:libraries/zf_driver/zf_driver_uart.c **** 
 854:libraries/zf_driver/zf_driver_uart.c ****         switch((item >> UART_CONFIG_TYPE_OFFSET) & UART_CONFIG_TYPE_MASK)
 2369              		.loc 1 854 50
 2370 009a 9DF80630 		ldrb	r3, [sp, #6]	@ zero_extendqisi2
 2371 009e 1B09     		lsrs	r3, r3, #4
 2372 00a0 DBB2     		uxtb	r3, r3
 2373 00a2 03F00F03 		and	r3, r3, #15
 2374              		.loc 1 854 9
 2375 00a6 032B     		cmp	r3, #3
 2376 00a8 00F25181 		bhi	.L152
 2377 00ac 01A2     		adr	r2, .L154
 2378 00ae 52F823F0 		ldr	pc, [r2, r3, lsl #2]
 2379 00b2 00BF     		.p2align 2
 2380              	.L154:
 2381 00b4 C5000000 		.word	.L157+1
 2382 00b8 2D010000 		.word	.L156+1
 2383 00bc BB010000 		.word	.L155+1
 2384 00c0 C1020000 		.word	.L153+1
 2385              		.p2align 1
 2386              	.L157:
 855:libraries/zf_driver/zf_driver_uart.c ****         {
 856:libraries/zf_driver/zf_driver_uart.c ****             case UART_CONFIG_TYPE_DATA_WIDTH:
 857:libraries/zf_driver/zf_driver_uart.c ****             {
 858:libraries/zf_driver/zf_driver_uart.c ****                 uart_obj_list[uart_index].data_width = (item & UART_CONFIG_VALUE_MASK);
 2387              		.loc 1 858 42
 2388 00c4 9DF80730 		ldrb	r3, [sp, #7]	@ zero_extendqisi2
 2389              		.loc 1 858 62
 2390 00c8 9DF80620 		ldrb	r2, [sp, #6]
 2391 00cc 02F00F02 		and	r2, r2, #15
 2392 00d0 D1B2     		uxtb	r1, r2
 2393              		.loc 1 858 54
 2394 00d2 784A     		ldr	r2, .L186
 2395 00d4 1B01     		lsls	r3, r3, #4
 2396 00d6 1344     		add	r3, r3, r2
 2397 00d8 03F10802 		add	r2, r3, #8
 2398 00dc 1379     		ldrb	r3, [r2, #4]
 2399 00de 61F30713 		bfi	r3, r1, #4, #4
 2400 00e2 1371     		strb	r3, [r2, #4]
 859:libraries/zf_driver/zf_driver_uart.c ****                 register_temp = uart_obj_list[uart_index].uart_ptr->CR1;
 2401              		.loc 1 859 58
 2402 00e4 9DF80730 		ldrb	r3, [sp, #7]	@ zero_extendqisi2
 2403 00e8 724A     		ldr	r2, .L186
 2404 00ea 1B01     		lsls	r3, r3, #4
 2405 00ec 1344     		add	r3, r3, r2
 2406 00ee 0433     		adds	r3, r3, #4
 2407 00f0 1B68     		ldr	r3, [r3]
 2408              		.loc 1 859 31
 2409 00f2 1B68     		ldr	r3, [r3]
 2410 00f4 0493     		str	r3, [sp, #16]
 860:libraries/zf_driver/zf_driver_uart.c ****                 register_temp &= ~0x10001000;
 2411              		.loc 1 860 31
 2412 00f6 049B     		ldr	r3, [sp, #16]
 2413 00f8 23F01023 		bic	r3, r3, #268439552
 2414 00fc 0493     		str	r3, [sp, #16]
 861:libraries/zf_driver/zf_driver_uart.c ****                 switch(item & UART_CONFIG_VALUE_MASK)
 2415              		.loc 1 861 29
 2416 00fe 9DF80630 		ldrb	r3, [sp, #6]	@ zero_extendqisi2
 2417 0102 03F00F03 		and	r3, r3, #15
 2418 0106 002B     		cmp	r3, #0
 2419 0108 01D0     		beq	.L158
 2420 010a 012B     		cmp	r3, #1
 862:libraries/zf_driver/zf_driver_uart.c ****                 {
 863:libraries/zf_driver/zf_driver_uart.c ****                     case UART_DATA_WIDTH_7BIT   :   register_temp |= 0x10000000;    break;
 864:libraries/zf_driver/zf_driver_uart.c ****                     case UART_DATA_WIDTH_8BIT   :                                   break;
 2421              		.loc 1 864 21
 2422 010c 04E0     		b	.L160
 2423              	.L158:
 863:libraries/zf_driver/zf_driver_uart.c ****                     case UART_DATA_WIDTH_8BIT   :                                   break;
 2424              		.loc 1 863 67
 2425 010e 049B     		ldr	r3, [sp, #16]
 2426 0110 43F08053 		orr	r3, r3, #268435456
 2427 0114 0493     		str	r3, [sp, #16]
 863:libraries/zf_driver/zf_driver_uart.c ****                     case UART_DATA_WIDTH_8BIT   :                                   break;
 2428              		.loc 1 863 21
 2429 0116 00BF     		nop
 2430              	.L160:
 865:libraries/zf_driver/zf_driver_uart.c ****                 }
 866:libraries/zf_driver/zf_driver_uart.c ****                 uart_obj_list[uart_index].uart_ptr->CR1 = register_temp;
 2431              		.loc 1 866 42
 2432 0118 9DF80730 		ldrb	r3, [sp, #7]	@ zero_extendqisi2
 2433 011c 654A     		ldr	r2, .L186
 2434 011e 1B01     		lsls	r3, r3, #4
 2435 0120 1344     		add	r3, r3, r2
 2436 0122 0433     		adds	r3, r3, #4
 2437 0124 1B68     		ldr	r3, [r3]
 2438              		.loc 1 866 57
 2439 0126 049A     		ldr	r2, [sp, #16]
 2440 0128 1A60     		str	r2, [r3]
 867:libraries/zf_driver/zf_driver_uart.c ****             }break;
 2441              		.loc 1 867 13
 2442 012a 10E1     		b	.L152
 2443              	.L156:
 868:libraries/zf_driver/zf_driver_uart.c ****             case UART_CONFIG_TYPE_STOP_WIDTH:
 869:libraries/zf_driver/zf_driver_uart.c ****             {
 870:libraries/zf_driver/zf_driver_uart.c ****                 uart_obj_list[uart_index].stop_width = (item & UART_CONFIG_VALUE_MASK);
 2444              		.loc 1 870 42
 2445 012c 9DF80730 		ldrb	r3, [sp, #7]	@ zero_extendqisi2
 2446              		.loc 1 870 62
 2447 0130 9DF80620 		ldrb	r2, [sp, #6]
 2448 0134 02F00F02 		and	r2, r2, #15
 2449 0138 D1B2     		uxtb	r1, r2
 2450              		.loc 1 870 54
 2451 013a 5E4A     		ldr	r2, .L186
 2452 013c 1B01     		lsls	r3, r3, #4
 2453 013e 1344     		add	r3, r3, r2
 2454 0140 03F10802 		add	r2, r3, #8
 2455 0144 5379     		ldrb	r3, [r2, #5]
 2456 0146 61F30303 		bfi	r3, r1, #0, #4
 2457 014a 5371     		strb	r3, [r2, #5]
 871:libraries/zf_driver/zf_driver_uart.c ****                 register_temp = uart_obj_list[uart_index].uart_ptr->CR2;
 2458              		.loc 1 871 58
 2459 014c 9DF80730 		ldrb	r3, [sp, #7]	@ zero_extendqisi2
 2460 0150 584A     		ldr	r2, .L186
 2461 0152 1B01     		lsls	r3, r3, #4
 2462 0154 1344     		add	r3, r3, r2
 2463 0156 0433     		adds	r3, r3, #4
 2464 0158 1B68     		ldr	r3, [r3]
 2465              		.loc 1 871 31
 2466 015a 5B68     		ldr	r3, [r3, #4]
 2467 015c 0493     		str	r3, [sp, #16]
 872:libraries/zf_driver/zf_driver_uart.c ****                 register_temp &= ~0x00003000;
 2468              		.loc 1 872 31
 2469 015e 049B     		ldr	r3, [sp, #16]
 2470 0160 23F44053 		bic	r3, r3, #12288
 2471 0164 0493     		str	r3, [sp, #16]
 873:libraries/zf_driver/zf_driver_uart.c ****                 switch(item & UART_CONFIG_VALUE_MASK)
 2472              		.loc 1 873 29
 2473 0166 9DF80630 		ldrb	r3, [sp, #6]	@ zero_extendqisi2
 2474 016a 03F00F03 		and	r3, r3, #15
 2475 016e 032B     		cmp	r3, #3
 2476 0170 19D8     		bhi	.L161
 2477 0172 01A2     		adr	r2, .L163
 2478 0174 52F823F0 		ldr	pc, [r2, r3, lsl #2]
 2479              		.p2align 2
 2480              	.L163:
 2481 0178 89010000 		.word	.L166+1
 2482 017c A7010000 		.word	.L161+1
 2483 0180 93010000 		.word	.L164+1
 2484 0184 9D010000 		.word	.L162+1
 2485              		.p2align 1
 2486              	.L166:
 874:libraries/zf_driver/zf_driver_uart.c ****                 {
 875:libraries/zf_driver/zf_driver_uart.c ****                     case UART_STOP_WIDTH_0BIT_5 :   register_temp |= 0x00001000;    break;
 2487              		.loc 1 875 67
 2488 0188 049B     		ldr	r3, [sp, #16]
 2489 018a 43F48053 		orr	r3, r3, #4096
 2490 018e 0493     		str	r3, [sp, #16]
 2491              		.loc 1 875 21
 2492 0190 09E0     		b	.L161
 2493              	.L164:
 876:libraries/zf_driver/zf_driver_uart.c ****                     case UART_STOP_WIDTH_1BIT   :                                   break;
 877:libraries/zf_driver/zf_driver_uart.c ****                     case UART_STOP_WIDTH_1BIT_5 :   register_temp |= 0x00003000;    break;
 2494              		.loc 1 877 67
 2495 0192 049B     		ldr	r3, [sp, #16]
 2496 0194 43F44053 		orr	r3, r3, #12288
 2497 0198 0493     		str	r3, [sp, #16]
 2498              		.loc 1 877 21
 2499 019a 04E0     		b	.L161
 2500              	.L162:
 878:libraries/zf_driver/zf_driver_uart.c ****                     case UART_STOP_WIDTH_2BIT   :   register_temp |= 0x00002000;    break;
 2501              		.loc 1 878 67
 2502 019c 049B     		ldr	r3, [sp, #16]
 2503 019e 43F40053 		orr	r3, r3, #8192
 2504 01a2 0493     		str	r3, [sp, #16]
 2505              		.loc 1 878 21
 2506 01a4 00BF     		nop
 2507              	.L161:
 879:libraries/zf_driver/zf_driver_uart.c ****                 }
 880:libraries/zf_driver/zf_driver_uart.c ****                 uart_obj_list[uart_index].uart_ptr->CR2 = register_temp;
 2508              		.loc 1 880 42
 2509 01a6 9DF80730 		ldrb	r3, [sp, #7]	@ zero_extendqisi2
 2510 01aa 424A     		ldr	r2, .L186
 2511 01ac 1B01     		lsls	r3, r3, #4
 2512 01ae 1344     		add	r3, r3, r2
 2513 01b0 0433     		adds	r3, r3, #4
 2514 01b2 1B68     		ldr	r3, [r3]
 2515              		.loc 1 880 57
 2516 01b4 049A     		ldr	r2, [sp, #16]
 2517 01b6 5A60     		str	r2, [r3, #4]
 881:libraries/zf_driver/zf_driver_uart.c ****             }break;
 2518              		.loc 1 881 13
 2519 01b8 C9E0     		b	.L152
 2520              	.L155:
 882:libraries/zf_driver/zf_driver_uart.c ****             case UART_CONFIG_TYPE_PARITY_MODE:
 883:libraries/zf_driver/zf_driver_uart.c ****             {
 884:libraries/zf_driver/zf_driver_uart.c ****                 uart_obj_list[uart_index].parity = (item & UART_CONFIG_VALUE_MASK);
 2521              		.loc 1 884 42
 2522 01ba 9DF80730 		ldrb	r3, [sp, #7]	@ zero_extendqisi2
 2523              		.loc 1 884 58
 2524 01be 9DF80620 		ldrb	r2, [sp, #6]
 2525 01c2 02F00F02 		and	r2, r2, #15
 2526 01c6 D1B2     		uxtb	r1, r2
 2527              		.loc 1 884 50
 2528 01c8 3A4A     		ldr	r2, .L186
 2529 01ca 1B01     		lsls	r3, r3, #4
 2530 01cc 1344     		add	r3, r3, r2
 2531 01ce 03F10802 		add	r2, r3, #8
 2532 01d2 5379     		ldrb	r3, [r2, #5]
 2533 01d4 61F30713 		bfi	r3, r1, #4, #4
 2534 01d8 5371     		strb	r3, [r2, #5]
 885:libraries/zf_driver/zf_driver_uart.c ****                 register_temp = uart_obj_list[uart_index].uart_ptr->CR1;
 2535              		.loc 1 885 58
 2536 01da 9DF80730 		ldrb	r3, [sp, #7]	@ zero_extendqisi2
 2537 01de 354A     		ldr	r2, .L186
 2538 01e0 1B01     		lsls	r3, r3, #4
 2539 01e2 1344     		add	r3, r3, r2
 2540 01e4 0433     		adds	r3, r3, #4
 2541 01e6 1B68     		ldr	r3, [r3]
 2542              		.loc 1 885 31
 2543 01e8 1B68     		ldr	r3, [r3]
 2544 01ea 0493     		str	r3, [sp, #16]
 886:libraries/zf_driver/zf_driver_uart.c ****                 register_temp &= ~0x00000600;
 2545              		.loc 1 886 31
 2546 01ec 049B     		ldr	r3, [sp, #16]
 2547 01ee 23F4C063 		bic	r3, r3, #1536
 2548 01f2 0493     		str	r3, [sp, #16]
 887:libraries/zf_driver/zf_driver_uart.c ****                 switch(item & UART_CONFIG_VALUE_MASK)
 2549              		.loc 1 887 29
 2550 01f4 9DF80630 		ldrb	r3, [sp, #6]	@ zero_extendqisi2
 2551 01f8 03F00F03 		and	r3, r3, #15
 2552 01fc 022B     		cmp	r3, #2
 2553 01fe 34D0     		beq	.L167
 2554 0200 022B     		cmp	r3, #2
 2555 0202 4CDC     		bgt	.L168
 2556 0204 002B     		cmp	r3, #0
 2557 0206 02D0     		beq	.L169
 2558 0208 012B     		cmp	r3, #1
 2559 020a 15D0     		beq	.L170
 2560 020c 47E0     		b	.L168
 2561              	.L169:
 888:libraries/zf_driver/zf_driver_uart.c ****                 {
 889:libraries/zf_driver/zf_driver_uart.c ****                     case UART_PARITY_MODE_NONE  :
 890:libraries/zf_driver/zf_driver_uart.c ****                     {
 891:libraries/zf_driver/zf_driver_uart.c ****                         register_temp &= ~0x10001000;
 2562              		.loc 1 891 39
 2563 020e 049B     		ldr	r3, [sp, #16]
 2564 0210 23F01023 		bic	r3, r3, #268439552
 2565 0214 0493     		str	r3, [sp, #16]
 892:libraries/zf_driver/zf_driver_uart.c ****                         if(UART_DATA_WIDTH_7BIT == uart_obj_list[uart_index].data_width)
 2566              		.loc 1 892 77
 2567 0216 9DF80730 		ldrb	r3, [sp, #7]	@ zero_extendqisi2
 2568 021a 264A     		ldr	r2, .L186
 2569 021c 1B01     		lsls	r3, r3, #4
 2570 021e 1344     		add	r3, r3, r2
 2571 0220 0833     		adds	r3, r3, #8
 2572 0222 1B79     		ldrb	r3, [r3, #4]
 2573 0224 C3F30313 		ubfx	r3, r3, #4, #4
 2574 0228 DBB2     		uxtb	r3, r3
 2575              		.loc 1 892 27
 2576 022a 002B     		cmp	r3, #0
 2577 022c 36D1     		bne	.L185
 893:libraries/zf_driver/zf_driver_uart.c ****                         {
 894:libraries/zf_driver/zf_driver_uart.c ****                             register_temp |= 0x10000000;
 2578              		.loc 1 894 43
 2579 022e 049B     		ldr	r3, [sp, #16]
 2580 0230 43F08053 		orr	r3, r3, #268435456
 2581 0234 0493     		str	r3, [sp, #16]
 895:libraries/zf_driver/zf_driver_uart.c ****                         }
 896:libraries/zf_driver/zf_driver_uart.c ****                     }break;
 2582              		.loc 1 896 21
 2583 0236 31E0     		b	.L185
 2584              	.L170:
 897:libraries/zf_driver/zf_driver_uart.c ****                     case UART_PARITY_MODE_EVEN  :
 898:libraries/zf_driver/zf_driver_uart.c ****                     {
 899:libraries/zf_driver/zf_driver_uart.c ****                         register_temp &= ~0x10001000;
 2585              		.loc 1 899 39
 2586 0238 049B     		ldr	r3, [sp, #16]
 2587 023a 23F01023 		bic	r3, r3, #268439552
 2588 023e 0493     		str	r3, [sp, #16]
 900:libraries/zf_driver/zf_driver_uart.c ****                         if(UART_DATA_WIDTH_8BIT == uart_obj_list[uart_index].data_width)
 2589              		.loc 1 900 77
 2590 0240 9DF80730 		ldrb	r3, [sp, #7]	@ zero_extendqisi2
 2591 0244 1B4A     		ldr	r2, .L186
 2592 0246 1B01     		lsls	r3, r3, #4
 2593 0248 1344     		add	r3, r3, r2
 2594 024a 0833     		adds	r3, r3, #8
 2595 024c 1B79     		ldrb	r3, [r3, #4]
 2596 024e C3F30313 		ubfx	r3, r3, #4, #4
 2597 0252 DBB2     		uxtb	r3, r3
 2598              		.loc 1 900 27
 2599 0254 012B     		cmp	r3, #1
 2600 0256 03D1     		bne	.L172
 901:libraries/zf_driver/zf_driver_uart.c ****                         {
 902:libraries/zf_driver/zf_driver_uart.c ****                             register_temp |= 0x00001000;
 2601              		.loc 1 902 43
 2602 0258 049B     		ldr	r3, [sp, #16]
 2603 025a 43F48053 		orr	r3, r3, #4096
 2604 025e 0493     		str	r3, [sp, #16]
 2605              	.L172:
 903:libraries/zf_driver/zf_driver_uart.c ****                         }
 904:libraries/zf_driver/zf_driver_uart.c ****                         register_temp |= 0x00000400;
 2606              		.loc 1 904 39
 2607 0260 049B     		ldr	r3, [sp, #16]
 2608 0262 43F48063 		orr	r3, r3, #1024
 2609 0266 0493     		str	r3, [sp, #16]
 905:libraries/zf_driver/zf_driver_uart.c ****                     }break;
 2610              		.loc 1 905 21
 2611 0268 19E0     		b	.L168
 2612              	.L167:
 906:libraries/zf_driver/zf_driver_uart.c ****                     case UART_PARITY_MODE_ODD   :
 907:libraries/zf_driver/zf_driver_uart.c ****                     {
 908:libraries/zf_driver/zf_driver_uart.c ****                         register_temp &= ~0x10001000;
 2613              		.loc 1 908 39
 2614 026a 049B     		ldr	r3, [sp, #16]
 2615 026c 23F01023 		bic	r3, r3, #268439552
 2616 0270 0493     		str	r3, [sp, #16]
 909:libraries/zf_driver/zf_driver_uart.c ****                         if(UART_DATA_WIDTH_8BIT == uart_obj_list[uart_index].data_width)
 2617              		.loc 1 909 77
 2618 0272 9DF80730 		ldrb	r3, [sp, #7]	@ zero_extendqisi2
 2619 0276 0F4A     		ldr	r2, .L186
 2620 0278 1B01     		lsls	r3, r3, #4
 2621 027a 1344     		add	r3, r3, r2
 2622 027c 0833     		adds	r3, r3, #8
 2623 027e 1B79     		ldrb	r3, [r3, #4]
 2624 0280 C3F30313 		ubfx	r3, r3, #4, #4
 2625 0284 DBB2     		uxtb	r3, r3
 2626              		.loc 1 909 27
 2627 0286 012B     		cmp	r3, #1
 2628 0288 03D1     		bne	.L173
 910:libraries/zf_driver/zf_driver_uart.c ****                         {
 911:libraries/zf_driver/zf_driver_uart.c ****                             register_temp |= 0x00001000;
 2629              		.loc 1 911 43
 2630 028a 049B     		ldr	r3, [sp, #16]
 2631 028c 43F48053 		orr	r3, r3, #4096
 2632 0290 0493     		str	r3, [sp, #16]
 2633              	.L173:
 912:libraries/zf_driver/zf_driver_uart.c ****                         }
 913:libraries/zf_driver/zf_driver_uart.c ****                         register_temp |= 0x00000600;
 2634              		.loc 1 913 39
 2635 0292 049B     		ldr	r3, [sp, #16]
 2636 0294 43F4C063 		orr	r3, r3, #1536
 2637 0298 0493     		str	r3, [sp, #16]
 914:libraries/zf_driver/zf_driver_uart.c ****                     }break;
 2638              		.loc 1 914 21
 2639 029a 00E0     		b	.L168
 2640              	.L185:
 896:libraries/zf_driver/zf_driver_uart.c ****                     case UART_PARITY_MODE_EVEN  :
 2641              		.loc 1 896 21
 2642 029c 00BF     		nop
 2643              	.L168:
 915:libraries/zf_driver/zf_driver_uart.c ****                 }
 916:libraries/zf_driver/zf_driver_uart.c ****                 uart_obj_list[uart_index].uart_ptr->CR1 = register_temp;
 2644              		.loc 1 916 42
 2645 029e 9DF80730 		ldrb	r3, [sp, #7]	@ zero_extendqisi2
 2646 02a2 044A     		ldr	r2, .L186
 2647 02a4 1B01     		lsls	r3, r3, #4
 2648 02a6 1344     		add	r3, r3, r2
 2649 02a8 0433     		adds	r3, r3, #4
 2650 02aa 1B68     		ldr	r3, [r3]
 2651              		.loc 1 916 57
 2652 02ac 049A     		ldr	r2, [sp, #16]
 2653 02ae 1A60     		str	r2, [r3]
 917:libraries/zf_driver/zf_driver_uart.c ****             }break;
 2654              		.loc 1 917 13
 2655 02b0 4DE0     		b	.L152
 2656              	.L187:
 2657 02b2 00BF     		.align	2
 2658              	.L186:
 2659 02b4 00000000 		.word	uart_obj_list
 2660 02b8 00000000 		.word	.LC0
 2661 02bc 00000000 		.word	uart_irq_index_list
 2662              	.L153:
 918:libraries/zf_driver/zf_driver_uart.c ****             case UART_CONFIG_TYPE_HWCONTROL_MODE:
 919:libraries/zf_driver/zf_driver_uart.c ****             {
 920:libraries/zf_driver/zf_driver_uart.c ****                 uart_obj_list[uart_index].hwcontrol = (item & UART_CONFIG_VALUE_MASK);
 2663              		.loc 1 920 42
 2664 02c0 9DF80730 		ldrb	r3, [sp, #7]	@ zero_extendqisi2
 2665              		.loc 1 920 61
 2666 02c4 9DF80620 		ldrb	r2, [sp, #6]
 2667 02c8 02F00F02 		and	r2, r2, #15
 2668 02cc D1B2     		uxtb	r1, r2
 2669              		.loc 1 920 53
 2670 02ce 444A     		ldr	r2, .L188
 2671 02d0 1B01     		lsls	r3, r3, #4
 2672 02d2 1344     		add	r3, r3, r2
 2673 02d4 03F10802 		add	r2, r3, #8
 2674 02d8 9379     		ldrb	r3, [r2, #6]
 2675 02da 61F30303 		bfi	r3, r1, #0, #4
 2676 02de 9371     		strb	r3, [r2, #6]
 921:libraries/zf_driver/zf_driver_uart.c ****                 register_temp = uart_obj_list[uart_index].uart_ptr->CR3;
 2677              		.loc 1 921 58
 2678 02e0 9DF80730 		ldrb	r3, [sp, #7]	@ zero_extendqisi2
 2679 02e4 3E4A     		ldr	r2, .L188
 2680 02e6 1B01     		lsls	r3, r3, #4
 2681 02e8 1344     		add	r3, r3, r2
 2682 02ea 0433     		adds	r3, r3, #4
 2683 02ec 1B68     		ldr	r3, [r3]
 2684              		.loc 1 921 31
 2685 02ee 9B68     		ldr	r3, [r3, #8]
 2686 02f0 0493     		str	r3, [sp, #16]
 922:libraries/zf_driver/zf_driver_uart.c ****                 register_temp &= ~0x00000300;
 2687              		.loc 1 922 31
 2688 02f2 049B     		ldr	r3, [sp, #16]
 2689 02f4 23F44073 		bic	r3, r3, #768
 2690 02f8 0493     		str	r3, [sp, #16]
 923:libraries/zf_driver/zf_driver_uart.c ****                 switch(item & UART_CONFIG_VALUE_MASK)
 2691              		.loc 1 923 29
 2692 02fa 9DF80630 		ldrb	r3, [sp, #6]	@ zero_extendqisi2
 2693 02fe 03F00F03 		and	r3, r3, #15
 2694 0302 032B     		cmp	r3, #3
 2695 0304 19D8     		bhi	.L174
 2696 0306 01A2     		adr	r2, .L176
 2697 0308 52F823F0 		ldr	pc, [r2, r3, lsl #2]
 2698              		.p2align 2
 2699              	.L176:
 2700 030c 3B030000 		.word	.L174+1
 2701 0310 1D030000 		.word	.L178+1
 2702 0314 27030000 		.word	.L177+1
 2703 0318 31030000 		.word	.L175+1
 2704              		.p2align 1
 2705              	.L178:
 924:libraries/zf_driver/zf_driver_uart.c ****                 {
 925:libraries/zf_driver/zf_driver_uart.c ****                     case UART_HWCONTROL_MODE_NONE   :                                   break;
 926:libraries/zf_driver/zf_driver_uart.c ****                     case UART_HWCONTROL_MODE_RTS    :   register_temp |= 0x00000100;    break;
 2706              		.loc 1 926 71
 2707 031c 049B     		ldr	r3, [sp, #16]
 2708 031e 43F48073 		orr	r3, r3, #256
 2709 0322 0493     		str	r3, [sp, #16]
 2710              		.loc 1 926 21
 2711 0324 09E0     		b	.L174
 2712              	.L177:
 927:libraries/zf_driver/zf_driver_uart.c ****                     case UART_HWCONTROL_MODE_CTS    :   register_temp |= 0x00000200;    break;
 2713              		.loc 1 927 71
 2714 0326 049B     		ldr	r3, [sp, #16]
 2715 0328 43F40073 		orr	r3, r3, #512
 2716 032c 0493     		str	r3, [sp, #16]
 2717              		.loc 1 927 21
 2718 032e 04E0     		b	.L174
 2719              	.L175:
 928:libraries/zf_driver/zf_driver_uart.c ****                     case UART_HWCONTROL_MODE_ALL    :   register_temp |= 0x00000300;    break;
 2720              		.loc 1 928 71
 2721 0330 049B     		ldr	r3, [sp, #16]
 2722 0332 43F44073 		orr	r3, r3, #768
 2723 0336 0493     		str	r3, [sp, #16]
 2724              		.loc 1 928 21
 2725 0338 00BF     		nop
 2726              	.L174:
 929:libraries/zf_driver/zf_driver_uart.c ****                 }
 930:libraries/zf_driver/zf_driver_uart.c ****                 uart_obj_list[uart_index].uart_ptr->CR3 = register_temp;
 2727              		.loc 1 930 42
 2728 033a 9DF80730 		ldrb	r3, [sp, #7]	@ zero_extendqisi2
 2729 033e 284A     		ldr	r2, .L188
 2730 0340 1B01     		lsls	r3, r3, #4
 2731 0342 1344     		add	r3, r3, r2
 2732 0344 0433     		adds	r3, r3, #4
 2733 0346 1B68     		ldr	r3, [r3]
 2734              		.loc 1 930 57
 2735 0348 049A     		ldr	r2, [sp, #16]
 2736 034a 9A60     		str	r2, [r3, #8]
 931:libraries/zf_driver/zf_driver_uart.c ****             }break;
 2737              		.loc 1 931 13
 2738 034c 00BF     		nop
 2739              	.L152:
 932:libraries/zf_driver/zf_driver_uart.c ****         }
 933:libraries/zf_driver/zf_driver_uart.c **** 
 934:libraries/zf_driver/zf_driver_uart.c ****         uart_obj_list[uart_index].uart_ptr->CR1 |= (enable) ? (UART_CR1_UE) :(0);
 2740              		.loc 1 934 34
 2741 034e 9DF80730 		ldrb	r3, [sp, #7]	@ zero_extendqisi2
 2742 0352 234A     		ldr	r2, .L188
 2743 0354 1B01     		lsls	r3, r3, #4
 2744 0356 1344     		add	r3, r3, r2
 2745 0358 0433     		adds	r3, r3, #4
 2746 035a 1B68     		ldr	r3, [r3]
 2747              		.loc 1 934 49
 2748 035c 1A68     		ldr	r2, [r3]
 2749              		.loc 1 934 77
 2750 035e 9DF80F30 		ldrb	r3, [sp, #15]	@ zero_extendqisi2
 2751 0362 002B     		cmp	r3, #0
 2752 0364 01D0     		beq	.L180
 2753              		.loc 1 934 77 is_stmt 0 discriminator 1
 2754 0366 0121     		movs	r1, #1
 2755 0368 00E0     		b	.L181
 2756              	.L180:
 2757              		.loc 1 934 77 discriminator 2
 2758 036a 0021     		movs	r1, #0
 2759              	.L181:
 2760              		.loc 1 934 34 is_stmt 1 discriminator 4
 2761 036c 9DF80730 		ldrb	r3, [sp, #7]	@ zero_extendqisi2
 2762 0370 1B48     		ldr	r0, .L188
 2763 0372 1B01     		lsls	r3, r3, #4
 2764 0374 0344     		add	r3, r3, r0
 2765 0376 0433     		adds	r3, r3, #4
 2766 0378 1B68     		ldr	r3, [r3]
 2767              		.loc 1 934 49 discriminator 4
 2768 037a 0A43     		orrs	r2, r2, r1
 2769 037c 1A60     		str	r2, [r3]
 935:libraries/zf_driver/zf_driver_uart.c ****         uart_obj_list[uart_index].uart_ptr->ICR = UART_INTERRUPT_STATE_ALL;
 2770              		.loc 1 935 34 discriminator 4
 2771 037e 9DF80730 		ldrb	r3, [sp, #7]	@ zero_extendqisi2
 2772 0382 174A     		ldr	r2, .L188
 2773 0384 1B01     		lsls	r3, r3, #4
 2774 0386 1344     		add	r3, r3, r2
 2775 0388 0433     		adds	r3, r3, #4
 2776 038a 1B68     		ldr	r3, [r3]
 2777              		.loc 1 935 49 discriminator 4
 2778 038c 0322     		movs	r2, #3
 2779 038e 1A62     		str	r2, [r3, #32]
 936:libraries/zf_driver/zf_driver_uart.c ****         if(uart_obj_list[uart_index].tx_interrupt || uart_obj_list[uart_index].rx_interrupt)
 2780              		.loc 1 936 37 discriminator 4
 2781 0390 9DF80730 		ldrb	r3, [sp, #7]	@ zero_extendqisi2
 2782 0394 124A     		ldr	r2, .L188
 2783 0396 1B01     		lsls	r3, r3, #4
 2784 0398 1344     		add	r3, r3, r2
 2785 039a 0833     		adds	r3, r3, #8
 2786 039c 9B79     		ldrb	r3, [r3, #6]
 2787 039e C3F30313 		ubfx	r3, r3, #4, #4
 2788 03a2 DBB2     		uxtb	r3, r3
 2789              		.loc 1 936 11 discriminator 4
 2790 03a4 002B     		cmp	r3, #0
 2791 03a6 0BD1     		bne	.L182
 2792              		.loc 1 936 79 discriminator 1
 2793 03a8 9DF80730 		ldrb	r3, [sp, #7]	@ zero_extendqisi2
 2794 03ac 0C4A     		ldr	r2, .L188
 2795 03ae 1B01     		lsls	r3, r3, #4
 2796 03b0 1344     		add	r3, r3, r2
 2797 03b2 0833     		adds	r3, r3, #8
 2798 03b4 DB79     		ldrb	r3, [r3, #7]
 2799 03b6 C3F30303 		ubfx	r3, r3, #0, #4
 2800 03ba DBB2     		uxtb	r3, r3
 2801              		.loc 1 936 51 discriminator 1
 2802 03bc 002B     		cmp	r3, #0
 2803 03be 06D0     		beq	.L183
 2804              	.L182:
 937:libraries/zf_driver/zf_driver_uart.c ****         {
 938:libraries/zf_driver/zf_driver_uart.c ****             zf_interrupt_enable(uart_irq_index_list[uart_index]);
 2805              		.loc 1 938 13
 2806 03c0 9DF80730 		ldrb	r3, [sp, #7]	@ zero_extendqisi2
 2807 03c4 074A     		ldr	r2, .L188+4
 2808 03c6 D35C     		ldrb	r3, [r2, r3]	@ zero_extendqisi2
 2809 03c8 1846     		mov	r0, r3
 2810 03ca FFF7FEFF 		bl	zf_interrupt_enable
 2811              	.L183:
 939:libraries/zf_driver/zf_driver_uart.c ****         }
 940:libraries/zf_driver/zf_driver_uart.c **** 
 941:libraries/zf_driver/zf_driver_uart.c ****         return_state = UART_OPERATION_DONE;
 2812              		.loc 1 941 22
 2813 03ce 0023     		movs	r3, #0
 2814 03d0 8DF81730 		strb	r3, [sp, #23]
 2815              	.L151:
 2816              	.LBE26:
 942:libraries/zf_driver/zf_driver_uart.c ****     }while(0);
 943:libraries/zf_driver/zf_driver_uart.c **** 
 944:libraries/zf_driver/zf_driver_uart.c ****     return return_state;
 2817              		.loc 1 944 12
 2818 03d4 9DF81730 		ldrb	r3, [sp, #23]	@ zero_extendqisi2
 945:libraries/zf_driver/zf_driver_uart.c **** }
 2819              		.loc 1 945 1
 2820 03d8 1846     		mov	r0, r3
 2821 03da 07B0     		add	sp, sp, #28
 2822              		.cfi_def_cfa_offset 4
 2823              		@ sp needed
 2824 03dc 5DF804FB 		ldr	pc, [sp], #4
 2825              	.L189:
 2826              		.align	2
 2827              	.L188:
 2828 03e0 00000000 		.word	uart_obj_list
 2829 03e4 00000000 		.word	uart_irq_index_list
 2830              		.cfi_endproc
 2831              	.LFE200:
 2833              		.section	.text.zf_uart_set_baudrate,"ax",%progbits
 2834              		.align	1
 2835              		.p2align 4,,15
 2836              		.global	zf_uart_set_baudrate
 2837              		.syntax unified
 2838              		.thumb
 2839              		.thumb_func
 2841              	zf_uart_set_baudrate:
 2842              	.LFB201:
 946:libraries/zf_driver/zf_driver_uart.c **** 
 947:libraries/zf_driver/zf_driver_uart.c **** //-------------------------------------------------------------------------------------------------
 948:libraries/zf_driver/zf_driver_uart.c **** // ÂáΩÊï∞ÁÆÄ‰ªã     UART ËÆæÁΩÆÊ≥¢ÁâπÁéá
 949:libraries/zf_driver/zf_driver_uart.c **** // ÂèÇÊï∞ËØ¥Êòé     uart_index          UART Ê®°ÂùóÂè∑     (ËØ¶ËßÅ zf_driver_uart.h ÂÜÖ zf_uart_ind
 950:libraries/zf_driver/zf_driver_uart.c **** // ÂèÇÊï∞ËØ¥Êòé     baudrate            Ê≥¢ÁâπÁéá
 951:libraries/zf_driver/zf_driver_uart.c **** // ËøîÂõûÂèÇÊï∞     uint8               Êìç‰ΩúÁä∂ÊÄÅ ZF_NO_ERROR / UART_OPERATION_DONE - ÂÆåÊàê ÂÖ∂
 952:libraries/zf_driver/zf_driver_uart.c **** // ‰ΩøÁî®Á§∫‰æã     zf_uart_set_baudrate(uart_index, baudrate);
 953:libraries/zf_driver/zf_driver_uart.c **** // Â§áÊ≥®‰ø°ÊÅØ     
 954:libraries/zf_driver/zf_driver_uart.c **** //-------------------------------------------------------------------------------------------------
 955:libraries/zf_driver/zf_driver_uart.c **** uint8 zf_uart_set_baudrate (zf_uart_index_enum uart_index, uint32 baudrate)
 956:libraries/zf_driver/zf_driver_uart.c **** {
 2843              		.loc 1 956 1
 2844              		.cfi_startproc
 2845              		@ args = 0, pretend = 0, frame = 16
 2846              		@ frame_needed = 0, uses_anonymous_args = 0
 2847 0000 00B5     		push	{lr}
 2848              		.cfi_def_cfa_offset 4
 2849              		.cfi_offset 14, -4
 2850 0002 85B0     		sub	sp, sp, #20
 2851              		.cfi_def_cfa_offset 24
 2852 0004 0346     		mov	r3, r0
 2853 0006 0091     		str	r1, [sp]
 2854 0008 8DF80730 		strb	r3, [sp, #7]
 957:libraries/zf_driver/zf_driver_uart.c ****     zf_uart_operation_state_enum    return_state    =   UART_ERROR_UNKNOW;
 2855              		.loc 1 957 37
 2856 000c 0123     		movs	r3, #1
 2857 000e 8DF80F30 		strb	r3, [sp, #15]
 2858              	.LBB27:
 958:libraries/zf_driver/zf_driver_uart.c **** 
 959:libraries/zf_driver/zf_driver_uart.c ****     do
 960:libraries/zf_driver/zf_driver_uart.c ****     {
 961:libraries/zf_driver/zf_driver_uart.c ****         if(zf_uart_assert(uart_obj_list[uart_index].baudrate))                  // Ê£ÄÊü• Ê®°ÂùóÂàù
 2859              		.loc 1 961 12
 2860 0012 9DF80730 		ldrb	r3, [sp, #7]	@ zero_extendqisi2
 2861 0016 6D4A     		ldr	r2, .L202
 2862 0018 1B01     		lsls	r3, r3, #4
 2863 001a 1344     		add	r3, r3, r2
 2864 001c 1B68     		ldr	r3, [r3]
 2865              		.loc 1 961 11
 2866 001e 002B     		cmp	r3, #0
 2867 0020 0CD1     		bne	.L191
 2868              		.loc 1 961 12 discriminator 1
 2869 0022 0022     		movs	r2, #0
 2870 0024 40F2C131 		movw	r1, #961
 2871 0028 6948     		ldr	r0, .L202+4
 2872 002a FFF7FEFF 		bl	zf_uart_assert_handler
 2873 002e 0346     		mov	r3, r0
 2874 0030 002B     		cmp	r3, #0
 2875 0032 03D0     		beq	.L191
 962:libraries/zf_driver/zf_driver_uart.c ****         {
 963:libraries/zf_driver/zf_driver_uart.c ****             // Ê≠§Â§ÑÂ¶ÇÊûúÊñ≠Ë®ÄÊä•Èîô ÈÇ£‰πàËØÅÊòéÊú¨Ê®°ÂùóÊ≤°ÊúâÂàùÂßãÂåñËøá ÊòØ‰∏çÂÖÅËÆ∏Áõ¥Êé•Ê
 964:libraries/zf_driver/zf_driver_uart.c ****             // Êú™ÂàùÂßãÂåñÊ®°ÂùóÂæàÂèØËÉΩÊ≤°ÊúâÂºÄÂêØÊ®°ÂùóÊó∂ÈíüÊàñËÄÖÊ≤°Êúâ‰ΩøËÉΩÊ®°Âùó
 965:libraries/zf_driver/zf_driver_uart.c ****             // ÂØπ‰∫éÈÉ®ÂàÜÂçïÁâáÊú∫Ê≤°Êúâ‰ΩøËÉΩÊ®°ÂùóÁõ¥Êé•Êìç‰Ωú‰ºöÂØºËá¥ÊÄªÁ∫øÂºÇÂ∏∏ÊàñËÄÖÁ°¨‰ª∂
 966:libraries/zf_driver/zf_driver_uart.c ****             return_state = UART_ERROR_MODULE_NOT_INIT;                          // UART Ê®°ÂùóÊú™Âà
 2876              		.loc 1 966 26
 2877 0034 2123     		movs	r3, #33
 2878 0036 8DF80F30 		strb	r3, [sp, #15]
 967:libraries/zf_driver/zf_driver_uart.c ****             break;
 2879              		.loc 1 967 13
 2880 003a C1E0     		b	.L192
 2881              	.L191:
 968:libraries/zf_driver/zf_driver_uart.c ****         }
 969:libraries/zf_driver/zf_driver_uart.c ****         if(zf_uart_assert(0 != baudrate))
 2882              		.loc 1 969 11
 2883 003c 009B     		ldr	r3, [sp]
 2884 003e 002B     		cmp	r3, #0
 2885 0040 0CD1     		bne	.L193
 2886              		.loc 1 969 12 discriminator 1
 2887 0042 0022     		movs	r2, #0
 2888 0044 40F2C931 		movw	r1, #969
 2889 0048 6148     		ldr	r0, .L202+4
 2890 004a FFF7FEFF 		bl	zf_uart_assert_handler
 2891 004e 0346     		mov	r3, r0
 2892 0050 002B     		cmp	r3, #0
 2893 0052 03D0     		beq	.L193
 970:libraries/zf_driver/zf_driver_uart.c ****         {
 971:libraries/zf_driver/zf_driver_uart.c ****             // Ê≠§Â§ÑÂ¶ÇÊûúÊñ≠Ë®ÄÊä•Èîô ÈÇ£‰πàËØÅÊòéËæìÂÖ•Ê≥¢ÁâπÁéá‰∏∫ 0 ÊòØ‰∏çÂêàÁêÜÁöÑ
 972:libraries/zf_driver/zf_driver_uart.c ****             return_state = UART_ERROR_BAUDRATE_UNSUPPORTED;
 2894              		.loc 1 972 26
 2895 0054 2423     		movs	r3, #36
 2896 0056 8DF80F30 		strb	r3, [sp, #15]
 973:libraries/zf_driver/zf_driver_uart.c ****             break;
 2897              		.loc 1 973 13
 2898 005a B1E0     		b	.L192
 2899              	.L193:
 974:libraries/zf_driver/zf_driver_uart.c ****         }
 975:libraries/zf_driver/zf_driver_uart.c **** 
 976:libraries/zf_driver/zf_driver_uart.c ****         zf_interrupt_disable(uart_irq_index_list[uart_index]);
 2900              		.loc 1 976 9
 2901 005c 9DF80730 		ldrb	r3, [sp, #7]	@ zero_extendqisi2
 2902 0060 5C4A     		ldr	r2, .L202+8
 2903 0062 D35C     		ldrb	r3, [r2, r3]	@ zero_extendqisi2
 2904 0064 1846     		mov	r0, r3
 2905 0066 FFF7FEFF 		bl	zf_interrupt_disable
 977:libraries/zf_driver/zf_driver_uart.c ****         uart_obj_list[uart_index].uart_ptr->CR1 &= ~UART_CR1_UE;
 2906              		.loc 1 977 34
 2907 006a 9DF80730 		ldrb	r3, [sp, #7]	@ zero_extendqisi2
 2908 006e 574A     		ldr	r2, .L202
 2909 0070 1B01     		lsls	r3, r3, #4
 2910 0072 1344     		add	r3, r3, r2
 2911 0074 0433     		adds	r3, r3, #4
 2912 0076 1B68     		ldr	r3, [r3]
 2913              		.loc 1 977 49
 2914 0078 1A68     		ldr	r2, [r3]
 2915              		.loc 1 977 34
 2916 007a 9DF80730 		ldrb	r3, [sp, #7]	@ zero_extendqisi2
 2917 007e 5349     		ldr	r1, .L202
 2918 0080 1B01     		lsls	r3, r3, #4
 2919 0082 0B44     		add	r3, r3, r1
 2920 0084 0433     		adds	r3, r3, #4
 2921 0086 1B68     		ldr	r3, [r3]
 2922              		.loc 1 977 49
 2923 0088 22F00102 		bic	r2, r2, #1
 2924 008c 1A60     		str	r2, [r3]
 978:libraries/zf_driver/zf_driver_uart.c **** 
 979:libraries/zf_driver/zf_driver_uart.c ****         uint8 freq_div = 1;
 2925              		.loc 1 979 15
 2926 008e 0123     		movs	r3, #1
 2927 0090 8DF80E30 		strb	r3, [sp, #14]
 980:libraries/zf_driver/zf_driver_uart.c ****         for(freq_div = 1; 12 > freq_div; freq_div ++)
 2928              		.loc 1 980 22
 2929 0094 0123     		movs	r3, #1
 2930 0096 8DF80E30 		strb	r3, [sp, #14]
 2931              		.loc 1 980 9
 2932 009a 0FE0     		b	.L194
 2933              	.L197:
 981:libraries/zf_driver/zf_driver_uart.c ****         {
 982:libraries/zf_driver/zf_driver_uart.c ****             if(0xFFFF >= (UART_INPUT_CLOCK / baudrate / freq_div))
 2934              		.loc 1 982 44
 2935 009c 4E4A     		ldr	r2, .L202+12
 2936 009e 009B     		ldr	r3, [sp]
 2937 00a0 B2FBF3F2 		udiv	r2, r2, r3
 2938              		.loc 1 982 55
 2939 00a4 9DF80E30 		ldrb	r3, [sp, #14]	@ zero_extendqisi2
 2940 00a8 B2FBF3F3 		udiv	r3, r2, r3
 2941              		.loc 1 982 15
 2942 00ac B3F5803F 		cmp	r3, #65536
 2943 00b0 09D3     		bcc	.L201
 980:libraries/zf_driver/zf_driver_uart.c ****         for(freq_div = 1; 12 > freq_div; freq_div ++)
 2944              		.loc 1 980 51 discriminator 2
 2945 00b2 9DF80E30 		ldrb	r3, [sp, #14]	@ zero_extendqisi2
 2946 00b6 0133     		adds	r3, r3, #1
 2947 00b8 8DF80E30 		strb	r3, [sp, #14]
 2948              	.L194:
 980:libraries/zf_driver/zf_driver_uart.c ****         for(freq_div = 1; 12 > freq_div; freq_div ++)
 2949              		.loc 1 980 9 discriminator 1
 2950 00bc 9DF80E30 		ldrb	r3, [sp, #14]	@ zero_extendqisi2
 2951 00c0 0B2B     		cmp	r3, #11
 2952 00c2 EBD9     		bls	.L197
 2953 00c4 00E0     		b	.L196
 2954              	.L201:
 983:libraries/zf_driver/zf_driver_uart.c ****             {
 984:libraries/zf_driver/zf_driver_uart.c ****                 break;
 2955              		.loc 1 984 17
 2956 00c6 00BF     		nop
 2957              	.L196:
 985:libraries/zf_driver/zf_driver_uart.c ****             }
 986:libraries/zf_driver/zf_driver_uart.c ****         }
 987:libraries/zf_driver/zf_driver_uart.c **** 
 988:libraries/zf_driver/zf_driver_uart.c ****         uart_obj_list[uart_index].baudrate = baudrate;
 2958              		.loc 1 988 34
 2959 00c8 9DF80730 		ldrb	r3, [sp, #7]	@ zero_extendqisi2
 2960              		.loc 1 988 44
 2961 00cc 3F4A     		ldr	r2, .L202
 2962 00ce 1B01     		lsls	r3, r3, #4
 2963 00d0 1344     		add	r3, r3, r2
 2964 00d2 009A     		ldr	r2, [sp]
 2965 00d4 1A60     		str	r2, [r3]
 989:libraries/zf_driver/zf_driver_uart.c ****         uart_obj_list[uart_index].uart_ptr->PRESC = (freq_div - 1);
 2966              		.loc 1 989 63
 2967 00d6 9DF80E30 		ldrb	r3, [sp, #14]	@ zero_extendqisi2
 2968 00da 591E     		subs	r1, r3, #1
 2969              		.loc 1 989 34
 2970 00dc 9DF80730 		ldrb	r3, [sp, #7]	@ zero_extendqisi2
 2971 00e0 3A4A     		ldr	r2, .L202
 2972 00e2 1B01     		lsls	r3, r3, #4
 2973 00e4 1344     		add	r3, r3, r2
 2974 00e6 0433     		adds	r3, r3, #4
 2975 00e8 1B68     		ldr	r3, [r3]
 2976              		.loc 1 989 63
 2977 00ea 0A46     		mov	r2, r1
 2978              		.loc 1 989 51
 2979 00ec DA62     		str	r2, [r3, #44]
 990:libraries/zf_driver/zf_driver_uart.c ****         uart_obj_list[uart_index].uart_ptr->BRR = (UART_INPUT_CLOCK / baudrate / freq_div);
 2980              		.loc 1 990 69
 2981 00ee 3A4A     		ldr	r2, .L202+12
 2982 00f0 009B     		ldr	r3, [sp]
 2983 00f2 B2FBF3F1 		udiv	r1, r2, r3
 2984              		.loc 1 990 80
 2985 00f6 9DF80E20 		ldrb	r2, [sp, #14]	@ zero_extendqisi2
 2986              		.loc 1 990 34
 2987 00fa 9DF80730 		ldrb	r3, [sp, #7]	@ zero_extendqisi2
 2988 00fe 3348     		ldr	r0, .L202
 2989 0100 1B01     		lsls	r3, r3, #4
 2990 0102 0344     		add	r3, r3, r0
 2991 0104 0433     		adds	r3, r3, #4
 2992 0106 1B68     		ldr	r3, [r3]
 2993              		.loc 1 990 80
 2994 0108 B1FBF2F2 		udiv	r2, r1, r2
 2995              		.loc 1 990 49
 2996 010c DA60     		str	r2, [r3, #12]
 991:libraries/zf_driver/zf_driver_uart.c **** 
 992:libraries/zf_driver/zf_driver_uart.c ****         uart_obj_list[uart_index].baudrate  =
 993:libraries/zf_driver/zf_driver_uart.c ****                 UART_INPUT_CLOCK
 994:libraries/zf_driver/zf_driver_uart.c ****             /   uart_obj_list[uart_index].uart_ptr->BRR
 2997              		.loc 1 994 42
 2998 010e 9DF80730 		ldrb	r3, [sp, #7]	@ zero_extendqisi2
 2999 0112 2E4A     		ldr	r2, .L202
 3000 0114 1B01     		lsls	r3, r3, #4
 3001 0116 1344     		add	r3, r3, r2
 3002 0118 0433     		adds	r3, r3, #4
 3003 011a 1B68     		ldr	r3, [r3]
 3004              		.loc 1 994 51
 3005 011c DB68     		ldr	r3, [r3, #12]
 3006              		.loc 1 994 13
 3007 011e 2E4A     		ldr	r2, .L202+12
 3008 0120 B2FBF3F1 		udiv	r1, r2, r3
 995:libraries/zf_driver/zf_driver_uart.c ****             /   (uart_obj_list[uart_index].uart_ptr->PRESC + 1) ;
 3009              		.loc 1 995 43
 3010 0124 9DF80730 		ldrb	r3, [sp, #7]	@ zero_extendqisi2
 3011 0128 284A     		ldr	r2, .L202
 3012 012a 1B01     		lsls	r3, r3, #4
 3013 012c 1344     		add	r3, r3, r2
 3014 012e 0433     		adds	r3, r3, #4
 3015 0130 1B68     		ldr	r3, [r3]
 3016              		.loc 1 995 52
 3017 0132 DB6A     		ldr	r3, [r3, #44]
 3018              		.loc 1 995 60
 3019 0134 5A1C     		adds	r2, r3, #1
 992:libraries/zf_driver/zf_driver_uart.c ****                 UART_INPUT_CLOCK
 3020              		.loc 1 992 34
 3021 0136 9DF80730 		ldrb	r3, [sp, #7]	@ zero_extendqisi2
 3022              		.loc 1 995 13
 3023 013a B1FBF2F2 		udiv	r2, r1, r2
 992:libraries/zf_driver/zf_driver_uart.c ****                 UART_INPUT_CLOCK
 3024              		.loc 1 992 45
 3025 013e 2349     		ldr	r1, .L202
 3026 0140 1B01     		lsls	r3, r3, #4
 3027 0142 0B44     		add	r3, r3, r1
 3028 0144 1A60     		str	r2, [r3]
 996:libraries/zf_driver/zf_driver_uart.c **** 
 997:libraries/zf_driver/zf_driver_uart.c ****         uart_obj_list[uart_index].uart_ptr->CR1 |= UART_CR1_UE;
 3029              		.loc 1 997 34
 3030 0146 9DF80730 		ldrb	r3, [sp, #7]	@ zero_extendqisi2
 3031 014a 204A     		ldr	r2, .L202
 3032 014c 1B01     		lsls	r3, r3, #4
 3033 014e 1344     		add	r3, r3, r2
 3034 0150 0433     		adds	r3, r3, #4
 3035 0152 1B68     		ldr	r3, [r3]
 3036              		.loc 1 997 49
 3037 0154 1A68     		ldr	r2, [r3]
 3038              		.loc 1 997 34
 3039 0156 9DF80730 		ldrb	r3, [sp, #7]	@ zero_extendqisi2
 3040 015a 1C49     		ldr	r1, .L202
 3041 015c 1B01     		lsls	r3, r3, #4
 3042 015e 0B44     		add	r3, r3, r1
 3043 0160 0433     		adds	r3, r3, #4
 3044 0162 1B68     		ldr	r3, [r3]
 3045              		.loc 1 997 49
 3046 0164 42F00102 		orr	r2, r2, #1
 3047 0168 1A60     		str	r2, [r3]
 998:libraries/zf_driver/zf_driver_uart.c ****         uart_obj_list[uart_index].uart_ptr->ICR = UART_INTERRUPT_STATE_ALL;
 3048              		.loc 1 998 34
 3049 016a 9DF80730 		ldrb	r3, [sp, #7]	@ zero_extendqisi2
 3050 016e 174A     		ldr	r2, .L202
 3051 0170 1B01     		lsls	r3, r3, #4
 3052 0172 1344     		add	r3, r3, r2
 3053 0174 0433     		adds	r3, r3, #4
 3054 0176 1B68     		ldr	r3, [r3]
 3055              		.loc 1 998 49
 3056 0178 0322     		movs	r2, #3
 3057 017a 1A62     		str	r2, [r3, #32]
 999:libraries/zf_driver/zf_driver_uart.c ****         if(uart_obj_list[uart_index].tx_interrupt || uart_obj_list[uart_index].rx_interrupt)
 3058              		.loc 1 999 37
 3059 017c 9DF80730 		ldrb	r3, [sp, #7]	@ zero_extendqisi2
 3060 0180 124A     		ldr	r2, .L202
 3061 0182 1B01     		lsls	r3, r3, #4
 3062 0184 1344     		add	r3, r3, r2
 3063 0186 0833     		adds	r3, r3, #8
 3064 0188 9B79     		ldrb	r3, [r3, #6]
 3065 018a C3F30313 		ubfx	r3, r3, #4, #4
 3066 018e DBB2     		uxtb	r3, r3
 3067              		.loc 1 999 11
 3068 0190 002B     		cmp	r3, #0
 3069 0192 0BD1     		bne	.L198
 3070              		.loc 1 999 79 discriminator 1
 3071 0194 9DF80730 		ldrb	r3, [sp, #7]	@ zero_extendqisi2
 3072 0198 0C4A     		ldr	r2, .L202
 3073 019a 1B01     		lsls	r3, r3, #4
 3074 019c 1344     		add	r3, r3, r2
 3075 019e 0833     		adds	r3, r3, #8
 3076 01a0 DB79     		ldrb	r3, [r3, #7]
 3077 01a2 C3F30303 		ubfx	r3, r3, #0, #4
 3078 01a6 DBB2     		uxtb	r3, r3
 3079              		.loc 1 999 51 discriminator 1
 3080 01a8 002B     		cmp	r3, #0
 3081 01aa 06D0     		beq	.L199
 3082              	.L198:
1000:libraries/zf_driver/zf_driver_uart.c ****         {
1001:libraries/zf_driver/zf_driver_uart.c ****             zf_interrupt_enable(uart_irq_index_list[uart_index]);
 3083              		.loc 1 1001 13
 3084 01ac 9DF80730 		ldrb	r3, [sp, #7]	@ zero_extendqisi2
 3085 01b0 084A     		ldr	r2, .L202+8
 3086 01b2 D35C     		ldrb	r3, [r2, r3]	@ zero_extendqisi2
 3087 01b4 1846     		mov	r0, r3
 3088 01b6 FFF7FEFF 		bl	zf_interrupt_enable
 3089              	.L199:
1002:libraries/zf_driver/zf_driver_uart.c ****         }
1003:libraries/zf_driver/zf_driver_uart.c **** 
1004:libraries/zf_driver/zf_driver_uart.c ****         return_state = UART_OPERATION_DONE;
 3090              		.loc 1 1004 22
 3091 01ba 0023     		movs	r3, #0
 3092 01bc 8DF80F30 		strb	r3, [sp, #15]
 3093              	.L192:
 3094              	.LBE27:
1005:libraries/zf_driver/zf_driver_uart.c ****     }while(0);
1006:libraries/zf_driver/zf_driver_uart.c **** 
1007:libraries/zf_driver/zf_driver_uart.c ****     return return_state;
 3095              		.loc 1 1007 12
 3096 01c0 9DF80F30 		ldrb	r3, [sp, #15]	@ zero_extendqisi2
1008:libraries/zf_driver/zf_driver_uart.c **** }
 3097              		.loc 1 1008 1
 3098 01c4 1846     		mov	r0, r3
 3099 01c6 05B0     		add	sp, sp, #20
 3100              		.cfi_def_cfa_offset 4
 3101              		@ sp needed
 3102 01c8 5DF804FB 		ldr	pc, [sp], #4
 3103              	.L203:
 3104              		.align	2
 3105              	.L202:
 3106 01cc 00000000 		.word	uart_obj_list
 3107 01d0 00000000 		.word	.LC0
 3108 01d4 00000000 		.word	uart_irq_index_list
 3109 01d8 00879303 		.word	60000000
 3110              		.cfi_endproc
 3111              	.LFE201:
 3113              		.section	.text.zf_uart_enable,"ax",%progbits
 3114              		.align	1
 3115              		.p2align 4,,15
 3116              		.global	zf_uart_enable
 3117              		.syntax unified
 3118              		.thumb
 3119              		.thumb_func
 3121              	zf_uart_enable:
 3122              	.LFB202:
1009:libraries/zf_driver/zf_driver_uart.c **** 
1010:libraries/zf_driver/zf_driver_uart.c **** //-------------------------------------------------------------------------------------------------
1011:libraries/zf_driver/zf_driver_uart.c **** // ÂáΩÊï∞ÁÆÄ‰ªã     UART ‰ΩøËÉΩ
1012:libraries/zf_driver/zf_driver_uart.c **** // ÂèÇÊï∞ËØ¥Êòé     uart_index          UART Ê®°ÂùóÂè∑     (ËØ¶ËßÅ zf_driver_uart.h ÂÜÖ zf_uart_ind
1013:libraries/zf_driver/zf_driver_uart.c **** // ËøîÂõûÂèÇÊï∞     uint8               Êìç‰ΩúÁä∂ÊÄÅ ZF_NO_ERROR / UART_OPERATION_DONE - ÂÆåÊàê ÂÖ∂
1014:libraries/zf_driver/zf_driver_uart.c **** // ‰ΩøÁî®Á§∫‰æã     zf_uart_enable(uart_index);
1015:libraries/zf_driver/zf_driver_uart.c **** // Â§áÊ≥®‰ø°ÊÅØ     
1016:libraries/zf_driver/zf_driver_uart.c **** //-------------------------------------------------------------------------------------------------
1017:libraries/zf_driver/zf_driver_uart.c **** uint8 zf_uart_enable (zf_uart_index_enum uart_index)
1018:libraries/zf_driver/zf_driver_uart.c **** {
 3123              		.loc 1 1018 1
 3124              		.cfi_startproc
 3125              		@ args = 0, pretend = 0, frame = 16
 3126              		@ frame_needed = 0, uses_anonymous_args = 0
 3127 0000 00B5     		push	{lr}
 3128              		.cfi_def_cfa_offset 4
 3129              		.cfi_offset 14, -4
 3130 0002 85B0     		sub	sp, sp, #20
 3131              		.cfi_def_cfa_offset 24
 3132 0004 0346     		mov	r3, r0
 3133 0006 8DF80730 		strb	r3, [sp, #7]
1019:libraries/zf_driver/zf_driver_uart.c ****     zf_uart_operation_state_enum    return_state    =   UART_ERROR_UNKNOW;
 3134              		.loc 1 1019 37
 3135 000a 0123     		movs	r3, #1
 3136 000c 8DF80F30 		strb	r3, [sp, #15]
1020:libraries/zf_driver/zf_driver_uart.c **** 
1021:libraries/zf_driver/zf_driver_uart.c ****     do
1022:libraries/zf_driver/zf_driver_uart.c ****     {
1023:libraries/zf_driver/zf_driver_uart.c ****         if(zf_uart_assert(uart_obj_list[uart_index].baudrate))                  // Ê£ÄÊü• Ê®°ÂùóÂàù
 3137              		.loc 1 1023 12
 3138 0010 9DF80730 		ldrb	r3, [sp, #7]	@ zero_extendqisi2
 3139 0014 1C4A     		ldr	r2, .L208
 3140 0016 1B01     		lsls	r3, r3, #4
 3141 0018 1344     		add	r3, r3, r2
 3142 001a 1B68     		ldr	r3, [r3]
 3143              		.loc 1 1023 11
 3144 001c 002B     		cmp	r3, #0
 3145 001e 0CD1     		bne	.L205
 3146              		.loc 1 1023 12 discriminator 1
 3147 0020 0022     		movs	r2, #0
 3148 0022 40F2FF31 		movw	r1, #1023
 3149 0026 1948     		ldr	r0, .L208+4
 3150 0028 FFF7FEFF 		bl	zf_uart_assert_handler
 3151 002c 0346     		mov	r3, r0
 3152 002e 002B     		cmp	r3, #0
 3153 0030 03D0     		beq	.L205
1024:libraries/zf_driver/zf_driver_uart.c ****         {
1025:libraries/zf_driver/zf_driver_uart.c ****             // Ê≠§Â§ÑÂ¶ÇÊûúÊñ≠Ë®ÄÊä•Èîô ÈÇ£‰πàËØÅÊòéÊú¨Ê®°ÂùóÊ≤°ÊúâÂàùÂßãÂåñËøá ÊòØ‰∏çÂÖÅËÆ∏Áõ¥Êé•Ê
1026:libraries/zf_driver/zf_driver_uart.c ****             // Êú™ÂàùÂßãÂåñÊ®°ÂùóÂæàÂèØËÉΩÊ≤°ÊúâÂºÄÂêØÊ®°ÂùóÊó∂ÈíüÊàñËÄÖÊ≤°Êúâ‰ΩøËÉΩÊ®°Âùó
1027:libraries/zf_driver/zf_driver_uart.c ****             // ÂØπ‰∫éÈÉ®ÂàÜÂçïÁâáÊú∫Ê≤°Êúâ‰ΩøËÉΩÊ®°ÂùóÁõ¥Êé•Êìç‰Ωú‰ºöÂØºËá¥ÊÄªÁ∫øÂºÇÂ∏∏ÊàñËÄÖÁ°¨‰ª∂
1028:libraries/zf_driver/zf_driver_uart.c ****             return_state = UART_ERROR_MODULE_NOT_INIT;                          // UART Ê®°ÂùóÊú™Âà
 3154              		.loc 1 1028 26
 3155 0032 2123     		movs	r3, #33
 3156 0034 8DF80F30 		strb	r3, [sp, #15]
1029:libraries/zf_driver/zf_driver_uart.c ****             break;
 3157              		.loc 1 1029 13
 3158 0038 20E0     		b	.L206
 3159              	.L205:
1030:libraries/zf_driver/zf_driver_uart.c ****         }
1031:libraries/zf_driver/zf_driver_uart.c **** 
1032:libraries/zf_driver/zf_driver_uart.c ****         uart_obj_list[uart_index].uart_ptr->CR1 |= UART_CR1_UE;
 3160              		.loc 1 1032 34
 3161 003a 9DF80730 		ldrb	r3, [sp, #7]	@ zero_extendqisi2
 3162 003e 124A     		ldr	r2, .L208
 3163 0040 1B01     		lsls	r3, r3, #4
 3164 0042 1344     		add	r3, r3, r2
 3165 0044 0433     		adds	r3, r3, #4
 3166 0046 1B68     		ldr	r3, [r3]
 3167              		.loc 1 1032 49
 3168 0048 1A68     		ldr	r2, [r3]
 3169              		.loc 1 1032 34
 3170 004a 9DF80730 		ldrb	r3, [sp, #7]	@ zero_extendqisi2
 3171 004e 0E49     		ldr	r1, .L208
 3172 0050 1B01     		lsls	r3, r3, #4
 3173 0052 0B44     		add	r3, r3, r1
 3174 0054 0433     		adds	r3, r3, #4
 3175 0056 1B68     		ldr	r3, [r3]
 3176              		.loc 1 1032 49
 3177 0058 42F00102 		orr	r2, r2, #1
 3178 005c 1A60     		str	r2, [r3]
1033:libraries/zf_driver/zf_driver_uart.c ****         uart_obj_list[uart_index].enable = ZF_ENABLE;
