   1              		.cpu cortex-m7
   2              		.arch armv7e-m
   3              		.fpu fpv5-d16
   4              		.eabi_attribute 28, 1
   5              		.eabi_attribute 20, 1
   6              		.eabi_attribute 21, 1
   7              		.eabi_attribute 23, 3
   8              		.eabi_attribute 24, 1
   9              		.eabi_attribute 25, 1
  10              		.eabi_attribute 26, 1
  11              		.eabi_attribute 30, 6
  12              		.eabi_attribute 34, 1
  13              		.eabi_attribute 18, 4
  14              		.file	"zf_device_uart_receiver.c"
  15              		.text
  16              	.Ltext0:
  17              		.cfi_sections	.debug_frame
  18              		.global	uart_receiver
  19              		.section	.bss.uart_receiver,"aw",%nobits
  20              		.align	2
  23              	uart_receiver:
  24 0000 00000000 		.space	14
  24      00000000 
  24      00000000 
  24      0000
  25              		.section	.bss.uart_receiver_data,"aw",%nobits
  26              		.align	2
  29              	uart_receiver_data:
  30 0000 00000000 		.space	25
  30      00000000 
  30      00000000 
  30      00000000 
  30      00000000 
  31              		.section	.text.uart_receiver_interval_time,"ax",%progbits
  32              		.align	1
  33              		.p2align 4,,15
  34              		.syntax unified
  35              		.thumb
  36              		.thumb_func
  38              	uart_receiver_interval_time:
  39              	.LFB482:
  40              		.file 1 "libraries/zf_device/zf_device_uart_receiver.c"
   1:libraries/zf_device/zf_device_uart_receiver.c **** /**************************************************************************************************
   2:libraries/zf_device/zf_device_uart_receiver.c **** * Stellar-SR5E1E3 Opensource Library Âç≥ÔºàStellar-SR5E1E3 ÂºÄÊ∫êÂ∫ìÔºâÊòØ‰∏Ä‰∏™Âü∫‰∫éÂÆòÊñπ SDK Êé
   3:libraries/zf_device/zf_device_uart_receiver.c **** * Copyright (c) 2022 SEEKFREE ÈÄêÈ£ûÁßëÊäÄ
   4:libraries/zf_device/zf_device_uart_receiver.c **** *
   5:libraries/zf_device/zf_device_uart_receiver.c **** * Êú¨Êñá‰ª∂ÊòØ Stellar-SR5E1E3 ÂºÄÊ∫êÂ∫ìÁöÑ‰∏ÄÈÉ®ÂàÜ
   6:libraries/zf_device/zf_device_uart_receiver.c **** *
   7:libraries/zf_device/zf_device_uart_receiver.c **** * Stellar-SR5E1E3 ÂºÄÊ∫êÂ∫ì ÊòØÂÖçË¥πËΩØ‰ª∂
   8:libraries/zf_device/zf_device_uart_receiver.c **** * ÊÇ®ÂèØ‰ª•Ê†πÊçÆËá™Áî±ËΩØ‰ª∂Âü∫Èáë‰ºöÂèëÂ∏ÉÁöÑ GPLÔºàGNU General Public LicenseÔºåÂç≥ GNUÈÄöÁî®ÂÖ¨
   9:libraries/zf_device/zf_device_uart_receiver.c **** * Âç≥ GPL ÁöÑÁ¨¨3ÁâàÔºàÂç≥ GPL3.0ÔºâÊàñÔºàÊÇ®ÈÄâÊã©ÁöÑÔºâ‰ªª‰ΩïÂêéÊù•ÁöÑÁâàÊú¨ÔºåÈáçÊñ∞ÂèëÂ∏ÉÂíå/Êà
  10:libraries/zf_device/zf_device_uart_receiver.c **** *
  11:libraries/zf_device/zf_device_uart_receiver.c **** * Êú¨ÂºÄÊ∫êÂ∫ìÁöÑÂèëÂ∏ÉÊòØÂ∏åÊúõÂÆÉËÉΩÂèëÊå•‰ΩúÁî®Ôºå‰ΩÜÂπ∂Êú™ÂØπÂÖ∂‰Ωú‰ªª‰ΩïÁöÑ‰øùËØÅ
  12:libraries/zf_device/zf_device_uart_receiver.c **** * ÁîöËá≥Ê≤°ÊúâÈöêÂê´ÁöÑÈÄÇÈîÄÊÄßÊàñÈÄÇÂêàÁâπÂÆöÁî®ÈÄîÁöÑ‰øùËØÅ
  13:libraries/zf_device/zf_device_uart_receiver.c **** * Êõ¥Â§öÁªÜËäÇËØ∑ÂèÇËßÅ GPL
  14:libraries/zf_device/zf_device_uart_receiver.c **** *
  15:libraries/zf_device/zf_device_uart_receiver.c **** * ÊÇ®Â∫îËØ•Âú®Êî∂Âà∞Êú¨ÂºÄÊ∫êÂ∫ìÁöÑÂêåÊó∂Êî∂Âà∞‰∏Ä‰ªΩ GPL ÁöÑÂâØÊú¨
  16:libraries/zf_device/zf_device_uart_receiver.c **** * Â¶ÇÊûúÊ≤°ÊúâÔºåËØ∑ÂèÇÈòÖ<https://www.gnu.org/licenses/>
  17:libraries/zf_device/zf_device_uart_receiver.c **** *
  18:libraries/zf_device/zf_device_uart_receiver.c **** * È¢ùÂ§ñÊ≥®ÊòéÔºö
  19:libraries/zf_device/zf_device_uart_receiver.c **** * Êú¨ÂºÄÊ∫êÂ∫ì‰ΩøÁî® GPL3.0 ÂºÄÊ∫êËÆ∏ÂèØËØÅÂçèËÆÆ ‰ª•‰∏äËÆ∏ÂèØÁî≥Êòé‰∏∫ËØëÊñáÁâàÊú¨
  20:libraries/zf_device/zf_device_uart_receiver.c **** * ËÆ∏ÂèØÁî≥ÊòéËã±ÊñáÁâàÂú® libraries/doc Êñá‰ª∂Â§π‰∏ãÁöÑ GPL3_permission_statement.txt Êñá‰ª∂‰∏≠
  21:libraries/zf_device/zf_device_uart_receiver.c **** * ËÆ∏ÂèØËØÅÂâØÊú¨Âú® libraries Êñá‰ª∂Â§π‰∏ã Âç≥ËØ•Êñá‰ª∂Â§π‰∏ãÁöÑ LICENSE Êñá‰ª∂
  22:libraries/zf_device/zf_device_uart_receiver.c **** * Ê¨¢ËøéÂêÑ‰Ωç‰ΩøÁî®Âπ∂‰º†Êí≠Êú¨Á®ãÂ∫è ‰ΩÜ‰øÆÊîπÂÜÖÂÆπÊó∂ÂøÖÈ°ª‰øùÁïôÈÄêÈ£ûÁßëÊäÄÁöÑÁâàÊùÉÂ£∞ÊòéÔºà
  23:libraries/zf_device/zf_device_uart_receiver.c **** *
  24:libraries/zf_device/zf_device_uart_receiver.c **** * Êñá‰ª∂ÂêçÁß∞          zf_device_uart_receiver
  25:libraries/zf_device/zf_device_uart_receiver.c **** * ÂÖ¨Âè∏ÂêçÁß∞          ÊàêÈÉΩÈÄêÈ£ûÁßëÊäÄÊúâÈôêÂÖ¨Âè∏
  26:libraries/zf_device/zf_device_uart_receiver.c **** * ÁâàÊú¨‰ø°ÊÅØ          Êü•Áúã libraries/doc Êñá‰ª∂Â§πÂÜÖ version Êñá‰ª∂ ÁâàÊú¨ËØ¥Êòé
  27:libraries/zf_device/zf_device_uart_receiver.c **** * ÂºÄÂèëÁéØÂ¢É          StellarStudio 7.0.0
  28:libraries/zf_device/zf_device_uart_receiver.c **** * ÈÄÇÁî®Âπ≥Âè∞          Stellar-SR5E1E3
  29:libraries/zf_device/zf_device_uart_receiver.c **** * Â∫óÈì∫ÈìæÊé•          https://www.seekfree.cn/
  30:libraries/zf_device/zf_device_uart_receiver.c **** ***************************************************************************************************
  31:libraries/zf_device/zf_device_uart_receiver.c **** 
  32:libraries/zf_device/zf_device_uart_receiver.c **** /**************************************************************************************************
  33:libraries/zf_device/zf_device_uart_receiver.c **** * Êé•Á∫øÂÆö‰πâÔºö
  34:libraries/zf_device/zf_device_uart_receiver.c **** *                   ------------------------------------
  35:libraries/zf_device/zf_device_uart_receiver.c **** *                   Ê®°ÂùóÁÆ°ËÑö        ÂçïÁâáÊú∫ÁÆ°ËÑö
  36:libraries/zf_device/zf_device_uart_receiver.c **** *                   TXD             Êü•Áúã zf_device_uart_receiver.h ‰∏≠ UART_RECEVIER_RX_PIN ÂÆèÂÆ
  37:libraries/zf_device/zf_device_uart_receiver.c **** *                   GND             ÁîµÊ∫êÂú∞
  38:libraries/zf_device/zf_device_uart_receiver.c **** *                   5V              5VÁîµÊ∫ê
  39:libraries/zf_device/zf_device_uart_receiver.c **** *                   ------------------------------------
  40:libraries/zf_device/zf_device_uart_receiver.c **** ***************************************************************************************************
  41:libraries/zf_device/zf_device_uart_receiver.c **** 
  42:libraries/zf_device/zf_device_uart_receiver.c **** #include "zf_device_uart_receiver.h"
  43:libraries/zf_device/zf_device_uart_receiver.c **** 
  44:libraries/zf_device/zf_device_uart_receiver.c **** // Ê≠§Â§ÑÂÆö‰πâ UART_RECEVIER Áõ∏ÂÖ≥ÁöÑÊé•Âè£ËµÑÊ∫ê ËøôÈáå‰∏çÂÖÅËÆ∏Áî®Êà∑‰øÆÊîπ ËøôÈáå‰∏çÂÖÅËÆ∏Áî®Ê
  45:libraries/zf_device/zf_device_uart_receiver.c **** // >>>>>>>>>>>>>>>>>>>>>>>>>>>>>>>>>>>>>>>>> Part Start >>>>>>>>>>>>>>>>>>>>>>>>>>>>>>>>>>>>>>>>>
  46:libraries/zf_device/zf_device_uart_receiver.c **** #define UART_RECEVIER_REV_DATA_LEN                  ( 25   )                    // SBUSÂ∏ßÈïø
  47:libraries/zf_device/zf_device_uart_receiver.c **** #define UART_RECEVIER_FRAME_STAR                    ( 0x0F )                    // Â∏ßÂ§¥‰ø°ÊÅØ
  48:libraries/zf_device/zf_device_uart_receiver.c **** #define UART_RECEVIER_FRAME_END                     ( 0x00 )                    // Â∏ßÂ∞æ‰ø°ÊÅØ
  49:libraries/zf_device/zf_device_uart_receiver.c **** #define UART_RECEVIER_SBUS_ABNORMAL_STATE           ( 0x04 )                    // Â§±ÊéßÁä∂ÊÄÅ
  50:libraries/zf_device/zf_device_uart_receiver.c **** // <<<<<<<<<<<<<<<<<<<<<<<<<<<<<<<<<<<<<<<<< Part   End <<<<<<<<<<<<<<<<<<<<<<<<<<<<<<<<<<<<<<<<<
  51:libraries/zf_device/zf_device_uart_receiver.c **** 
  52:libraries/zf_device/zf_device_uart_receiver.c **** // Ê≠§Â§ÑÂÆö‰πâ Êú¨Êñá‰ª∂Áî®‰ΩøÁî®ÁöÑÂèòÈáè‰∏éÂØπË±°Á≠â ËøôÈáå‰∏çÂÖÅËÆ∏Áî®Êà∑‰øÆÊîπ ËøôÈáå‰∏çÂÖÅËÆ∏
  53:libraries/zf_device/zf_device_uart_receiver.c **** // >>>>>>>>>>>>>>>>>>>>>>>>>>>>>>>>>>>>>>>>> Part Start >>>>>>>>>>>>>>>>>>>>>>>>>>>>>>>>>>>>>>>>>
  54:libraries/zf_device/zf_device_uart_receiver.c **** AT_ZF_LIB_SECTION_START
  55:libraries/zf_device/zf_device_uart_receiver.c **** AT_ZF_LIB_SECTION uart_receiver_struct uart_receiver ;                          // ‰∏≤Âè£Êé•Êî∂Êú∫È
  56:libraries/zf_device/zf_device_uart_receiver.c **** AT_ZF_LIB_SECTION static uint8 uart_receiver_data[UART_RECEVIER_REV_DATA_LEN];  // Êé•Êî∂Âô®ÂéüÂßãÊ
  57:libraries/zf_device/zf_device_uart_receiver.c **** AT_ZF_LIB_SECTION_END
  58:libraries/zf_device/zf_device_uart_receiver.c **** // <<<<<<<<<<<<<<<<<<<<<<<<<<<<<<<<<<<<<<<<< Part   End <<<<<<<<<<<<<<<<<<<<<<<<<<<<<<<<<<<<<<<<<
  59:libraries/zf_device/zf_device_uart_receiver.c **** 
  60:libraries/zf_device/zf_device_uart_receiver.c **** // Ê≠§Â§ÑÂàó‰∏æ Êú¨Êñá‰ª∂ÁöÑÊâÄÊúâÂáΩÊï∞Â£∞Êòé [ ÂÖ∂‰∏≠ÂåÖÊã¨ÂÆèÂÆö‰πâÂáΩÊï∞ ] ËøôÈáå‰∏çÂÖÅËÆ∏Áî®Êà
  61:libraries/zf_device/zf_device_uart_receiver.c **** // >>>>>>>>>>>>>>>>>>>>>>>>>>>>>>>>>>>>>>>>> Part Start >>>>>>>>>>>>>>>>>>>>>>>>>>>>>>>>>>>>>>>>>
  62:libraries/zf_device/zf_device_uart_receiver.c **** //-------------------------------------------------------------------------------------------------
  63:libraries/zf_device/zf_device_uart_receiver.c **** //  ÂáΩÊï∞ÁÆÄ‰ªã     Ëé∑Âèñ‰∏§Ê¨°Ë∞ÉÁî®uart_receiver_interval_timeÂáΩÊï∞Êó∂Èó¥Èó¥Èöî 
  64:libraries/zf_device/zf_device_uart_receiver.c **** //  ÂèÇÊï∞ËØ¥Êòé     void
  65:libraries/zf_device/zf_device_uart_receiver.c **** //  ËøîÂõûÂèÇÊï∞     uint16            ËøîÂõû‰ªéÂºÄÂßãÂà∞Áé∞Âú®ÁöÑÊó∂Èó¥ Âçï‰Ωç us
  66:libraries/zf_device/zf_device_uart_receiver.c **** //  ‰ΩøÁî®Á§∫‰æã     uart_receiver_interval_time();
  67:libraries/zf_device/zf_device_uart_receiver.c **** //  Â§áÊ≥®‰ø°ÊÅØ     ÂÜÖÈÉ®Ë∞ÉÁî®
  68:libraries/zf_device/zf_device_uart_receiver.c **** //-------------------------------------------------------------------------------------------------
  69:libraries/zf_device/zf_device_uart_receiver.c **** static uint16 uart_receiver_interval_time (void)
  70:libraries/zf_device/zf_device_uart_receiver.c **** {
  41              		.loc 1 70 1
  42              		.cfi_startproc
  43              		@ args = 0, pretend = 0, frame = 8
  44              		@ frame_needed = 0, uses_anonymous_args = 0
  45 0000 00B5     		push	{lr}
  46              		.cfi_def_cfa_offset 4
  47              		.cfi_offset 14, -4
  48 0002 83B0     		sub	sp, sp, #12
  49              		.cfi_def_cfa_offset 16
  71:libraries/zf_device/zf_device_uart_receiver.c ****     uint16 interval_time;
  72:libraries/zf_device/zf_device_uart_receiver.c **** 
  73:libraries/zf_device/zf_device_uart_receiver.c ****     zf_timer_get(UART_RECEVIER_TIMER_INDEX, &interval_time);
  50              		.loc 1 73 5
  51 0004 0DF10603 		add	r3, sp, #6
  52 0008 1946     		mov	r1, r3
  53 000a 0620     		movs	r0, #6
  54 000c FFF7FEFF 		bl	zf_timer_get
  74:libraries/zf_device/zf_device_uart_receiver.c **** 
  75:libraries/zf_device/zf_device_uart_receiver.c ****     zf_timer_clear(UART_RECEVIER_TIMER_INDEX);
  55              		.loc 1 75 5
  56 0010 0620     		movs	r0, #6
  57 0012 FFF7FEFF 		bl	zf_timer_clear
  76:libraries/zf_device/zf_device_uart_receiver.c **** 
  77:libraries/zf_device/zf_device_uart_receiver.c ****     return interval_time;
  58              		.loc 1 77 12
  59 0016 BDF80630 		ldrh	r3, [sp, #6]
  78:libraries/zf_device/zf_device_uart_receiver.c **** }
  60              		.loc 1 78 1
  61 001a 1846     		mov	r0, r3
  62 001c 03B0     		add	sp, sp, #12
  63              		.cfi_def_cfa_offset 4
  64              		@ sp needed
  65 001e 5DF804FB 		ldr	pc, [sp], #4
  66              		.cfi_endproc
  67              	.LFE482:
  69 0022 00BF     		.section	.text.uart_receiver_analysis,"ax",%progbits
  70              		.align	1
  71              		.p2align 4,,15
  72              		.syntax unified
  73              		.thumb
  74              		.thumb_func
  76              	uart_receiver_analysis:
  77              	.LFB483:
  79:libraries/zf_device/zf_device_uart_receiver.c **** 
  80:libraries/zf_device/zf_device_uart_receiver.c **** //-------------------------------------------------------------------------------------------------
  81:libraries/zf_device/zf_device_uart_receiver.c **** // ÂáΩÊï∞ÁÆÄ‰ªã     SBUSÊï∞ÊçÆËß£Êûê
  82:libraries/zf_device/zf_device_uart_receiver.c **** // ÂèÇÊï∞ËØ¥Êòé     *remote_data    Êé•Êî∂ÈÅ•ÊéßÂô®Êï∞ÊçÆÁöÑÂú∞ÂùÄ
  83:libraries/zf_device/zf_device_uart_receiver.c **** // ÂèÇÊï∞ËØ¥Êòé     *bufer          ÂéüÂßãÊï∞ÊçÆ
  84:libraries/zf_device/zf_device_uart_receiver.c **** // ËøîÂõûÂèÇÊï∞     void
  85:libraries/zf_device/zf_device_uart_receiver.c **** // ‰ΩøÁî®Á§∫‰æã
  86:libraries/zf_device/zf_device_uart_receiver.c **** // Â§áÊ≥®‰ø°ÊÅØ     ÂØπsbusÊï∞ÊçÆËß£ÊûêËøõË°åËß£Êûê
  87:libraries/zf_device/zf_device_uart_receiver.c **** //-------------------------------------------------------------------------------------------------
  88:libraries/zf_device/zf_device_uart_receiver.c **** static void uart_receiver_analysis (uart_receiver_struct *remote_data,uint8 * buffer)
  89:libraries/zf_device/zf_device_uart_receiver.c **** {
  78              		.loc 1 89 1
  79              		.cfi_startproc
  80              		@ args = 0, pretend = 0, frame = 16
  81              		@ frame_needed = 0, uses_anonymous_args = 0
  82              		@ link register save eliminated.
  83 0000 84B0     		sub	sp, sp, #16
  84              		.cfi_def_cfa_offset 16
  85 0002 0190     		str	r0, [sp, #4]
  86 0004 0091     		str	r1, [sp]
  90:libraries/zf_device/zf_device_uart_receiver.c ****     uint8 num = 0;
  87              		.loc 1 90 11
  88 0006 0023     		movs	r3, #0
  89 0008 8DF80F30 		strb	r3, [sp, #15]
  91:libraries/zf_device/zf_device_uart_receiver.c **** 
  92:libraries/zf_device/zf_device_uart_receiver.c ****     remote_data->channel[num++] = (buffer[1] |buffer[ 2] << 8 ) & 0x07FF;
  90              		.loc 1 92 42
  91 000c 009B     		ldr	r3, [sp]
  92 000e 0133     		adds	r3, r3, #1
  93 0010 1B78     		ldrb	r3, [r3]	@ zero_extendqisi2
  94 0012 1AB2     		sxth	r2, r3
  95              		.loc 1 92 53
  96 0014 009B     		ldr	r3, [sp]
  97 0016 0233     		adds	r3, r3, #2
  98 0018 1B78     		ldrb	r3, [r3]	@ zero_extendqisi2
  99              		.loc 1 92 58
 100 001a 1B02     		lsls	r3, r3, #8
 101              		.loc 1 92 46
 102 001c 1BB2     		sxth	r3, r3
 103 001e 1343     		orrs	r3, r3, r2
 104 0020 1BB2     		sxth	r3, r3
 105              		.loc 1 92 65
 106 0022 9AB2     		uxth	r2, r3
 107              		.loc 1 92 29
 108 0024 9DF80F30 		ldrb	r3, [sp, #15]	@ zero_extendqisi2
 109 0028 591C     		adds	r1, r3, #1
 110 002a 8DF80F10 		strb	r1, [sp, #15]
 111 002e 1946     		mov	r1, r3
 112              		.loc 1 92 65
 113 0030 C2F30A03 		ubfx	r3, r2, #0, #11
 114 0034 9AB2     		uxth	r2, r3
 115              		.loc 1 92 33
 116 0036 019B     		ldr	r3, [sp, #4]
 117 0038 23F81120 		strh	r2, [r3, r1, lsl #1]	@ movhi
  93:libraries/zf_device/zf_device_uart_receiver.c ****     remote_data->channel[num++] = (buffer[2] >> 3 | buffer[3] << 5 ) & 0x07FF;
 118              		.loc 1 93 42
 119 003c 009B     		ldr	r3, [sp]
 120 003e 0233     		adds	r3, r3, #2
 121 0040 1B78     		ldrb	r3, [r3]	@ zero_extendqisi2
 122              		.loc 1 93 51
 123 0042 DB08     		lsrs	r3, r3, #3
 124 0044 DBB2     		uxtb	r3, r3
 125 0046 1AB2     		sxth	r2, r3
 126              		.loc 1 93 59
 127 0048 009B     		ldr	r3, [sp]
 128 004a 0333     		adds	r3, r3, #3
 129 004c 1B78     		ldrb	r3, [r3]	@ zero_extendqisi2
 130              		.loc 1 93 63
 131 004e 5B01     		lsls	r3, r3, #5
 132              		.loc 1 93 51
 133 0050 1BB2     		sxth	r3, r3
 134 0052 1343     		orrs	r3, r3, r2
 135 0054 1BB2     		sxth	r3, r3
 136              		.loc 1 93 70
 137 0056 9AB2     		uxth	r2, r3
 138              		.loc 1 93 29
 139 0058 9DF80F30 		ldrb	r3, [sp, #15]	@ zero_extendqisi2
 140 005c 591C     		adds	r1, r3, #1
 141 005e 8DF80F10 		strb	r1, [sp, #15]
 142 0062 1946     		mov	r1, r3
 143              		.loc 1 93 70
 144 0064 C2F30A03 		ubfx	r3, r2, #0, #11
 145 0068 9AB2     		uxth	r2, r3
 146              		.loc 1 93 33
 147 006a 019B     		ldr	r3, [sp, #4]
 148 006c 23F81120 		strh	r2, [r3, r1, lsl #1]	@ movhi
  94:libraries/zf_device/zf_device_uart_receiver.c ****     remote_data->channel[num++] = (buffer[3] >> 6 | buffer[4] << 2 | buffer[5] << 10 ) & 0x07FF;
 149              		.loc 1 94 42
 150 0070 009B     		ldr	r3, [sp]
 151 0072 0333     		adds	r3, r3, #3
 152 0074 1B78     		ldrb	r3, [r3]	@ zero_extendqisi2
 153              		.loc 1 94 51
 154 0076 9B09     		lsrs	r3, r3, #6
 155 0078 DBB2     		uxtb	r3, r3
 156 007a 1AB2     		sxth	r2, r3
 157              		.loc 1 94 59
 158 007c 009B     		ldr	r3, [sp]
 159 007e 0433     		adds	r3, r3, #4
 160 0080 1B78     		ldrb	r3, [r3]	@ zero_extendqisi2
 161              		.loc 1 94 63
 162 0082 9B00     		lsls	r3, r3, #2
 163              		.loc 1 94 51
 164 0084 1BB2     		sxth	r3, r3
 165 0086 1343     		orrs	r3, r3, r2
 166 0088 1AB2     		sxth	r2, r3
 167              		.loc 1 94 76
 168 008a 009B     		ldr	r3, [sp]
 169 008c 0533     		adds	r3, r3, #5
 170 008e 1B78     		ldrb	r3, [r3]	@ zero_extendqisi2
 171              		.loc 1 94 80
 172 0090 9B02     		lsls	r3, r3, #10
 173              		.loc 1 94 68
 174 0092 1BB2     		sxth	r3, r3
 175 0094 1343     		orrs	r3, r3, r2
 176 0096 1BB2     		sxth	r3, r3
 177              		.loc 1 94 88
 178 0098 9AB2     		uxth	r2, r3
 179              		.loc 1 94 29
 180 009a 9DF80F30 		ldrb	r3, [sp, #15]	@ zero_extendqisi2
 181 009e 591C     		adds	r1, r3, #1
 182 00a0 8DF80F10 		strb	r1, [sp, #15]
 183 00a4 1946     		mov	r1, r3
 184              		.loc 1 94 88
 185 00a6 C2F30A03 		ubfx	r3, r2, #0, #11
 186 00aa 9AB2     		uxth	r2, r3
 187              		.loc 1 94 33
 188 00ac 019B     		ldr	r3, [sp, #4]
 189 00ae 23F81120 		strh	r2, [r3, r1, lsl #1]	@ movhi
  95:libraries/zf_device/zf_device_uart_receiver.c ****     remote_data->channel[num++] = (buffer[5] >> 1 | buffer[6] << 7 ) & 0x07FF;
 190              		.loc 1 95 42
 191 00b2 009B     		ldr	r3, [sp]
 192 00b4 0533     		adds	r3, r3, #5
 193 00b6 1B78     		ldrb	r3, [r3]	@ zero_extendqisi2
 194              		.loc 1 95 51
 195 00b8 5B08     		lsrs	r3, r3, #1
 196 00ba DBB2     		uxtb	r3, r3
 197 00bc 1AB2     		sxth	r2, r3
 198              		.loc 1 95 59
 199 00be 009B     		ldr	r3, [sp]
 200 00c0 0633     		adds	r3, r3, #6
 201 00c2 1B78     		ldrb	r3, [r3]	@ zero_extendqisi2
 202              		.loc 1 95 63
 203 00c4 DB01     		lsls	r3, r3, #7
 204              		.loc 1 95 51
 205 00c6 1BB2     		sxth	r3, r3
 206 00c8 1343     		orrs	r3, r3, r2
 207 00ca 1BB2     		sxth	r3, r3
 208              		.loc 1 95 70
 209 00cc 9AB2     		uxth	r2, r3
 210              		.loc 1 95 29
 211 00ce 9DF80F30 		ldrb	r3, [sp, #15]	@ zero_extendqisi2
 212 00d2 591C     		adds	r1, r3, #1
 213 00d4 8DF80F10 		strb	r1, [sp, #15]
 214 00d8 1946     		mov	r1, r3
 215              		.loc 1 95 70
 216 00da C2F30A03 		ubfx	r3, r2, #0, #11
 217 00de 9AB2     		uxth	r2, r3
 218              		.loc 1 95 33
 219 00e0 019B     		ldr	r3, [sp, #4]
 220 00e2 23F81120 		strh	r2, [r3, r1, lsl #1]	@ movhi
  96:libraries/zf_device/zf_device_uart_receiver.c ****     remote_data->channel[num++] = (buffer[6] >> 4 | buffer[7] << 4 ) & 0x07FF;
 221              		.loc 1 96 42
 222 00e6 009B     		ldr	r3, [sp]
 223 00e8 0633     		adds	r3, r3, #6
 224 00ea 1B78     		ldrb	r3, [r3]	@ zero_extendqisi2
 225              		.loc 1 96 51
 226 00ec 1B09     		lsrs	r3, r3, #4
 227 00ee DBB2     		uxtb	r3, r3
 228 00f0 1AB2     		sxth	r2, r3
 229              		.loc 1 96 59
 230 00f2 009B     		ldr	r3, [sp]
 231 00f4 0733     		adds	r3, r3, #7
 232 00f6 1B78     		ldrb	r3, [r3]	@ zero_extendqisi2
 233              		.loc 1 96 63
 234 00f8 1B01     		lsls	r3, r3, #4
 235              		.loc 1 96 51
 236 00fa 1BB2     		sxth	r3, r3
 237 00fc 1343     		orrs	r3, r3, r2
 238 00fe 1BB2     		sxth	r3, r3
 239              		.loc 1 96 70
 240 0100 9AB2     		uxth	r2, r3
 241              		.loc 1 96 29
 242 0102 9DF80F30 		ldrb	r3, [sp, #15]	@ zero_extendqisi2
 243 0106 591C     		adds	r1, r3, #1
 244 0108 8DF80F10 		strb	r1, [sp, #15]
 245 010c 1946     		mov	r1, r3
 246              		.loc 1 96 70
 247 010e C2F30A03 		ubfx	r3, r2, #0, #11
 248 0112 9AB2     		uxth	r2, r3
 249              		.loc 1 96 33
 250 0114 019B     		ldr	r3, [sp, #4]
 251 0116 23F81120 		strh	r2, [r3, r1, lsl #1]	@ movhi
  97:libraries/zf_device/zf_device_uart_receiver.c ****     remote_data->channel[num++] = (buffer[7] >> 7 | buffer[8] << 1 | buffer[9] << 9 ) & 0x07FF;
 252              		.loc 1 97 42
 253 011a 009B     		ldr	r3, [sp]
 254 011c 0733     		adds	r3, r3, #7
 255 011e 1B78     		ldrb	r3, [r3]	@ zero_extendqisi2
 256              		.loc 1 97 51
 257 0120 DB09     		lsrs	r3, r3, #7
 258 0122 DBB2     		uxtb	r3, r3
 259 0124 1AB2     		sxth	r2, r3
 260              		.loc 1 97 59
 261 0126 009B     		ldr	r3, [sp]
 262 0128 0833     		adds	r3, r3, #8
 263 012a 1B78     		ldrb	r3, [r3]	@ zero_extendqisi2
 264              		.loc 1 97 63
 265 012c 5B00     		lsls	r3, r3, #1
 266              		.loc 1 97 51
 267 012e 1BB2     		sxth	r3, r3
 268 0130 1343     		orrs	r3, r3, r2
 269 0132 1AB2     		sxth	r2, r3
 270              		.loc 1 97 76
 271 0134 009B     		ldr	r3, [sp]
 272 0136 0933     		adds	r3, r3, #9
 273 0138 1B78     		ldrb	r3, [r3]	@ zero_extendqisi2
 274              		.loc 1 97 80
 275 013a 5B02     		lsls	r3, r3, #9
 276              		.loc 1 97 68
 277 013c 1BB2     		sxth	r3, r3
 278 013e 1343     		orrs	r3, r3, r2
 279 0140 1BB2     		sxth	r3, r3
 280              		.loc 1 97 87
 281 0142 9AB2     		uxth	r2, r3
 282              		.loc 1 97 29
 283 0144 9DF80F30 		ldrb	r3, [sp, #15]	@ zero_extendqisi2
 284 0148 591C     		adds	r1, r3, #1
 285 014a 8DF80F10 		strb	r1, [sp, #15]
 286 014e 1946     		mov	r1, r3
 287              		.loc 1 97 87
 288 0150 C2F30A03 		ubfx	r3, r2, #0, #11
 289 0154 9AB2     		uxth	r2, r3
 290              		.loc 1 97 33
 291 0156 019B     		ldr	r3, [sp, #4]
 292 0158 23F81120 		strh	r2, [r3, r1, lsl #1]	@ movhi
  98:libraries/zf_device/zf_device_uart_receiver.c **** 
  99:libraries/zf_device/zf_device_uart_receiver.c ****     remote_data->state = 
 100:libraries/zf_device/zf_device_uart_receiver.c ****         (       UART_RECEVIER_SBUS_ABNORMAL_STATE
 101:libraries/zf_device/zf_device_uart_receiver.c ****             ==  (buffer[23] & UART_RECEVIER_SBUS_ABNORMAL_STATE))
 293              		.loc 1 101 24
 294 015c 009B     		ldr	r3, [sp]
 295 015e 1733     		adds	r3, r3, #23
 296 0160 1B78     		ldrb	r3, [r3]	@ zero_extendqisi2
 297              		.loc 1 101 29
 298 0162 03F00403 		and	r3, r3, #4
 102:libraries/zf_device/zf_device_uart_receiver.c ****         ? 0
 103:libraries/zf_device/zf_device_uart_receiver.c ****         : 1;
 299              		.loc 1 103 9
 300 0166 002B     		cmp	r3, #0
 301 0168 0CBF     		ite	eq
 302 016a 0123     		moveq	r3, #1
 303 016c 0023     		movne	r3, #0
 304 016e DBB2     		uxtb	r3, r3
 305 0170 1A46     		mov	r2, r3
  99:libraries/zf_device/zf_device_uart_receiver.c ****         (       UART_RECEVIER_SBUS_ABNORMAL_STATE
 306              		.loc 1 99 24
 307 0172 019B     		ldr	r3, [sp, #4]
 308 0174 1A73     		strb	r2, [r3, #12]
 104:libraries/zf_device/zf_device_uart_receiver.c **** 
 105:libraries/zf_device/zf_device_uart_receiver.c ****     uart_receiver.finsh_flag  = 1;
 309              		.loc 1 105 31
 310 0176 034B     		ldr	r3, .L4
 311 0178 0122     		movs	r2, #1
 312 017a 5A73     		strb	r2, [r3, #13]
 106:libraries/zf_device/zf_device_uart_receiver.c **** }
 313              		.loc 1 106 1
 314 017c 00BF     		nop
 315 017e 04B0     		add	sp, sp, #16
 316              		.cfi_def_cfa_offset 0
 317              		@ sp needed
 318 0180 7047     		bx	lr
 319              	.L5:
 320 0182 00BF     		.align	2
 321              	.L4:
 322 0184 00000000 		.word	uart_receiver
 323              		.cfi_endproc
 324              	.LFE483:
 326              		.section	.text.uart_receiver_callback,"ax",%progbits
 327              		.align	1
 328              		.p2align 4,,15
 329              		.syntax unified
 330              		.thumb
 331              		.thumb_func
 333              	uart_receiver_callback:
 334              	.LFB484:
 107:libraries/zf_device/zf_device_uart_receiver.c **** 
 108:libraries/zf_device/zf_device_uart_receiver.c **** //-------------------------------------------------------------------------------------------------
 109:libraries/zf_device/zf_device_uart_receiver.c **** // ÂáΩÊï∞ÁÆÄ‰ªã     ‰∏≤Âè£Êé•Êî∂Êú∫Ê®°Âùó ‰∏≤Âè£‰∏≠Êñ≠ÂõûË∞ÉÂáΩÊï∞
 110:libraries/zf_device/zf_device_uart_receiver.c **** // ÂèÇÊï∞ËØ¥Êòé     void
 111:libraries/zf_device/zf_device_uart_receiver.c **** // ËøîÂõûÂèÇÊï∞     void
 112:libraries/zf_device/zf_device_uart_receiver.c **** // ‰ΩøÁî®Á§∫‰æã     uart_receiver_callback();
 113:libraries/zf_device/zf_device_uart_receiver.c **** // Â§áÊ≥®‰ø°ÊÅØ     ËØ•ÂáΩÊï∞Âú® ISR Êñá‰ª∂ ‰∏≤Âè£‰∏≠Êñ≠Á®ãÂ∫èÈÄöËøáuart_receiver_uart_handlerÂáΩÊï
 114:libraries/zf_device/zf_device_uart_receiver.c **** //-------------------------------------------------------------------------------------------------
 115:libraries/zf_device/zf_device_uart_receiver.c **** static void uart_receiver_callback (uint32 event, void *ptr)
 116:libraries/zf_device/zf_device_uart_receiver.c **** {
 335              		.loc 1 116 1
 336              		.cfi_startproc
 337              		@ args = 0, pretend = 0, frame = 8
 338              		@ frame_needed = 0, uses_anonymous_args = 0
 339 0000 00B5     		push	{lr}
 340              		.cfi_def_cfa_offset 4
 341              		.cfi_offset 14, -4
 342 0002 83B0     		sub	sp, sp, #12
 343              		.cfi_def_cfa_offset 16
 344 0004 0190     		str	r0, [sp, #4]
 345 0006 0091     		str	r1, [sp]
 117:libraries/zf_device/zf_device_uart_receiver.c ****     (void)event;
 118:libraries/zf_device/zf_device_uart_receiver.c ****     (void)ptr;
 119:libraries/zf_device/zf_device_uart_receiver.c **** 
 120:libraries/zf_device/zf_device_uart_receiver.c ****     static vuint8 length = 0;
 121:libraries/zf_device/zf_device_uart_receiver.c **** 
 122:libraries/zf_device/zf_device_uart_receiver.c ****     if(uart_receiver_interval_time() > 3000)
 346              		.loc 1 122 8
 347 0008 FFF7FEFF 		bl	uart_receiver_interval_time
 348 000c 0346     		mov	r3, r0
 349 000e 1A46     		mov	r2, r3
 350              		.loc 1 122 7
 351 0010 40F6B833 		movw	r3, #3000
 352 0014 9A42     		cmp	r2, r3
 353 0016 02D9     		bls	.L7
 123:libraries/zf_device/zf_device_uart_receiver.c ****     {
 124:libraries/zf_device/zf_device_uart_receiver.c ****         length = 0;
 354              		.loc 1 124 16
 355 0018 154B     		ldr	r3, .L10
 356 001a 0022     		movs	r2, #0
 357 001c 1A70     		strb	r2, [r3]
 358              	.L7:
 125:libraries/zf_device/zf_device_uart_receiver.c ****     }
 126:libraries/zf_device/zf_device_uart_receiver.c **** 
 127:libraries/zf_device/zf_device_uart_receiver.c ****     if(!zf_uart_query_byte(UART_RECEVIER_UART_INDEX, &uart_receiver_data[length]))
 359              		.loc 1 127 73
 360 001e 144B     		ldr	r3, .L10
 361 0020 1B78     		ldrb	r3, [r3]
 362 0022 DBB2     		uxtb	r3, r3
 363 0024 1A46     		mov	r2, r3
 364              		.loc 1 127 9
 365 0026 134B     		ldr	r3, .L10+4
 366 0028 1344     		add	r3, r3, r2
 367 002a 1946     		mov	r1, r3
 368 002c 0120     		movs	r0, #1
 369 002e FFF7FEFF 		bl	zf_uart_query_byte
 370 0032 0346     		mov	r3, r0
 371              		.loc 1 127 7
 372 0034 002B     		cmp	r3, #0
 373 0036 17D1     		bne	.L9
 128:libraries/zf_device/zf_device_uart_receiver.c ****     {
 129:libraries/zf_device/zf_device_uart_receiver.c ****         length ++;
 374              		.loc 1 129 16
 375 0038 0D4B     		ldr	r3, .L10
 376 003a 1B78     		ldrb	r3, [r3]
 377 003c DBB2     		uxtb	r3, r3
 378 003e 0133     		adds	r3, r3, #1
 379 0040 DAB2     		uxtb	r2, r3
 380 0042 0B4B     		ldr	r3, .L10
 381 0044 1A70     		strb	r2, [r3]
 130:libraries/zf_device/zf_device_uart_receiver.c ****         if(     (UART_RECEVIER_REV_DATA_LEN == length)
 382              		.loc 1 130 45
 383 0046 0A4B     		ldr	r3, .L10
 384 0048 1B78     		ldrb	r3, [r3]
 385 004a DBB2     		uxtb	r3, r3
 386              		.loc 1 130 11
 387 004c 192B     		cmp	r3, #25
 388 004e 0BD1     		bne	.L9
 131:libraries/zf_device/zf_device_uart_receiver.c ****             &&  (UART_RECEVIER_FRAME_STAR   == uart_receiver_data[0 ])
 389              		.loc 1 131 66
 390 0050 084B     		ldr	r3, .L10+4
 391 0052 1B78     		ldrb	r3, [r3]	@ zero_extendqisi2
 392              		.loc 1 131 13
 393 0054 0F2B     		cmp	r3, #15
 394 0056 07D1     		bne	.L9
 132:libraries/zf_device/zf_device_uart_receiver.c ****             &&  (UART_RECEVIER_FRAME_END    == uart_receiver_data[24]))
 395              		.loc 1 132 66
 396 0058 064B     		ldr	r3, .L10+4
 397 005a 1B7E     		ldrb	r3, [r3, #24]	@ zero_extendqisi2
 398              		.loc 1 132 13
 399 005c 002B     		cmp	r3, #0
 400 005e 03D1     		bne	.L9
 133:libraries/zf_device/zf_device_uart_receiver.c ****         {
 134:libraries/zf_device/zf_device_uart_receiver.c ****             uart_receiver_analysis(&uart_receiver, uart_receiver_data);
 401              		.loc 1 134 13
 402 0060 0449     		ldr	r1, .L10+4
 403 0062 0548     		ldr	r0, .L10+8
 404 0064 FFF7FEFF 		bl	uart_receiver_analysis
 405              	.L9:
 135:libraries/zf_device/zf_device_uart_receiver.c ****         }
 136:libraries/zf_device/zf_device_uart_receiver.c ****     }
 137:libraries/zf_device/zf_device_uart_receiver.c **** 
 138:libraries/zf_device/zf_device_uart_receiver.c **** }
 406              		.loc 1 138 1
 407 0068 00BF     		nop
 408 006a 03B0     		add	sp, sp, #12
 409              		.cfi_def_cfa_offset 4
 410              		@ sp needed
 411 006c 5DF804FB 		ldr	pc, [sp], #4
 412              	.L11:
 413              		.align	2
 414              	.L10:
 415 0070 00000000 		.word	length.0
 416 0074 00000000 		.word	uart_receiver_data
 417 0078 00000000 		.word	uart_receiver
 418              		.cfi_endproc
 419              	.LFE484:
 421              		.section	.text.uart_receiver_init,"ax",%progbits
 422              		.align	1
 423              		.p2align 4,,15
 424              		.global	uart_receiver_init
 425              		.syntax unified
 426              		.thumb
 427              		.thumb_func
 429              	uart_receiver_init:
 430              	.LFB485:
 139:libraries/zf_device/zf_device_uart_receiver.c **** 
 140:libraries/zf_device/zf_device_uart_receiver.c **** //-------------------------------------------------------------------------------------------------
 141:libraries/zf_device/zf_device_uart_receiver.c **** // ÂáΩÊï∞ÁÆÄ‰ªã     ‰∏≤Âè£Êé•Êî∂Êú∫ÂàùÂßãÂåñ
 142:libraries/zf_device/zf_device_uart_receiver.c **** // ÂèÇÊï∞ËØ¥Êòé     void
 143:libraries/zf_device/zf_device_uart_receiver.c **** // ËøîÂõûÂèÇÊï∞     uint8           Êìç‰ΩúÁä∂ÊÄÅ ZF_NO_ERROR - ÂÆåÊàê ÂÖ∂‰ΩôÂÄº‰∏∫ÂºÇÂ∏∏s
 144:libraries/zf_device/zf_device_uart_receiver.c **** // ‰ΩøÁî®Á§∫‰æã     uart_receiver_init();
 145:libraries/zf_device/zf_device_uart_receiver.c **** //-------------------------------------------------------------------------------------------------
 146:libraries/zf_device/zf_device_uart_receiver.c **** uint8 uart_receiver_init (void)
 147:libraries/zf_device/zf_device_uart_receiver.c **** {
 431              		.loc 1 147 1
 432              		.cfi_startproc
 433              		@ args = 0, pretend = 0, frame = 8
 434              		@ frame_needed = 0, uses_anonymous_args = 0
 435 0000 00B5     		push	{lr}
 436              		.cfi_def_cfa_offset 4
 437              		.cfi_offset 14, -4
 438 0002 83B0     		sub	sp, sp, #12
 439              		.cfi_def_cfa_offset 16
 148:libraries/zf_device/zf_device_uart_receiver.c ****     uint8 return_state = ZF_ERROR;
 440              		.loc 1 148 11
 441 0004 0123     		movs	r3, #1
 442 0006 8DF80730 		strb	r3, [sp, #7]
 149:libraries/zf_device/zf_device_uart_receiver.c **** 
 150:libraries/zf_device/zf_device_uart_receiver.c ****     zf_uart_init(UART_RECEVIER_UART_INDEX, UART_RECEVIER_BAUDRATE, UART_RECEVIER_RX_PIN, UART_RECEV
 443              		.loc 1 150 5
 444 000a 0F4B     		ldr	r3, .L14
 445 000c 0F4A     		ldr	r2, .L14+4
 446 000e 1049     		ldr	r1, .L14+8
 447 0010 0120     		movs	r0, #1
 448 0012 FFF7FEFF 		bl	zf_uart_init
 151:libraries/zf_device/zf_device_uart_receiver.c **** 
 152:libraries/zf_device/zf_device_uart_receiver.c ****     zf_timer_init(UART_RECEVIER_TIMER_INDEX, TIMER_US);
 449              		.loc 1 152 5
 450 0016 0121     		movs	r1, #1
 451 0018 0620     		movs	r0, #6
 452 001a FFF7FEFF 		bl	zf_timer_init
 153:libraries/zf_device/zf_device_uart_receiver.c **** 
 154:libraries/zf_device/zf_device_uart_receiver.c ****     zf_uart_set_interrupt_callback(UART_RECEVIER_UART_INDEX, uart_receiver_callback, NULL);
 453              		.loc 1 154 5
 454 001e 0022     		movs	r2, #0
 455 0020 0C49     		ldr	r1, .L14+12
 456 0022 0120     		movs	r0, #1
 457 0024 FFF7FEFF 		bl	zf_uart_set_interrupt_callback
 155:libraries/zf_device/zf_device_uart_receiver.c ****     zf_uart_set_interrupt_config(UART_RECEVIER_UART_INDEX, UART_INTERRUPT_CONFIG_RX_ENABLE);
 458              		.loc 1 155 5
 459 0028 0421     		movs	r1, #4
 460 002a 0120     		movs	r0, #1
 461 002c FFF7FEFF 		bl	zf_uart_set_interrupt_config
 156:libraries/zf_device/zf_device_uart_receiver.c **** 
 157:libraries/zf_device/zf_device_uart_receiver.c ****     zf_timer_enable(UART_RECEVIER_TIMER_INDEX);
 462              		.loc 1 157 5
 463 0030 0620     		movs	r0, #6
 464 0032 FFF7FEFF 		bl	zf_timer_enable
 158:libraries/zf_device/zf_device_uart_receiver.c **** 
 159:libraries/zf_device/zf_device_uart_receiver.c ****     return_state = ZF_NO_ERROR;
 465              		.loc 1 159 18
 466 0036 0023     		movs	r3, #0
 467 0038 8DF80730 		strb	r3, [sp, #7]
 160:libraries/zf_device/zf_device_uart_receiver.c **** 
 161:libraries/zf_device/zf_device_uart_receiver.c ****     return return_state;
 468              		.loc 1 161 12
 469 003c 9DF80730 		ldrb	r3, [sp, #7]	@ zero_extendqisi2
 162:libraries/zf_device/zf_device_uart_receiver.c **** }
 470              		.loc 1 162 1
 471 0040 1846     		mov	r0, r3
 472 0042 03B0     		add	sp, sp, #12
 473              		.cfi_def_cfa_offset 4
 474              		@ sp needed
 475 0044 5DF804FB 		ldr	pc, [sp], #4
 476              	.L15:
 477              		.align	2
 478              	.L14:
 479 0048 06700100 		.word	94214
 480 004c 07700100 		.word	94215
 481 0050 A0860100 		.word	100000
 482 0054 00000000 		.word	uart_receiver_callback
 483              		.cfi_endproc
 484              	.LFE485:
 486              		.section	.bss.length.0,"aw",%nobits
 489              	length.0:
 490 0000 00       		.space	1
 491              		.text
 492              	.Letext0:
 493              		.file 2 "libraries/zf_common/zf_common_typedef.h"
 494              		.file 3 "C:/StellarStudio-7.0/SDKS/StellarESDK-1.7.0/Modules/Platform/MCU/include/sr5e1/sr5e1xx.h"
 495              		.file 4 "libraries/zf_driver/zf_driver_gpio.h"
 496              		.file 5 "libraries/zf_driver/zf_driver_adc.h"
 497              		.file 6 "libraries/zf_driver/zf_driver_can.h"
 498              		.file 7 "libraries/zf_driver/zf_driver_timer.h"
 499              		.file 8 "libraries/zf_driver/zf_driver_encoder.h"
 500              		.file 9 "libraries/zf_driver/zf_driver_exti.h"
 501              		.file 10 "libraries/zf_driver/zf_driver_hrtim.h"
 502              		.file 11 "libraries/zf_driver/zf_driver_pwm.h"
 503              		.file 12 "libraries/zf_driver/zf_driver_spi.h"
 504              		.file 13 "libraries/zf_driver/zf_driver_uart.h"
 505              		.file 14 "libraries/zf_device/zf_device_uart_receiver.h"