   1              		.cpu cortex-m7
   2              		.arch armv7e-m
   3              		.fpu fpv5-d16
   4              		.eabi_attribute 28, 1
   5              		.eabi_attribute 20, 1
   6              		.eabi_attribute 21, 1
   7              		.eabi_attribute 23, 3
   8              		.eabi_attribute 24, 1
   9              		.eabi_attribute 25, 1
  10              		.eabi_attribute 26, 1
  11              		.eabi_attribute 30, 6
  12              		.eabi_attribute 34, 1
  13              		.eabi_attribute 18, 4
  14              		.file	"zf_device_bluetooth_ch9141.c"
  15              		.text
  16              	.Ltext0:
  17              		.cfi_sections	.debug_frame
  18              		.section	.text.bluetooth_ch9141_func_send_byte,"ax",%progbits
  19              		.align	1
  20              		.p2align 4,,15
  21              		.syntax unified
  22              		.thumb
  23              		.thumb_func
  25              	bluetooth_ch9141_func_send_byte:
  26              	.LFB482:
  27              		.file 1 "libraries/zf_device/zf_device_bluetooth_ch9141.c"
   1:libraries/zf_device/zf_device_bluetooth_ch9141.c **** /**************************************************************************************************
   2:libraries/zf_device/zf_device_bluetooth_ch9141.c **** * Stellar-SR5E1E3 Opensource Library å³ï¼ˆStellar-SR5E1E3 å¼€æºåº“ï¼‰æ˜¯ä¸€ä¸ªåŸºäºå®˜æ–¹ SDK æ
   3:libraries/zf_device/zf_device_bluetooth_ch9141.c **** * Copyright (c) 2022 SEEKFREE é€é£ç§‘æŠ€
   4:libraries/zf_device/zf_device_bluetooth_ch9141.c **** *
   5:libraries/zf_device/zf_device_bluetooth_ch9141.c **** * æœ¬æ–‡ä»¶æ˜¯ Stellar-SR5E1E3 å¼€æºåº“çš„ä¸€éƒ¨åˆ†
   6:libraries/zf_device/zf_device_bluetooth_ch9141.c **** *
   7:libraries/zf_device/zf_device_bluetooth_ch9141.c **** * Stellar-SR5E1E3 å¼€æºåº“ æ˜¯å…è´¹è½¯ä»¶
   8:libraries/zf_device/zf_device_bluetooth_ch9141.c **** * æ‚¨å¯ä»¥æ ¹æ®è‡ªç”±è½¯ä»¶åŸºé‡‘ä¼šå‘å¸ƒçš„ GPLï¼ˆGNU General Public Licenseï¼Œå³ GNUé€šç”¨å…¬
   9:libraries/zf_device/zf_device_bluetooth_ch9141.c **** * å³ GPL çš„ç¬¬3ç‰ˆï¼ˆå³ GPL3.0ï¼‰æˆ–ï¼ˆæ‚¨é€‰æ‹©çš„ï¼‰ä»»ä½•åæ¥çš„ç‰ˆæœ¬ï¼Œé‡æ–°å‘å¸ƒå’Œ/æˆ
  10:libraries/zf_device/zf_device_bluetooth_ch9141.c **** *
  11:libraries/zf_device/zf_device_bluetooth_ch9141.c **** * æœ¬å¼€æºåº“çš„å‘å¸ƒæ˜¯å¸Œæœ›å®ƒèƒ½å‘æŒ¥ä½œç”¨ï¼Œä½†å¹¶æœªå¯¹å…¶ä½œä»»ä½•çš„ä¿è¯
  12:libraries/zf_device/zf_device_bluetooth_ch9141.c **** * ç”šè‡³æ²¡æœ‰éšå«çš„é€‚é”€æ€§æˆ–é€‚åˆç‰¹å®šç”¨é€”çš„ä¿è¯
  13:libraries/zf_device/zf_device_bluetooth_ch9141.c **** * æ›´å¤šç»†èŠ‚è¯·å‚è§ GPL
  14:libraries/zf_device/zf_device_bluetooth_ch9141.c **** *
  15:libraries/zf_device/zf_device_bluetooth_ch9141.c **** * æ‚¨åº”è¯¥åœ¨æ”¶åˆ°æœ¬å¼€æºåº“çš„åŒæ—¶æ”¶åˆ°ä¸€ä»½ GPL çš„å‰¯æœ¬
  16:libraries/zf_device/zf_device_bluetooth_ch9141.c **** * å¦‚æœæ²¡æœ‰ï¼Œè¯·å‚é˜…<https://www.gnu.org/licenses/>
  17:libraries/zf_device/zf_device_bluetooth_ch9141.c **** *
  18:libraries/zf_device/zf_device_bluetooth_ch9141.c **** * é¢å¤–æ³¨æ˜ï¼š
  19:libraries/zf_device/zf_device_bluetooth_ch9141.c **** * æœ¬å¼€æºåº“ä½¿ç”¨ GPL3.0 å¼€æºè®¸å¯è¯åè®® ä»¥ä¸Šè®¸å¯ç”³æ˜ä¸ºè¯‘æ–‡ç‰ˆæœ¬
  20:libraries/zf_device/zf_device_bluetooth_ch9141.c **** * è®¸å¯ç”³æ˜è‹±æ–‡ç‰ˆåœ¨ libraries/doc æ–‡ä»¶å¤¹ä¸‹çš„ GPL3_permission_statement.txt æ–‡ä»¶ä¸­
  21:libraries/zf_device/zf_device_bluetooth_ch9141.c **** * è®¸å¯è¯å‰¯æœ¬åœ¨ libraries æ–‡ä»¶å¤¹ä¸‹ å³è¯¥æ–‡ä»¶å¤¹ä¸‹çš„ LICENSE æ–‡ä»¶
  22:libraries/zf_device/zf_device_bluetooth_ch9141.c **** * æ¬¢è¿å„ä½ä½¿ç”¨å¹¶ä¼ æ’­æœ¬ç¨‹åº ä½†ä¿®æ”¹å†…å®¹æ—¶å¿…é¡»ä¿ç•™é€é£ç§‘æŠ€çš„ç‰ˆæƒå£°æ˜ï¼ˆ
  23:libraries/zf_device/zf_device_bluetooth_ch9141.c **** *
  24:libraries/zf_device/zf_device_bluetooth_ch9141.c **** * æ–‡ä»¶åç§°          zf_device_bluetooth_ch9141
  25:libraries/zf_device/zf_device_bluetooth_ch9141.c **** * å…¬å¸åç§°          æˆéƒ½é€é£ç§‘æŠ€æœ‰é™å…¬å¸
  26:libraries/zf_device/zf_device_bluetooth_ch9141.c **** * ç‰ˆæœ¬ä¿¡æ¯          æŸ¥çœ‹ libraries/doc æ–‡ä»¶å¤¹å†… version æ–‡ä»¶ ç‰ˆæœ¬è¯´æ˜
  27:libraries/zf_device/zf_device_bluetooth_ch9141.c **** * å¼€å‘ç¯å¢ƒ          StellarStudio 7.0.0
  28:libraries/zf_device/zf_device_bluetooth_ch9141.c **** * é€‚ç”¨å¹³å°          Stellar-SR5E1E3
  29:libraries/zf_device/zf_device_bluetooth_ch9141.c **** * åº—é“ºé“¾æ¥          https://www.seekfree.cn/
  30:libraries/zf_device/zf_device_bluetooth_ch9141.c **** ***************************************************************************************************
  31:libraries/zf_device/zf_device_bluetooth_ch9141.c **** 
  32:libraries/zf_device/zf_device_bluetooth_ch9141.c **** /**************************************************************************************************
  33:libraries/zf_device/zf_device_bluetooth_ch9141.c **** * æ¥çº¿å®šä¹‰          æŸ¥çœ‹ zf_device_wireless_interface.h ä¸­æ¥å£èµ„æºå®šä¹‰
  34:libraries/zf_device/zf_device_bluetooth_ch9141.c **** ***************************************************************************************************
  35:libraries/zf_device/zf_device_bluetooth_ch9141.c **** 
  36:libraries/zf_device/zf_device_bluetooth_ch9141.c **** // è‡ªèº«å¤´æ–‡ä»¶
  37:libraries/zf_device/zf_device_bluetooth_ch9141.c **** #include "zf_device_bluetooth_ch9141.h"
  38:libraries/zf_device/zf_device_bluetooth_ch9141.c **** 
  39:libraries/zf_device/zf_device_bluetooth_ch9141.c **** // æ­¤å¤„å®šä¹‰ MT9V03X ç›¸å…³çš„æ¥å£èµ„æº è¿™é‡Œä¸å…è®¸ç”¨æˆ·ä¿®æ”¹ è¿™é‡Œä¸å…è®¸ç”¨æˆ·ä¿®æ
  40:libraries/zf_device/zf_device_bluetooth_ch9141.c **** // >>>>>>>>>>>>>>>>>>>>>>>>>>>>>>>>>>>>>>>>> Part Start >>>>>>>>>>>>>>>>>>>>>>>>>>>>>>>>>>>>>>>>>
  41:libraries/zf_device/zf_device_bluetooth_ch9141.c **** #define BLUETOOTH_CH9141_TIMEOUT_COUNT     ( 0x64 )
  42:libraries/zf_device/zf_device_bluetooth_ch9141.c **** // <<<<<<<<<<<<<<<<<<<<<<<<<<<<<<<<<<<<<<<<< Part   End <<<<<<<<<<<<<<<<<<<<<<<<<<<<<<<<<<<<<<<<<
  43:libraries/zf_device/zf_device_bluetooth_ch9141.c **** 
  44:libraries/zf_device/zf_device_bluetooth_ch9141.c **** // æ­¤å¤„å®šä¹‰ æœ¬æ–‡ä»¶çš„æ‰€æœ‰å‡½æ•°å…·ä½“å®šä¹‰ è¿™é‡Œä¸å…è®¸ç”¨æˆ·ä¿®æ”¹
  45:libraries/zf_device/zf_device_bluetooth_ch9141.c **** // >>>>>>>>>>>>>>>>>>>>>>>>>>>>>>>>>>>>>>>>> Part Start >>>>>>>>>>>>>>>>>>>>>>>>>>>>>>>>>>>>>>>>>
  46:libraries/zf_device/zf_device_bluetooth_ch9141.c **** //-------------------------------------------------------------------------------------------------
  47:libraries/zf_device/zf_device_bluetooth_ch9141.c **** // å‡½æ•°ç®€ä»‹     WRIELESS_UART æ¨¡å— å‘é€æ•°æ® æ¡†æ¶æ¥å£
  48:libraries/zf_device/zf_device_bluetooth_ch9141.c **** // å‚æ•°è¯´æ˜     *interface          æ¥å£å¯¹è±¡ WIRELESS ç³»åˆ—é€šç”¨çš„æ¥å£å¯¹è±¡
  49:libraries/zf_device/zf_device_bluetooth_ch9141.c **** // å‚æ•°è¯´æ˜     data                8bit æ•°æ®
  50:libraries/zf_device/zf_device_bluetooth_ch9141.c **** // è¿”å›å‚æ•°     uint8               æ“ä½œçŠ¶æ€ ZF_NO_ERROR / WIRELESS_INTERFACE_OPERATION_DON
  51:libraries/zf_device/zf_device_bluetooth_ch9141.c **** // ä½¿ç”¨ç¤ºä¾‹     bluetooth_ch9141_func_send_byte(interface, data);
  52:libraries/zf_device/zf_device_bluetooth_ch9141.c **** // å¤‡æ³¨ä¿¡æ¯     
  53:libraries/zf_device/zf_device_bluetooth_ch9141.c **** //-------------------------------------------------------------------------------------------------
  54:libraries/zf_device/zf_device_bluetooth_ch9141.c **** static uint8 bluetooth_ch9141_func_send_byte (wireless_interface_obj_struct *interface, const uint8
  55:libraries/zf_device/zf_device_bluetooth_ch9141.c **** {
  28              		.loc 1 55 1
  29              		.cfi_startproc
  30              		@ args = 0, pretend = 0, frame = 16
  31              		@ frame_needed = 0, uses_anonymous_args = 0
  32 0000 00B5     		push	{lr}
  33              		.cfi_def_cfa_offset 4
  34              		.cfi_offset 14, -4
  35 0002 85B0     		sub	sp, sp, #20
  36              		.cfi_def_cfa_offset 24
  37 0004 0190     		str	r0, [sp, #4]
  38 0006 0B46     		mov	r3, r1
  39 0008 8DF80330 		strb	r3, [sp, #3]
  56:libraries/zf_device/zf_device_bluetooth_ch9141.c ****     bluetooth_ch9141_operation_state_enum  return_state    = BLUETOOTH_CH9141_ERROR_UNKNOW_ERROR;
  40              		.loc 1 56 44
  41 000c 0123     		movs	r3, #1
  42 000e 8DF80F30 		strb	r3, [sp, #15]
  43              	.LBB2:
  57:libraries/zf_device/zf_device_bluetooth_ch9141.c **** 
  58:libraries/zf_device/zf_device_bluetooth_ch9141.c ****     do
  59:libraries/zf_device/zf_device_bluetooth_ch9141.c ****     {
  60:libraries/zf_device/zf_device_bluetooth_ch9141.c ****         if(NULL == interface)
  44              		.loc 1 60 11
  45 0012 019B     		ldr	r3, [sp, #4]
  46 0014 002B     		cmp	r3, #0
  47 0016 03D1     		bne	.L2
  61:libraries/zf_device/zf_device_bluetooth_ch9141.c ****         {
  62:libraries/zf_device/zf_device_bluetooth_ch9141.c ****             return_state = BLUETOOTH_CH9141_ERROR_DATA_BUFFER_NULL;
  48              		.loc 1 62 26
  49 0018 2223     		movs	r3, #34
  50 001a 8DF80F30 		strb	r3, [sp, #15]
  63:libraries/zf_device/zf_device_bluetooth_ch9141.c ****             break;
  51              		.loc 1 63 13
  52 001e 28E0     		b	.L3
  53              	.L2:
  64:libraries/zf_device/zf_device_bluetooth_ch9141.c ****         }
  65:libraries/zf_device/zf_device_bluetooth_ch9141.c **** 
  66:libraries/zf_device/zf_device_bluetooth_ch9141.c ****         uint16 time_count = BLUETOOTH_CH9141_TIMEOUT_COUNT;
  54              		.loc 1 66 16
  55 0020 6423     		movs	r3, #100
  56 0022 ADF80C30 		strh	r3, [sp, #12]	@ movhi
  67:libraries/zf_device/zf_device_bluetooth_ch9141.c ****         while(time_count)
  57              		.loc 1 67 14
  58 0026 17E0     		b	.L4
  59              	.L7:
  68:libraries/zf_device/zf_device_bluetooth_ch9141.c ****         {
  69:libraries/zf_device/zf_device_bluetooth_ch9141.c ****             if(!zf_gpio_get_level(interface->rts_pin))
  60              		.loc 1 69 17
  61 0028 019B     		ldr	r3, [sp, #4]
  62 002a 5B88     		ldrh	r3, [r3, #2]
  63 002c 1846     		mov	r0, r3
  64 002e FFF7FEFF 		bl	zf_gpio_get_level
  65 0032 0346     		mov	r3, r0
  66              		.loc 1 69 15
  67 0034 002B     		cmp	r3, #0
  68 0036 07D1     		bne	.L5
  70:libraries/zf_device/zf_device_bluetooth_ch9141.c ****             {
  71:libraries/zf_device/zf_device_bluetooth_ch9141.c ****                 wireless_interface_write_8bit_array(interface, &data, 1);
  69              		.loc 1 71 17
  70 0038 0DF10303 		add	r3, sp, #3
  71 003c 0122     		movs	r2, #1
  72 003e 1946     		mov	r1, r3
  73 0040 0198     		ldr	r0, [sp, #4]
  74 0042 FFF7FEFF 		bl	wireless_interface_write_8bit_array
  72:libraries/zf_device/zf_device_bluetooth_ch9141.c ****                 break;
  75              		.loc 1 72 17
  76 0046 0BE0     		b	.L6
  77              	.L5:
  73:libraries/zf_device/zf_device_bluetooth_ch9141.c ****             }
  74:libraries/zf_device/zf_device_bluetooth_ch9141.c ****             time_count --;
  78              		.loc 1 74 24
  79 0048 BDF80C30 		ldrh	r3, [sp, #12]
  80 004c 013B     		subs	r3, r3, #1
  81 004e ADF80C30 		strh	r3, [sp, #12]	@ movhi
  75:libraries/zf_device/zf_device_bluetooth_ch9141.c ****             wireless_interface_delay_ms(1);
  82              		.loc 1 75 13
  83 0052 0120     		movs	r0, #1
  84 0054 FFF7FEFF 		bl	zf_delay_ms
  85              	.L4:
  67:libraries/zf_device/zf_device_bluetooth_ch9141.c ****         {
  86              		.loc 1 67 14
  87 0058 BDF80C30 		ldrh	r3, [sp, #12]
  88 005c 002B     		cmp	r3, #0
  89 005e E3D1     		bne	.L7
  90              	.L6:
  76:libraries/zf_device/zf_device_bluetooth_ch9141.c ****         }
  77:libraries/zf_device/zf_device_bluetooth_ch9141.c **** 
  78:libraries/zf_device/zf_device_bluetooth_ch9141.c ****         return_state = (0 < time_count) ? (BLUETOOTH_CH9141_OPERATION_DONE) : (BLUETOOTH_CH9141_WAR
  91              		.loc 1 78 77
  92 0060 BDF80C30 		ldrh	r3, [sp, #12]
  93 0064 002B     		cmp	r3, #0
  94 0066 01D0     		beq	.L8
  95              		.loc 1 78 77 is_stmt 0 discriminator 1
  96 0068 0023     		movs	r3, #0
  97 006a 00E0     		b	.L9
  98              	.L8:
  99              		.loc 1 78 77 discriminator 2
 100 006c 1123     		movs	r3, #17
 101              	.L9:
 102              		.loc 1 78 22 is_stmt 1 discriminator 4
 103 006e 8DF80F30 		strb	r3, [sp, #15]
 104              	.L3:
 105              	.LBE2:
  79:libraries/zf_device/zf_device_bluetooth_ch9141.c ****     }while(0);
  80:libraries/zf_device/zf_device_bluetooth_ch9141.c **** 
  81:libraries/zf_device/zf_device_bluetooth_ch9141.c ****     return return_state;
 106              		.loc 1 81 12
 107 0072 9DF80F30 		ldrb	r3, [sp, #15]	@ zero_extendqisi2
  82:libraries/zf_device/zf_device_bluetooth_ch9141.c **** }
 108              		.loc 1 82 1
 109 0076 1846     		mov	r0, r3
 110 0078 05B0     		add	sp, sp, #20
 111              		.cfi_def_cfa_offset 4
 112              		@ sp needed
 113 007a 5DF804FB 		ldr	pc, [sp], #4
 114              		.cfi_endproc
 115              	.LFE482:
 117 007e 00BF     		.section	.text.bluetooth_ch9141_func_send_buffer,"ax",%progbits
 118              		.align	1
 119              		.p2align 4,,15
 120              		.syntax unified
 121              		.thumb
 122              		.thumb_func
 124              	bluetooth_ch9141_func_send_buffer:
 125              	.LFB483:
  83:libraries/zf_device/zf_device_bluetooth_ch9141.c **** 
  84:libraries/zf_device/zf_device_bluetooth_ch9141.c **** //-------------------------------------------------------------------------------------------------
  85:libraries/zf_device/zf_device_bluetooth_ch9141.c **** // å‡½æ•°ç®€ä»‹     WRIELESS_UART æ¨¡å— å‘é€æ•°æ®å— æ¡†æ¶æ¥å£
  86:libraries/zf_device/zf_device_bluetooth_ch9141.c **** // å‚æ•°è¯´æ˜     *interface          æ¥å£å¯¹è±¡ WIRELESS ç³»åˆ—é€šç”¨çš„æ¥å£å¯¹è±¡
  87:libraries/zf_device/zf_device_bluetooth_ch9141.c **** // å‚æ•°è¯´æ˜     *buff               å‘é€æ•°æ®
  88:libraries/zf_device/zf_device_bluetooth_ch9141.c **** // å‚æ•°è¯´æ˜     *len                å‘é€æ•°æ®é•¿åº¦
  89:libraries/zf_device/zf_device_bluetooth_ch9141.c **** // è¿”å›å‚æ•°     uint8               æ“ä½œçŠ¶æ€ ZF_NO_ERROR / WIRELESS_INTERFACE_OPERATION_DON
  90:libraries/zf_device/zf_device_bluetooth_ch9141.c **** // ä½¿ç”¨ç¤ºä¾‹     bluetooth_ch9141_func_send_buffer(interface, buff, len);
  91:libraries/zf_device/zf_device_bluetooth_ch9141.c **** // å¤‡æ³¨ä¿¡æ¯     
  92:libraries/zf_device/zf_device_bluetooth_ch9141.c **** //-------------------------------------------------------------------------------------------------
  93:libraries/zf_device/zf_device_bluetooth_ch9141.c **** static uint8 bluetooth_ch9141_func_send_buffer (wireless_interface_obj_struct *interface, const uin
  94:libraries/zf_device/zf_device_bluetooth_ch9141.c **** {
 126              		.loc 1 94 1
 127              		.cfi_startproc
 128              		@ args = 0, pretend = 0, frame = 24
 129              		@ frame_needed = 0, uses_anonymous_args = 0
 130 0000 00B5     		push	{lr}
 131              		.cfi_def_cfa_offset 4
 132              		.cfi_offset 14, -4
 133 0002 87B0     		sub	sp, sp, #28
 134              		.cfi_def_cfa_offset 32
 135 0004 0390     		str	r0, [sp, #12]
 136 0006 0291     		str	r1, [sp, #8]
 137 0008 0192     		str	r2, [sp, #4]
  95:libraries/zf_device/zf_device_bluetooth_ch9141.c ****     bluetooth_ch9141_operation_state_enum  return_state    = BLUETOOTH_CH9141_ERROR_UNKNOW_ERROR;
 138              		.loc 1 95 44
 139 000a 0123     		movs	r3, #1
 140 000c 8DF81730 		strb	r3, [sp, #23]
 141              	.LBB3:
  96:libraries/zf_device/zf_device_bluetooth_ch9141.c **** 
  97:libraries/zf_device/zf_device_bluetooth_ch9141.c ****     do
  98:libraries/zf_device/zf_device_bluetooth_ch9141.c ****     {
  99:libraries/zf_device/zf_device_bluetooth_ch9141.c ****         if(NULL == interface)
 142              		.loc 1 99 11
 143 0010 039B     		ldr	r3, [sp, #12]
 144 0012 002B     		cmp	r3, #0
 145 0014 03D1     		bne	.L12
 100:libraries/zf_device/zf_device_bluetooth_ch9141.c ****         {
 101:libraries/zf_device/zf_device_bluetooth_ch9141.c ****             return_state = BLUETOOTH_CH9141_ERROR_DATA_BUFFER_NULL;
 146              		.loc 1 101 26
 147 0016 2223     		movs	r3, #34
 148 0018 8DF81730 		strb	r3, [sp, #23]
 102:libraries/zf_device/zf_device_bluetooth_ch9141.c ****             break;
 149              		.loc 1 102 13
 150 001c 45E0     		b	.L13
 151              	.L12:
 103:libraries/zf_device/zf_device_bluetooth_ch9141.c ****         }
 104:libraries/zf_device/zf_device_bluetooth_ch9141.c **** 
 105:libraries/zf_device/zf_device_bluetooth_ch9141.c ****         uint16 time_count = BLUETOOTH_CH9141_TIMEOUT_COUNT;
 152              		.loc 1 105 16
 153 001e 6423     		movs	r3, #100
 154 0020 ADF81430 		strh	r3, [sp, #20]	@ movhi
 106:libraries/zf_device/zf_device_bluetooth_ch9141.c ****         while(0 != *len && time_count)
 155              		.loc 1 106 14
 156 0024 30E0     		b	.L14
 157              	.L18:
 107:libraries/zf_device/zf_device_bluetooth_ch9141.c ****         {
 108:libraries/zf_device/zf_device_bluetooth_ch9141.c ****             if(!zf_gpio_get_level(wireless_interface_uart_default_obj.rts_pin)) // å¦‚æœRTSä¸ºä½ç
 158              		.loc 1 108 17
 159 0026 244B     		ldr	r3, .L22
 160 0028 5B88     		ldrh	r3, [r3, #2]
 161 002a 1846     		mov	r0, r3
 162 002c FFF7FEFF 		bl	zf_gpio_get_level
 163 0030 0346     		mov	r3, r0
 164              		.loc 1 108 15
 165 0032 002B     		cmp	r3, #0
 166 0034 20D1     		bne	.L15
 109:libraries/zf_device/zf_device_bluetooth_ch9141.c ****             {
 110:libraries/zf_device/zf_device_bluetooth_ch9141.c ****                 if(30 <= *len)                                                  // æ•°æ®åˆ† 30byte
 167              		.loc 1 110 26
 168 0036 019B     		ldr	r3, [sp, #4]
 169 0038 1B68     		ldr	r3, [r3]
 170              		.loc 1 110 19
 171 003a 1D2B     		cmp	r3, #29
 172 003c 11D9     		bls	.L16
 111:libraries/zf_device/zf_device_bluetooth_ch9141.c ****                 {
 112:libraries/zf_device/zf_device_bluetooth_ch9141.c ****                     wireless_interface_write_8bit_array(&wireless_interface_uart_default_obj, buff,
 173              		.loc 1 112 21
 174 003e 1E22     		movs	r2, #30
 175 0040 0299     		ldr	r1, [sp, #8]
 176 0042 1D48     		ldr	r0, .L22
 177 0044 FFF7FEFF 		bl	wireless_interface_write_8bit_array
 113:libraries/zf_device/zf_device_bluetooth_ch9141.c ****                     buff += 30;                                                 // åœ°å€åç§»
 178              		.loc 1 113 26
 179 0048 029B     		ldr	r3, [sp, #8]
 180 004a 1E33     		adds	r3, r3, #30
 181 004c 0293     		str	r3, [sp, #8]
 114:libraries/zf_device/zf_device_bluetooth_ch9141.c ****                     *len -= 30;                                                 // æ•°é‡
 182              		.loc 1 114 26
 183 004e 019B     		ldr	r3, [sp, #4]
 184 0050 1B68     		ldr	r3, [r3]
 185 0052 A3F11E02 		sub	r2, r3, #30
 186 0056 019B     		ldr	r3, [sp, #4]
 187 0058 1A60     		str	r2, [r3]
 115:libraries/zf_device/zf_device_bluetooth_ch9141.c ****                     time_count = BLUETOOTH_CH9141_TIMEOUT_COUNT;
 188              		.loc 1 115 32
 189 005a 6423     		movs	r3, #100
 190 005c ADF81430 		strh	r3, [sp, #20]	@ movhi
 191 0060 12E0     		b	.L14
 192              	.L16:
 116:libraries/zf_device/zf_device_bluetooth_ch9141.c ****                 }
 117:libraries/zf_device/zf_device_bluetooth_ch9141.c ****                 else                                                            // ä¸è¶³ 30byte çš
 118:libraries/zf_device/zf_device_bluetooth_ch9141.c ****                 {
 119:libraries/zf_device/zf_device_bluetooth_ch9141.c ****                     wireless_interface_write_8bit_array(&wireless_interface_uart_default_obj, buff,
 193              		.loc 1 119 21
 194 0062 019B     		ldr	r3, [sp, #4]
 195 0064 1B68     		ldr	r3, [r3]
 196 0066 1A46     		mov	r2, r3
 197 0068 0299     		ldr	r1, [sp, #8]
 198 006a 1348     		ldr	r0, .L22
 199 006c FFF7FEFF 		bl	wireless_interface_write_8bit_array
 120:libraries/zf_device/zf_device_bluetooth_ch9141.c ****                     *len = 0;
 200              		.loc 1 120 26
 201 0070 019B     		ldr	r3, [sp, #4]
 202 0072 0022     		movs	r2, #0
 203 0074 1A60     		str	r2, [r3]
 121:libraries/zf_device/zf_device_bluetooth_ch9141.c ****                     break;
 204              		.loc 1 121 21
 205 0076 0FE0     		b	.L17
 206              	.L15:
 122:libraries/zf_device/zf_device_bluetooth_ch9141.c ****                 }
 123:libraries/zf_device/zf_device_bluetooth_ch9141.c ****             }
 124:libraries/zf_device/zf_device_bluetooth_ch9141.c ****             else                                                                // å¦‚æœRTSä¸ºé«˜ç
 125:libraries/zf_device/zf_device_bluetooth_ch9141.c ****             {
 126:libraries/zf_device/zf_device_bluetooth_ch9141.c ****                 time_count --;
 207              		.loc 1 126 28
 208 0078 BDF81430 		ldrh	r3, [sp, #20]
 209 007c 013B     		subs	r3, r3, #1
 210 007e ADF81430 		strh	r3, [sp, #20]	@ movhi
 127:libraries/zf_device/zf_device_bluetooth_ch9141.c ****                 wireless_interface_delay_ms(1);
 211              		.loc 1 127 17
 212 0082 0120     		movs	r0, #1
 213 0084 FFF7FEFF 		bl	zf_delay_ms
 214              	.L14:
 106:libraries/zf_device/zf_device_bluetooth_ch9141.c ****         {
 215              		.loc 1 106 20
 216 0088 019B     		ldr	r3, [sp, #4]
 217 008a 1B68     		ldr	r3, [r3]
 106:libraries/zf_device/zf_device_bluetooth_ch9141.c ****         {
 218              		.loc 1 106 14
 219 008c 002B     		cmp	r3, #0
 220 008e 03D0     		beq	.L17
 106:libraries/zf_device/zf_device_bluetooth_ch9141.c ****         {
 221              		.loc 1 106 25 discriminator 1
 222 0090 BDF81430 		ldrh	r3, [sp, #20]
 223 0094 002B     		cmp	r3, #0
 224 0096 C6D1     		bne	.L18
 225              	.L17:
 128:libraries/zf_device/zf_device_bluetooth_ch9141.c ****             }
 129:libraries/zf_device/zf_device_bluetooth_ch9141.c ****         }
 130:libraries/zf_device/zf_device_bluetooth_ch9141.c **** 
 131:libraries/zf_device/zf_device_bluetooth_ch9141.c ****         return_state = (0 < time_count) ? (BLUETOOTH_CH9141_OPERATION_DONE) : (BLUETOOTH_CH9141_WAR
 226              		.loc 1 131 77
 227 0098 BDF81430 		ldrh	r3, [sp, #20]
 228 009c 002B     		cmp	r3, #0
 229 009e 01D0     		beq	.L19
 230              		.loc 1 131 77 is_stmt 0 discriminator 1
 231 00a0 0023     		movs	r3, #0
 232 00a2 00E0     		b	.L20
 233              	.L19:
 234              		.loc 1 131 77 discriminator 2
 235 00a4 1123     		movs	r3, #17
 236              	.L20:
 237              		.loc 1 131 22 is_stmt 1 discriminator 4
 238 00a6 8DF81730 		strb	r3, [sp, #23]
 239              	.L13:
 240              	.LBE3:
 132:libraries/zf_device/zf_device_bluetooth_ch9141.c ****     }while(0);
 133:libraries/zf_device/zf_device_bluetooth_ch9141.c **** 
 134:libraries/zf_device/zf_device_bluetooth_ch9141.c ****     return return_state;
 241              		.loc 1 134 12
 242 00aa 9DF81730 		ldrb	r3, [sp, #23]	@ zero_extendqisi2
 135:libraries/zf_device/zf_device_bluetooth_ch9141.c **** }
 243              		.loc 1 135 1
 244 00ae 1846     		mov	r0, r3
 245 00b0 07B0     		add	sp, sp, #28
 246              		.cfi_def_cfa_offset 4
 247              		@ sp needed
 248 00b2 5DF804FB 		ldr	pc, [sp], #4
 249              	.L23:
 250 00b6 00BF     		.align	2
 251              	.L22:
 252 00b8 00000000 		.word	wireless_interface_uart_default_obj
 253              		.cfi_endproc
 254              	.LFE483:
 256              		.section	.text.bluetooth_ch9141_func_send_string,"ax",%progbits
 257              		.align	1
 258              		.p2align 4,,15
 259              		.syntax unified
 260              		.thumb
 261              		.thumb_func
 263              	bluetooth_ch9141_func_send_string:
 264              	.LFB484:
 136:libraries/zf_device/zf_device_bluetooth_ch9141.c **** 
 137:libraries/zf_device/zf_device_bluetooth_ch9141.c **** //-------------------------------------------------------------------------------------------------
 138:libraries/zf_device/zf_device_bluetooth_ch9141.c **** // å‡½æ•°ç®€ä»‹     WRIELESS_UART æ¨¡å— å‘é€å­—ç¬¦ä¸² æ¡†æ¶æ¥å£
 139:libraries/zf_device/zf_device_bluetooth_ch9141.c **** // å‚æ•°è¯´æ˜     *interface          æ¥å£å¯¹è±¡ WIRELESS ç³»åˆ—é€šç”¨çš„æ¥å£å¯¹è±¡
 140:libraries/zf_device/zf_device_bluetooth_ch9141.c **** // å‚æ•°è¯´æ˜     *string             å‘é€å­—ç¬¦ä¸²
 141:libraries/zf_device/zf_device_bluetooth_ch9141.c **** // è¿”å›å‚æ•°     uint8               æ“ä½œçŠ¶æ€ ZF_NO_ERROR / WIRELESS_INTERFACE_OPERATION_DON
 142:libraries/zf_device/zf_device_bluetooth_ch9141.c **** // ä½¿ç”¨ç¤ºä¾‹     bluetooth_ch9141_func_send_string(interface, string);
 143:libraries/zf_device/zf_device_bluetooth_ch9141.c **** // å¤‡æ³¨ä¿¡æ¯     
 144:libraries/zf_device/zf_device_bluetooth_ch9141.c **** //-------------------------------------------------------------------------------------------------
 145:libraries/zf_device/zf_device_bluetooth_ch9141.c **** static uint8 bluetooth_ch9141_func_send_string (wireless_interface_obj_struct *interface, const cha
 146:libraries/zf_device/zf_device_bluetooth_ch9141.c **** {
 265              		.loc 1 146 1
 266              		.cfi_startproc
 267              		@ args = 0, pretend = 0, frame = 16
 268              		@ frame_needed = 0, uses_anonymous_args = 0
 269 0000 00B5     		push	{lr}
 270              		.cfi_def_cfa_offset 4
 271              		.cfi_offset 14, -4
 272 0002 85B0     		sub	sp, sp, #20
 273              		.cfi_def_cfa_offset 24
 274 0004 0190     		str	r0, [sp, #4]
 275 0006 0091     		str	r1, [sp]
 147:libraries/zf_device/zf_device_bluetooth_ch9141.c ****     bluetooth_ch9141_operation_state_enum  return_state    = BLUETOOTH_CH9141_ERROR_UNKNOW_ERROR;
 276              		.loc 1 147 44
 277 0008 0123     		movs	r3, #1
 278 000a 8DF80F30 		strb	r3, [sp, #15]
 279              	.LBB4:
 148:libraries/zf_device/zf_device_bluetooth_ch9141.c **** 
 149:libraries/zf_device/zf_device_bluetooth_ch9141.c ****     do
 150:libraries/zf_device/zf_device_bluetooth_ch9141.c ****     {
 151:libraries/zf_device/zf_device_bluetooth_ch9141.c ****         if(NULL == interface)
 280              		.loc 1 151 11
 281 000e 019B     		ldr	r3, [sp, #4]
 282 0010 002B     		cmp	r3, #0
 283 0012 03D1     		bne	.L25
 152:libraries/zf_device/zf_device_bluetooth_ch9141.c ****         {
 153:libraries/zf_device/zf_device_bluetooth_ch9141.c ****             return_state = BLUETOOTH_CH9141_ERROR_DATA_BUFFER_NULL;
 284              		.loc 1 153 26
 285 0014 2223     		movs	r3, #34
 286 0016 8DF80F30 		strb	r3, [sp, #15]
 154:libraries/zf_device/zf_device_bluetooth_ch9141.c ****             break;
 287              		.loc 1 154 13
 288 001a 41E0     		b	.L26
 289              	.L25:
 155:libraries/zf_device/zf_device_bluetooth_ch9141.c ****         }
 156:libraries/zf_device/zf_device_bluetooth_ch9141.c **** 
 157:libraries/zf_device/zf_device_bluetooth_ch9141.c ****         uint16 time_count = BLUETOOTH_CH9141_TIMEOUT_COUNT;
 290              		.loc 1 157 16
 291 001c 6423     		movs	r3, #100
 292 001e ADF80C30 		strh	r3, [sp, #12]	@ movhi
 158:libraries/zf_device/zf_device_bluetooth_ch9141.c ****         uint32 len = strlen(string);
 293              		.loc 1 158 22
 294 0022 0098     		ldr	r0, [sp]
 295 0024 FFF7FEFF 		bl	strlen
 296 0028 0290     		str	r0, [sp, #8]
 159:libraries/zf_device/zf_device_bluetooth_ch9141.c ****         while(0 != len && time_count)
 297              		.loc 1 159 14
 298 002a 29E0     		b	.L27
 299              	.L31:
 160:libraries/zf_device/zf_device_bluetooth_ch9141.c ****         {
 161:libraries/zf_device/zf_device_bluetooth_ch9141.c ****             if(!zf_gpio_get_level(wireless_interface_uart_default_obj.rts_pin)) // å¦‚æœRTSä¸ºä½ç
 300              		.loc 1 161 17
 301 002c 1F4B     		ldr	r3, .L35
 302 002e 5B88     		ldrh	r3, [r3, #2]
 303 0030 1846     		mov	r0, r3
 304 0032 FFF7FEFF 		bl	zf_gpio_get_level
 305 0036 0346     		mov	r3, r0
 306              		.loc 1 161 15
 307 0038 002B     		cmp	r3, #0
 308 003a 19D1     		bne	.L28
 162:libraries/zf_device/zf_device_bluetooth_ch9141.c ****             {
 163:libraries/zf_device/zf_device_bluetooth_ch9141.c ****                 if(30 <= len)                                                   // æ•°æ®åˆ† 30byte
 309              		.loc 1 163 19
 310 003c 029B     		ldr	r3, [sp, #8]
 311 003e 1D2B     		cmp	r3, #29
 312 0040 0ED9     		bls	.L29
 164:libraries/zf_device/zf_device_bluetooth_ch9141.c ****                 {
 165:libraries/zf_device/zf_device_bluetooth_ch9141.c ****                     wireless_interface_write_8bit_array(&wireless_interface_uart_default_obj, (cons
 313              		.loc 1 165 21
 314 0042 1E22     		movs	r2, #30
 315 0044 0099     		ldr	r1, [sp]
 316 0046 1948     		ldr	r0, .L35
 317 0048 FFF7FEFF 		bl	wireless_interface_write_8bit_array
 166:libraries/zf_device/zf_device_bluetooth_ch9141.c ****                     string += 30;                                               // åœ°å€åç§»
 318              		.loc 1 166 28
 319 004c 009B     		ldr	r3, [sp]
 320 004e 1E33     		adds	r3, r3, #30
 321 0050 0093     		str	r3, [sp]
 167:libraries/zf_device/zf_device_bluetooth_ch9141.c ****                     len -= 30;                                                  // æ•°é‡
 322              		.loc 1 167 25
 323 0052 029B     		ldr	r3, [sp, #8]
 324 0054 1E3B     		subs	r3, r3, #30
 325 0056 0293     		str	r3, [sp, #8]
 168:libraries/zf_device/zf_device_bluetooth_ch9141.c ****                     time_count = BLUETOOTH_CH9141_TIMEOUT_COUNT;
 326              		.loc 1 168 32
 327 0058 6423     		movs	r3, #100
 328 005a ADF80C30 		strh	r3, [sp, #12]	@ movhi
 329 005e 0FE0     		b	.L27
 330              	.L29:
 169:libraries/zf_device/zf_device_bluetooth_ch9141.c ****                 }
 170:libraries/zf_device/zf_device_bluetooth_ch9141.c ****                 else                                                            // ä¸è¶³ 30byte çš
 171:libraries/zf_device/zf_device_bluetooth_ch9141.c ****                 {
 172:libraries/zf_device/zf_device_bluetooth_ch9141.c ****                     wireless_interface_write_8bit_array(&wireless_interface_uart_default_obj, (cons
 331              		.loc 1 172 21
 332 0060 029A     		ldr	r2, [sp, #8]
 333 0062 0099     		ldr	r1, [sp]
 334 0064 1148     		ldr	r0, .L35
 335 0066 FFF7FEFF 		bl	wireless_interface_write_8bit_array
 173:libraries/zf_device/zf_device_bluetooth_ch9141.c ****                     len = 0;
 336              		.loc 1 173 25
 337 006a 0023     		movs	r3, #0
 338 006c 0293     		str	r3, [sp, #8]
 174:libraries/zf_device/zf_device_bluetooth_ch9141.c ****                     break;
 339              		.loc 1 174 21
 340 006e 0EE0     		b	.L30
 341              	.L28:
 175:libraries/zf_device/zf_device_bluetooth_ch9141.c ****                 }
 176:libraries/zf_device/zf_device_bluetooth_ch9141.c ****             }
 177:libraries/zf_device/zf_device_bluetooth_ch9141.c ****             else                                                                // å¦‚æœRTSä¸ºé«˜ç
 178:libraries/zf_device/zf_device_bluetooth_ch9141.c ****             {
 179:libraries/zf_device/zf_device_bluetooth_ch9141.c ****                 time_count --;
 342              		.loc 1 179 28
 343 0070 BDF80C30 		ldrh	r3, [sp, #12]
 344 0074 013B     		subs	r3, r3, #1
 345 0076 ADF80C30 		strh	r3, [sp, #12]	@ movhi
 180:libraries/zf_device/zf_device_bluetooth_ch9141.c ****                 wireless_interface_delay_ms(1);
 346              		.loc 1 180 17
 347 007a 0120     		movs	r0, #1
 348 007c FFF7FEFF 		bl	zf_delay_ms
 349              	.L27:
 159:libraries/zf_device/zf_device_bluetooth_ch9141.c ****         {
 350              		.loc 1 159 14
 351 0080 029B     		ldr	r3, [sp, #8]
 352 0082 002B     		cmp	r3, #0
 353 0084 03D0     		beq	.L30
 159:libraries/zf_device/zf_device_bluetooth_ch9141.c ****         {
 354              		.loc 1 159 24 discriminator 1
 355 0086 BDF80C30 		ldrh	r3, [sp, #12]
 356 008a 002B     		cmp	r3, #0
 357 008c CED1     		bne	.L31
 358              	.L30:
 181:libraries/zf_device/zf_device_bluetooth_ch9141.c ****             }
 182:libraries/zf_device/zf_device_bluetooth_ch9141.c ****         }
 183:libraries/zf_device/zf_device_bluetooth_ch9141.c **** 
 184:libraries/zf_device/zf_device_bluetooth_ch9141.c ****         return_state = (0 < time_count) ? (BLUETOOTH_CH9141_OPERATION_DONE) : (BLUETOOTH_CH9141_WAR
 359              		.loc 1 184 77
 360 008e BDF80C30 		ldrh	r3, [sp, #12]
 361 0092 002B     		cmp	r3, #0
 362 0094 01D0     		beq	.L32
 363              		.loc 1 184 77 is_stmt 0 discriminator 1
 364 0096 0023     		movs	r3, #0
 365 0098 00E0     		b	.L33
 366              	.L32:
 367              		.loc 1 184 77 discriminator 2
 368 009a 1123     		movs	r3, #17
 369              	.L33:
 370              		.loc 1 184 22 is_stmt 1 discriminator 4
 371 009c 8DF80F30 		strb	r3, [sp, #15]
 372              	.L26:
 373              	.LBE4:
 185:libraries/zf_device/zf_device_bluetooth_ch9141.c ****     }while(0);
 186:libraries/zf_device/zf_device_bluetooth_ch9141.c **** 
 187:libraries/zf_device/zf_device_bluetooth_ch9141.c ****     return return_state;
 374              		.loc 1 187 12
 375 00a0 9DF80F30 		ldrb	r3, [sp, #15]	@ zero_extendqisi2
 188:libraries/zf_device/zf_device_bluetooth_ch9141.c **** }
 376              		.loc 1 188 1
 377 00a4 1846     		mov	r0, r3
 378 00a6 05B0     		add	sp, sp, #20
 379              		.cfi_def_cfa_offset 4
 380              		@ sp needed
 381 00a8 5DF804FB 		ldr	pc, [sp], #4
 382              	.L36:
 383              		.align	2
 384              	.L35:
 385 00ac 00000000 		.word	wireless_interface_uart_default_obj
 386              		.cfi_endproc
 387              	.LFE484:
 389              		.section	.text.bluetooth_ch9141_func_read_buffer,"ax",%progbits
 390              		.align	1
 391              		.p2align 4,,15
 392              		.syntax unified
 393              		.thumb
 394              		.thumb_func
 396              	bluetooth_ch9141_func_read_buffer:
 397              	.LFB485:
 189:libraries/zf_device/zf_device_bluetooth_ch9141.c **** 
 190:libraries/zf_device/zf_device_bluetooth_ch9141.c **** //-------------------------------------------------------------------------------------------------
 191:libraries/zf_device/zf_device_bluetooth_ch9141.c **** // å‡½æ•°ç®€ä»‹     WRIELESS_UART æ¨¡å— è¯»å–ç¼“å†² æ¡†æ¶æ¥å£
 192:libraries/zf_device/zf_device_bluetooth_ch9141.c **** // å‚æ•°è¯´æ˜     *interface          æ¥å£å¯¹è±¡ WIRELESS ç³»åˆ—é€šç”¨çš„æ¥å£å¯¹è±¡
 193:libraries/zf_device/zf_device_bluetooth_ch9141.c **** // å‚æ•°è¯´æ˜     *buff               å‘é€æ•°æ®
 194:libraries/zf_device/zf_device_bluetooth_ch9141.c **** // å‚æ•°è¯´æ˜     *len                å‘é€æ•°æ®é•¿åº¦
 195:libraries/zf_device/zf_device_bluetooth_ch9141.c **** // è¿”å›å‚æ•°     uint8               æ“ä½œçŠ¶æ€ ZF_NO_ERROR / WIRELESS_INTERFACE_OPERATION_DON
 196:libraries/zf_device/zf_device_bluetooth_ch9141.c **** // ä½¿ç”¨ç¤ºä¾‹     bluetooth_ch9141_func_read_buffer(interface, buff, len);
 197:libraries/zf_device/zf_device_bluetooth_ch9141.c **** // å¤‡æ³¨ä¿¡æ¯     
 198:libraries/zf_device/zf_device_bluetooth_ch9141.c **** //-------------------------------------------------------------------------------------------------
 199:libraries/zf_device/zf_device_bluetooth_ch9141.c **** static uint8 bluetooth_ch9141_func_read_buffer (wireless_interface_obj_struct *interface, uint8 *bu
 200:libraries/zf_device/zf_device_bluetooth_ch9141.c **** {
 398              		.loc 1 200 1
 399              		.cfi_startproc
 400              		@ args = 0, pretend = 0, frame = 24
 401              		@ frame_needed = 0, uses_anonymous_args = 0
 402 0000 00B5     		push	{lr}
 403              		.cfi_def_cfa_offset 4
 404              		.cfi_offset 14, -4
 405 0002 87B0     		sub	sp, sp, #28
 406              		.cfi_def_cfa_offset 32
 407 0004 0390     		str	r0, [sp, #12]
 408 0006 0291     		str	r1, [sp, #8]
 409 0008 0192     		str	r2, [sp, #4]
 201:libraries/zf_device/zf_device_bluetooth_ch9141.c ****     bluetooth_ch9141_operation_state_enum  return_state    = BLUETOOTH_CH9141_ERROR_UNKNOW_ERROR;
 410              		.loc 1 201 44
 411 000a 0123     		movs	r3, #1
 412 000c 8DF81730 		strb	r3, [sp, #23]
 413              	.LBB5:
 202:libraries/zf_device/zf_device_bluetooth_ch9141.c **** 
 203:libraries/zf_device/zf_device_bluetooth_ch9141.c ****     do
 204:libraries/zf_device/zf_device_bluetooth_ch9141.c ****     {
 205:libraries/zf_device/zf_device_bluetooth_ch9141.c ****         if(NULL == interface)
 414              		.loc 1 205 11
 415 0010 039B     		ldr	r3, [sp, #12]
 416 0012 002B     		cmp	r3, #0
 417 0014 03D1     		bne	.L38
 206:libraries/zf_device/zf_device_bluetooth_ch9141.c ****         {
 207:libraries/zf_device/zf_device_bluetooth_ch9141.c ****             return_state = BLUETOOTH_CH9141_ERROR_DATA_BUFFER_NULL;
 418              		.loc 1 207 26
 419 0016 2223     		movs	r3, #34
 420 0018 8DF81730 		strb	r3, [sp, #23]
 208:libraries/zf_device/zf_device_bluetooth_ch9141.c ****             break;
 421              		.loc 1 208 13
 422 001c 12E0     		b	.L39
 423              	.L38:
 209:libraries/zf_device/zf_device_bluetooth_ch9141.c ****         }
 210:libraries/zf_device/zf_device_bluetooth_ch9141.c **** 
 211:libraries/zf_device/zf_device_bluetooth_ch9141.c ****         uint32 data_len = *len;
 424              		.loc 1 211 16
 425 001e 019B     		ldr	r3, [sp, #4]
 426 0020 1B68     		ldr	r3, [r3]
 427 0022 0493     		str	r3, [sp, #16]
 212:libraries/zf_device/zf_device_bluetooth_ch9141.c ****         zf_fifo_read_buffer(&wireless_interface_uart_default_obj.fifo_obj, buff, len, FIFO_READ_WIT
 428              		.loc 1 212 9
 429 0024 0123     		movs	r3, #1
 430 0026 019A     		ldr	r2, [sp, #4]
 431 0028 0299     		ldr	r1, [sp, #8]
 432 002a 0948     		ldr	r0, .L43
 433 002c FFF7FEFF 		bl	zf_fifo_read_buffer
 213:libraries/zf_device/zf_device_bluetooth_ch9141.c **** 
 214:libraries/zf_device/zf_device_bluetooth_ch9141.c ****         return_state = (data_len != *len) ? (BLUETOOTH_CH9141_OPERATION_DONE) : (BLUETOOTH_CH9141_W
 434              		.loc 1 214 37
 435 0030 019B     		ldr	r3, [sp, #4]
 436 0032 1B68     		ldr	r3, [r3]
 437              		.loc 1 214 79
 438 0034 049A     		ldr	r2, [sp, #16]
 439 0036 9A42     		cmp	r2, r3
 440 0038 01D0     		beq	.L40
 441              		.loc 1 214 79 is_stmt 0 discriminator 1
 442 003a 0023     		movs	r3, #0
 443 003c 00E0     		b	.L41
 444              	.L40:
 445              		.loc 1 214 79 discriminator 2
 446 003e 1123     		movs	r3, #17
 447              	.L41:
 448              		.loc 1 214 22 is_stmt 1 discriminator 4
 449 0040 8DF81730 		strb	r3, [sp, #23]
 450              	.L39:
 451              	.LBE5:
 215:libraries/zf_device/zf_device_bluetooth_ch9141.c ****     }while(0);
 216:libraries/zf_device/zf_device_bluetooth_ch9141.c **** 
 217:libraries/zf_device/zf_device_bluetooth_ch9141.c ****     return return_state;
 452              		.loc 1 217 12
 453 0044 9DF81730 		ldrb	r3, [sp, #23]	@ zero_extendqisi2
 218:libraries/zf_device/zf_device_bluetooth_ch9141.c **** }
 454              		.loc 1 218 1
 455 0048 1846     		mov	r0, r3
 456 004a 07B0     		add	sp, sp, #28
 457              		.cfi_def_cfa_offset 4
 458              		@ sp needed
 459 004c 5DF804FB 		ldr	pc, [sp], #4
 460              	.L44:
 461              		.align	2
 462              	.L43:
 463 0050 0C000000 		.word	wireless_interface_uart_default_obj+12
 464              		.cfi_endproc
 465              	.LFE485:
 467              		.section	.text.bluetooth_ch9141_callback,"ax",%progbits
 468              		.align	1
 469              		.p2align 4,,15
 470              		.syntax unified
 471              		.thumb
 472              		.thumb_func
 474              	bluetooth_ch9141_callback:
 475              	.LFB486:
 219:libraries/zf_device/zf_device_bluetooth_ch9141.c **** 
 220:libraries/zf_device/zf_device_bluetooth_ch9141.c **** //-------------------------------------------------------------------------------------------------
 221:libraries/zf_device/zf_device_bluetooth_ch9141.c **** // å‡½æ•°ç®€ä»‹     WRIELESS_UART æ¨¡å— ä¸²å£ä¸­æ–­å›è°ƒå‡½æ•°
 222:libraries/zf_device/zf_device_bluetooth_ch9141.c **** // å‚æ•°è¯´æ˜     void
 223:libraries/zf_device/zf_device_bluetooth_ch9141.c **** // è¿”å›å‚æ•°     void
 224:libraries/zf_device/zf_device_bluetooth_ch9141.c **** // ä½¿ç”¨ç¤ºä¾‹     bluetooth_ch9141_callback();
 225:libraries/zf_device/zf_device_bluetooth_ch9141.c **** // å¤‡æ³¨ä¿¡æ¯     è¯¥å‡½æ•°åœ¨ ISR æ–‡ä»¶ ä¸²å£ä¸­æ–­ç¨‹åºè¢«è°ƒç”¨
 226:libraries/zf_device/zf_device_bluetooth_ch9141.c **** //              ç”±ä¸²å£ä¸­æ–­æœåŠ¡å‡½æ•°è°ƒç”¨ wireless_module_uart_handler() å‡½æ•°
 227:libraries/zf_device/zf_device_bluetooth_ch9141.c **** //              å†ç”± wireless_module_uart_handler() å‡½æ•°è°ƒç”¨æœ¬å‡½æ•°
 228:libraries/zf_device/zf_device_bluetooth_ch9141.c **** //-------------------------------------------------------------------------------------------------
 229:libraries/zf_device/zf_device_bluetooth_ch9141.c **** static void bluetooth_ch9141_callback (uint32 event, void *ptr)
 230:libraries/zf_device/zf_device_bluetooth_ch9141.c **** {
 476              		.loc 1 230 1
 477              		.cfi_startproc
 478              		@ args = 0, pretend = 0, frame = 16
 479              		@ frame_needed = 0, uses_anonymous_args = 0
 480 0000 00B5     		push	{lr}
 481              		.cfi_def_cfa_offset 4
 482              		.cfi_offset 14, -4
 483 0002 85B0     		sub	sp, sp, #20
 484              		.cfi_def_cfa_offset 24
 485 0004 0190     		str	r0, [sp, #4]
 486 0006 0091     		str	r1, [sp]
 231:libraries/zf_device/zf_device_bluetooth_ch9141.c ****     (void)event;
 232:libraries/zf_device/zf_device_bluetooth_ch9141.c ****     uint8   bluetooth_ch9141_data  = 0;
 487              		.loc 1 232 13
 488 0008 0023     		movs	r3, #0
 489 000a 8DF80B30 		strb	r3, [sp, #11]
 233:libraries/zf_device/zf_device_bluetooth_ch9141.c **** 
 234:libraries/zf_device/zf_device_bluetooth_ch9141.c ****     wireless_interface_obj_struct *interface = (wireless_interface_obj_struct *)ptr;
 490              		.loc 1 234 36
 491 000e 009B     		ldr	r3, [sp]
 492 0010 0393     		str	r3, [sp, #12]
 235:libraries/zf_device/zf_device_bluetooth_ch9141.c ****     wireless_interface_read_8bit_array(interface, &bluetooth_ch9141_data, 1);
 493              		.loc 1 235 5
 494 0012 0DF10B03 		add	r3, sp, #11
 495 0016 0122     		movs	r2, #1
 496 0018 1946     		mov	r1, r3
 497 001a 0398     		ldr	r0, [sp, #12]
 498 001c FFF7FEFF 		bl	wireless_interface_read_8bit_array
 236:libraries/zf_device/zf_device_bluetooth_ch9141.c ****     zf_fifo_write_element(&(interface->fifo_obj), bluetooth_ch9141_data);
 499              		.loc 1 236 5
 500 0020 039B     		ldr	r3, [sp, #12]
 501 0022 0C33     		adds	r3, r3, #12
 502 0024 9DF80B20 		ldrb	r2, [sp, #11]	@ zero_extendqisi2
 503 0028 1146     		mov	r1, r2
 504 002a 1846     		mov	r0, r3
 505 002c FFF7FEFF 		bl	zf_fifo_write_element
 237:libraries/zf_device/zf_device_bluetooth_ch9141.c **** }
 506              		.loc 1 237 1
 507 0030 00BF     		nop
 508 0032 05B0     		add	sp, sp, #20
 509              		.cfi_def_cfa_offset 4
 510              		@ sp needed
 511 0034 5DF804FB 		ldr	pc, [sp], #4
 512              		.cfi_endproc
 513              	.LFE486:
 515              		.section	.text.bluetooth_ch9141_send_byte,"ax",%progbits
 516              		.align	1
 517              		.p2align 4,,15
 518              		.global	bluetooth_ch9141_send_byte
 519              		.syntax unified
 520              		.thumb
 521              		.thumb_func
 523              	bluetooth_ch9141_send_byte:
 524              	.LFB487:
 238:libraries/zf_device/zf_device_bluetooth_ch9141.c **** 
 239:libraries/zf_device/zf_device_bluetooth_ch9141.c **** //-------------------------------------------------------------------------------------------------
 240:libraries/zf_device/zf_device_bluetooth_ch9141.c **** // å‡½æ•°ç®€ä»‹     WRIELESS_UART æ¨¡å— å‘é€æ•°æ®
 241:libraries/zf_device/zf_device_bluetooth_ch9141.c **** // å‚æ•°è¯´æ˜     data                8bit æ•°æ®
 242:libraries/zf_device/zf_device_bluetooth_ch9141.c **** // è¿”å›å‚æ•°     uint8               æ“ä½œçŠ¶æ€ ZF_NO_ERROR / WIRELESS_INTERFACE_OPERATION_DON
 243:libraries/zf_device/zf_device_bluetooth_ch9141.c **** // ä½¿ç”¨ç¤ºä¾‹     bluetooth_ch9141_send_byte(data);
 244:libraries/zf_device/zf_device_bluetooth_ch9141.c **** // å¤‡æ³¨ä¿¡æ¯     
 245:libraries/zf_device/zf_device_bluetooth_ch9141.c **** //-------------------------------------------------------------------------------------------------
 246:libraries/zf_device/zf_device_bluetooth_ch9141.c **** uint8 bluetooth_ch9141_send_byte (const uint8 data)
 247:libraries/zf_device/zf_device_bluetooth_ch9141.c **** {
 525              		.loc 1 247 1
 526              		.cfi_startproc
 527              		@ args = 0, pretend = 0, frame = 8
 528              		@ frame_needed = 0, uses_anonymous_args = 0
 529 0000 00B5     		push	{lr}
 530              		.cfi_def_cfa_offset 4
 531              		.cfi_offset 14, -4
 532 0002 83B0     		sub	sp, sp, #12
 533              		.cfi_def_cfa_offset 16
 534 0004 0346     		mov	r3, r0
 535 0006 8DF80730 		strb	r3, [sp, #7]
 248:libraries/zf_device/zf_device_bluetooth_ch9141.c ****     return bluetooth_ch9141_func_send_byte(&wireless_interface_uart_default_obj, data);
 536              		.loc 1 248 12
 537 000a 9DF80730 		ldrb	r3, [sp, #7]	@ zero_extendqisi2
 538 000e 1946     		mov	r1, r3
 539 0010 0348     		ldr	r0, .L48
 540 0012 FFF7FEFF 		bl	bluetooth_ch9141_func_send_byte
 541 0016 0346     		mov	r3, r0
 249:libraries/zf_device/zf_device_bluetooth_ch9141.c **** }
 542              		.loc 1 249 1
 543 0018 1846     		mov	r0, r3
 544 001a 03B0     		add	sp, sp, #12
 545              		.cfi_def_cfa_offset 4
 546              		@ sp needed
 547 001c 5DF804FB 		ldr	pc, [sp], #4
 548              	.L49:
 549              		.align	2
 550              	.L48:
 551 0020 00000000 		.word	wireless_interface_uart_default_obj
 552              		.cfi_endproc
 553              	.LFE487:
 555              		.section	.text.bluetooth_ch9141_send_buffer,"ax",%progbits
 556              		.align	1
 557              		.p2align 4,,15
 558              		.global	bluetooth_ch9141_send_buffer
 559              		.syntax unified
 560              		.thumb
 561              		.thumb_func
 563              	bluetooth_ch9141_send_buffer:
 564              	.LFB488:
 250:libraries/zf_device/zf_device_bluetooth_ch9141.c **** 
 251:libraries/zf_device/zf_device_bluetooth_ch9141.c **** //-------------------------------------------------------------------------------------------------
 252:libraries/zf_device/zf_device_bluetooth_ch9141.c **** // å‡½æ•°ç®€ä»‹     WRIELESS_UART æ¨¡å— å‘é€æ•°æ®å—
 253:libraries/zf_device/zf_device_bluetooth_ch9141.c **** // å‚æ•°è¯´æ˜     *buff               å‘é€æ•°æ®
 254:libraries/zf_device/zf_device_bluetooth_ch9141.c **** // å‚æ•°è¯´æ˜     *len                å‘é€æ•°æ®é•¿åº¦
 255:libraries/zf_device/zf_device_bluetooth_ch9141.c **** // è¿”å›å‚æ•°     uint8               æ“ä½œçŠ¶æ€ ZF_NO_ERROR / WIRELESS_INTERFACE_OPERATION_DON
 256:libraries/zf_device/zf_device_bluetooth_ch9141.c **** // ä½¿ç”¨ç¤ºä¾‹     bluetooth_ch9141_send_buffer(buff, len);
 257:libraries/zf_device/zf_device_bluetooth_ch9141.c **** // å¤‡æ³¨ä¿¡æ¯     
 258:libraries/zf_device/zf_device_bluetooth_ch9141.c **** //-------------------------------------------------------------------------------------------------
 259:libraries/zf_device/zf_device_bluetooth_ch9141.c **** uint8 bluetooth_ch9141_send_buffer (const uint8 *buff, uint32 *len)
 260:libraries/zf_device/zf_device_bluetooth_ch9141.c **** {
 565              		.loc 1 260 1
 566              		.cfi_startproc
 567              		@ args = 0, pretend = 0, frame = 8
 568              		@ frame_needed = 0, uses_anonymous_args = 0
 569 0000 00B5     		push	{lr}
 570              		.cfi_def_cfa_offset 4
 571              		.cfi_offset 14, -4
 572 0002 83B0     		sub	sp, sp, #12
 573              		.cfi_def_cfa_offset 16
 574 0004 0190     		str	r0, [sp, #4]
 575 0006 0091     		str	r1, [sp]
 261:libraries/zf_device/zf_device_bluetooth_ch9141.c ****     return bluetooth_ch9141_func_send_buffer(&wireless_interface_uart_default_obj, buff, len);
 576              		.loc 1 261 12
 577 0008 009A     		ldr	r2, [sp]
 578 000a 0199     		ldr	r1, [sp, #4]
 579 000c 0348     		ldr	r0, .L52
 580 000e FFF7FEFF 		bl	bluetooth_ch9141_func_send_buffer
 581 0012 0346     		mov	r3, r0
 262:libraries/zf_device/zf_device_bluetooth_ch9141.c **** }
 582              		.loc 1 262 1
 583 0014 1846     		mov	r0, r3
 584 0016 03B0     		add	sp, sp, #12
 585              		.cfi_def_cfa_offset 4
 586              		@ sp needed
 587 0018 5DF804FB 		ldr	pc, [sp], #4
 588              	.L53:
 589              		.align	2
 590              	.L52:
 591 001c 00000000 		.word	wireless_interface_uart_default_obj
 592              		.cfi_endproc
 593              	.LFE488:
 595              		.section	.text.bluetooth_ch9141_send_string,"ax",%progbits
 596              		.align	1
 597              		.p2align 4,,15
 598              		.global	bluetooth_ch9141_send_string
 599              		.syntax unified
 600              		.thumb
 601              		.thumb_func
 603              	bluetooth_ch9141_send_string:
 604              	.LFB489:
 263:libraries/zf_device/zf_device_bluetooth_ch9141.c **** 
 264:libraries/zf_device/zf_device_bluetooth_ch9141.c **** //-------------------------------------------------------------------------------------------------
 265:libraries/zf_device/zf_device_bluetooth_ch9141.c **** // å‡½æ•°ç®€ä»‹     WRIELESS_UART æ¨¡å— å‘é€å­—ç¬¦ä¸²
 266:libraries/zf_device/zf_device_bluetooth_ch9141.c **** // å‚æ•°è¯´æ˜     *string             è¦å‘é€çš„å­—ç¬¦ä¸²åœ°å€
 267:libraries/zf_device/zf_device_bluetooth_ch9141.c **** // è¿”å›å‚æ•°     uint8               æ“ä½œçŠ¶æ€ ZF_NO_ERROR / WIRELESS_INTERFACE_OPERATION_DON
 268:libraries/zf_device/zf_device_bluetooth_ch9141.c **** // ä½¿ç”¨ç¤ºä¾‹     bluetooth_ch9141_send_string(string);
 269:libraries/zf_device/zf_device_bluetooth_ch9141.c **** // å¤‡æ³¨ä¿¡æ¯     
 270:libraries/zf_device/zf_device_bluetooth_ch9141.c **** //-------------------------------------------------------------------------------------------------
 271:libraries/zf_device/zf_device_bluetooth_ch9141.c **** uint8 bluetooth_ch9141_send_string (const char *string)
 272:libraries/zf_device/zf_device_bluetooth_ch9141.c **** {
 605              		.loc 1 272 1
 606              		.cfi_startproc
 607              		@ args = 0, pretend = 0, frame = 8
 608              		@ frame_needed = 0, uses_anonymous_args = 0
 609 0000 00B5     		push	{lr}
 610              		.cfi_def_cfa_offset 4
 611              		.cfi_offset 14, -4
 612 0002 83B0     		sub	sp, sp, #12
 613              		.cfi_def_cfa_offset 16
 614 0004 0190     		str	r0, [sp, #4]
 273:libraries/zf_device/zf_device_bluetooth_ch9141.c ****     return bluetooth_ch9141_func_send_string(&wireless_interface_uart_default_obj, string);
 615              		.loc 1 273 12
 616 0006 0199     		ldr	r1, [sp, #4]
 617 0008 0348     		ldr	r0, .L56
 618 000a FFF7FEFF 		bl	bluetooth_ch9141_func_send_string
 619 000e 0346     		mov	r3, r0
 274:libraries/zf_device/zf_device_bluetooth_ch9141.c **** }
 620              		.loc 1 274 1
 621 0010 1846     		mov	r0, r3
 622 0012 03B0     		add	sp, sp, #12
 623              		.cfi_def_cfa_offset 4
 624              		@ sp needed
 625 0014 5DF804FB 		ldr	pc, [sp], #4
 626              	.L57:
 627              		.align	2
 628              	.L56:
 629 0018 00000000 		.word	wireless_interface_uart_default_obj
 630              		.cfi_endproc
 631              	.LFE489:
 633              		.section	.text.bluetooth_ch9141_read_buffer,"ax",%progbits
 634              		.align	1
 635              		.p2align 4,,15
 636              		.global	bluetooth_ch9141_read_buffer
 637              		.syntax unified
 638              		.thumb
 639              		.thumb_func
 641              	bluetooth_ch9141_read_buffer:
 642              	.LFB490:
 275:libraries/zf_device/zf_device_bluetooth_ch9141.c **** 
 276:libraries/zf_device/zf_device_bluetooth_ch9141.c **** //-------------------------------------------------------------------------------------------------
 277:libraries/zf_device/zf_device_bluetooth_ch9141.c **** // å‡½æ•°ç®€ä»‹     WRIELESS_UART æ¨¡å— è¯»å–ç¼“å†²
 278:libraries/zf_device/zf_device_bluetooth_ch9141.c **** // å‚æ•°è¯´æ˜     *buff               æ¥æ”¶ç¼“å†²åŒº
 279:libraries/zf_device/zf_device_bluetooth_ch9141.c **** // å‚æ•°è¯´æ˜     *len                è¯»å–æ•°æ®é•¿åº¦
 280:libraries/zf_device/zf_device_bluetooth_ch9141.c **** // è¿”å›å‚æ•°     uint8               æ“ä½œçŠ¶æ€ ZF_NO_ERROR / WIRELESS_INTERFACE_OPERATION_DON
 281:libraries/zf_device/zf_device_bluetooth_ch9141.c **** // ä½¿ç”¨ç¤ºä¾‹     bluetooth_ch9141_read_buffer(buff, len);
 282:libraries/zf_device/zf_device_bluetooth_ch9141.c **** // å¤‡æ³¨ä¿¡æ¯     
 283:libraries/zf_device/zf_device_bluetooth_ch9141.c **** //-------------------------------------------------------------------------------------------------
 284:libraries/zf_device/zf_device_bluetooth_ch9141.c **** uint8 bluetooth_ch9141_read_buffer (uint8 *buff, uint32 *len)
 285:libraries/zf_device/zf_device_bluetooth_ch9141.c **** {
 643              		.loc 1 285 1
 644              		.cfi_startproc
 645              		@ args = 0, pretend = 0, frame = 8
 646              		@ frame_needed = 0, uses_anonymous_args = 0
 647 0000 00B5     		push	{lr}
 648              		.cfi_def_cfa_offset 4
 649              		.cfi_offset 14, -4
 650 0002 83B0     		sub	sp, sp, #12
 651              		.cfi_def_cfa_offset 16
 652 0004 0190     		str	r0, [sp, #4]
 653 0006 0091     		str	r1, [sp]
 286:libraries/zf_device/zf_device_bluetooth_ch9141.c ****     return bluetooth_ch9141_func_read_buffer(&wireless_interface_uart_default_obj, buff, len);
 654              		.loc 1 286 12
 655 0008 009A     		ldr	r2, [sp]
 656 000a 0199     		ldr	r1, [sp, #4]
 657 000c 0348     		ldr	r0, .L60
 658 000e FFF7FEFF 		bl	bluetooth_ch9141_func_read_buffer
 659 0012 0346     		mov	r3, r0
 287:libraries/zf_device/zf_device_bluetooth_ch9141.c **** }
 660              		.loc 1 287 1
 661 0014 1846     		mov	r0, r3
 662 0016 03B0     		add	sp, sp, #12
 663              		.cfi_def_cfa_offset 4
 664              		@ sp needed
 665 0018 5DF804FB 		ldr	pc, [sp], #4
 666              	.L61:
 667              		.align	2
 668              	.L60:
 669 001c 00000000 		.word	wireless_interface_uart_default_obj
 670              		.cfi_endproc
 671              	.LFE490:
 673              		.section	.rodata
 674              		.align	2
 675              	.LC0:
 676 0000 6C696272 		.ascii	"libraries/zf_device/zf_device_bluetooth_ch9141.c\000"
 676      61726965 
 676      732F7A66 
 676      5F646576 
 676      6963652F 
 677              		.section	.text.bluetooth_ch9141_init,"ax",%progbits
 678              		.align	1
 679              		.p2align 4,,15
 680              		.global	bluetooth_ch9141_init
 681              		.syntax unified
 682              		.thumb
 683              		.thumb_func
 685              	bluetooth_ch9141_init:
 686              	.LFB491:
 288:libraries/zf_device/zf_device_bluetooth_ch9141.c **** 
 289:libraries/zf_device/zf_device_bluetooth_ch9141.c **** //-------------------------------------------------------------------------------------------------
 290:libraries/zf_device/zf_device_bluetooth_ch9141.c **** // å‡½æ•°ç®€ä»‹     WRIELESS_UART æ¨¡å— åˆå§‹åŒ–
 291:libraries/zf_device/zf_device_bluetooth_ch9141.c **** // å‚æ•°è¯´æ˜     *data_buffer        æ•°æ®ç¼“å†²åŒº
 292:libraries/zf_device/zf_device_bluetooth_ch9141.c **** // å‚æ•°è¯´æ˜     buffer_size         æ•°æ®ç¼“å†²åŒºå¤§å°
 293:libraries/zf_device/zf_device_bluetooth_ch9141.c **** // è¿”å›å‚æ•°     uint8               æ“ä½œçŠ¶æ€ ZF_NO_ERROR / BLUETOOTH_CH9141_OPERATION_DONE 
 294:libraries/zf_device/zf_device_bluetooth_ch9141.c **** // ä½¿ç”¨ç¤ºä¾‹     bluetooth_ch9141_init(data_buffer, buffer_size);
 295:libraries/zf_device/zf_device_bluetooth_ch9141.c **** // å¤‡æ³¨ä¿¡æ¯     
 296:libraries/zf_device/zf_device_bluetooth_ch9141.c **** //-------------------------------------------------------------------------------------------------
 297:libraries/zf_device/zf_device_bluetooth_ch9141.c **** uint8 bluetooth_ch9141_init (uint8 *data_buffer, uint32 buffer_size)
 298:libraries/zf_device/zf_device_bluetooth_ch9141.c **** {
 687              		.loc 1 298 1
 688              		.cfi_startproc
 689              		@ args = 0, pretend = 0, frame = 16
 690              		@ frame_needed = 0, uses_anonymous_args = 0
 691 0000 00B5     		push	{lr}
 692              		.cfi_def_cfa_offset 4
 693              		.cfi_offset 14, -4
 694 0002 8BB0     		sub	sp, sp, #44
 695              		.cfi_def_cfa_offset 48
 696 0004 0790     		str	r0, [sp, #28]
 697 0006 0691     		str	r1, [sp, #24]
 299:libraries/zf_device/zf_device_bluetooth_ch9141.c ****     bluetooth_ch9141_operation_state_enum  return_state    = BLUETOOTH_CH9141_ERROR_UNKNOW_ERROR;
 698              		.loc 1 299 44
 699 0008 0123     		movs	r3, #1
 700 000a 8DF82730 		strb	r3, [sp, #39]
 300:libraries/zf_device/zf_device_bluetooth_ch9141.c **** 
 301:libraries/zf_device/zf_device_bluetooth_ch9141.c ****     do
 302:libraries/zf_device/zf_device_bluetooth_ch9141.c ****     {
 303:libraries/zf_device/zf_device_bluetooth_ch9141.c ****         if(wireless_interface_assert(NULL != data_buffer || 0 == buffer_size))
 701              		.loc 1 303 11
 702 000e 079B     		ldr	r3, [sp, #28]
 703 0010 002B     		cmp	r3, #0
 704 0012 1BD1     		bne	.L63
 705              		.loc 1 303 12 discriminator 1
 706 0014 069B     		ldr	r3, [sp, #24]
 707 0016 002B     		cmp	r3, #0
 708 0018 18D0     		beq	.L63
 709              		.loc 1 303 12 is_stmt 0 discriminator 2
 710 001a 079B     		ldr	r3, [sp, #28]
 711 001c 002B     		cmp	r3, #0
 712 001e 02D1     		bne	.L64
 713              		.loc 1 303 12 discriminator 4
 714 0020 069B     		ldr	r3, [sp, #24]
 715 0022 002B     		cmp	r3, #0
 716 0024 01D1     		bne	.L65
 717              	.L64:
 718              		.loc 1 303 12 discriminator 5
 719 0026 0123     		movs	r3, #1
 720 0028 00E0     		b	.L66
 721              	.L65:
 722              		.loc 1 303 12 discriminator 6
 723 002a 0023     		movs	r3, #0
 724              	.L66:
 725              		.loc 1 303 12 discriminator 8
 726 002c D9B2     		uxtb	r1, r3
 727 002e 40F22F13 		movw	r3, #303
 728 0032 0093     		str	r3, [sp]
 729 0034 134B     		ldr	r3, .L69
 730 0036 0022     		movs	r2, #0
 731 0038 0220     		movs	r0, #2
 732 003a FFF7FEFF 		bl	debug_message_handler
 733 003e 0346     		mov	r3, r0
 734 0040 002B     		cmp	r3, #0
 735 0042 03D0     		beq	.L63
 304:libraries/zf_device/zf_device_bluetooth_ch9141.c ****         {
 305:libraries/zf_device/zf_device_bluetooth_ch9141.c ****             return_state = BLUETOOTH_CH9141_ERROR_DATA_BUFFER_NULL;
 736              		.loc 1 305 26 is_stmt 1
 737 0044 2223     		movs	r3, #34
 738 0046 8DF82730 		strb	r3, [sp, #39]
 306:libraries/zf_device/zf_device_bluetooth_ch9141.c ****             break;
 739              		.loc 1 306 13
 740 004a 15E0     		b	.L67
 741              	.L63:
 307:libraries/zf_device/zf_device_bluetooth_ch9141.c ****         }
 308:libraries/zf_device/zf_device_bluetooth_ch9141.c **** 
 309:libraries/zf_device/zf_device_bluetooth_ch9141.c ****         wireless_interface_uart_default_init(
 742              		.loc 1 309 9
 743 004c 0E4B     		ldr	r3, .L69+4
 744 004e 0593     		str	r3, [sp, #20]
 745 0050 0E4B     		ldr	r3, .L69+8
 746 0052 0493     		str	r3, [sp, #16]
 747 0054 069B     		ldr	r3, [sp, #24]
 748 0056 0393     		str	r3, [sp, #12]
 749 0058 079B     		ldr	r3, [sp, #28]
 750 005a 0293     		str	r3, [sp, #8]
 751 005c 2123     		movs	r3, #33
 752 005e 0193     		str	r3, [sp, #4]
 753 0060 0B4B     		ldr	r3, .L69+12
 754 0062 0093     		str	r3, [sp]
 755 0064 0B4B     		ldr	r3, .L69+16
 756 0066 4FF4E132 		mov	r2, #115200
 757 006a 0121     		movs	r1, #1
 758 006c 0648     		ldr	r0, .L69+4
 759 006e FFF7FEFF 		bl	wireless_interface_uart_init
 310:libraries/zf_device/zf_device_bluetooth_ch9141.c ****             &wireless_interface_uart_default_obj,
 311:libraries/zf_device/zf_device_bluetooth_ch9141.c ****             data_buffer, buffer_size,
 312:libraries/zf_device/zf_device_bluetooth_ch9141.c ****             bluetooth_ch9141_callback, &wireless_interface_uart_default_obj);
 313:libraries/zf_device/zf_device_bluetooth_ch9141.c **** 
 314:libraries/zf_device/zf_device_bluetooth_ch9141.c ****         return_state = BLUETOOTH_CH9141_OPERATION_DONE;
 760              		.loc 1 314 22
 761 0072 0023     		movs	r3, #0
 762 0074 8DF82730 		strb	r3, [sp, #39]
 763              	.L67:
 315:libraries/zf_device/zf_device_bluetooth_ch9141.c ****     }while(0);
 316:libraries/zf_device/zf_device_bluetooth_ch9141.c **** 
 317:libraries/zf_device/zf_device_bluetooth_ch9141.c ****     return return_state;
 764              		.loc 1 317 12
 765 0078 9DF82730 		ldrb	r3, [sp, #39]	@ zero_extendqisi2
 318:libraries/zf_device/zf_device_bluetooth_ch9141.c **** }
 766              		.loc 1 318 1
 767 007c 1846     		mov	r0, r3
 768 007e 0BB0     		add	sp, sp, #44
 769              		.cfi_def_cfa_offset 4
 770              		@ sp needed
 771 0080 5DF804FB 		ldr	pc, [sp], #4
 772              	.L70:
 773              		.align	2
 774              	.L69:
 775 0084 00000000 		.word	.LC0
 776 0088 00000000 		.word	wireless_interface_uart_default_obj
 777 008c 00000000 		.word	bluetooth_ch9141_callback
 778 0090 06700100 		.word	94214
 779 0094 07700100 		.word	94215
 780              		.cfi_endproc
 781              	.LFE491:
 783              		.text
 784              	.Letext0:
 785              		.file 2 "libraries/zf_common/zf_common_typedef.h"
 786              		.file 3 "libraries/zf_common/zf_common_fifo.h"
 787              		.file 4 "libraries/zf_driver/zf_driver_gpio.h"
 788              		.file 5 "libraries/zf_driver/zf_driver_exti.h"
 789              		.file 6 "libraries/zf_driver/zf_driver_spi.h"
 790              		.file 7 "libraries/zf_driver/zf_driver_uart.h"
 791              		.file 8 "libraries/zf_device/zf_device_wireless_interface.h"
 792              		.file 9 "libraries/zf_device/zf_device_bluetooth_ch9141.h"