   1              		.cpu cortex-m7
   2              		.arch armv7e-m
   3              		.fpu fpv5-d16
   4              		.eabi_attribute 28, 1
   5              		.eabi_attribute 20, 1
   6              		.eabi_attribute 21, 1
   7              		.eabi_attribute 23, 3
   8              		.eabi_attribute 24, 1
   9              		.eabi_attribute 25, 1
  10              		.eabi_attribute 26, 1
  11              		.eabi_attribute 30, 6
  12              		.eabi_attribute 34, 1
  13              		.eabi_attribute 18, 4
  14              		.file	"zf_device_gnss.c"
  15              		.text
  16              	.Ltext0:
  17              		.cfi_sections	.debug_frame
  18              		.global	gnss_flag
  19              		.section	.bss.gnss_flag,"aw",%nobits
  22              	gnss_flag:
  23 0000 00       		.space	1
  24              		.global	gnss_info
  25              		.section	.bss.gnss_info,"aw",%nobits
  26              		.align	3
  29              	gnss_info:
  30 0000 00000000 		.space	72
  30      00000000 
  30      00000000 
  30      00000000 
  30      00000000 
  31              		.section	.bss.gnss_state,"aw",%nobits
  34              	gnss_state:
  35 0000 00       		.space	1
  36              		.section	.bss.gnss_receiver_fifo,"aw",%nobits
  37              		.align	2
  40              	gnss_receiver_fifo:
  41 0000 00000000 		.space	20
  41      00000000 
  41      00000000 
  41      00000000 
  41      00000000 
  42              		.section	.bss.gnss_receiver_buffer,"aw",%nobits
  43              		.align	2
  46              	gnss_receiver_buffer:
  47 0000 00000000 		.space	128
  47      00000000 
  47      00000000 
  47      00000000 
  47      00000000 
  48              		.section	.bss.gnss_gga_state,"aw",%nobits
  51              	gnss_gga_state:
  52 0000 00       		.space	1
  53              		.section	.bss.gnss_rmc_state,"aw",%nobits
  56              	gnss_rmc_state:
  57 0000 00       		.space	1
  58              		.section	.bss.gnss_ths_state,"aw",%nobits
  61              	gnss_ths_state:
  62 0000 00       		.space	1
  63              		.section	.bss.gnss_gga_buffer,"aw",%nobits
  64              		.align	2
  67              	gnss_gga_buffer:
  68 0000 00000000 		.space	128
  68      00000000 
  68      00000000 
  68      00000000 
  68      00000000 
  69              		.section	.bss.gnss_rmc_buffer,"aw",%nobits
  70              		.align	2
  73              	gnss_rmc_buffer:
  74 0000 00000000 		.space	128
  74      00000000 
  74      00000000 
  74      00000000 
  74      00000000 
  75              		.section	.bss.gnss_ths_buffer,"aw",%nobits
  76              		.align	2
  79              	gnss_ths_buffer:
  80 0000 00000000 		.space	128
  80      00000000 
  80      00000000 
  80      00000000 
  80      00000000 
  81              		.section	.text.get_parameter_index,"ax",%progbits
  82              		.align	1
  83              		.p2align 4,,15
  84              		.syntax unified
  85              		.thumb
  86              		.thumb_func
  88              	get_parameter_index:
  89              	.LFB482:
  90              		.file 1 "libraries/zf_device/zf_device_gnss.c"
   1:libraries/zf_device/zf_device_gnss.c **** /**************************************************************************************************
   2:libraries/zf_device/zf_device_gnss.c **** * Stellar-SR5E1E3 Opensource Library å³ï¼ˆStellar-SR5E1E3 å¼€æºåº“ï¼‰æ˜¯ä¸€ä¸ªåŸºäºå®˜æ–¹ SDK æ
   3:libraries/zf_device/zf_device_gnss.c **** * Copyright (c) 2022 SEEKFREE é€é£ç§‘æŠ€
   4:libraries/zf_device/zf_device_gnss.c **** *
   5:libraries/zf_device/zf_device_gnss.c **** * æœ¬æ–‡ä»¶æ˜¯ Stellar-SR5E1E3 å¼€æºåº“çš„ä¸€éƒ¨åˆ†
   6:libraries/zf_device/zf_device_gnss.c **** *
   7:libraries/zf_device/zf_device_gnss.c **** * Stellar-SR5E1E3 å¼€æºåº“ æ˜¯å…è´¹è½¯ä»¶
   8:libraries/zf_device/zf_device_gnss.c **** * æ‚¨å¯ä»¥æ ¹æ®è‡ªç”±è½¯ä»¶åŸºé‡‘ä¼šå‘å¸ƒçš„ GPLï¼ˆGNU General Public Licenseï¼Œå³ GNUé€šç”¨å…¬
   9:libraries/zf_device/zf_device_gnss.c **** * å³ GPL çš„ç¬¬3ç‰ˆï¼ˆå³ GPL3.0ï¼‰æˆ–ï¼ˆæ‚¨é€‰æ‹©çš„ï¼‰ä»»ä½•åæ¥çš„ç‰ˆæœ¬ï¼Œé‡æ–°å‘å¸ƒå’Œ/æˆ
  10:libraries/zf_device/zf_device_gnss.c **** *
  11:libraries/zf_device/zf_device_gnss.c **** * æœ¬å¼€æºåº“çš„å‘å¸ƒæ˜¯å¸Œæœ›å®ƒèƒ½å‘æŒ¥ä½œç”¨ï¼Œä½†å¹¶æœªå¯¹å…¶ä½œä»»ä½•çš„ä¿è¯
  12:libraries/zf_device/zf_device_gnss.c **** * ç”šè‡³æ²¡æœ‰éšå«çš„é€‚é”€æ€§æˆ–é€‚åˆç‰¹å®šç”¨é€”çš„ä¿è¯
  13:libraries/zf_device/zf_device_gnss.c **** * æ›´å¤šç»†èŠ‚è¯·å‚è§ GPL
  14:libraries/zf_device/zf_device_gnss.c **** *
  15:libraries/zf_device/zf_device_gnss.c **** * æ‚¨åº”è¯¥åœ¨æ”¶åˆ°æœ¬å¼€æºåº“çš„åŒæ—¶æ”¶åˆ°ä¸€ä»½ GPL çš„å‰¯æœ¬
  16:libraries/zf_device/zf_device_gnss.c **** * å¦‚æœæ²¡æœ‰ï¼Œè¯·å‚é˜…<https://www.gnu.org/licenses/>
  17:libraries/zf_device/zf_device_gnss.c **** *
  18:libraries/zf_device/zf_device_gnss.c **** * é¢å¤–æ³¨æ˜ï¼š
  19:libraries/zf_device/zf_device_gnss.c **** * æœ¬å¼€æºåº“ä½¿ç”¨ GPL3.0 å¼€æºè®¸å¯è¯åè®® ä»¥ä¸Šè®¸å¯ç”³æ˜ä¸ºè¯‘æ–‡ç‰ˆæœ¬
  20:libraries/zf_device/zf_device_gnss.c **** * è®¸å¯ç”³æ˜è‹±æ–‡ç‰ˆåœ¨ libraries/doc æ–‡ä»¶å¤¹ä¸‹çš„ GPL3_permission_statement.txt æ–‡ä»¶ä¸­
  21:libraries/zf_device/zf_device_gnss.c **** * è®¸å¯è¯å‰¯æœ¬åœ¨ libraries æ–‡ä»¶å¤¹ä¸‹ å³è¯¥æ–‡ä»¶å¤¹ä¸‹çš„ LICENSE æ–‡ä»¶
  22:libraries/zf_device/zf_device_gnss.c **** * æ¬¢è¿å„ä½ä½¿ç”¨å¹¶ä¼ æ’­æœ¬ç¨‹åº ä½†ä¿®æ”¹å†…å®¹æ—¶å¿…é¡»ä¿ç•™é€é£ç§‘æŠ€çš„ç‰ˆæƒå£°æ˜ï¼ˆ
  23:libraries/zf_device/zf_device_gnss.c **** *
  24:libraries/zf_device/zf_device_gnss.c **** * æ–‡ä»¶åç§°          zf_device_gnss
  25:libraries/zf_device/zf_device_gnss.c **** * å…¬å¸åç§°          æˆéƒ½é€é£ç§‘æŠ€æœ‰é™å…¬å¸
  26:libraries/zf_device/zf_device_gnss.c **** * ç‰ˆæœ¬ä¿¡æ¯          æŸ¥çœ‹ libraries/doc æ–‡ä»¶å¤¹å†… version æ–‡ä»¶ ç‰ˆæœ¬è¯´æ˜
  27:libraries/zf_device/zf_device_gnss.c **** * å¼€å‘ç¯å¢ƒ          StellarStudio 7.0.0
  28:libraries/zf_device/zf_device_gnss.c **** * é€‚ç”¨å¹³å°          Stellar-SR5E1E3
  29:libraries/zf_device/zf_device_gnss.c **** * åº—é“ºé“¾æ¥          https://www.seekfree.cn/
  30:libraries/zf_device/zf_device_gnss.c **** ***************************************************************************************************
  31:libraries/zf_device/zf_device_gnss.c **** 
  32:libraries/zf_device/zf_device_gnss.c **** /**************************************************************************************************
  33:libraries/zf_device/zf_device_gnss.c **** * æ¥çº¿å®šä¹‰ï¼š
  34:libraries/zf_device/zf_device_gnss.c **** *                   ------------------------------------
  35:libraries/zf_device/zf_device_gnss.c **** *                   æ¨¡å—ç®¡è„š            å•ç‰‡æœºç®¡è„š
  36:libraries/zf_device/zf_device_gnss.c **** *                   RX                  æŸ¥çœ‹ zf_device_gnss.h ä¸­ GNSS_RX å®å®šä¹‰
  37:libraries/zf_device/zf_device_gnss.c **** *                   TX                  æŸ¥çœ‹ zf_device_gnss.h ä¸­ GNSS_TX å®å®šä¹‰
  38:libraries/zf_device/zf_device_gnss.c **** *                   VCC                 3.3Vç”µæº
  39:libraries/zf_device/zf_device_gnss.c **** *                   GND                 ç”µæºåœ°
  40:libraries/zf_device/zf_device_gnss.c **** *                   ------------------------------------
  41:libraries/zf_device/zf_device_gnss.c **** ***************************************************************************************************
  42:libraries/zf_device/zf_device_gnss.c **** 
  43:libraries/zf_device/zf_device_gnss.c **** // è‡ªèº«å¤´æ–‡ä»¶
  44:libraries/zf_device/zf_device_gnss.c **** #include "zf_device_gnss.h"
  45:libraries/zf_device/zf_device_gnss.c **** 
  46:libraries/zf_device/zf_device_gnss.c **** // æ­¤å¤„å®šä¹‰ GNSS ç›¸å…³çš„æ¥å£èµ„æº è¿™é‡Œä¸å…è®¸ç”¨æˆ·ä¿®æ”¹ è¿™é‡Œä¸å…è®¸ç”¨æˆ·ä¿®æ”¹ 
  47:libraries/zf_device/zf_device_gnss.c **** // >>>>>>>>>>>>>>>>>>>>>>>>>>>>>>>>>>>>>>>>> Part Start >>>>>>>>>>>>>>>>>>>>>>>>>>>>>>>>>>>>>>>>>
  48:libraries/zf_device/zf_device_gnss.c **** #define GNSS_BUFFER_SIZE    ( 128 )
  49:libraries/zf_device/zf_device_gnss.c **** // <<<<<<<<<<<<<<<<<<<<<<<<<<<<<<<<<<<<<<<<< Part   End <<<<<<<<<<<<<<<<<<<<<<<<<<<<<<<<<<<<<<<<<
  50:libraries/zf_device/zf_device_gnss.c **** 
  51:libraries/zf_device/zf_device_gnss.c **** // æ­¤å¤„å®šä¹‰ æœ¬æ–‡ä»¶ç”¨ä½¿ç”¨çš„å˜é‡ä¸å¯¹è±¡ç­‰ è¿™é‡Œä¸å…è®¸ç”¨æˆ·ä¿®æ”¹ è¿™é‡Œä¸å…è®¸
  52:libraries/zf_device/zf_device_gnss.c **** // >>>>>>>>>>>>>>>>>>>>>>>>>>>>>>>>>>>>>>>>> Part Start >>>>>>>>>>>>>>>>>>>>>>>>>>>>>>>>>>>>>>>>>
  53:libraries/zf_device/zf_device_gnss.c **** AT_ZF_LIB_SECTION_START
  54:libraries/zf_device/zf_device_gnss.c **** AT_ZF_LIB_SECTION uint8                         gnss_flag = 0;                          // 1-é‡‡é›†
  55:libraries/zf_device/zf_device_gnss.c **** AT_ZF_LIB_SECTION gnss_info_struct              gnss_info;                              // GNSS è§£
  56:libraries/zf_device/zf_device_gnss.c **** 
  57:libraries/zf_device/zf_device_gnss.c **** AT_ZF_LIB_SECTION static  uint8                 gnss_state = 0;                         // 1-GNSS å
  58:libraries/zf_device/zf_device_gnss.c **** AT_ZF_LIB_SECTION static  zf_fifo_obj_struct    gnss_receiver_fifo;                     // 
  59:libraries/zf_device/zf_device_gnss.c **** AT_ZF_LIB_SECTION static  uint8                 gnss_receiver_buffer[GNSS_BUFFER_SIZE]; // æ•°æ®å­
  60:libraries/zf_device/zf_device_gnss.c **** 
  61:libraries/zf_device/zf_device_gnss.c **** AT_ZF_LIB_SECTION static  gnss_state_enum       gnss_gga_state = GNSS_STATE_RECEIVING;  // gga è¯­å
  62:libraries/zf_device/zf_device_gnss.c **** AT_ZF_LIB_SECTION static  gnss_state_enum       gnss_rmc_state = GNSS_STATE_RECEIVING;  // rmc è¯­å
  63:libraries/zf_device/zf_device_gnss.c **** AT_ZF_LIB_SECTION static  gnss_state_enum       gnss_ths_state = GNSS_STATE_RECEIVING;  // rmc è¯­å
  64:libraries/zf_device/zf_device_gnss.c **** 
  65:libraries/zf_device/zf_device_gnss.c **** AT_ZF_LIB_SECTION static  uint8                 gnss_gga_buffer[GNSS_BUFFER_SIZE];
  66:libraries/zf_device/zf_device_gnss.c **** AT_ZF_LIB_SECTION static  uint8                 gnss_rmc_buffer[GNSS_BUFFER_SIZE];
  67:libraries/zf_device/zf_device_gnss.c **** AT_ZF_LIB_SECTION static  uint8                 gnss_ths_buffer[GNSS_BUFFER_SIZE];
  68:libraries/zf_device/zf_device_gnss.c **** AT_ZF_LIB_SECTION_END
  69:libraries/zf_device/zf_device_gnss.c **** // <<<<<<<<<<<<<<<<<<<<<<<<<<<<<<<<<<<<<<<<< Part   End <<<<<<<<<<<<<<<<<<<<<<<<<<<<<<<<<<<<<<<<<
  70:libraries/zf_device/zf_device_gnss.c **** 
  71:libraries/zf_device/zf_device_gnss.c **** // æ­¤å¤„å®šä¹‰ æœ¬æ–‡ä»¶çš„æ‰€æœ‰å‡½æ•°å…·ä½“å®šä¹‰ è¿™é‡Œä¸å…è®¸ç”¨æˆ·ä¿®æ”¹
  72:libraries/zf_device/zf_device_gnss.c **** // >>>>>>>>>>>>>>>>>>>>>>>>>>>>>>>>>>>>>>>>> Part Start >>>>>>>>>>>>>>>>>>>>>>>>>>>>>>>>>>>>>>>>>
  73:libraries/zf_device/zf_device_gnss.c **** //-------------------------------------------------------------------------------------------------
  74:libraries/zf_device/zf_device_gnss.c **** // å‡½æ•°ç®€ä»‹     è·å–æŒ‡å®š ',' åé¢çš„ç´¢å¼•
  75:libraries/zf_device/zf_device_gnss.c **** // å‚æ•°è¯´æ˜     num             ç¬¬å‡ ä¸ªé€—å·
  76:libraries/zf_device/zf_device_gnss.c **** // å‚æ•°è¯´æ˜     *str            å­—ç¬¦ä¸²           
  77:libraries/zf_device/zf_device_gnss.c **** // è¿”å›å‚æ•°     uint8           è¿”å›ç´¢å¼•
  78:libraries/zf_device/zf_device_gnss.c **** // ä½¿ç”¨ç¤ºä¾‹     get_parameter_index(num, str);
  79:libraries/zf_device/zf_device_gnss.c **** // å¤‡æ³¨ä¿¡æ¯     å†…éƒ¨ä½¿ç”¨
  80:libraries/zf_device/zf_device_gnss.c **** //-------------------------------------------------------------------------------------------------
  81:libraries/zf_device/zf_device_gnss.c **** static uint8 get_parameter_index (uint8 num, char *str)
  82:libraries/zf_device/zf_device_gnss.c **** {
  91              		.loc 1 82 1
  92              		.cfi_startproc
  93              		@ args = 0, pretend = 0, frame = 16
  94              		@ frame_needed = 0, uses_anonymous_args = 0
  95 0000 00B5     		push	{lr}
  96              		.cfi_def_cfa_offset 4
  97              		.cfi_offset 14, -4
  98 0002 85B0     		sub	sp, sp, #20
  99              		.cfi_def_cfa_offset 24
 100 0004 0346     		mov	r3, r0
 101 0006 0091     		str	r1, [sp]
 102 0008 8DF80730 		strb	r3, [sp, #7]
  83:libraries/zf_device/zf_device_gnss.c ****     uint8   return_value    = 0;
 103              		.loc 1 83 13
 104 000c 0023     		movs	r3, #0
 105 000e 8DF80F30 		strb	r3, [sp, #15]
  84:libraries/zf_device/zf_device_gnss.c **** 
  85:libraries/zf_device/zf_device_gnss.c ****     uint8   search_len      = 0;
 106              		.loc 1 85 13
 107 0012 0023     		movs	r3, #0
 108 0014 8DF80E30 		strb	r3, [sp, #14]
  86:libraries/zf_device/zf_device_gnss.c ****     uint8   temp_value1     = 0;
 109              		.loc 1 86 13
 110 0018 0023     		movs	r3, #0
 111 001a 8DF80D30 		strb	r3, [sp, #13]
  87:libraries/zf_device/zf_device_gnss.c ****     uint8   temp_value2     = 0;
 112              		.loc 1 87 13
 113 001e 0023     		movs	r3, #0
 114 0020 8DF80C30 		strb	r3, [sp, #12]
  88:libraries/zf_device/zf_device_gnss.c ****     char    *str_tail       = strchr(str, '\n');
 115              		.loc 1 88 31
 116 0024 0A21     		movs	r1, #10
 117 0026 0098     		ldr	r0, [sp]
 118 0028 FFF7FEFF 		bl	strchr
 119 002c 0290     		str	r0, [sp, #8]
  89:libraries/zf_device/zf_device_gnss.c **** 
  90:libraries/zf_device/zf_device_gnss.c ****     if(NULL != str_tail)
 120              		.loc 1 90 7
 121 002e 029B     		ldr	r3, [sp, #8]
 122 0030 002B     		cmp	r3, #0
 123 0032 06D0     		beq	.L2
  91:libraries/zf_device/zf_device_gnss.c ****     {
  92:libraries/zf_device/zf_device_gnss.c ****         search_len = (uint8)((uint32)str_tail - (uint32)str + 1);
 124              		.loc 1 92 30
 125 0034 029A     		ldr	r2, [sp, #8]
 126              		.loc 1 92 49
 127 0036 009B     		ldr	r3, [sp]
 128              		.loc 1 92 47
 129 0038 D31A     		subs	r3, r2, r3
 130              		.loc 1 92 22
 131 003a DBB2     		uxtb	r3, r3
 132              		.loc 1 92 20
 133 003c 0133     		adds	r3, r3, #1
 134 003e 8DF80E30 		strb	r3, [sp, #14]
 135              	.L2:
  93:libraries/zf_device/zf_device_gnss.c ****     }
  94:libraries/zf_device/zf_device_gnss.c **** 
  95:libraries/zf_device/zf_device_gnss.c ****     for(temp_value1 = 0; temp_value1 < search_len; temp_value1 ++)
 136              		.loc 1 95 21
 137 0042 0023     		movs	r3, #0
 138 0044 8DF80D30 		strb	r3, [sp, #13]
 139              		.loc 1 95 5
 140 0048 1DE0     		b	.L3
 141              	.L7:
  96:libraries/zf_device/zf_device_gnss.c ****     {
  97:libraries/zf_device/zf_device_gnss.c ****         if(',' == str[temp_value1])
 142              		.loc 1 97 22
 143 004a 9DF80D30 		ldrb	r3, [sp, #13]	@ zero_extendqisi2
 144 004e 009A     		ldr	r2, [sp]
 145 0050 1344     		add	r3, r3, r2
 146 0052 93F90030 		ldrsb	r3, [r3]
 147              		.loc 1 97 11
 148 0056 2C2B     		cmp	r3, #44
 149 0058 04D1     		bne	.L4
  98:libraries/zf_device/zf_device_gnss.c ****         {
  99:libraries/zf_device/zf_device_gnss.c ****             temp_value2 ++;
 150              		.loc 1 99 25
 151 005a 9DF80C30 		ldrb	r3, [sp, #12]	@ zero_extendqisi2
 152 005e 0133     		adds	r3, r3, #1
 153 0060 8DF80C30 		strb	r3, [sp, #12]
 154              	.L4:
 100:libraries/zf_device/zf_device_gnss.c ****         }
 101:libraries/zf_device/zf_device_gnss.c ****         if(temp_value2 == num)
 155              		.loc 1 101 11
 156 0064 9DF80C20 		ldrb	r2, [sp, #12]	@ zero_extendqisi2
 157 0068 9DF80730 		ldrb	r3, [sp, #7]	@ zero_extendqisi2
 158 006c 9A42     		cmp	r2, r3
 159 006e 05D1     		bne	.L5
 102:libraries/zf_device/zf_device_gnss.c ****         {
 103:libraries/zf_device/zf_device_gnss.c ****             return_value =  temp_value1 + 1;  
 160              		.loc 1 103 26
 161 0070 9DF80D30 		ldrb	r3, [sp, #13]
 162 0074 0133     		adds	r3, r3, #1
 163 0076 8DF80F30 		strb	r3, [sp, #15]
 104:libraries/zf_device/zf_device_gnss.c ****             break;
 164              		.loc 1 104 13
 165 007a 0AE0     		b	.L6
 166              	.L5:
  95:libraries/zf_device/zf_device_gnss.c ****     {
 167              		.loc 1 95 64 discriminator 2
 168 007c 9DF80D30 		ldrb	r3, [sp, #13]	@ zero_extendqisi2
 169 0080 0133     		adds	r3, r3, #1
 170 0082 8DF80D30 		strb	r3, [sp, #13]
 171              	.L3:
  95:libraries/zf_device/zf_device_gnss.c ****     {
 172              		.loc 1 95 5 discriminator 1
 173 0086 9DF80D20 		ldrb	r2, [sp, #13]	@ zero_extendqisi2
 174 008a 9DF80E30 		ldrb	r3, [sp, #14]	@ zero_extendqisi2
 175 008e 9A42     		cmp	r2, r3
 176 0090 DBD3     		bcc	.L7
 177              	.L6:
 105:libraries/zf_device/zf_device_gnss.c ****         }
 106:libraries/zf_device/zf_device_gnss.c ****     }
 107:libraries/zf_device/zf_device_gnss.c **** 
 108:libraries/zf_device/zf_device_gnss.c ****     return return_value;
 178              		.loc 1 108 12
 179 0092 9DF80F30 		ldrb	r3, [sp, #15]	@ zero_extendqisi2
 109:libraries/zf_device/zf_device_gnss.c **** }
 180              		.loc 1 109 1
 181 0096 1846     		mov	r0, r3
 182 0098 05B0     		add	sp, sp, #20
 183              		.cfi_def_cfa_offset 4
 184              		@ sp needed
 185 009a 5DF804FB 		ldr	pc, [sp], #4
 186              		.cfi_endproc
 187              	.LFE482:
 189 009e 00BF     		.section	.text.get_int_number,"ax",%progbits
 190              		.align	1
 191              		.p2align 4,,15
 192              		.syntax unified
 193              		.thumb
 194              		.thumb_func
 196              	get_int_number:
 197              	.LFB483:
 110:libraries/zf_device/zf_device_gnss.c **** 
 111:libraries/zf_device/zf_device_gnss.c **** //-------------------------------------------------------------------------------------------------
 112:libraries/zf_device/zf_device_gnss.c **** // å‡½æ•°ç®€ä»‹     ç»™å®šå­—ç¬¦ä¸²ç¬¬ä¸€ä¸ª ',' ä¹‹å‰çš„æ•°æ®è½¬æ¢ä¸ºint
 113:libraries/zf_device/zf_device_gnss.c **** // å‚æ•°è¯´æ˜     *str            å­—ç¬¦ä¸²
 114:libraries/zf_device/zf_device_gnss.c **** // è¿”å›å‚æ•°     float           è¿”å›æ•°å€¼
 115:libraries/zf_device/zf_device_gnss.c **** // ä½¿ç”¨ç¤ºä¾‹     get_int_number(str);
 116:libraries/zf_device/zf_device_gnss.c **** // å¤‡æ³¨ä¿¡æ¯     å†…éƒ¨ä½¿ç”¨
 117:libraries/zf_device/zf_device_gnss.c **** //-------------------------------------------------------------------------------------------------
 118:libraries/zf_device/zf_device_gnss.c **** static int get_int_number (char *str)
 119:libraries/zf_device/zf_device_gnss.c **** {
 198              		.loc 1 119 1
 199              		.cfi_startproc
 200              		@ args = 0, pretend = 0, frame = 24
 201              		@ frame_needed = 0, uses_anonymous_args = 0
 202 0000 00B5     		push	{lr}
 203              		.cfi_def_cfa_offset 4
 204              		.cfi_offset 14, -4
 205 0002 87B0     		sub	sp, sp, #28
 206              		.cfi_def_cfa_offset 32
 207 0004 0190     		str	r0, [sp, #4]
 120:libraries/zf_device/zf_device_gnss.c ****     int return_value = 0;
 208              		.loc 1 120 9
 209 0006 0023     		movs	r3, #0
 210 0008 0593     		str	r3, [sp, #20]
 121:libraries/zf_device/zf_device_gnss.c **** 
 122:libraries/zf_device/zf_device_gnss.c ****     char buf[10];
 123:libraries/zf_device/zf_device_gnss.c ****     uint8 temp_value1 = 0;
 211              		.loc 1 123 11
 212 000a 0023     		movs	r3, #0
 213 000c 8DF81330 		strb	r3, [sp, #19]
 124:libraries/zf_device/zf_device_gnss.c **** 
 125:libraries/zf_device/zf_device_gnss.c ****     temp_value1 = get_parameter_index(1, str);
 214              		.loc 1 125 19
 215 0010 0199     		ldr	r1, [sp, #4]
 216 0012 0120     		movs	r0, #1
 217 0014 FFF7FEFF 		bl	get_parameter_index
 218 0018 0346     		mov	r3, r0
 219 001a 8DF81330 		strb	r3, [sp, #19]
 126:libraries/zf_device/zf_device_gnss.c ****     temp_value1 = temp_value1 - 1;
 220              		.loc 1 126 17
 221 001e 9DF81330 		ldrb	r3, [sp, #19]
 222 0022 013B     		subs	r3, r3, #1
 223 0024 8DF81330 		strb	r3, [sp, #19]
 127:libraries/zf_device/zf_device_gnss.c ****     strncpy(buf, str, temp_value1);
 224              		.loc 1 127 5
 225 0028 9DF81320 		ldrb	r2, [sp, #19]	@ zero_extendqisi2
 226 002c 02AB     		add	r3, sp, #8
 227 002e 0199     		ldr	r1, [sp, #4]
 228 0030 1846     		mov	r0, r3
 229 0032 FFF7FEFF 		bl	strncpy
 128:libraries/zf_device/zf_device_gnss.c ****     buf[temp_value1] = 0;
 230              		.loc 1 128 8
 231 0036 9DF81330 		ldrb	r3, [sp, #19]	@ zero_extendqisi2
 232              		.loc 1 128 22
 233 003a 1833     		adds	r3, r3, #24
 234 003c 6B44     		add	r3, sp, r3
 235 003e 0022     		movs	r2, #0
 236 0040 03F8102C 		strb	r2, [r3, #-16]
 129:libraries/zf_device/zf_device_gnss.c ****     return_value = zf_function_str_to_int(buf);
 237              		.loc 1 129 20
 238 0044 02AB     		add	r3, sp, #8
 239 0046 1846     		mov	r0, r3
 240 0048 FFF7FEFF 		bl	zf_function_str_to_int
 241 004c 0590     		str	r0, [sp, #20]
 130:libraries/zf_device/zf_device_gnss.c **** 
 131:libraries/zf_device/zf_device_gnss.c ****     return return_value;
 242              		.loc 1 131 12
 243 004e 059B     		ldr	r3, [sp, #20]
 132:libraries/zf_device/zf_device_gnss.c **** }
 244              		.loc 1 132 1
 245 0050 1846     		mov	r0, r3
 246 0052 07B0     		add	sp, sp, #28
 247              		.cfi_def_cfa_offset 4
 248              		@ sp needed
 249 0054 5DF804FB 		ldr	pc, [sp], #4
 250              		.cfi_endproc
 251              	.LFE483:
 253              		.section	.text.get_float_number,"ax",%progbits
 254              		.align	1
 255              		.p2align 4,,15
 256              		.syntax unified
 257              		.thumb
 258              		.thumb_func
 260              	get_float_number:
 261              	.LFB484:
 133:libraries/zf_device/zf_device_gnss.c ****                                                 
 134:libraries/zf_device/zf_device_gnss.c **** //-------------------------------------------------------------------------------------------------
 135:libraries/zf_device/zf_device_gnss.c **** // å‡½æ•°ç®€ä»‹     ç»™å®šå­—ç¬¦ä¸²ç¬¬ä¸€ä¸ª ',' ä¹‹å‰çš„æ•°æ®è½¬æ¢ä¸ºfloat
 136:libraries/zf_device/zf_device_gnss.c **** // å‚æ•°è¯´æ˜     *str            å­—ç¬¦ä¸²
 137:libraries/zf_device/zf_device_gnss.c **** // è¿”å›å‚æ•°     float           è¿”å›æ•°å€¼
 138:libraries/zf_device/zf_device_gnss.c **** // ä½¿ç”¨ç¤ºä¾‹     get_float_number(str);
 139:libraries/zf_device/zf_device_gnss.c **** // å¤‡æ³¨ä¿¡æ¯     å†…éƒ¨ä½¿ç”¨
 140:libraries/zf_device/zf_device_gnss.c **** //-------------------------------------------------------------------------------------------------
 141:libraries/zf_device/zf_device_gnss.c **** static float get_float_number (char *str)
 142:libraries/zf_device/zf_device_gnss.c **** {
 262              		.loc 1 142 1
 263              		.cfi_startproc
 264              		@ args = 0, pretend = 0, frame = 32
 265              		@ frame_needed = 0, uses_anonymous_args = 0
 266 0000 00B5     		push	{lr}
 267              		.cfi_def_cfa_offset 4
 268              		.cfi_offset 14, -4
 269 0002 89B0     		sub	sp, sp, #36
 270              		.cfi_def_cfa_offset 40
 271 0004 0190     		str	r0, [sp, #4]
 143:libraries/zf_device/zf_device_gnss.c ****     float return_value = 0;
 272              		.loc 1 143 11
 273 0006 4FF00003 		mov	r3, #0
 274 000a 0793     		str	r3, [sp, #28]	@ float
 144:libraries/zf_device/zf_device_gnss.c **** 
 145:libraries/zf_device/zf_device_gnss.c ****     uint8 temp_value1 = 0;
 275              		.loc 1 145 11
 276 000c 0023     		movs	r3, #0
 277 000e 8DF81B30 		strb	r3, [sp, #27]
 146:libraries/zf_device/zf_device_gnss.c ****     char buf[15];
 147:libraries/zf_device/zf_device_gnss.c **** 
 148:libraries/zf_device/zf_device_gnss.c ****     temp_value1 = get_parameter_index(1, str);
 278              		.loc 1 148 19
 279 0012 0199     		ldr	r1, [sp, #4]
 280 0014 0120     		movs	r0, #1
 281 0016 FFF7FEFF 		bl	get_parameter_index
 282 001a 0346     		mov	r3, r0
 283 001c 8DF81B30 		strb	r3, [sp, #27]
 149:libraries/zf_device/zf_device_gnss.c ****     temp_value1 = temp_value1 - 1;
 284              		.loc 1 149 17
 285 0020 9DF81B30 		ldrb	r3, [sp, #27]
 286 0024 013B     		subs	r3, r3, #1
 287 0026 8DF81B30 		strb	r3, [sp, #27]
 150:libraries/zf_device/zf_device_gnss.c ****     strncpy(buf, str, temp_value1);
 288              		.loc 1 150 5
 289 002a 9DF81B20 		ldrb	r2, [sp, #27]	@ zero_extendqisi2
 290 002e 03AB     		add	r3, sp, #12
 291 0030 0199     		ldr	r1, [sp, #4]
 292 0032 1846     		mov	r0, r3
 293 0034 FFF7FEFF 		bl	strncpy
 151:libraries/zf_device/zf_device_gnss.c ****     buf[temp_value1] = 0;
 294              		.loc 1 151 8
 295 0038 9DF81B30 		ldrb	r3, [sp, #27]	@ zero_extendqisi2
 296              		.loc 1 151 22
 297 003c 2033     		adds	r3, r3, #32
 298 003e 6B44     		add	r3, sp, r3
 299 0040 0022     		movs	r2, #0
 300 0042 03F8142C 		strb	r2, [r3, #-20]
 152:libraries/zf_device/zf_device_gnss.c ****     return_value = (float)zf_function_str_to_double(buf);
 301              		.loc 1 152 27
 302 0046 03AB     		add	r3, sp, #12
 303 0048 1846     		mov	r0, r3
 304 004a FFF7FEFF 		bl	zf_function_str_to_double
 305 004e B0EE407B 		vmov.f64	d7, d0
 306              		.loc 1 152 18
 307 0052 F7EEC77B 		vcvt.f32.f64	s15, d7
 308 0056 CDED077A 		vstr.32	s15, [sp, #28]
 153:libraries/zf_device/zf_device_gnss.c **** 
 154:libraries/zf_device/zf_device_gnss.c ****     return return_value;
 309              		.loc 1 154 12
 310 005a 079B     		ldr	r3, [sp, #28]	@ float
 311 005c 07EE903A 		vmov	s15, r3
 155:libraries/zf_device/zf_device_gnss.c **** }
 312              		.loc 1 155 1
 313 0060 B0EE670A 		vmov.f32	s0, s15
 314 0064 09B0     		add	sp, sp, #36
 315              		.cfi_def_cfa_offset 4
 316              		@ sp needed
 317 0066 5DF804FB 		ldr	pc, [sp], #4
 318              		.cfi_endproc
 319              	.LFE484:
 321 006a 00BF     		.section	.text.get_double_number,"ax",%progbits
 322              		.align	1
 323              		.p2align 4,,15
 324              		.syntax unified
 325              		.thumb
 326              		.thumb_func
 328              	get_double_number:
 329              	.LFB485:
 156:libraries/zf_device/zf_device_gnss.c ****                                     
 157:libraries/zf_device/zf_device_gnss.c **** //-------------------------------------------------------------------------------------------------
 158:libraries/zf_device/zf_device_gnss.c **** // å‡½æ•°ç®€ä»‹     ç»™å®šå­—ç¬¦ä¸²ç¬¬ä¸€ä¸ª ',' ä¹‹å‰çš„æ•°æ®è½¬æ¢ä¸ºdouble 
 159:libraries/zf_device/zf_device_gnss.c **** // å‚æ•°è¯´æ˜     *str            å­—ç¬¦ä¸²
 160:libraries/zf_device/zf_device_gnss.c **** // è¿”å›å‚æ•°     double          è¿”å›æ•°å€¼
 161:libraries/zf_device/zf_device_gnss.c **** // ä½¿ç”¨ç¤ºä¾‹     get_double_number(str);
 162:libraries/zf_device/zf_device_gnss.c **** // å¤‡æ³¨ä¿¡æ¯     å†…éƒ¨ä½¿ç”¨
 163:libraries/zf_device/zf_device_gnss.c **** //-------------------------------------------------------------------------------------------------
 164:libraries/zf_device/zf_device_gnss.c **** static double get_double_number (char *str)
 165:libraries/zf_device/zf_device_gnss.c **** {
 330              		.loc 1 165 1
 331              		.cfi_startproc
 332              		@ args = 0, pretend = 0, frame = 32
 333              		@ frame_needed = 0, uses_anonymous_args = 0
 334 0000 00B5     		push	{lr}
 335              		.cfi_def_cfa_offset 4
 336              		.cfi_offset 14, -4
 337 0002 89B0     		sub	sp, sp, #36
 338              		.cfi_def_cfa_offset 40
 339 0004 0190     		str	r0, [sp, #4]
 166:libraries/zf_device/zf_device_gnss.c ****     double return_value = 0;
 340              		.loc 1 166 12
 341 0006 4FF00002 		mov	r2, #0
 342 000a 4FF00003 		mov	r3, #0
 343 000e CDE90623 		strd	r2, [sp, #24]
 167:libraries/zf_device/zf_device_gnss.c **** 
 168:libraries/zf_device/zf_device_gnss.c ****     uint8 temp_value1 = 0;
 344              		.loc 1 168 11
 345 0012 0023     		movs	r3, #0
 346 0014 8DF81730 		strb	r3, [sp, #23]
 169:libraries/zf_device/zf_device_gnss.c ****     char buf[15];
 170:libraries/zf_device/zf_device_gnss.c ****     
 171:libraries/zf_device/zf_device_gnss.c ****     temp_value1 = get_parameter_index(1, str);
 347              		.loc 1 171 19
 348 0018 0199     		ldr	r1, [sp, #4]
 349 001a 0120     		movs	r0, #1
 350 001c FFF7FEFF 		bl	get_parameter_index
 351 0020 0346     		mov	r3, r0
 352 0022 8DF81730 		strb	r3, [sp, #23]
 172:libraries/zf_device/zf_device_gnss.c ****     temp_value1 = temp_value1 - 1;
 353              		.loc 1 172 17
 354 0026 9DF81730 		ldrb	r3, [sp, #23]
 355 002a 013B     		subs	r3, r3, #1
 356 002c 8DF81730 		strb	r3, [sp, #23]
 173:libraries/zf_device/zf_device_gnss.c ****     strncpy(buf, str, temp_value1);
 357              		.loc 1 173 5
 358 0030 9DF81720 		ldrb	r2, [sp, #23]	@ zero_extendqisi2
 359 0034 02AB     		add	r3, sp, #8
 360 0036 0199     		ldr	r1, [sp, #4]
 361 0038 1846     		mov	r0, r3
 362 003a FFF7FEFF 		bl	strncpy
 174:libraries/zf_device/zf_device_gnss.c ****     buf[temp_value1] = 0;
 363              		.loc 1 174 8
 364 003e 9DF81730 		ldrb	r3, [sp, #23]	@ zero_extendqisi2
 365              		.loc 1 174 22
 366 0042 2033     		adds	r3, r3, #32
 367 0044 6B44     		add	r3, sp, r3
 368 0046 0022     		movs	r2, #0
 369 0048 03F8182C 		strb	r2, [r3, #-24]
 175:libraries/zf_device/zf_device_gnss.c ****     return_value = zf_function_str_to_double(buf);
 370              		.loc 1 175 20
 371 004c 02AB     		add	r3, sp, #8
 372 004e 1846     		mov	r0, r3
 373 0050 FFF7FEFF 		bl	zf_function_str_to_double
 374 0054 8DED060B 		vstr.64	d0, [sp, #24]
 176:libraries/zf_device/zf_device_gnss.c **** 
 177:libraries/zf_device/zf_device_gnss.c ****     return return_value;
 375              		.loc 1 177 12
 376 0058 DDE90623 		ldrd	r2, [sp, #24]
 377 005c 43EC172B 		vmov	d7, r2, r3
 178:libraries/zf_device/zf_device_gnss.c **** }
 378              		.loc 1 178 1
 379 0060 B0EE470B 		vmov.f64	d0, d7
 380 0064 09B0     		add	sp, sp, #36
 381              		.cfi_def_cfa_offset 4
 382              		@ sp needed
 383 0066 5DF804FB 		ldr	pc, [sp], #4
 384              		.cfi_endproc
 385              	.LFE485:
 387 006a 00BF     		.section	.text.utc_to_btc,"ax",%progbits
 388              		.align	1
 389              		.p2align 4,,15
 390              		.syntax unified
 391              		.thumb
 392              		.thumb_func
 394              	utc_to_btc:
 395              	.LFB486:
 179:libraries/zf_device/zf_device_gnss.c **** 
 180:libraries/zf_device/zf_device_gnss.c **** //-------------------------------------------------------------------------------------------------
 181:libraries/zf_device/zf_device_gnss.c **** // å‡½æ•°ç®€ä»‹     ä¸–ç•Œæ—¶é—´è½¬æ¢ä¸ºåŒ—äº¬æ—¶é—´ 
 182:libraries/zf_device/zf_device_gnss.c **** // å‚æ•°è¯´æ˜     *time           ä¿å­˜çš„æ—¶é—´
 183:libraries/zf_device/zf_device_gnss.c **** // è¿”å›å‚æ•°     void           
 184:libraries/zf_device/zf_device_gnss.c **** // ä½¿ç”¨ç¤ºä¾‹     utc_to_btc(&gnss->time);
 185:libraries/zf_device/zf_device_gnss.c **** // å¤‡æ³¨ä¿¡æ¯     å†…éƒ¨ä½¿ç”¨
 186:libraries/zf_device/zf_device_gnss.c **** //-------------------------------------------------------------------------------------------------
 187:libraries/zf_device/zf_device_gnss.c **** static void utc_to_btc (gnss_time_struct *time)
 188:libraries/zf_device/zf_device_gnss.c **** {
 396              		.loc 1 188 1
 397              		.cfi_startproc
 398              		@ args = 0, pretend = 0, frame = 16
 399              		@ frame_needed = 0, uses_anonymous_args = 0
 400              		@ link register save eliminated.
 401 0000 84B0     		sub	sp, sp, #16
 402              		.cfi_def_cfa_offset 16
 403 0002 0190     		str	r0, [sp, #4]
 189:libraries/zf_device/zf_device_gnss.c ****     uint8 day_num = 0;
 404              		.loc 1 189 11
 405 0004 0023     		movs	r3, #0
 406 0006 8DF80F30 		strb	r3, [sp, #15]
 190:libraries/zf_device/zf_device_gnss.c ****     
 191:libraries/zf_device/zf_device_gnss.c ****     time->hour = time->hour + 8;
 407              		.loc 1 191 22
 408 000a 019B     		ldr	r3, [sp, #4]
 409 000c 1B79     		ldrb	r3, [r3, #4]	@ zero_extendqisi2
 410              		.loc 1 191 29
 411 000e 0833     		adds	r3, r3, #8
 412 0010 DAB2     		uxtb	r2, r3
 413              		.loc 1 191 16
 414 0012 019B     		ldr	r3, [sp, #4]
 415 0014 1A71     		strb	r2, [r3, #4]
 192:libraries/zf_device/zf_device_gnss.c ****     if(23 < time->hour)
 416              		.loc 1 192 17
 417 0016 019B     		ldr	r3, [sp, #4]
 418 0018 1B79     		ldrb	r3, [r3, #4]	@ zero_extendqisi2
 419              		.loc 1 192 7
 420 001a 172B     		cmp	r3, #23
 421 001c 6FD9     		bls	.L22
 193:libraries/zf_device/zf_device_gnss.c ****     {
 194:libraries/zf_device/zf_device_gnss.c ****         time->hour  -= 24;
 422              		.loc 1 194 21
 423 001e 019B     		ldr	r3, [sp, #4]
 424 0020 1B79     		ldrb	r3, [r3, #4]	@ zero_extendqisi2
 425 0022 183B     		subs	r3, r3, #24
 426 0024 DAB2     		uxtb	r2, r3
 427 0026 019B     		ldr	r3, [sp, #4]
 428 0028 1A71     		strb	r2, [r3, #4]
 195:libraries/zf_device/zf_device_gnss.c ****         time->day   += 1;
 429              		.loc 1 195 21
 430 002a 019B     		ldr	r3, [sp, #4]
 431 002c DB78     		ldrb	r3, [r3, #3]	@ zero_extendqisi2
 432 002e 0133     		adds	r3, r3, #1
 433 0030 DAB2     		uxtb	r2, r3
 434 0032 019B     		ldr	r3, [sp, #4]
 435 0034 DA70     		strb	r2, [r3, #3]
 196:libraries/zf_device/zf_device_gnss.c **** 
 197:libraries/zf_device/zf_device_gnss.c ****         if(2 == time->month)
 436              		.loc 1 197 21
 437 0036 019B     		ldr	r3, [sp, #4]
 438 0038 9B78     		ldrb	r3, [r3, #2]	@ zero_extendqisi2
 439              		.loc 1 197 11
 440 003a 022B     		cmp	r3, #2
 441 003c 2AD1     		bne	.L17
 198:libraries/zf_device/zf_device_gnss.c ****         {
 199:libraries/zf_device/zf_device_gnss.c ****             day_num = 28;
 442              		.loc 1 199 21
 443 003e 1C23     		movs	r3, #28
 444 0040 8DF80F30 		strb	r3, [sp, #15]
 200:libraries/zf_device/zf_device_gnss.c ****             if(     (   0 == time->year % 4
 445              		.loc 1 200 34
 446 0044 019B     		ldr	r3, [sp, #4]
 447 0046 1B88     		ldrh	r3, [r3]
 448              		.loc 1 200 27
 449 0048 03F00303 		and	r3, r3, #3
 450 004c 9BB2     		uxth	r3, r3
 451              		.loc 1 200 15
 452 004e 002B     		cmp	r3, #0
 453 0050 0CD1     		bne	.L18
 201:libraries/zf_device/zf_device_gnss.c ****                     &&  0 != time->year % 100)
 454              		.loc 1 201 34
 455 0052 019B     		ldr	r3, [sp, #4]
 456 0054 1B88     		ldrh	r3, [r3]
 457              		.loc 1 201 27
 458 0056 2B4A     		ldr	r2, .L23
 459 0058 A2FB0312 		umull	r1, r2, r2, r3
 460 005c 5209     		lsrs	r2, r2, #5
 461 005e 6421     		movs	r1, #100
 462 0060 01FB02F2 		mul	r2, r1, r2
 463 0064 9B1A     		subs	r3, r3, r2
 464 0066 9BB2     		uxth	r3, r3
 465              		.loc 1 201 21
 466 0068 002B     		cmp	r3, #0
 467 006a 0DD1     		bne	.L19
 468              	.L18:
 202:libraries/zf_device/zf_device_gnss.c ****                 ||  0 == time->year % 400)                                      // åˆ¤æ–­æ˜¯å¦ä¸ºé
 469              		.loc 1 202 30
 470 006c 019B     		ldr	r3, [sp, #4]
 471 006e 1B88     		ldrh	r3, [r3]
 472              		.loc 1 202 23
 473 0070 244A     		ldr	r2, .L23
 474 0072 A2FB0312 		umull	r1, r2, r2, r3
 475 0076 D209     		lsrs	r2, r2, #7
 476 0078 4FF4C871 		mov	r1, #400
 477 007c 01FB02F2 		mul	r2, r1, r2
 478 0080 9B1A     		subs	r3, r3, r2
 479 0082 9BB2     		uxth	r3, r3
 480              		.loc 1 202 17
 481 0084 002B     		cmp	r3, #0
 482 0086 1BD1     		bne	.L20
 483              	.L19:
 203:libraries/zf_device/zf_device_gnss.c ****             {
 204:libraries/zf_device/zf_device_gnss.c ****                 day_num ++;                                                     // é—°æœˆ 2æœˆä¸º29
 484              		.loc 1 204 25
 485 0088 9DF80F30 		ldrb	r3, [sp, #15]	@ zero_extendqisi2
 486 008c 0133     		adds	r3, r3, #1
 487 008e 8DF80F30 		strb	r3, [sp, #15]
 488 0092 15E0     		b	.L20
 489              	.L17:
 205:libraries/zf_device/zf_device_gnss.c ****             }
 206:libraries/zf_device/zf_device_gnss.c ****         }
 207:libraries/zf_device/zf_device_gnss.c ****         else
 208:libraries/zf_device/zf_device_gnss.c ****         {
 209:libraries/zf_device/zf_device_gnss.c ****             day_num = 31;                                                       // 1 3 5 7 8 10 12è
 490              		.loc 1 209 21
 491 0094 1F23     		movs	r3, #31
 492 0096 8DF80F30 		strb	r3, [sp, #15]
 210:libraries/zf_device/zf_device_gnss.c ****             if(     4  == time->month
 493              		.loc 1 210 31
 494 009a 019B     		ldr	r3, [sp, #4]
 495 009c 9B78     		ldrb	r3, [r3, #2]	@ zero_extendqisi2
 496              		.loc 1 210 15
 497 009e 042B     		cmp	r3, #4
 498 00a0 0BD0     		beq	.L21
 211:libraries/zf_device/zf_device_gnss.c ****                 ||  6  == time->month
 499              		.loc 1 211 31
 500 00a2 019B     		ldr	r3, [sp, #4]
 501 00a4 9B78     		ldrb	r3, [r3, #2]	@ zero_extendqisi2
 502              		.loc 1 211 17
 503 00a6 062B     		cmp	r3, #6
 504 00a8 07D0     		beq	.L21
 212:libraries/zf_device/zf_device_gnss.c ****                 ||  9  == time->month
 505              		.loc 1 212 31
 506 00aa 019B     		ldr	r3, [sp, #4]
 507 00ac 9B78     		ldrb	r3, [r3, #2]	@ zero_extendqisi2
 508              		.loc 1 212 17
 509 00ae 092B     		cmp	r3, #9
 510 00b0 03D0     		beq	.L21
 213:libraries/zf_device/zf_device_gnss.c ****                 ||  11 == time->month )
 511              		.loc 1 213 31
 512 00b2 019B     		ldr	r3, [sp, #4]
 513 00b4 9B78     		ldrb	r3, [r3, #2]	@ zero_extendqisi2
 514              		.loc 1 213 17
 515 00b6 0B2B     		cmp	r3, #11
 516 00b8 02D1     		bne	.L20
 517              	.L21:
 214:libraries/zf_device/zf_device_gnss.c ****             {
 215:libraries/zf_device/zf_device_gnss.c ****                 day_num = 30;
 518              		.loc 1 215 25
 519 00ba 1E23     		movs	r3, #30
 520 00bc 8DF80F30 		strb	r3, [sp, #15]
 521              	.L20:
 216:libraries/zf_device/zf_device_gnss.c ****             }
 217:libraries/zf_device/zf_device_gnss.c ****         }
 218:libraries/zf_device/zf_device_gnss.c **** 
 219:libraries/zf_device/zf_device_gnss.c ****         if(time->day > day_num)
 522              		.loc 1 219 16
 523 00c0 019B     		ldr	r3, [sp, #4]
 524 00c2 DB78     		ldrb	r3, [r3, #3]	@ zero_extendqisi2
 525              		.loc 1 219 11
 526 00c4 9DF80F20 		ldrb	r2, [sp, #15]	@ zero_extendqisi2
 527 00c8 9A42     		cmp	r2, r3
 528 00ca 18D2     		bcs	.L22
 220:libraries/zf_device/zf_device_gnss.c ****         {
 221:libraries/zf_device/zf_device_gnss.c ****             time->day = 1;
 529              		.loc 1 221 23
 530 00cc 019B     		ldr	r3, [sp, #4]
 531 00ce 0122     		movs	r2, #1
 532 00d0 DA70     		strb	r2, [r3, #3]
 222:libraries/zf_device/zf_device_gnss.c ****             time->month ++;
 533              		.loc 1 222 17
 534 00d2 019B     		ldr	r3, [sp, #4]
 535 00d4 9B78     		ldrb	r3, [r3, #2]	@ zero_extendqisi2
 536              		.loc 1 222 25
 537 00d6 0133     		adds	r3, r3, #1
 538 00d8 DAB2     		uxtb	r2, r3
 539 00da 019B     		ldr	r3, [sp, #4]
 540 00dc 9A70     		strb	r2, [r3, #2]
 223:libraries/zf_device/zf_device_gnss.c ****             if(12 < time->month)
 541              		.loc 1 223 25
 542 00de 019B     		ldr	r3, [sp, #4]
 543 00e0 9B78     		ldrb	r3, [r3, #2]	@ zero_extendqisi2
 544              		.loc 1 223 15
 545 00e2 0C2B     		cmp	r3, #12
 546 00e4 0BD9     		bls	.L22
 224:libraries/zf_device/zf_device_gnss.c ****             {
 225:libraries/zf_device/zf_device_gnss.c ****                 time->month -= 12;
 547              		.loc 1 225 29
 548 00e6 019B     		ldr	r3, [sp, #4]
 549 00e8 9B78     		ldrb	r3, [r3, #2]	@ zero_extendqisi2
 550 00ea 0C3B     		subs	r3, r3, #12
 551 00ec DAB2     		uxtb	r2, r3
 552 00ee 019B     		ldr	r3, [sp, #4]
 553 00f0 9A70     		strb	r2, [r3, #2]
 226:libraries/zf_device/zf_device_gnss.c ****                 time->year ++;
 554              		.loc 1 226 21
 555 00f2 019B     		ldr	r3, [sp, #4]
 556 00f4 1B88     		ldrh	r3, [r3]
 557              		.loc 1 226 28
 558 00f6 0133     		adds	r3, r3, #1
 559 00f8 9AB2     		uxth	r2, r3
 560 00fa 019B     		ldr	r3, [sp, #4]
 561 00fc 1A80     		strh	r2, [r3]	@ movhi
 562              	.L22:
 227:libraries/zf_device/zf_device_gnss.c ****             }
 228:libraries/zf_device/zf_device_gnss.c ****         }
 229:libraries/zf_device/zf_device_gnss.c ****     }
 230:libraries/zf_device/zf_device_gnss.c **** }
 563              		.loc 1 230 1
 564 00fe 00BF     		nop
 565 0100 04B0     		add	sp, sp, #16
 566              		.cfi_def_cfa_offset 0
 567              		@ sp needed
 568 0102 7047     		bx	lr
 569              	.L24:
 570              		.align	2
 571              	.L23:
 572 0104 1F85EB51 		.word	1374389535
 573              		.cfi_endproc
 574              	.LFE486:
 576              		.section	.text.gnss_gnrmc_parse,"ax",%progbits
 577              		.align	1
 578              		.p2align 4,,15
 579              		.syntax unified
 580              		.thumb
 581              		.thumb_func
 583              	gnss_gnrmc_parse:
 584              	.LFB487:
 231:libraries/zf_device/zf_device_gnss.c **** 
 232:libraries/zf_device/zf_device_gnss.c **** //-------------------------------------------------------------------------------------------------
 233:libraries/zf_device/zf_device_gnss.c **** // å‡½æ•°ç®€ä»‹     GNSS RMC è¯­å¥è§£æ
 234:libraries/zf_device/zf_device_gnss.c **** // å‚æ•°è¯´æ˜     *line           æ¥æ”¶åˆ°çš„è¯­å¥ä¿¡æ¯
 235:libraries/zf_device/zf_device_gnss.c **** // å‚æ•°è¯´æ˜     *gnss           ä¿å­˜è§£æåçš„æ•°æ®
 236:libraries/zf_device/zf_device_gnss.c **** // è¿”å›å‚æ•°     uint8           ZF_TRUE-è§£ææˆåŠŸ ZF_FALSE-æ•°æ®æœ‰é—®é¢˜ä¸èƒ½è§£æ
 237:libraries/zf_device/zf_device_gnss.c **** // ä½¿ç”¨ç¤ºä¾‹     gnss_gnrmc_parse(line, gnss);
 238:libraries/zf_device/zf_device_gnss.c **** // å¤‡æ³¨ä¿¡æ¯     å†…éƒ¨ä½¿ç”¨
 239:libraries/zf_device/zf_device_gnss.c **** //-------------------------------------------------------------------------------------------------
 240:libraries/zf_device/zf_device_gnss.c **** static uint8 gnss_gnrmc_parse (char *line, gnss_info_struct *gnss)
 241:libraries/zf_device/zf_device_gnss.c **** {
 585              		.loc 1 241 1
 586              		.cfi_startproc
 587              		@ args = 0, pretend = 0, frame = 72
 588              		@ frame_needed = 0, uses_anonymous_args = 0
 589 0000 00B5     		push	{lr}
 590              		.cfi_def_cfa_offset 4
 591              		.cfi_offset 14, -4
 592 0002 93B0     		sub	sp, sp, #76
 593              		.cfi_def_cfa_offset 80
 594 0004 0190     		str	r0, [sp, #4]
 595 0006 0091     		str	r1, [sp]
 242:libraries/zf_device/zf_device_gnss.c ****     uint8 return_state = ZF_FALSE;
 596              		.loc 1 242 11
 597 0008 0023     		movs	r3, #0
 598 000a 8DF84730 		strb	r3, [sp, #71]
 243:libraries/zf_device/zf_device_gnss.c **** 
 244:libraries/zf_device/zf_device_gnss.c ****     uint8 state = 0, temp = 0;
 599              		.loc 1 244 11
 600 000e 0023     		movs	r3, #0
 601 0010 8DF84630 		strb	r3, [sp, #70]
 602              		.loc 1 244 22
 603 0014 0023     		movs	r3, #0
 604 0016 8DF84530 		strb	r3, [sp, #69]
 245:libraries/zf_device/zf_device_gnss.c **** 
 246:libraries/zf_device/zf_device_gnss.c ****     double  latitude = 0;                                                       // çº¬åº¦
 605              		.loc 1 246 13
 606 001a 4FF00002 		mov	r2, #0
 607 001e 4FF00003 		mov	r3, #0
 608 0022 CDE90E23 		strd	r2, [sp, #56]
 247:libraries/zf_device/zf_device_gnss.c ****     double  longitude = 0;                                                      // ç»åº¦
 609              		.loc 1 247 13
 610 0026 4FF00002 		mov	r2, #0
 611 002a 4FF00003 		mov	r3, #0
 612 002e CDE90C23 		strd	r2, [sp, #48]
 248:libraries/zf_device/zf_device_gnss.c **** 
 249:libraries/zf_device/zf_device_gnss.c ****     double lati_cent_tmp = 0, lati_second_tmp = 0;
 613              		.loc 1 249 12
 614 0032 4FF00002 		mov	r2, #0
 615 0036 4FF00003 		mov	r3, #0
 616 003a CDE90A23 		strd	r2, [sp, #40]
 617              		.loc 1 249 31
 618 003e 4FF00002 		mov	r2, #0
 619 0042 4FF00003 		mov	r3, #0
 620 0046 CDE90823 		strd	r2, [sp, #32]
 250:libraries/zf_device/zf_device_gnss.c ****     double long_cent_tmp = 0, long_second_tmp = 0;
 621              		.loc 1 250 12
 622 004a 4FF00002 		mov	r2, #0
 623 004e 4FF00003 		mov	r3, #0
 624 0052 CDE90623 		strd	r2, [sp, #24]
 625              		.loc 1 250 31
 626 0056 4FF00002 		mov	r2, #0
 627 005a 4FF00003 		mov	r3, #0
 628 005e CDE90423 		strd	r2, [sp, #16]
 251:libraries/zf_device/zf_device_gnss.c ****     float speed_tmp = 0;
 629              		.loc 1 251 11
 630 0062 4FF00003 		mov	r3, #0
 631 0066 0393     		str	r3, [sp, #12]	@ float
 252:libraries/zf_device/zf_device_gnss.c ****     char *buf = line;
 632              		.loc 1 252 11
 633 0068 019B     		ldr	r3, [sp, #4]
 634 006a 0293     		str	r3, [sp, #8]
 253:libraries/zf_device/zf_device_gnss.c **** 
 254:libraries/zf_device/zf_device_gnss.c ****     state = buf[get_parameter_index(2, buf)];
 635              		.loc 1 254 17
 636 006c 0299     		ldr	r1, [sp, #8]
 637 006e 0220     		movs	r0, #2
 638 0070 FFF7FEFF 		bl	get_parameter_index
 639 0074 0346     		mov	r3, r0
 640 0076 1A46     		mov	r2, r3
 641              		.loc 1 254 16
 642 0078 029B     		ldr	r3, [sp, #8]
 643 007a 1344     		add	r3, r3, r2
 644 007c 93F90030 		ldrsb	r3, [r3]
 645              		.loc 1 254 11
 646 0080 8DF84630 		strb	r3, [sp, #70]
 255:libraries/zf_device/zf_device_gnss.c **** 
 256:libraries/zf_device/zf_device_gnss.c ****     if(('A' == state) || ('D' == state))                                        // å¦‚æœæ•°æ®æœ‰æ
 647              		.loc 1 256 7
 648 0084 9DF84630 		ldrb	r3, [sp, #70]	@ zero_extendqisi2
 649 0088 412B     		cmp	r3, #65
 650 008a 04D0     		beq	.L26
 651              		.loc 1 256 23 discriminator 1
 652 008c 9DF84630 		ldrb	r3, [sp, #70]	@ zero_extendqisi2
 653 0090 442B     		cmp	r3, #68
 654 0092 40F00581 		bne	.L27
 655              	.L26:
 257:libraries/zf_device/zf_device_gnss.c ****     {
 258:libraries/zf_device/zf_device_gnss.c ****         return_state = ZF_TRUE;
 656              		.loc 1 258 22
 657 0096 0123     		movs	r3, #1
 658 0098 8DF84730 		strb	r3, [sp, #71]
 259:libraries/zf_device/zf_device_gnss.c ****         gnss->state = 1;
 659              		.loc 1 259 21
 660 009c 009B     		ldr	r3, [sp]
 661 009e 0122     		movs	r2, #1
 662 00a0 1A72     		strb	r2, [r3, #8]
 260:libraries/zf_device/zf_device_gnss.c ****         gnss -> ns              = buf[get_parameter_index(4, buf)];
 663              		.loc 1 260 39
 664 00a2 0299     		ldr	r1, [sp, #8]
 665 00a4 0420     		movs	r0, #4
 666 00a6 FFF7FEFF 		bl	get_parameter_index
 667 00aa 0346     		mov	r3, r0
 668 00ac 1A46     		mov	r2, r3
 669              		.loc 1 260 38
 670 00ae 029B     		ldr	r3, [sp, #8]
 671 00b0 1344     		add	r3, r3, r2
 672 00b2 93F90020 		ldrsb	r2, [r3]
 673              		.loc 1 260 33
 674 00b6 009B     		ldr	r3, [sp]
 675 00b8 83F82820 		strb	r2, [r3, #40]
 261:libraries/zf_device/zf_device_gnss.c ****         gnss -> ew              = buf[get_parameter_index(6, buf)];
 676              		.loc 1 261 39
 677 00bc 0299     		ldr	r1, [sp, #8]
 678 00be 0620     		movs	r0, #6
 679 00c0 FFF7FEFF 		bl	get_parameter_index
 680 00c4 0346     		mov	r3, r0
 681 00c6 1A46     		mov	r2, r3
 682              		.loc 1 261 38
 683 00c8 029B     		ldr	r3, [sp, #8]
 684 00ca 1344     		add	r3, r3, r2
 685 00cc 93F90020 		ldrsb	r2, [r3]
 686              		.loc 1 261 33
 687 00d0 009B     		ldr	r3, [sp]
 688 00d2 83F82920 		strb	r2, [r3, #41]
 262:libraries/zf_device/zf_device_gnss.c **** 
 263:libraries/zf_device/zf_device_gnss.c ****         latitude                = get_double_number(&buf[get_parameter_index(3, buf)]);
 689              		.loc 1 263 58
 690 00d6 0299     		ldr	r1, [sp, #8]
 691 00d8 0320     		movs	r0, #3
 692 00da FFF7FEFF 		bl	get_parameter_index
 693 00de 0346     		mov	r3, r0
 694 00e0 1A46     		mov	r2, r3
 695              		.loc 1 263 35
 696 00e2 029B     		ldr	r3, [sp, #8]
 697 00e4 1344     		add	r3, r3, r2
 698 00e6 1846     		mov	r0, r3
 699 00e8 FFF7FEFF 		bl	get_double_number
 700 00ec 8DED0E0B 		vstr.64	d0, [sp, #56]
 264:libraries/zf_device/zf_device_gnss.c ****         longitude               = get_double_number(&buf[get_parameter_index(5, buf)]);
 701              		.loc 1 264 58
 702 00f0 0299     		ldr	r1, [sp, #8]
 703 00f2 0520     		movs	r0, #5
 704 00f4 FFF7FEFF 		bl	get_parameter_index
 705 00f8 0346     		mov	r3, r0
 706 00fa 1A46     		mov	r2, r3
 707              		.loc 1 264 35
 708 00fc 029B     		ldr	r3, [sp, #8]
 709 00fe 1344     		add	r3, r3, r2
 710 0100 1846     		mov	r0, r3
 711 0102 FFF7FEFF 		bl	get_double_number
 712 0106 8DED0C0B 		vstr.64	d0, [sp, #48]
 265:libraries/zf_device/zf_device_gnss.c **** 
 266:libraries/zf_device/zf_device_gnss.c ****         gnss->latitude_degree   = (int)latitude / 100;                          // çº¬åº¦è½¬æ¢ä¸ºå
 713              		.loc 1 266 35
 714 010a 9DED0E7B 		vldr.64	d7, [sp, #56]
 715 010e FDEEC77B 		vcvt.s32.f64	s15, d7
 716 0112 17EE901A 		vmov	r1, s15	@ int
 717              		.loc 1 266 49
 718 0116 BC4B     		ldr	r3, .L30+16
 719 0118 83FB0123 		smull	r2, r3, r3, r1
 720 011c 5A11     		asrs	r2, r3, #5
 721 011e CB17     		asrs	r3, r1, #31
 722 0120 D31A     		subs	r3, r2, r3
 723              		.loc 1 266 33
 724 0122 9AB2     		uxth	r2, r3
 725 0124 009B     		ldr	r3, [sp]
 726 0126 5A81     		strh	r2, [r3, #10]	@ movhi
 267:libraries/zf_device/zf_device_gnss.c ****         lati_cent_tmp           = (latitude - gnss->latitude_degree * 100);
 727              		.loc 1 267 51
 728 0128 009B     		ldr	r3, [sp]
 729 012a 5B89     		ldrh	r3, [r3, #10]
 730 012c 1A46     		mov	r2, r3
 731              		.loc 1 267 69
 732 012e 6423     		movs	r3, #100
 733 0130 02FB03F3 		mul	r3, r2, r3
 734              		.loc 1 267 45
 735 0134 07EE903A 		vmov	s15, r3	@ int
 736 0138 B8EEE77B 		vcvt.f64.s32	d7, s15
 737              		.loc 1 267 33
 738 013c 9DED0E6B 		vldr.64	d6, [sp, #56]
 739 0140 36EE477B 		vsub.f64	d7, d6, d7
 740 0144 8DED0A7B 		vstr.64	d7, [sp, #40]
 268:libraries/zf_device/zf_device_gnss.c ****         gnss->latitude_cent     = (int)lati_cent_tmp;
 741              		.loc 1 268 35
 742 0148 9DED0A7B 		vldr.64	d7, [sp, #40]
 743 014c FDEEC77B 		vcvt.s32.f64	s15, d7
 744              		.loc 1 268 33
 745 0150 17EE903A 		vmov	r3, s15	@ int
 746 0154 9AB2     		uxth	r2, r3
 747 0156 009B     		ldr	r3, [sp]
 748 0158 9A81     		strh	r2, [r3, #12]	@ movhi
 269:libraries/zf_device/zf_device_gnss.c ****         lati_second_tmp         = (lati_cent_tmp - gnss->latitude_cent) * 6000;
 749              		.loc 1 269 56
 750 015a 009B     		ldr	r3, [sp]
 751 015c 9B89     		ldrh	r3, [r3, #12]
 752 015e 07EE903A 		vmov	s15, r3	@ int
 753              		.loc 1 269 50
 754 0162 B8EEE77B 		vcvt.f64.s32	d7, s15
 755 0166 9DED0A6B 		vldr.64	d6, [sp, #40]
 756 016a 36EE477B 		vsub.f64	d7, d6, d7
 757              		.loc 1 269 33
 758 016e 9FEDA26B 		vldr.64	d6, .L30
 759 0172 27EE067B 		vmul.f64	d7, d7, d6
 760 0176 8DED087B 		vstr.64	d7, [sp, #32]
 270:libraries/zf_device/zf_device_gnss.c ****         gnss->latitude_second   = (int)lati_second_tmp;
 761              		.loc 1 270 35
 762 017a 9DED087B 		vldr.64	d7, [sp, #32]
 763 017e FDEEC77B 		vcvt.s32.f64	s15, d7
 764              		.loc 1 270 33
 765 0182 17EE903A 		vmov	r3, s15	@ int
 766 0186 9AB2     		uxth	r2, r3
 767 0188 009B     		ldr	r3, [sp]
 768 018a DA81     		strh	r2, [r3, #14]	@ movhi
 271:libraries/zf_device/zf_device_gnss.c **** 
 272:libraries/zf_device/zf_device_gnss.c ****         gnss->longitude_degree  = (int)longitude / 100;                         // ç»åº¦è½¬æ¢ä¸ºå
 769              		.loc 1 272 35
 770 018c 9DED0C7B 		vldr.64	d7, [sp, #48]
 771 0190 FDEEC77B 		vcvt.s32.f64	s15, d7
 772 0194 17EE901A 		vmov	r1, s15	@ int
 773              		.loc 1 272 50
 774 0198 9B4B     		ldr	r3, .L30+16
 775 019a 83FB0123 		smull	r2, r3, r3, r1
 776 019e 5A11     		asrs	r2, r3, #5
 777 01a0 CB17     		asrs	r3, r1, #31
 778 01a2 D31A     		subs	r3, r2, r3
 779              		.loc 1 272 33
 780 01a4 9AB2     		uxth	r2, r3
 781 01a6 009B     		ldr	r3, [sp]
 782 01a8 1A82     		strh	r2, [r3, #16]	@ movhi
 273:libraries/zf_device/zf_device_gnss.c ****         long_cent_tmp           = (longitude - gnss->longitude_degree * 100);
 783              		.loc 1 273 52
 784 01aa 009B     		ldr	r3, [sp]
 785 01ac 1B8A     		ldrh	r3, [r3, #16]
 786 01ae 1A46     		mov	r2, r3
 787              		.loc 1 273 71
 788 01b0 6423     		movs	r3, #100
 789 01b2 02FB03F3 		mul	r3, r2, r3
 790              		.loc 1 273 46
 791 01b6 07EE903A 		vmov	s15, r3	@ int
 792 01ba B8EEE77B 		vcvt.f64.s32	d7, s15
 793              		.loc 1 273 33
 794 01be 9DED0C6B 		vldr.64	d6, [sp, #48]
 795 01c2 36EE477B 		vsub.f64	d7, d6, d7
 796 01c6 8DED067B 		vstr.64	d7, [sp, #24]
 274:libraries/zf_device/zf_device_gnss.c ****         gnss->longitude_cent    = (int)long_cent_tmp;
 797              		.loc 1 274 35
 798 01ca 9DED067B 		vldr.64	d7, [sp, #24]
 799 01ce FDEEC77B 		vcvt.s32.f64	s15, d7
 800              		.loc 1 274 33
 801 01d2 17EE903A 		vmov	r3, s15	@ int
 802 01d6 9AB2     		uxth	r2, r3
 803 01d8 009B     		ldr	r3, [sp]
 804 01da 5A82     		strh	r2, [r3, #18]	@ movhi
 275:libraries/zf_device/zf_device_gnss.c ****         long_second_tmp         = (long_cent_tmp - gnss->longitude_cent) * 6000;
 805              		.loc 1 275 56
 806 01dc 009B     		ldr	r3, [sp]
 807 01de 5B8A     		ldrh	r3, [r3, #18]
 808 01e0 07EE903A 		vmov	s15, r3	@ int
 809              		.loc 1 275 50
 810 01e4 B8EEE77B 		vcvt.f64.s32	d7, s15
 811 01e8 9DED066B 		vldr.64	d6, [sp, #24]
 812 01ec 36EE477B 		vsub.f64	d7, d6, d7
 813              		.loc 1 275 33
 814 01f0 9FED816B 		vldr.64	d6, .L30
 815 01f4 27EE067B 		vmul.f64	d7, d7, d6
 816 01f8 8DED047B 		vstr.64	d7, [sp, #16]
 276:libraries/zf_device/zf_device_gnss.c ****         gnss->longitude_second  = (int)long_second_tmp;
 817              		.loc 1 276 35
 818 01fc 9DED047B 		vldr.64	d7, [sp, #16]
 819 0200 FDEEC77B 		vcvt.s32.f64	s15, d7
 820              		.loc 1 276 33
 821 0204 17EE903A 		vmov	r3, s15	@ int
 822 0208 9AB2     		uxth	r2, r3
 823 020a 009B     		ldr	r3, [sp]
 824 020c 9A82     		strh	r2, [r3, #20]	@ movhi
 277:libraries/zf_device/zf_device_gnss.c **** 
 278:libraries/zf_device/zf_device_gnss.c ****         gnss->latitude  = gnss->latitude_degree + lati_cent_tmp / 60;
 825              		.loc 1 278 31
 826 020e 009B     		ldr	r3, [sp]
 827 0210 5B89     		ldrh	r3, [r3, #10]
 828 0212 07EE903A 		vmov	s15, r3	@ int
 829              		.loc 1 278 49
 830 0216 B8EEE76B 		vcvt.f64.s32	d6, s15
 831              		.loc 1 278 65
 832 021a 9DED0A5B 		vldr.64	d5, [sp, #40]
 833 021e 9FED784B 		vldr.64	d4, .L30+8
 834 0222 85EE047B 		vdiv.f64	d7, d5, d4
 835              		.loc 1 278 49
 836 0226 36EE077B 		vadd.f64	d7, d6, d7
 837              		.loc 1 278 25
 838 022a 009B     		ldr	r3, [sp]
 839 022c 83ED067B 		vstr.64	d7, [r3, #24]
 279:libraries/zf_device/zf_device_gnss.c ****         gnss->longitude = gnss->longitude_degree + long_cent_tmp / 60;
 840              		.loc 1 279 31
 841 0230 009B     		ldr	r3, [sp]
 842 0232 1B8A     		ldrh	r3, [r3, #16]
 843 0234 07EE903A 		vmov	s15, r3	@ int
 844              		.loc 1 279 50
 845 0238 B8EEE76B 		vcvt.f64.s32	d6, s15
 846              		.loc 1 279 66
 847 023c 9DED065B 		vldr.64	d5, [sp, #24]
 848 0240 9FED6F4B 		vldr.64	d4, .L30+8
 849 0244 85EE047B 		vdiv.f64	d7, d5, d4
 850              		.loc 1 279 50
 851 0248 36EE077B 		vadd.f64	d7, d6, d7
 852              		.loc 1 279 25
 853 024c 009B     		ldr	r3, [sp]
 854 024e 83ED087B 		vstr.64	d7, [r3, #32]
 280:libraries/zf_device/zf_device_gnss.c **** 
 281:libraries/zf_device/zf_device_gnss.c ****         speed_tmp       = get_float_number(&buf[get_parameter_index(7, buf)]);  // é€Ÿåº¦(æµ·é‡Œ/å°
 855              		.loc 1 281 49
 856 0252 0299     		ldr	r1, [sp, #8]
 857 0254 0720     		movs	r0, #7
 858 0256 FFF7FEFF 		bl	get_parameter_index
 859 025a 0346     		mov	r3, r0
 860 025c 1A46     		mov	r2, r3
 861              		.loc 1 281 27
 862 025e 029B     		ldr	r3, [sp, #8]
 863 0260 1344     		add	r3, r3, r2
 864 0262 1846     		mov	r0, r3
 865 0264 FFF7FEFF 		bl	get_float_number
 866 0268 8DED030A 		vstr.32	s0, [sp, #12]
 282:libraries/zf_device/zf_device_gnss.c ****         gnss->speed     = speed_tmp * 1.85f;                                    // è½¬æ¢ä¸ºå…¬é‡Œ/
 867              		.loc 1 282 37
 868 026c DDED037A 		vldr.32	s15, [sp, #12]
 869 0270 9FED667A 		vldr.32	s14, .L30+20
 870 0274 67EE877A 		vmul.f32	s15, s15, s14
 871              		.loc 1 282 25
 872 0278 009B     		ldr	r3, [sp]
 873 027a C3ED0B7A 		vstr.32	s15, [r3, #44]
 283:libraries/zf_device/zf_device_gnss.c ****         gnss->direction = get_float_number(&buf[get_parameter_index(8, buf)]);  // è§’åº¦          
 874              		.loc 1 283 49
 875 027e 0299     		ldr	r1, [sp, #8]
 876 0280 0820     		movs	r0, #8
 877 0282 FFF7FEFF 		bl	get_parameter_index
 878 0286 0346     		mov	r3, r0
 879 0288 1A46     		mov	r2, r3
 880              		.loc 1 283 27
 881 028a 029B     		ldr	r3, [sp, #8]
 882 028c 1344     		add	r3, r3, r2
 883 028e 1846     		mov	r0, r3
 884 0290 FFF7FEFF 		bl	get_float_number
 885 0294 F0EE407A 		vmov.f32	s15, s0
 886              		.loc 1 283 25
 887 0298 009B     		ldr	r3, [sp]
 888 029a C3ED0C7A 		vstr.32	s15, [r3, #48]
 889 029e 02E0     		b	.L28
 890              	.L27:
 284:libraries/zf_device/zf_device_gnss.c ****     }
 285:libraries/zf_device/zf_device_gnss.c ****     else
 286:libraries/zf_device/zf_device_gnss.c ****     {
 287:libraries/zf_device/zf_device_gnss.c ****         gnss->state = 0;
 891              		.loc 1 287 21
 892 02a0 009B     		ldr	r3, [sp]
 893 02a2 0022     		movs	r2, #0
 894 02a4 1A72     		strb	r2, [r3, #8]
 895              	.L28:
 288:libraries/zf_device/zf_device_gnss.c ****     }
 289:libraries/zf_device/zf_device_gnss.c **** 
 290:libraries/zf_device/zf_device_gnss.c ****     // åœ¨å®šä½æ²¡æœ‰ç”Ÿæ•ˆå‰ä¹Ÿæ˜¯æœ‰æ—¶é—´æ•°æ®çš„ï¼Œå¯ä»¥ç›´æ¥è§£æ
 291:libraries/zf_device/zf_device_gnss.c ****     gnss->time.hour    = (buf[7 ] - '0') * 10 + (buf[8 ] - '0');                // æ—¶é—´
 896              		.loc 1 291 30
 897 02a6 029B     		ldr	r3, [sp, #8]
 898 02a8 0733     		adds	r3, r3, #7
 899 02aa 93F90030 		ldrsb	r3, [r3]
 900              		.loc 1 291 35
 901 02ae 303B     		subs	r3, r3, #48
 902              		.loc 1 291 47
 903 02b0 DBB2     		uxtb	r3, r3
 904 02b2 1A46     		mov	r2, r3
 905 02b4 9200     		lsls	r2, r2, #2
 906 02b6 1344     		add	r3, r3, r2
 907 02b8 5B00     		lsls	r3, r3, #1
 908 02ba DAB2     		uxtb	r2, r3
 909              		.loc 1 291 53
 910 02bc 029B     		ldr	r3, [sp, #8]
 911 02be 0833     		adds	r3, r3, #8
 912 02c0 93F90030 		ldrsb	r3, [r3]
 913 02c4 DBB2     		uxtb	r3, r3
 914              		.loc 1 291 47
 915 02c6 1344     		add	r3, r3, r2
 916 02c8 DBB2     		uxtb	r3, r3
 917 02ca 303B     		subs	r3, r3, #48
 918 02cc DAB2     		uxtb	r2, r3
 919              		.loc 1 291 24
 920 02ce 009B     		ldr	r3, [sp]
 921 02d0 1A71     		strb	r2, [r3, #4]
 292:libraries/zf_device/zf_device_gnss.c ****     gnss->time.minute  = (buf[9 ] - '0') * 10 + (buf[10] - '0');
 922              		.loc 1 292 30
 923 02d2 029B     		ldr	r3, [sp, #8]
 924 02d4 0933     		adds	r3, r3, #9
 925 02d6 93F90030 		ldrsb	r3, [r3]
 926              		.loc 1 292 35
 927 02da 303B     		subs	r3, r3, #48
 928              		.loc 1 292 47
 929 02dc DBB2     		uxtb	r3, r3
 930 02de 1A46     		mov	r2, r3
 931 02e0 9200     		lsls	r2, r2, #2
 932 02e2 1344     		add	r3, r3, r2
 933 02e4 5B00     		lsls	r3, r3, #1
 934 02e6 DAB2     		uxtb	r2, r3
 935              		.loc 1 292 53
 936 02e8 029B     		ldr	r3, [sp, #8]
 937 02ea 0A33     		adds	r3, r3, #10
 938 02ec 93F90030 		ldrsb	r3, [r3]
 939 02f0 DBB2     		uxtb	r3, r3
 940              		.loc 1 292 47
 941 02f2 1344     		add	r3, r3, r2
 942 02f4 DBB2     		uxtb	r3, r3
 943 02f6 303B     		subs	r3, r3, #48
 944 02f8 DAB2     		uxtb	r2, r3
 945              		.loc 1 292 24
 946 02fa 009B     		ldr	r3, [sp]
 947 02fc 5A71     		strb	r2, [r3, #5]
 293:libraries/zf_device/zf_device_gnss.c ****     gnss->time.second  = (buf[11] - '0') * 10 + (buf[12] - '0');
 948              		.loc 1 293 30
 949 02fe 029B     		ldr	r3, [sp, #8]
 950 0300 0B33     		adds	r3, r3, #11
 951 0302 93F90030 		ldrsb	r3, [r3]
 952              		.loc 1 293 35
 953 0306 303B     		subs	r3, r3, #48
 954              		.loc 1 293 47
 955 0308 DBB2     		uxtb	r3, r3
 956 030a 1A46     		mov	r2, r3
 957 030c 9200     		lsls	r2, r2, #2
 958 030e 1344     		add	r3, r3, r2
 959 0310 5B00     		lsls	r3, r3, #1
 960 0312 DAB2     		uxtb	r2, r3
 961              		.loc 1 293 53
 962 0314 029B     		ldr	r3, [sp, #8]
 963 0316 0C33     		adds	r3, r3, #12
 964 0318 93F90030 		ldrsb	r3, [r3]
 965 031c DBB2     		uxtb	r3, r3
 966              		.loc 1 293 47
 967 031e 1344     		add	r3, r3, r2
 968 0320 DBB2     		uxtb	r3, r3
 969 0322 303B     		subs	r3, r3, #48
 970 0324 DAB2     		uxtb	r2, r3
 971              		.loc 1 293 24
 972 0326 009B     		ldr	r3, [sp]
 973 0328 9A71     		strb	r2, [r3, #6]
 294:libraries/zf_device/zf_device_gnss.c ****     temp = get_parameter_index(9, buf);
 974              		.loc 1 294 12
 975 032a 0299     		ldr	r1, [sp, #8]
 976 032c 0920     		movs	r0, #9
 977 032e FFF7FEFF 		bl	get_parameter_index
 978 0332 0346     		mov	r3, r0
 979 0334 8DF84530 		strb	r3, [sp, #69]
 295:libraries/zf_device/zf_device_gnss.c ****     gnss->time.day     = (buf[temp + 0] - '0') * 10 + (buf[temp + 1] - '0');    // æ—¥æœŸ
 980              		.loc 1 295 30
 981 0338 9DF84530 		ldrb	r3, [sp, #69]	@ zero_extendqisi2
 982 033c 029A     		ldr	r2, [sp, #8]
 983 033e 1344     		add	r3, r3, r2
 984 0340 93F90030 		ldrsb	r3, [r3]
 985              		.loc 1 295 41
 986 0344 303B     		subs	r3, r3, #48
 987              		.loc 1 295 53
 988 0346 DBB2     		uxtb	r3, r3
 989 0348 1A46     		mov	r2, r3
 990 034a 9200     		lsls	r2, r2, #2
 991 034c 1344     		add	r3, r3, r2
 992 034e 5B00     		lsls	r3, r3, #1
 993 0350 DAB2     		uxtb	r2, r3
 994              		.loc 1 295 59
 995 0352 9DF84530 		ldrb	r3, [sp, #69]	@ zero_extendqisi2
 996 0356 0133     		adds	r3, r3, #1
 997 0358 0299     		ldr	r1, [sp, #8]
 998 035a 0B44     		add	r3, r3, r1
 999 035c 93F90030 		ldrsb	r3, [r3]
 1000 0360 DBB2     		uxtb	r3, r3
 1001              		.loc 1 295 53
 1002 0362 1344     		add	r3, r3, r2
 1003 0364 DBB2     		uxtb	r3, r3
 1004 0366 303B     		subs	r3, r3, #48
 1005 0368 DAB2     		uxtb	r2, r3
 1006              		.loc 1 295 24
 1007 036a 009B     		ldr	r3, [sp]
 1008 036c DA70     		strb	r2, [r3, #3]
 296:libraries/zf_device/zf_device_gnss.c ****     gnss->time.month   = (buf[temp + 2] - '0') * 10 + (buf[temp + 3] - '0');
 1009              		.loc 1 296 30
 1010 036e 9DF84530 		ldrb	r3, [sp, #69]	@ zero_extendqisi2
 1011 0372 0233     		adds	r3, r3, #2
 1012 0374 029A     		ldr	r2, [sp, #8]
 1013 0376 1344     		add	r3, r3, r2
 1014 0378 93F90030 		ldrsb	r3, [r3]
 1015              		.loc 1 296 41
 1016 037c 303B     		subs	r3, r3, #48
 1017              		.loc 1 296 53
 1018 037e DBB2     		uxtb	r3, r3
 1019 0380 1A46     		mov	r2, r3
 1020 0382 9200     		lsls	r2, r2, #2
 1021 0384 1344     		add	r3, r3, r2
 1022 0386 5B00     		lsls	r3, r3, #1
 1023 0388 DAB2     		uxtb	r2, r3
 1024              		.loc 1 296 59
 1025 038a 9DF84530 		ldrb	r3, [sp, #69]	@ zero_extendqisi2
 1026 038e 0333     		adds	r3, r3, #3
 1027 0390 0299     		ldr	r1, [sp, #8]
 1028 0392 0B44     		add	r3, r3, r1
 1029 0394 93F90030 		ldrsb	r3, [r3]
 1030 0398 DBB2     		uxtb	r3, r3
 1031              		.loc 1 296 53
 1032 039a 1344     		add	r3, r3, r2
 1033 039c DBB2     		uxtb	r3, r3
 1034 039e 303B     		subs	r3, r3, #48
 1035 03a0 DAB2     		uxtb	r2, r3
 1036              		.loc 1 296 24
 1037 03a2 009B     		ldr	r3, [sp]
 1038 03a4 9A70     		strb	r2, [r3, #2]
 297:libraries/zf_device/zf_device_gnss.c ****     gnss->time.year    = (buf[temp + 4] - '0') * 10 + (buf[temp + 5] - '0') + 2000;
 1039              		.loc 1 297 30
 1040 03a6 9DF84530 		ldrb	r3, [sp, #69]	@ zero_extendqisi2
 1041 03aa 0433     		adds	r3, r3, #4
 1042 03ac 029A     		ldr	r2, [sp, #8]
 1043 03ae 1344     		add	r3, r3, r2
 1044 03b0 93F90030 		ldrsb	r3, [r3]
 1045              		.loc 1 297 41
 1046 03b4 303B     		subs	r3, r3, #48
 1047              		.loc 1 297 53
 1048 03b6 9BB2     		uxth	r3, r3
 1049 03b8 1A46     		mov	r2, r3	@ movhi
 1050 03ba 9200     		lsls	r2, r2, #2
 1051 03bc 1344     		add	r3, r3, r2
 1052 03be 5B00     		lsls	r3, r3, #1
 1053 03c0 9AB2     		uxth	r2, r3
 1054              		.loc 1 297 59
 1055 03c2 9DF84530 		ldrb	r3, [sp, #69]	@ zero_extendqisi2
 1056 03c6 0533     		adds	r3, r3, #5
 1057 03c8 0299     		ldr	r1, [sp, #8]
 1058 03ca 0B44     		add	r3, r3, r1
 1059 03cc 93F90030 		ldrsb	r3, [r3]
 1060 03d0 9BB2     		uxth	r3, r3
 1061              		.loc 1 297 53
 1062 03d2 1344     		add	r3, r3, r2
 1063 03d4 9BB2     		uxth	r3, r3
 1064              		.loc 1 297 77
 1065 03d6 03F5F463 		add	r3, r3, #1952
 1066 03da 9AB2     		uxth	r2, r3
 1067              		.loc 1 297 24
 1068 03dc 009B     		ldr	r3, [sp]
 1069 03de 1A80     		strh	r2, [r3]	@ movhi
 298:libraries/zf_device/zf_device_gnss.c **** 
 299:libraries/zf_device/zf_device_gnss.c ****     utc_to_btc(&gnss->time);
 1070              		.loc 1 299 5
 1071 03e0 009B     		ldr	r3, [sp]
 1072 03e2 1846     		mov	r0, r3
 1073 03e4 FFF7FEFF 		bl	utc_to_btc
 300:libraries/zf_device/zf_device_gnss.c **** 
 301:libraries/zf_device/zf_device_gnss.c ****     return return_state;
 1074              		.loc 1 301 12
 1075 03e8 9DF84730 		ldrb	r3, [sp, #71]	@ zero_extendqisi2
 302:libraries/zf_device/zf_device_gnss.c **** }
 1076              		.loc 1 302 1
 1077 03ec 1846     		mov	r0, r3
 1078 03ee 13B0     		add	sp, sp, #76
 1079              		.cfi_def_cfa_offset 4
 1080              		@ sp needed
 1081 03f0 5DF804FB 		ldr	pc, [sp], #4
 1082              	.L31:
 1083 03f4 AFF30080 		.align	3
 1084              	.L30:
 1085 03f8 00000000 		.word	0
 1086 03fc 0070B740 		.word	1085763584
 1087 0400 00000000 		.word	0
 1088 0404 00004E40 		.word	1078853632
 1089 0408 1F85EB51 		.word	1374389535
 1090 040c CDCCEC3F 		.word	1072483533
 1091              		.cfi_endproc
 1092              	.LFE487:
 1094              		.section	.text.gnss_gngga_parse,"ax",%progbits
 1095              		.align	1
 1096              		.p2align 4,,15
 1097              		.syntax unified
 1098              		.thumb
 1099              		.thumb_func
 1101              	gnss_gngga_parse:
 1102              	.LFB488:
 303:libraries/zf_device/zf_device_gnss.c **** 
 304:libraries/zf_device/zf_device_gnss.c **** //-------------------------------------------------------------------------------------------------
 305:libraries/zf_device/zf_device_gnss.c **** // å‡½æ•°ç®€ä»‹     GNSS GGA è¯­å¥è§£æ
 306:libraries/zf_device/zf_device_gnss.c **** // å‚æ•°è¯´æ˜     *line           æ¥æ”¶åˆ°çš„è¯­å¥ä¿¡æ¯
 307:libraries/zf_device/zf_device_gnss.c **** // å‚æ•°è¯´æ˜     *gnss           ä¿å­˜è§£æåçš„æ•°æ®
 308:libraries/zf_device/zf_device_gnss.c **** // è¿”å›å‚æ•°     uint8           ZF_TRUE-è§£ææˆåŠŸ ZF_FALSE-æ•°æ®æœ‰é—®é¢˜ä¸èƒ½è§£æ
 309:libraries/zf_device/zf_device_gnss.c **** // ä½¿ç”¨ç¤ºä¾‹     gnss_gngga_parse(line, gnss);
 310:libraries/zf_device/zf_device_gnss.c **** // å¤‡æ³¨ä¿¡æ¯     å†…éƒ¨ä½¿ç”¨
 311:libraries/zf_device/zf_device_gnss.c **** //-------------------------------------------------------------------------------------------------
 312:libraries/zf_device/zf_device_gnss.c **** static uint8 gnss_gngga_parse (char *line, gnss_info_struct *gnss)
 313:libraries/zf_device/zf_device_gnss.c **** {
 1103              		.loc 1 313 1
 1104              		.cfi_startproc
 1105              		@ args = 0, pretend = 0, frame = 16
 1106              		@ frame_needed = 0, uses_anonymous_args = 0
 1107 0000 00B5     		push	{lr}
 1108              		.cfi_def_cfa_offset 4
 1109              		.cfi_offset 14, -4
 1110 0002 2DED028B 		vpush.64	{d8}
 1111              		.cfi_def_cfa_offset 12
 1112              		.cfi_offset 80, -12
 1113              		.cfi_offset 81, -8
 1114 0006 85B0     		sub	sp, sp, #20
 1115              		.cfi_def_cfa_offset 32
 1116 0008 0190     		str	r0, [sp, #4]
 1117 000a 0091     		str	r1, [sp]
 314:libraries/zf_device/zf_device_gnss.c ****     uint8 return_state = ZF_FALSE;
 1118              		.loc 1 314 11
 1119 000c 0023     		movs	r3, #0
 1120 000e 8DF80F30 		strb	r3, [sp, #15]
 315:libraries/zf_device/zf_device_gnss.c **** 
 316:libraries/zf_device/zf_device_gnss.c ****     uint8 state = 0;
 1121              		.loc 1 316 11
 1122 0012 0023     		movs	r3, #0
 1123 0014 8DF80E30 		strb	r3, [sp, #14]
 317:libraries/zf_device/zf_device_gnss.c ****     char *buf = line;
 1124              		.loc 1 317 11
 1125 0018 019B     		ldr	r3, [sp, #4]
 1126 001a 0293     		str	r3, [sp, #8]
 318:libraries/zf_device/zf_device_gnss.c **** 
 319:libraries/zf_device/zf_device_gnss.c ****     state = buf[get_parameter_index(2, buf)];
 1127              		.loc 1 319 17
 1128 001c 0299     		ldr	r1, [sp, #8]
 1129 001e 0220     		movs	r0, #2
 1130 0020 FFF7FEFF 		bl	get_parameter_index
 1131 0024 0346     		mov	r3, r0
 1132 0026 1A46     		mov	r2, r3
 1133              		.loc 1 319 16
 1134 0028 029B     		ldr	r3, [sp, #8]
 1135 002a 1344     		add	r3, r3, r2
 1136 002c 93F90030 		ldrsb	r3, [r3]
 1137              		.loc 1 319 11
 1138 0030 8DF80E30 		strb	r3, [sp, #14]
 320:libraries/zf_device/zf_device_gnss.c **** 
 321:libraries/zf_device/zf_device_gnss.c ****     if(',' != state)
 1139              		.loc 1 321 7
 1140 0034 9DF80E30 		ldrb	r3, [sp, #14]	@ zero_extendqisi2
 1141 0038 2C2B     		cmp	r3, #44
 1142 003a 31D0     		beq	.L33
 322:libraries/zf_device/zf_device_gnss.c ****     {
 323:libraries/zf_device/zf_device_gnss.c ****         gnss->satellite_used = (uint8)get_int_number(&buf[get_parameter_index(7 , buf)]);
 1143              		.loc 1 323 59
 1144 003c 0299     		ldr	r1, [sp, #8]
 1145 003e 0720     		movs	r0, #7
 1146 0040 FFF7FEFF 		bl	get_parameter_index
 1147 0044 0346     		mov	r3, r0
 1148 0046 1A46     		mov	r2, r3
 1149              		.loc 1 323 39
 1150 0048 029B     		ldr	r3, [sp, #8]
 1151 004a 1344     		add	r3, r3, r2
 1152 004c 1846     		mov	r0, r3
 1153 004e FFF7FEFF 		bl	get_int_number
 1154 0052 0346     		mov	r3, r0
 1155              		.loc 1 323 32
 1156 0054 DAB2     		uxtb	r2, r3
 1157              		.loc 1 323 30
 1158 0056 009B     		ldr	r3, [sp]
 1159 0058 83F83C20 		strb	r2, [r3, #60]
 324:libraries/zf_device/zf_device_gnss.c ****         // é«˜åº¦ = æµ·æ‹”é«˜åº¦ + åœ°çƒæ¤­çƒé¢ç›¸å¯¹å¤§åœ°æ°´å‡†é¢çš„é«˜åº¦ 
 325:libraries/zf_device/zf_device_gnss.c ****         gnss->height    =   get_float_number(&buf[get_parameter_index(9 , buf)])
 1160              		.loc 1 325 51
 1161 005c 0299     		ldr	r1, [sp, #8]
 1162 005e 0920     		movs	r0, #9
 1163 0060 FFF7FEFF 		bl	get_parameter_index
 1164 0064 0346     		mov	r3, r0
 1165 0066 1A46     		mov	r2, r3
 1166              		.loc 1 325 29
 1167 0068 029B     		ldr	r3, [sp, #8]
 1168 006a 1344     		add	r3, r3, r2
 1169 006c 1846     		mov	r0, r3
 1170 006e FFF7FEFF 		bl	get_float_number
 1171 0072 B0EE408A 		vmov.f32	s16, s0
 326:libraries/zf_device/zf_device_gnss.c ****                         +   get_float_number(&buf[get_parameter_index(11, buf)]);
 1172              		.loc 1 326 51
 1173 0076 0299     		ldr	r1, [sp, #8]
 1174 0078 0B20     		movs	r0, #11
 1175 007a FFF7FEFF 		bl	get_parameter_index
 1176 007e 0346     		mov	r3, r0
 1177 0080 1A46     		mov	r2, r3
 1178              		.loc 1 326 29
 1179 0082 029B     		ldr	r3, [sp, #8]
 1180 0084 1344     		add	r3, r3, r2
 1181 0086 1846     		mov	r0, r3
 1182 0088 FFF7FEFF 		bl	get_float_number
 1183 008c F0EE407A 		vmov.f32	s15, s0
 1184              		.loc 1 326 25
 1185 0090 78EE277A 		vadd.f32	s15, s16, s15
 325:libraries/zf_device/zf_device_gnss.c ****                         +   get_float_number(&buf[get_parameter_index(11, buf)]);
 1186              		.loc 1 325 25
 1187 0094 009B     		ldr	r3, [sp]
 1188 0096 C3ED107A 		vstr.32	s15, [r3, #64]
 327:libraries/zf_device/zf_device_gnss.c ****         return_state = ZF_TRUE;
 1189              		.loc 1 327 22
 1190 009a 0123     		movs	r3, #1
 1191 009c 8DF80F30 		strb	r3, [sp, #15]
 1192              	.L33:
 328:libraries/zf_device/zf_device_gnss.c ****     }
 329:libraries/zf_device/zf_device_gnss.c ****     
 330:libraries/zf_device/zf_device_gnss.c ****     return return_state;
 1193              		.loc 1 330 12
 1194 00a0 9DF80F30 		ldrb	r3, [sp, #15]	@ zero_extendqisi2
 331:libraries/zf_device/zf_device_gnss.c **** }
 1195              		.loc 1 331 1
 1196 00a4 1846     		mov	r0, r3
 1197 00a6 05B0     		add	sp, sp, #20
 1198              		.cfi_def_cfa_offset 12
 1199              		@ sp needed
 1200 00a8 BDEC028B 		vldm	sp!, {d8}
 1201              		.cfi_restore 80
 1202              		.cfi_restore 81
 1203              		.cfi_def_cfa_offset 4
 1204 00ac 5DF804FB 		ldr	pc, [sp], #4
 1205              		.cfi_endproc
 1206              	.LFE488:
 1208              		.section	.text.gnss_gnths_parse,"ax",%progbits
 1209              		.align	1
 1210              		.p2align 4,,15
 1211              		.syntax unified
 1212              		.thumb
 1213              		.thumb_func
 1215              	gnss_gnths_parse:
 1216              	.LFB489:
 332:libraries/zf_device/zf_device_gnss.c **** 
 333:libraries/zf_device/zf_device_gnss.c **** //-------------------------------------------------------------------------------------------------
 334:libraries/zf_device/zf_device_gnss.c **** // å‡½æ•°ç®€ä»‹     GNSS THS è¯­å¥è§£æ
 335:libraries/zf_device/zf_device_gnss.c **** // å‚æ•°è¯´æ˜     *line           æ¥æ”¶åˆ°çš„è¯­å¥ä¿¡æ¯
 336:libraries/zf_device/zf_device_gnss.c **** // å‚æ•°è¯´æ˜     *gnss           ä¿å­˜è§£æåçš„æ•°æ®
 337:libraries/zf_device/zf_device_gnss.c **** // è¿”å›å‚æ•°     uint8           ZF_TRUE-è§£ææˆåŠŸ ZF_FALSE-æ•°æ®æœ‰é—®é¢˜ä¸èƒ½è§£æ
 338:libraries/zf_device/zf_device_gnss.c **** // ä½¿ç”¨ç¤ºä¾‹     gnss_gnths_parse(line, gnss);
 339:libraries/zf_device/zf_device_gnss.c **** // å¤‡æ³¨ä¿¡æ¯     å†…éƒ¨ä½¿ç”¨
 340:libraries/zf_device/zf_device_gnss.c **** //-------------------------------------------------------------------------------------------------
 341:libraries/zf_device/zf_device_gnss.c **** static uint8 gnss_gnths_parse (char *line, gnss_info_struct *gnss)
 342:libraries/zf_device/zf_device_gnss.c **** {
 1217              		.loc 1 342 1
 1218              		.cfi_startproc
 1219              		@ args = 0, pretend = 0, frame = 16
 1220              		@ frame_needed = 0, uses_anonymous_args = 0
 1221 0000 00B5     		push	{lr}
 1222              		.cfi_def_cfa_offset 4
 1223              		.cfi_offset 14, -4
 1224 0002 85B0     		sub	sp, sp, #20
 1225              		.cfi_def_cfa_offset 24
 1226 0004 0190     		str	r0, [sp, #4]
 1227 0006 0091     		str	r1, [sp]
 343:libraries/zf_device/zf_device_gnss.c ****     uint8 return_state = ZF_FALSE;
 1228              		.loc 1 343 11
 1229 0008 0023     		movs	r3, #0
 1230 000a 8DF80F30 		strb	r3, [sp, #15]
 344:libraries/zf_device/zf_device_gnss.c **** 
 345:libraries/zf_device/zf_device_gnss.c ****     uint8 state = 0;
 1231              		.loc 1 345 11
 1232 000e 0023     		movs	r3, #0
 1233 0010 8DF80E30 		strb	r3, [sp, #14]
 346:libraries/zf_device/zf_device_gnss.c ****     char *buf = line;
 1234              		.loc 1 346 11
 1235 0014 019B     		ldr	r3, [sp, #4]
 1236 0016 0293     		str	r3, [sp, #8]
 347:libraries/zf_device/zf_device_gnss.c **** 
 348:libraries/zf_device/zf_device_gnss.c ****     state = buf[get_parameter_index(2, buf)];
 1237              		.loc 1 348 17
 1238 0018 0299     		ldr	r1, [sp, #8]
 1239 001a 0220     		movs	r0, #2
 1240 001c FFF7FEFF 		bl	get_parameter_index
 1241 0020 0346     		mov	r3, r0
 1242 0022 1A46     		mov	r2, r3
 1243              		.loc 1 348 16
 1244 0024 029B     		ldr	r3, [sp, #8]
 1245 0026 1344     		add	r3, r3, r2
 1246 0028 93F90030 		ldrsb	r3, [r3]
 1247              		.loc 1 348 11
 1248 002c 8DF80E30 		strb	r3, [sp, #14]
 349:libraries/zf_device/zf_device_gnss.c **** 
 350:libraries/zf_device/zf_device_gnss.c ****     if('A' == state)
 1249              		.loc 1 350 7
 1250 0030 9DF80E30 		ldrb	r3, [sp, #14]	@ zero_extendqisi2
 1251 0034 412B     		cmp	r3, #65
 1252 0036 17D1     		bne	.L36
 351:libraries/zf_device/zf_device_gnss.c ****     {
 352:libraries/zf_device/zf_device_gnss.c ****         gnss->antenna_direction_state = 1;
 1253              		.loc 1 352 39
 1254 0038 009B     		ldr	r3, [sp]
 1255 003a 0122     		movs	r2, #1
 1256 003c 83F83420 		strb	r2, [r3, #52]
 353:libraries/zf_device/zf_device_gnss.c ****         gnss->antenna_direction = get_float_number(&buf[get_parameter_index(1, buf)]);
 1257              		.loc 1 353 57
 1258 0040 0299     		ldr	r1, [sp, #8]
 1259 0042 0120     		movs	r0, #1
 1260 0044 FFF7FEFF 		bl	get_parameter_index
 1261 0048 0346     		mov	r3, r0
 1262 004a 1A46     		mov	r2, r3
 1263              		.loc 1 353 35
 1264 004c 029B     		ldr	r3, [sp, #8]
 1265 004e 1344     		add	r3, r3, r2
 1266 0050 1846     		mov	r0, r3
 1267 0052 FFF7FEFF 		bl	get_float_number
 1268 0056 F0EE407A 		vmov.f32	s15, s0
 1269              		.loc 1 353 33
 1270 005a 009B     		ldr	r3, [sp]
 1271 005c C3ED0E7A 		vstr.32	s15, [r3, #56]
 354:libraries/zf_device/zf_device_gnss.c ****         return_state = ZF_TRUE;
 1272              		.loc 1 354 22
 1273 0060 0123     		movs	r3, #1
 1274 0062 8DF80F30 		strb	r3, [sp, #15]
 1275 0066 03E0     		b	.L37
 1276              	.L36:
 355:libraries/zf_device/zf_device_gnss.c ****     }
 356:libraries/zf_device/zf_device_gnss.c ****     else
 357:libraries/zf_device/zf_device_gnss.c ****     {
 358:libraries/zf_device/zf_device_gnss.c ****         gnss->antenna_direction_state = 0;
 1277              		.loc 1 358 39
 1278 0068 009B     		ldr	r3, [sp]
 1279 006a 0022     		movs	r2, #0
 1280 006c 83F83420 		strb	r2, [r3, #52]
 1281              	.L37:
 359:libraries/zf_device/zf_device_gnss.c ****     }
 360:libraries/zf_device/zf_device_gnss.c ****     
 361:libraries/zf_device/zf_device_gnss.c ****     return return_state;
 1282              		.loc 1 361 12
 1283 0070 9DF80F30 		ldrb	r3, [sp, #15]	@ zero_extendqisi2
 362:libraries/zf_device/zf_device_gnss.c **** }
 1284              		.loc 1 362 1
 1285 0074 1846     		mov	r0, r3
 1286 0076 05B0     		add	sp, sp, #20
 1287              		.cfi_def_cfa_offset 4
 1288              		@ sp needed
 1289 0078 5DF804FB 		ldr	pc, [sp], #4
 1290              		.cfi_endproc
 1291              	.LFE489:
 1293              		.section	.rodata
 1294              		.align	2
 1295              	.LC0:
 1296 0000 524D4300 		.ascii	"RMC\000"
 1297              		.align	2
 1298              	.LC1:
 1299 0004 47474100 		.ascii	"GGA\000"
 1300              		.align	2
 1301              	.LC2:
 1302 0008 54485300 		.ascii	"THS\000"
 1303              		.section	.text.gnss_uart_callback,"ax",%progbits
 1304              		.align	1
 1305              		.p2align 4,,15
 1306              		.syntax unified
 1307              		.thumb
 1308              		.thumb_func
 1310              	gnss_uart_callback:
 1311              	.LFB490:
 363:libraries/zf_device/zf_device_gnss.c **** 
 364:libraries/zf_device/zf_device_gnss.c **** //-------------------------------------------------------------------------------------------------
 365:libraries/zf_device/zf_device_gnss.c **** // å‡½æ•°ç®€ä»‹     GNSS æ–­è¨€å¤„ç†
 366:libraries/zf_device/zf_device_gnss.c **** // å‚æ•°è¯´æ˜     *file               æ–‡ä»¶è·¯å¾„
 367:libraries/zf_device/zf_device_gnss.c **** // å‚æ•°è¯´æ˜     line                æŠ¥é”™è¡Œ
 368:libraries/zf_device/zf_device_gnss.c **** // å‚æ•°è¯´æ˜     *tips               è¾“å‡ºä¿¡æ¯
 369:libraries/zf_device/zf_device_gnss.c **** // è¿”å›å‚æ•°     uint8               æ“ä½œçŠ¶æ€ ZF_NO_ERROR / CAN_OPERATION_DONE - å®Œæˆ å…¶ä
 370:libraries/zf_device/zf_device_gnss.c **** // ä½¿ç”¨ç¤ºä¾‹     gnss_assert_handler(file, line, tips);
 371:libraries/zf_device/zf_device_gnss.c **** // å¤‡æ³¨ä¿¡æ¯     
 372:libraries/zf_device/zf_device_gnss.c **** //-------------------------------------------------------------------------------------------------
 373:libraries/zf_device/zf_device_gnss.c **** #if GNSS_INTERFACE_USE_ZF_COMMON_DEBUG
 374:libraries/zf_device/zf_device_gnss.c **** #define gnss_assert(pass)       zf_assert(pass)
 375:libraries/zf_device/zf_device_gnss.c **** #define gnss_log(pass, tips)    zf_log(pass, tips)
 376:libraries/zf_device/zf_device_gnss.c **** #else
 377:libraries/zf_device/zf_device_gnss.c **** static uint8 gnss_assert_handler (char *file, int line, char *tips)
 378:libraries/zf_device/zf_device_gnss.c **** {
 379:libraries/zf_device/zf_device_gnss.c ****     printf("\r\n GNSS OPERATION ASSERT!\r\n");
 380:libraries/zf_device/zf_device_gnss.c ****     printf("\r\n file: %s.\r\n", file);
 381:libraries/zf_device/zf_device_gnss.c ****     printf("\r\n line: %d.\r\n", line);
 382:libraries/zf_device/zf_device_gnss.c ****     if(NULL != tips)
 383:libraries/zf_device/zf_device_gnss.c ****     {
 384:libraries/zf_device/zf_device_gnss.c ****         printf("\r\n tips: %s.\r\n", tips);
 385:libraries/zf_device/zf_device_gnss.c ****     }
 386:libraries/zf_device/zf_device_gnss.c ****     while(1);
 387:libraries/zf_device/zf_device_gnss.c ****     return ZF_ERROR;
 388:libraries/zf_device/zf_device_gnss.c **** }
 389:libraries/zf_device/zf_device_gnss.c **** #define gnss_assert(pass)       ((pass) ? (0) : gnss_assert_handler(__FILE__, __LINE__, NULL))
 390:libraries/zf_device/zf_device_gnss.c **** #define gnss_log(pass, tips)    ((pass) ? (0) : gnss_assert_handler(__FILE__, __LINE__, (tips)))
 391:libraries/zf_device/zf_device_gnss.c **** #endif
 392:libraries/zf_device/zf_device_gnss.c **** 
 393:libraries/zf_device/zf_device_gnss.c **** //-------------------------------------------------------------------------------------------------
 394:libraries/zf_device/zf_device_gnss.c **** // å‡½æ•°ç®€ä»‹     GNSS å»¶æ—¶
 395:libraries/zf_device/zf_device_gnss.c **** // å‚æ•°è¯´æ˜     ms                  æ¯«ç§’æ•°
 396:libraries/zf_device/zf_device_gnss.c **** // è¿”å›å‚æ•°     void
 397:libraries/zf_device/zf_device_gnss.c **** // ä½¿ç”¨ç¤ºä¾‹     gnss_delay_ms(ms);
 398:libraries/zf_device/zf_device_gnss.c **** // å¤‡æ³¨ä¿¡æ¯     
 399:libraries/zf_device/zf_device_gnss.c **** //-------------------------------------------------------------------------------------------------
 400:libraries/zf_device/zf_device_gnss.c **** #if GNSS_INTERFACE_USE_ZF_DIRVER_DELAY
 401:libraries/zf_device/zf_device_gnss.c **** #define gnss_delay_ms(ms)        zf_delay_ms(ms)
 402:libraries/zf_device/zf_device_gnss.c **** #else
 403:libraries/zf_device/zf_device_gnss.c **** static void gnss_delay_ms (uint32 ms)
 404:libraries/zf_device/zf_device_gnss.c **** {
 405:libraries/zf_device/zf_device_gnss.c ****     for(uint32 loop_count1 = ms    ; loop_count1 --; )
 406:libraries/zf_device/zf_device_gnss.c ****     for(uint32 loop_count2 = 0xFFFF; loop_count2 --; );
 407:libraries/zf_device/zf_device_gnss.c **** }
 408:libraries/zf_device/zf_device_gnss.c **** #endif
 409:libraries/zf_device/zf_device_gnss.c **** 
 410:libraries/zf_device/zf_device_gnss.c **** //-------------------------------------------------------------------------------------------------
 411:libraries/zf_device/zf_device_gnss.c **** // å‡½æ•°ç®€ä»‹     GNSS ä¸²å£å›è°ƒå‡½æ•°
 412:libraries/zf_device/zf_device_gnss.c **** // å‚æ•°è¯´æ˜     void            
 413:libraries/zf_device/zf_device_gnss.c **** // è¿”å›å‚æ•°     void            
 414:libraries/zf_device/zf_device_gnss.c **** // ä½¿ç”¨ç¤ºä¾‹     gnss_uart_callback();
 415:libraries/zf_device/zf_device_gnss.c **** // å¤‡æ³¨ä¿¡æ¯     æ­¤å‡½æ•°éœ€è¦åœ¨ä¸²å£æ¥æ”¶ä¸­æ–­å†…è¿›è¡Œè°ƒç”¨
 416:libraries/zf_device/zf_device_gnss.c **** //-------------------------------------------------------------------------------------------------
 417:libraries/zf_device/zf_device_gnss.c **** static void gnss_uart_callback (uint32 event, void *ptr)
 418:libraries/zf_device/zf_device_gnss.c **** {
 1312              		.loc 1 418 1
 1313              		.cfi_startproc
 1314              		@ args = 0, pretend = 0, frame = 24
 1315              		@ frame_needed = 0, uses_anonymous_args = 0
 1316 0000 00B5     		push	{lr}
 1317              		.cfi_def_cfa_offset 4
 1318              		.cfi_offset 14, -4
 1319 0002 87B0     		sub	sp, sp, #28
 1320              		.cfi_def_cfa_offset 32
 1321 0004 0190     		str	r0, [sp, #4]
 1322 0006 0091     		str	r1, [sp]
 419:libraries/zf_device/zf_device_gnss.c ****     (void)event;
 420:libraries/zf_device/zf_device_gnss.c ****     (void)ptr;
 421:libraries/zf_device/zf_device_gnss.c **** 
 422:libraries/zf_device/zf_device_gnss.c ****     uint8 temp_gnss[6];
 423:libraries/zf_device/zf_device_gnss.c ****     uint32 temp_length = 0;
 1323              		.loc 1 423 12
 1324 0008 0023     		movs	r3, #0
 1325 000a 0393     		str	r3, [sp, #12]
 424:libraries/zf_device/zf_device_gnss.c **** 
 425:libraries/zf_device/zf_device_gnss.c ****     if(gnss_state)
 1326              		.loc 1 425 8
 1327 000c 424B     		ldr	r3, .L48
 1328 000e 1B78     		ldrb	r3, [r3]	@ zero_extendqisi2
 1329              		.loc 1 425 7
 1330 0010 002B     		cmp	r3, #0
 1331 0012 7CD0     		beq	.L47
 1332              	.LBB2:
 426:libraries/zf_device/zf_device_gnss.c ****     {
 427:libraries/zf_device/zf_device_gnss.c ****         uint8 dat;
 428:libraries/zf_device/zf_device_gnss.c ****         while(!zf_uart_query_byte(GNSS_UART_INDEX, &dat))
 1333              		.loc 1 428 14
 1334 0014 08E0     		b	.L41
 1335              	.L42:
 429:libraries/zf_device/zf_device_gnss.c ****         {
 430:libraries/zf_device/zf_device_gnss.c ****             temp_length = 1;
 1336              		.loc 1 430 25
 1337 0016 0123     		movs	r3, #1
 1338 0018 0393     		str	r3, [sp, #12]
 431:libraries/zf_device/zf_device_gnss.c ****             zf_fifo_write_buffer(&gnss_receiver_fifo, &dat, &temp_length);
 1339              		.loc 1 431 13
 1340 001a 03AA     		add	r2, sp, #12
 1341 001c 0DF10B03 		add	r3, sp, #11
 1342 0020 1946     		mov	r1, r3
 1343 0022 3E48     		ldr	r0, .L48+4
 1344 0024 FFF7FEFF 		bl	zf_fifo_write_buffer
 1345              	.L41:
 428:libraries/zf_device/zf_device_gnss.c ****         {
 1346              		.loc 1 428 16
 1347 0028 0DF10B03 		add	r3, sp, #11
 1348 002c 1946     		mov	r1, r3
 1349 002e 0020     		movs	r0, #0
 1350 0030 FFF7FEFF 		bl	zf_uart_query_byte
 1351 0034 0346     		mov	r3, r0
 428:libraries/zf_device/zf_device_gnss.c ****         {
 1352              		.loc 1 428 14
 1353 0036 002B     		cmp	r3, #0
 1354 0038 EDD0     		beq	.L42
 432:libraries/zf_device/zf_device_gnss.c ****         }
 433:libraries/zf_device/zf_device_gnss.c ****         
 434:libraries/zf_device/zf_device_gnss.c ****         if('\n' == dat)
 1355              		.loc 1 434 17
 1356 003a 9DF80B30 		ldrb	r3, [sp, #11]	@ zero_extendqisi2
 1357              		.loc 1 434 11
 1358 003e 0A2B     		cmp	r3, #10
 1359 0040 65D1     		bne	.L47
 435:libraries/zf_device/zf_device_gnss.c ****         {
 436:libraries/zf_device/zf_device_gnss.c ****             // è¯»å–å‰6ä¸ªæ•°æ® ç”¨äºåˆ¤æ–­è¯­å¥ç±»å‹
 437:libraries/zf_device/zf_device_gnss.c ****             temp_length = 6;
 1360              		.loc 1 437 25
 1361 0042 0623     		movs	r3, #6
 1362 0044 0393     		str	r3, [sp, #12]
 438:libraries/zf_device/zf_device_gnss.c ****             zf_fifo_read_buffer(&gnss_receiver_fifo, temp_gnss, &temp_length, FIFO_READ_WITHOUT_CLE
 1363              		.loc 1 438 13
 1364 0046 03AA     		add	r2, sp, #12
 1365 0048 04A9     		add	r1, sp, #16
 1366 004a 0023     		movs	r3, #0
 1367 004c 3348     		ldr	r0, .L48+4
 1368 004e FFF7FEFF 		bl	zf_fifo_read_buffer
 439:libraries/zf_device/zf_device_gnss.c ****             
 440:libraries/zf_device/zf_device_gnss.c ****             // æ ¹æ®ä¸åŒç±»å‹å°†æ•°æ®æ‹·è´åˆ°ä¸åŒçš„ç¼“å†²åŒº
 441:libraries/zf_device/zf_device_gnss.c ****             if(0 == strncmp((char *)&temp_gnss[3], "RMC", 3))
 1369              		.loc 1 441 21
 1370 0052 04AB     		add	r3, sp, #16
 1371 0054 0333     		adds	r3, r3, #3
 1372 0056 0322     		movs	r2, #3
 1373 0058 3149     		ldr	r1, .L48+8
 1374 005a 1846     		mov	r0, r3
 1375 005c FFF7FEFF 		bl	strncmp
 1376 0060 0346     		mov	r3, r0
 1377              		.loc 1 441 15
 1378 0062 002B     		cmp	r3, #0
 1379 0064 12D1     		bne	.L44
 442:libraries/zf_device/zf_device_gnss.c ****             {
 443:libraries/zf_device/zf_device_gnss.c ****                 // å¦‚æœæ²¡æœ‰åœ¨è§£ææ•°æ®åˆ™æ›´æ–°ç¼“å†²åŒºçš„æ•°æ®
 444:libraries/zf_device/zf_device_gnss.c ****                 if(GNSS_STATE_PARSING != gnss_rmc_state)
 1380              		.loc 1 444 39
 1381 0066 2F4B     		ldr	r3, .L48+12
 1382 0068 1B78     		ldrb	r3, [r3]	@ zero_extendqisi2
 1383              		.loc 1 444 19
 1384 006a 022B     		cmp	r3, #2
 1385 006c 47D0     		beq	.L45
 445:libraries/zf_device/zf_device_gnss.c ****                 {
 446:libraries/zf_device/zf_device_gnss.c ****                     gnss_rmc_state = GNSS_STATE_RECEIVED;
 1386              		.loc 1 446 36
 1387 006e 2D4B     		ldr	r3, .L48+12
 1388 0070 0122     		movs	r2, #1
 1389 0072 1A70     		strb	r2, [r3]
 447:libraries/zf_device/zf_device_gnss.c ****                     temp_length = zf_fifo_used(&gnss_receiver_fifo);
 1390              		.loc 1 447 35
 1391 0074 2948     		ldr	r0, .L48+4
 1392 0076 FFF7FEFF 		bl	zf_fifo_used
 1393 007a 0346     		mov	r3, r0
 1394              		.loc 1 447 33
 1395 007c 0393     		str	r3, [sp, #12]
 448:libraries/zf_device/zf_device_gnss.c ****                     zf_fifo_read_buffer(&gnss_receiver_fifo, gnss_rmc_buffer, &temp_length, FIFO_RE
 1396              		.loc 1 448 21
 1397 007e 03AA     		add	r2, sp, #12
 1398 0080 0123     		movs	r3, #1
 1399 0082 2949     		ldr	r1, .L48+16
 1400 0084 2548     		ldr	r0, .L48+4
 1401 0086 FFF7FEFF 		bl	zf_fifo_read_buffer
 1402 008a 38E0     		b	.L45
 1403              	.L44:
 449:libraries/zf_device/zf_device_gnss.c ****                 }
 450:libraries/zf_device/zf_device_gnss.c ****             }
 451:libraries/zf_device/zf_device_gnss.c ****             else if(0 == strncmp((char *)&temp_gnss[3], "GGA", 3))
 1404              		.loc 1 451 26
 1405 008c 04AB     		add	r3, sp, #16
 1406 008e 0333     		adds	r3, r3, #3
 1407 0090 0322     		movs	r2, #3
 1408 0092 2649     		ldr	r1, .L48+20
 1409 0094 1846     		mov	r0, r3
 1410 0096 FFF7FEFF 		bl	strncmp
 1411 009a 0346     		mov	r3, r0
 1412              		.loc 1 451 20
 1413 009c 002B     		cmp	r3, #0
 1414 009e 12D1     		bne	.L46
 452:libraries/zf_device/zf_device_gnss.c ****             {
 453:libraries/zf_device/zf_device_gnss.c ****                 // å¦‚æœæ²¡æœ‰åœ¨è§£ææ•°æ®åˆ™æ›´æ–°ç¼“å†²åŒºçš„æ•°æ®
 454:libraries/zf_device/zf_device_gnss.c ****                 if(GNSS_STATE_PARSING != gnss_gga_state)
 1415              		.loc 1 454 39
 1416 00a0 234B     		ldr	r3, .L48+24
 1417 00a2 1B78     		ldrb	r3, [r3]	@ zero_extendqisi2
 1418              		.loc 1 454 19
 1419 00a4 022B     		cmp	r3, #2
 1420 00a6 2AD0     		beq	.L45
 455:libraries/zf_device/zf_device_gnss.c ****                 {
 456:libraries/zf_device/zf_device_gnss.c ****                     gnss_gga_state = GNSS_STATE_RECEIVED;
 1421              		.loc 1 456 36
 1422 00a8 214B     		ldr	r3, .L48+24
 1423 00aa 0122     		movs	r2, #1
 1424 00ac 1A70     		strb	r2, [r3]
 457:libraries/zf_device/zf_device_gnss.c ****                     temp_length = zf_fifo_used(&gnss_receiver_fifo);
 1425              		.loc 1 457 35
 1426 00ae 1B48     		ldr	r0, .L48+4
 1427 00b0 FFF7FEFF 		bl	zf_fifo_used
 1428 00b4 0346     		mov	r3, r0
 1429              		.loc 1 457 33
 1430 00b6 0393     		str	r3, [sp, #12]
 458:libraries/zf_device/zf_device_gnss.c ****                     zf_fifo_read_buffer(&gnss_receiver_fifo, gnss_gga_buffer, &temp_length, FIFO_RE
 1431              		.loc 1 458 21
 1432 00b8 03AA     		add	r2, sp, #12
 1433 00ba 0123     		movs	r3, #1
 1434 00bc 1D49     		ldr	r1, .L48+28
 1435 00be 1748     		ldr	r0, .L48+4
 1436 00c0 FFF7FEFF 		bl	zf_fifo_read_buffer
 1437 00c4 1BE0     		b	.L45
 1438              	.L46:
 459:libraries/zf_device/zf_device_gnss.c ****                 }
 460:libraries/zf_device/zf_device_gnss.c ****             }
 461:libraries/zf_device/zf_device_gnss.c ****             else if(0 == strncmp((char *)&temp_gnss[3], "THS", 3))
 1439              		.loc 1 461 26
 1440 00c6 04AB     		add	r3, sp, #16
 1441 00c8 0333     		adds	r3, r3, #3
 1442 00ca 0322     		movs	r2, #3
 1443 00cc 1A49     		ldr	r1, .L48+32
 1444 00ce 1846     		mov	r0, r3
 1445 00d0 FFF7FEFF 		bl	strncmp
 1446 00d4 0346     		mov	r3, r0
 1447              		.loc 1 461 20
 1448 00d6 002B     		cmp	r3, #0
 1449 00d8 11D1     		bne	.L45
 462:libraries/zf_device/zf_device_gnss.c ****             {
 463:libraries/zf_device/zf_device_gnss.c ****                 // å¦‚æœæ²¡æœ‰åœ¨è§£ææ•°æ®åˆ™æ›´æ–°ç¼“å†²åŒºçš„æ•°æ®
 464:libraries/zf_device/zf_device_gnss.c ****                 if(GNSS_STATE_PARSING != gnss_ths_state)
 1450              		.loc 1 464 39
 1451 00da 184B     		ldr	r3, .L48+36
 1452 00dc 1B78     		ldrb	r3, [r3]	@ zero_extendqisi2
 1453              		.loc 1 464 19
 1454 00de 022B     		cmp	r3, #2
 1455 00e0 0DD0     		beq	.L45
 465:libraries/zf_device/zf_device_gnss.c ****                 {
 466:libraries/zf_device/zf_device_gnss.c ****                     gnss_ths_state = GNSS_STATE_RECEIVED;
 1456              		.loc 1 466 36
 1457 00e2 164B     		ldr	r3, .L48+36
 1458 00e4 0122     		movs	r2, #1
 1459 00e6 1A70     		strb	r2, [r3]
 467:libraries/zf_device/zf_device_gnss.c ****                     temp_length = zf_fifo_used(&gnss_receiver_fifo);
 1460              		.loc 1 467 35
 1461 00e8 0C48     		ldr	r0, .L48+4
 1462 00ea FFF7FEFF 		bl	zf_fifo_used
 1463 00ee 0346     		mov	r3, r0
 1464              		.loc 1 467 33
 1465 00f0 0393     		str	r3, [sp, #12]
 468:libraries/zf_device/zf_device_gnss.c ****                     zf_fifo_read_buffer(&gnss_receiver_fifo, gnss_ths_buffer, &temp_length, FIFO_RE
 1466              		.loc 1 468 21
 1467 00f2 03AA     		add	r2, sp, #12
 1468 00f4 0123     		movs	r3, #1
 1469 00f6 1249     		ldr	r1, .L48+40
 1470 00f8 0848     		ldr	r0, .L48+4
 1471 00fa FFF7FEFF 		bl	zf_fifo_read_buffer
 1472              	.L45:
 469:libraries/zf_device/zf_device_gnss.c ****                 }
 470:libraries/zf_device/zf_device_gnss.c ****             }
 471:libraries/zf_device/zf_device_gnss.c ****             
 472:libraries/zf_device/zf_device_gnss.c ****             // ç»Ÿä¸€å°†FIFOæ¸…ç©º
 473:libraries/zf_device/zf_device_gnss.c ****             zf_fifo_clear(&gnss_receiver_fifo);
 1473              		.loc 1 473 13
 1474 00fe 0748     		ldr	r0, .L48+4
 1475 0100 FFF7FEFF 		bl	zf_fifo_clear
 474:libraries/zf_device/zf_device_gnss.c **** 
 475:libraries/zf_device/zf_device_gnss.c ****             gnss_flag = 1;
 1476              		.loc 1 475 23
 1477 0104 0F4B     		ldr	r3, .L48+44
 1478 0106 0122     		movs	r2, #1
 1479 0108 1A70     		strb	r2, [r3]
 476:libraries/zf_device/zf_device_gnss.c ****             gnss_data_parse();
 1480              		.loc 1 476 13
 1481 010a FFF7FEFF 		bl	gnss_data_parse
 1482              	.L47:
 1483              	.LBE2:
 477:libraries/zf_device/zf_device_gnss.c ****         }
 478:libraries/zf_device/zf_device_gnss.c ****     }
 479:libraries/zf_device/zf_device_gnss.c **** }
 1484              		.loc 1 479 1
 1485 010e 00BF     		nop
 1486 0110 07B0     		add	sp, sp, #28
 1487              		.cfi_def_cfa_offset 4
 1488              		@ sp needed
 1489 0112 5DF804FB 		ldr	pc, [sp], #4
 1490              	.L49:
 1491 0116 00BF     		.align	2
 1492              	.L48:
 1493 0118 00000000 		.word	gnss_state
 1494 011c 00000000 		.word	gnss_receiver_fifo
 1495 0120 00000000 		.word	.LC0
 1496 0124 00000000 		.word	gnss_rmc_state
 1497 0128 00000000 		.word	gnss_rmc_buffer
 1498 012c 04000000 		.word	.LC1
 1499 0130 00000000 		.word	gnss_gga_state
 1500 0134 00000000 		.word	gnss_gga_buffer
 1501 0138 08000000 		.word	.LC2
 1502 013c 00000000 		.word	gnss_ths_state
 1503 0140 00000000 		.word	gnss_ths_buffer
 1504 0144 00000000 		.word	gnss_flag
 1505              		.cfi_endproc
 1506              	.LFE490:
 1508              		.section	.text.gnss_get_two_points_distance,"ax",%progbits
 1509              		.align	1
 1510              		.p2align 4,,15
 1511              		.global	gnss_get_two_points_distance
 1512              		.syntax unified
 1513              		.thumb
 1514              		.thumb_func
 1516              	gnss_get_two_points_distance:
 1517              	.LFB491:
 480:libraries/zf_device/zf_device_gnss.c **** 
 481:libraries/zf_device/zf_device_gnss.c **** //-------------------------------------------------------------------------------------------------
 482:libraries/zf_device/zf_device_gnss.c **** // å‡½æ•°ç®€ä»‹     GNSS è®¡ç®—ä»ç¬¬ä¸€ä¸ªç‚¹åˆ°ç¬¬äºŒä¸ªç‚¹çš„è·ç¦»
 483:libraries/zf_device/zf_device_gnss.c **** // å‚æ•°è¯´æ˜     latitude1       ç¬¬ä¸€ä¸ªç‚¹çš„çº¬åº¦
 484:libraries/zf_device/zf_device_gnss.c **** // å‚æ•°è¯´æ˜     longitude1      ç¬¬ä¸€ä¸ªç‚¹çš„ç»åº¦
 485:libraries/zf_device/zf_device_gnss.c **** // å‚æ•°è¯´æ˜     latitude2       ç¬¬äºŒä¸ªç‚¹çš„çº¬åº¦
 486:libraries/zf_device/zf_device_gnss.c **** // å‚æ•°è¯´æ˜     longitude2      ç¬¬äºŒä¸ªç‚¹çš„ç»åº¦
 487:libraries/zf_device/zf_device_gnss.c **** // è¿”å›å‚æ•°     double          è¿”å›ä¸¤ç‚¹è·ç¦»
 488:libraries/zf_device/zf_device_gnss.c **** // ä½¿ç”¨ç¤ºä¾‹     gnss_get_two_points_distance(latitude1_1, longitude1, latitude2, longitude2);
 489:libraries/zf_device/zf_device_gnss.c **** // å¤‡æ³¨ä¿¡æ¯     
 490:libraries/zf_device/zf_device_gnss.c **** //-------------------------------------------------------------------------------------------------
 491:libraries/zf_device/zf_device_gnss.c **** double gnss_get_two_points_distance (double latitude1, double longitude1, double latitude2, double 
 492:libraries/zf_device/zf_device_gnss.c **** {  
 1518              		.loc 1 492 1
 1519              		.cfi_startproc
 1520              		@ args = 0, pretend = 0, frame = 96
 1521              		@ frame_needed = 0, uses_anonymous_args = 0
 1522 0000 00B5     		push	{lr}
 1523              		.cfi_def_cfa_offset 4
 1524              		.cfi_offset 14, -4
 1525 0002 2DED048B 		vpush.64	{d8, d9}
 1526              		.cfi_def_cfa_offset 20
 1527              		.cfi_offset 80, -20
 1528              		.cfi_offset 81, -16
 1529              		.cfi_offset 82, -12
 1530              		.cfi_offset 83, -8
 1531 0006 99B0     		sub	sp, sp, #100
 1532              		.cfi_def_cfa_offset 120
 1533 0008 8DED060B 		vstr.64	d0, [sp, #24]
 1534 000c 8DED041B 		vstr.64	d1, [sp, #16]
 1535 0010 8DED022B 		vstr.64	d2, [sp, #8]
 1536 0014 8DED003B 		vstr.64	d3, [sp]
 493:libraries/zf_device/zf_device_gnss.c ****     const double EARTH_RADIUS = 6378137;                                        // åœ°çƒåŠå¾„(å•
 1537              		.loc 1 493 18
 1538 0018 69A3     		adr	r3, .L52+16
 1539 001a D3E90023 		ldrd	r2, [r3]
 1540 001e CDE91623 		strd	r2, [sp, #88]
 494:libraries/zf_device/zf_device_gnss.c ****     double rad_latitude1 = 0;
 1541              		.loc 1 494 12
 1542 0022 4FF00002 		mov	r2, #0
 1543 0026 4FF00003 		mov	r3, #0
 1544 002a CDE91423 		strd	r2, [sp, #80]
 495:libraries/zf_device/zf_device_gnss.c ****     double rad_latitude2 = 0;
 1545              		.loc 1 495 12
 1546 002e 4FF00002 		mov	r2, #0
 1547 0032 4FF00003 		mov	r3, #0
 1548 0036 CDE91223 		strd	r2, [sp, #72]
 496:libraries/zf_device/zf_device_gnss.c ****     double rad_longitude1 = 0;
 1549              		.loc 1 496 12
 1550 003a 4FF00002 		mov	r2, #0
 1551 003e 4FF00003 		mov	r3, #0
 1552 0042 CDE91023 		strd	r2, [sp, #64]
 497:libraries/zf_device/zf_device_gnss.c ****     double rad_longitude2 = 0;
 1553              		.loc 1 497 12
 1554 0046 4FF00002 		mov	r2, #0
 1555 004a 4FF00003 		mov	r3, #0
 1556 004e CDE90E23 		strd	r2, [sp, #56]
 498:libraries/zf_device/zf_device_gnss.c ****     double distance = 0;
 1557              		.loc 1 498 12
 1558 0052 4FF00002 		mov	r2, #0
 1559 0056 4FF00003 		mov	r3, #0
 1560 005a CDE90C23 		strd	r2, [sp, #48]
 499:libraries/zf_device/zf_device_gnss.c ****     double a = 0;
 1561              		.loc 1 499 12
 1562 005e 4FF00002 		mov	r2, #0
 1563 0062 4FF00003 		mov	r3, #0
 1564 0066 CDE90A23 		strd	r2, [sp, #40]
 500:libraries/zf_device/zf_device_gnss.c ****     double b = 0;
 1565              		.loc 1 500 12
 1566 006a 4FF00002 		mov	r2, #0
 1567 006e 4FF00003 		mov	r3, #0
 1568 0072 CDE90823 		strd	r2, [sp, #32]
 501:libraries/zf_device/zf_device_gnss.c ****     
 502:libraries/zf_device/zf_device_gnss.c ****     rad_latitude1   = ANGLE_TO_RAD(latitude1);                                  // æ ¹æ®è§’åº¦è®¡ç
 1569              		.loc 1 502 23
 1570 0076 9DED067B 		vldr.64	d7, [sp, #24]
 1571 007a 9FED4D6B 		vldr.64	d6, .L52
 1572 007e 27EE066B 		vmul.f64	d6, d7, d6
 1573              		.loc 1 502 21
 1574 0082 9FED4D5B 		vldr.64	d5, .L52+8
 1575 0086 86EE057B 		vdiv.f64	d7, d6, d5
 1576 008a 8DED147B 		vstr.64	d7, [sp, #80]
 503:libraries/zf_device/zf_device_gnss.c ****     rad_latitude2   = ANGLE_TO_RAD(latitude2);
 1577              		.loc 1 503 23
 1578 008e 9DED027B 		vldr.64	d7, [sp, #8]
 1579 0092 9FED476B 		vldr.64	d6, .L52
 1580 0096 27EE066B 		vmul.f64	d6, d7, d6
 1581              		.loc 1 503 21
 1582 009a 9FED475B 		vldr.64	d5, .L52+8
 1583 009e 86EE057B 		vdiv.f64	d7, d6, d5
 1584 00a2 8DED127B 		vstr.64	d7, [sp, #72]
 504:libraries/zf_device/zf_device_gnss.c ****     rad_longitude1  = ANGLE_TO_RAD(longitude1);
 1585              		.loc 1 504 23
 1586 00a6 9DED047B 		vldr.64	d7, [sp, #16]
 1587 00aa 9FED416B 		vldr.64	d6, .L52
 1588 00ae 27EE066B 		vmul.f64	d6, d7, d6
 1589              		.loc 1 504 21
 1590 00b2 9FED415B 		vldr.64	d5, .L52+8
 1591 00b6 86EE057B 		vdiv.f64	d7, d6, d5
 1592 00ba 8DED107B 		vstr.64	d7, [sp, #64]
 505:libraries/zf_device/zf_device_gnss.c ****     rad_longitude2  = ANGLE_TO_RAD(longitude2);
 1593              		.loc 1 505 23
 1594 00be 9DED007B 		vldr.64	d7, [sp]
 1595 00c2 9FED3B6B 		vldr.64	d6, .L52
 1596 00c6 27EE066B 		vmul.f64	d6, d7, d6
 1597              		.loc 1 505 21
 1598 00ca 9FED3B5B 		vldr.64	d5, .L52+8
 1599 00ce 86EE057B 		vdiv.f64	d7, d6, d5
 1600 00d2 8DED0E7B 		vstr.64	d7, [sp, #56]
 506:libraries/zf_device/zf_device_gnss.c **** 
 507:libraries/zf_device/zf_device_gnss.c ****     a = rad_latitude1 - rad_latitude2;
 1601              		.loc 1 507 7
 1602 00d6 9DED146B 		vldr.64	d6, [sp, #80]
 1603 00da 9DED127B 		vldr.64	d7, [sp, #72]
 1604 00de 36EE477B 		vsub.f64	d7, d6, d7
 1605 00e2 8DED0A7B 		vstr.64	d7, [sp, #40]
 508:libraries/zf_device/zf_device_gnss.c ****     b = rad_longitude1 - rad_longitude2;
 1606              		.loc 1 508 7
 1607 00e6 9DED106B 		vldr.64	d6, [sp, #64]
 1608 00ea 9DED0E7B 		vldr.64	d7, [sp, #56]
 1609 00ee 36EE477B 		vsub.f64	d7, d6, d7
 1610 00f2 8DED087B 		vstr.64	d7, [sp, #32]
 509:libraries/zf_device/zf_device_gnss.c **** 
 510:libraries/zf_device/zf_device_gnss.c ****     distance = 2 * asin(sqrt(pow(sin(a / 2), 2) + cos(rad_latitude1) * cos(rad_latitude2) * pow(sin
 1611              		.loc 1 510 30
 1612 00f6 9DED0A7B 		vldr.64	d7, [sp, #40]
 1613 00fa B0EE005B 		vmov.f64	d5, #2.0e+0
 1614 00fe 87EE056B 		vdiv.f64	d6, d7, d5
 1615 0102 B0EE460B 		vmov.f64	d0, d6
 1616 0106 FFF7FEFF 		bl	sin
 1617 010a B0EE407B 		vmov.f64	d7, d0
 1618 010e B0EE001B 		vmov.f64	d1, #2.0e+0
 1619 0112 B0EE470B 		vmov.f64	d0, d7
 1620 0116 FFF7FEFF 		bl	pow
 1621 011a B0EE409B 		vmov.f64	d9, d0
 1622              		.loc 1 510 51
 1623 011e 9DED140B 		vldr.64	d0, [sp, #80]
 1624 0122 FFF7FEFF 		bl	cos
 1625 0126 B0EE408B 		vmov.f64	d8, d0
 1626              		.loc 1 510 72
 1627 012a 9DED120B 		vldr.64	d0, [sp, #72]
 1628 012e FFF7FEFF 		bl	cos
 1629 0132 B0EE407B 		vmov.f64	d7, d0
 1630              		.loc 1 510 70
 1631 0136 28EE078B 		vmul.f64	d8, d8, d7
 1632              		.loc 1 510 93
 1633 013a 9DED087B 		vldr.64	d7, [sp, #32]
 1634 013e B0EE005B 		vmov.f64	d5, #2.0e+0
 1635 0142 87EE056B 		vdiv.f64	d6, d7, d5
 1636 0146 B0EE460B 		vmov.f64	d0, d6
 1637 014a FFF7FEFF 		bl	sin
 1638 014e B0EE407B 		vmov.f64	d7, d0
 1639 0152 B0EE001B 		vmov.f64	d1, #2.0e+0
 1640 0156 B0EE470B 		vmov.f64	d0, d7
 1641 015a FFF7FEFF 		bl	pow
 1642 015e B0EE407B 		vmov.f64	d7, d0
 1643              		.loc 1 510 91
 1644 0162 28EE077B 		vmul.f64	d7, d8, d7
 1645              		.loc 1 510 20
 1646 0166 39EE077B 		vadd.f64	d7, d9, d7
 1647 016a B0EE470B 		vmov.f64	d0, d7
 1648 016e FFF7FEFF 		bl	sqrt
 1649 0172 B0EE407B 		vmov.f64	d7, d0
 1650 0176 B0EE470B 		vmov.f64	d0, d7
 1651 017a FFF7FEFF 		bl	asin
 1652 017e B0EE407B 		vmov.f64	d7, d0
 1653              		.loc 1 510 14
 1654 0182 37EE077B 		vadd.f64	d7, d7, d7
 1655 0186 8DED0C7B 		vstr.64	d7, [sp, #48]
 511:libraries/zf_device/zf_device_gnss.c ****     distance = distance * EARTH_RADIUS;  
 1656              		.loc 1 511 14
 1657 018a 9DED0C6B 		vldr.64	d6, [sp, #48]
 1658 018e 9DED167B 		vldr.64	d7, [sp, #88]
 1659 0192 26EE077B 		vmul.f64	d7, d6, d7
 1660 0196 8DED0C7B 		vstr.64	d7, [sp, #48]
 512:libraries/zf_device/zf_device_gnss.c **** 
 513:libraries/zf_device/zf_device_gnss.c ****     return distance;  
 1661              		.loc 1 513 12
 1662 019a DDE90C23 		ldrd	r2, [sp, #48]
 1663 019e 43EC172B 		vmov	d7, r2, r3
 514:libraries/zf_device/zf_device_gnss.c **** }
 1664              		.loc 1 514 1
 1665 01a2 B0EE470B 		vmov.f64	d0, d7
 1666 01a6 19B0     		add	sp, sp, #100
 1667              		.cfi_def_cfa_offset 20
 1668              		@ sp needed
 1669 01a8 BDEC048B 		vldm	sp!, {d8-d9}
 1670              		.cfi_restore 82
 1671              		.cfi_restore 83
 1672              		.cfi_restore 80
 1673              		.cfi_restore 81
 1674              		.cfi_def_cfa_offset 4
 1675 01ac 5DF804FB 		ldr	pc, [sp], #4
 1676              	.L53:
 1677              		.align	3
 1678              	.L52:
 1679 01b0 282D4454 		.word	1413754152
 1680 01b4 FB210940 		.word	1074340347
 1681 01b8 00000000 		.word	0
 1682 01bc 00806640 		.word	1080459264
 1683 01c0 00000040 		.word	1073741824
 1684 01c4 A6545841 		.word	1096307878
 1685              		.cfi_endproc
 1686              	.LFE491:
 1688              		.section	.text.gnss_get_two_points_azimuth,"ax",%progbits
 1689              		.align	1
 1690              		.p2align 4,,15
 1691              		.global	gnss_get_two_points_azimuth
 1692              		.syntax unified
 1693              		.thumb
 1694              		.thumb_func
 1696              	gnss_get_two_points_azimuth:
 1697              	.LFB492:
 515:libraries/zf_device/zf_device_gnss.c **** 
 516:libraries/zf_device/zf_device_gnss.c **** //-------------------------------------------------------------------------------------------------
 517:libraries/zf_device/zf_device_gnss.c **** // å‡½æ•°ç®€ä»‹     GNSS è®¡ç®—ä»ç¬¬ä¸€ä¸ªç‚¹åˆ°ç¬¬äºŒä¸ªç‚¹çš„æ–¹ä½è§’
 518:libraries/zf_device/zf_device_gnss.c **** // å‚æ•°è¯´æ˜     latitude1       ç¬¬ä¸€ä¸ªç‚¹çš„çº¬åº¦
 519:libraries/zf_device/zf_device_gnss.c **** // å‚æ•°è¯´æ˜     longitude1      ç¬¬ä¸€ä¸ªç‚¹çš„ç»åº¦
 520:libraries/zf_device/zf_device_gnss.c **** // å‚æ•°è¯´æ˜     latitude2       ç¬¬äºŒä¸ªç‚¹çš„çº¬åº¦
 521:libraries/zf_device/zf_device_gnss.c **** // å‚æ•°è¯´æ˜     longitude2      ç¬¬äºŒä¸ªç‚¹çš„ç»åº¦
 522:libraries/zf_device/zf_device_gnss.c **** // è¿”å›å‚æ•°     double          è¿”å›æ–¹ä½è§’ï¼ˆ0è‡³360ï¼‰
 523:libraries/zf_device/zf_device_gnss.c **** // ä½¿ç”¨ç¤ºä¾‹     gnss_get_two_points_azimuth(latitude1_1, longitude1, latitude2, longitude2);
 524:libraries/zf_device/zf_device_gnss.c **** // å¤‡æ³¨ä¿¡æ¯     
 525:libraries/zf_device/zf_device_gnss.c **** //-------------------------------------------------------------------------------------------------
 526:libraries/zf_device/zf_device_gnss.c **** double gnss_get_two_points_azimuth (double latitude1, double longitude1, double latitude2, double l
 527:libraries/zf_device/zf_device_gnss.c **** {
 1698              		.loc 1 527 1
 1699              		.cfi_startproc
 1700              		@ args = 0, pretend = 0, frame = 56
 1701              		@ frame_needed = 0, uses_anonymous_args = 0
 1702 0000 00B5     		push	{lr}
 1703              		.cfi_def_cfa_offset 4
 1704              		.cfi_offset 14, -4
 1705 0002 2DED048B 		vpush.64	{d8, d9}
 1706              		.cfi_def_cfa_offset 20
 1707              		.cfi_offset 80, -20
 1708              		.cfi_offset 81, -16
 1709              		.cfi_offset 82, -12
 1710              		.cfi_offset 83, -8
 1711 0006 8FB0     		sub	sp, sp, #60
 1712              		.cfi_def_cfa_offset 80
 1713 0008 8DED060B 		vstr.64	d0, [sp, #24]
 1714 000c 8DED041B 		vstr.64	d1, [sp, #16]
 1715 0010 8DED022B 		vstr.64	d2, [sp, #8]
 1716 0014 8DED003B 		vstr.64	d3, [sp]
 528:libraries/zf_device/zf_device_gnss.c ****     latitude1   = ANGLE_TO_RAD(latitude1);
 1717              		.loc 1 528 19
 1718 0018 9DED067B 		vldr.64	d7, [sp, #24]
 1719 001c 9FED4E6B 		vldr.64	d6, .L61
 1720 0020 27EE066B 		vmul.f64	d6, d7, d6
 1721              		.loc 1 528 17
 1722 0024 9FED4E5B 		vldr.64	d5, .L61+8
 1723 0028 86EE057B 		vdiv.f64	d7, d6, d5
 1724 002c 8DED067B 		vstr.64	d7, [sp, #24]
 529:libraries/zf_device/zf_device_gnss.c ****     latitude2   = ANGLE_TO_RAD(latitude2);
 1725              		.loc 1 529 19
 1726 0030 9DED027B 		vldr.64	d7, [sp, #8]
 1727 0034 9FED486B 		vldr.64	d6, .L61
 1728 0038 27EE066B 		vmul.f64	d6, d7, d6
 1729              		.loc 1 529 17
 1730 003c 9FED485B 		vldr.64	d5, .L61+8
 1731 0040 86EE057B 		vdiv.f64	d7, d6, d5
 1732 0044 8DED027B 		vstr.64	d7, [sp, #8]
 530:libraries/zf_device/zf_device_gnss.c ****     longitude1  = ANGLE_TO_RAD(longitude1);
 1733              		.loc 1 530 19
 1734 0048 9DED047B 		vldr.64	d7, [sp, #16]
 1735 004c 9FED426B 		vldr.64	d6, .L61
 1736 0050 27EE066B 		vmul.f64	d6, d7, d6
 1737              		.loc 1 530 17
 1738 0054 9FED425B 		vldr.64	d5, .L61+8
 1739 0058 86EE057B 		vdiv.f64	d7, d6, d5
 1740 005c 8DED047B 		vstr.64	d7, [sp, #16]
 531:libraries/zf_device/zf_device_gnss.c ****     longitude2  = ANGLE_TO_RAD(longitude2);
 1741              		.loc 1 531 19
 1742 0060 9DED007B 		vldr.64	d7, [sp]
 1743 0064 9FED3C6B 		vldr.64	d6, .L61
 1744 0068 27EE066B 		vmul.f64	d6, d7, d6
 1745              		.loc 1 531 17
 1746 006c 9FED3C5B 		vldr.64	d5, .L61+8
 1747 0070 86EE057B 		vdiv.f64	d7, d6, d5
 1748 0074 8DED007B 		vstr.64	d7, [sp]
 532:libraries/zf_device/zf_device_gnss.c **** 
 533:libraries/zf_device/zf_device_gnss.c ****     double x = sin(longitude2 - longitude1) * cos(latitude2);
 1749              		.loc 1 533 16
 1750 0078 9DED006B 		vldr.64	d6, [sp]
 1751 007c 9DED047B 		vldr.64	d7, [sp, #16]
 1752 0080 36EE477B 		vsub.f64	d7, d6, d7
 1753 0084 B0EE470B 		vmov.f64	d0, d7
 1754 0088 FFF7FEFF 		bl	sin
 1755 008c B0EE408B 		vmov.f64	d8, d0
 1756              		.loc 1 533 47
 1757 0090 9DED020B 		vldr.64	d0, [sp, #8]
 1758 0094 FFF7FEFF 		bl	cos
 1759 0098 B0EE407B 		vmov.f64	d7, d0
 1760              		.loc 1 533 12
 1761 009c 28EE077B 		vmul.f64	d7, d8, d7
 1762 00a0 8DED0C7B 		vstr.64	d7, [sp, #48]
 534:libraries/zf_device/zf_device_gnss.c ****     double y = cos(latitude1) * sin(latitude2) - sin(latitude1) * cos(latitude2) * cos(longitude2 -
 1763              		.loc 1 534 16
 1764 00a4 9DED060B 		vldr.64	d0, [sp, #24]
 1765 00a8 FFF7FEFF 		bl	cos
 1766 00ac B0EE408B 		vmov.f64	d8, d0
 1767              		.loc 1 534 33
 1768 00b0 9DED020B 		vldr.64	d0, [sp, #8]
 1769 00b4 FFF7FEFF 		bl	sin
 1770 00b8 B0EE407B 		vmov.f64	d7, d0
 1771              		.loc 1 534 31
 1772 00bc 28EE078B 		vmul.f64	d8, d8, d7
 1773              		.loc 1 534 50
 1774 00c0 9DED060B 		vldr.64	d0, [sp, #24]
 1775 00c4 FFF7FEFF 		bl	sin
 1776 00c8 B0EE409B 		vmov.f64	d9, d0
 1777              		.loc 1 534 67
 1778 00cc 9DED020B 		vldr.64	d0, [sp, #8]
 1779 00d0 FFF7FEFF 		bl	cos
 1780 00d4 B0EE407B 		vmov.f64	d7, d0
 1781              		.loc 1 534 65
 1782 00d8 29EE079B 		vmul.f64	d9, d9, d7
 1783              		.loc 1 534 84
 1784 00dc 9DED006B 		vldr.64	d6, [sp]
 1785 00e0 9DED047B 		vldr.64	d7, [sp, #16]
 1786 00e4 36EE477B 		vsub.f64	d7, d6, d7
 1787 00e8 B0EE470B 		vmov.f64	d0, d7
 1788 00ec FFF7FEFF 		bl	cos
 1789 00f0 B0EE407B 		vmov.f64	d7, d0
 1790              		.loc 1 534 82
 1791 00f4 29EE077B 		vmul.f64	d7, d9, d7
 1792              		.loc 1 534 12
 1793 00f8 38EE477B 		vsub.f64	d7, d8, d7
 1794 00fc 8DED0A7B 		vstr.64	d7, [sp, #40]
 535:libraries/zf_device/zf_device_gnss.c ****     double angle = RAD_TO_ANGLE(atan2(x, y));
 1795              		.loc 1 535 20
 1796 0100 9DED0A1B 		vldr.64	d1, [sp, #40]
 1797 0104 9DED0C0B 		vldr.64	d0, [sp, #48]
 1798 0108 FFF7FEFF 		bl	atan2
 1799 010c B0EE407B 		vmov.f64	d7, d0
 1800 0110 9FED136B 		vldr.64	d6, .L61+8
 1801 0114 27EE066B 		vmul.f64	d6, d7, d6
 1802              		.loc 1 535 12
 1803 0118 9FED0F5B 		vldr.64	d5, .L61
 1804 011c 86EE057B 		vdiv.f64	d7, d6, d5
 1805 0120 8DED087B 		vstr.64	d7, [sp, #32]
 536:libraries/zf_device/zf_device_gnss.c **** 
 537:libraries/zf_device/zf_device_gnss.c ****     return ((0 < angle) ? angle : (angle + 360));
 1806              		.loc 1 537 33
 1807 0124 9DED087B 		vldr.64	d7, [sp, #32]
 1808 0128 B5EEC07B 		vcmpe.f64	d7, #0
 1809 012c F1EE10FA 		vmrs	APSR_nzcv, FPSCR
 1810 0130 02DD     		ble	.L60
 1811              		.loc 1 537 33 is_stmt 0 discriminator 1
 1812 0132 9DED087B 		vldr.64	d7, [sp, #32]
 1813 0136 05E0     		b	.L58
 1814              	.L60:
 1815              		.loc 1 537 33 discriminator 2
 1816 0138 9DED087B 		vldr.64	d7, [sp, #32]
 1817 013c 9FED0A6B 		vldr.64	d6, .L61+16
 1818 0140 37EE067B 		vadd.f64	d7, d7, d6
 1819              	.L58:
 538:libraries/zf_device/zf_device_gnss.c **** }
 1820              		.loc 1 538 1 is_stmt 1 discriminator 5
 1821 0144 B0EE470B 		vmov.f64	d0, d7
 1822 0148 0FB0     		add	sp, sp, #60
 1823              		.cfi_def_cfa_offset 20
 1824              		@ sp needed
 1825 014a BDEC048B 		vldm	sp!, {d8-d9}
 1826              		.cfi_restore 82
 1827              		.cfi_restore 83
 1828              		.cfi_restore 80
 1829              		.cfi_restore 81
 1830              		.cfi_def_cfa_offset 4
 1831 014e 5DF804FB 		ldr	pc, [sp], #4
 1832              	.L62:
 1833 0152 00BFAFF3 		.align	3
 1833      0080
 1834              	.L61:
 1835 0158 282D4454 		.word	1413754152
 1836 015c FB210940 		.word	1074340347
 1837 0160 00000000 		.word	0
 1838 0164 00806640 		.word	1080459264
 1839 0168 00000000 		.word	0
 1840 016c 00807640 		.word	1081507840
 1841              		.cfi_endproc
 1842              	.LFE492:
 1844              		.section	.rodata
 1845              		.align	2
 1846              	.LC3:
 1847 000c 30780000 		.ascii	"0x\000\000\000"
 1847      00
 1848              		.section	.text.gnss_data_parse,"ax",%progbits
 1849              		.align	1
 1850              		.p2align 4,,15
 1851              		.global	gnss_data_parse
 1852              		.syntax unified
 1853              		.thumb
 1854              		.thumb_func
 1856              	gnss_data_parse:
 1857              	.LFB493:
 539:libraries/zf_device/zf_device_gnss.c **** 
 540:libraries/zf_device/zf_device_gnss.c **** //-------------------------------------------------------------------------------------------------
 541:libraries/zf_device/zf_device_gnss.c **** // å‡½æ•°ç®€ä»‹     GNSS è§£ææ•°æ®
 542:libraries/zf_device/zf_device_gnss.c **** // å‚æ•°è¯´æ˜     void
 543:libraries/zf_device/zf_device_gnss.c **** // è¿”å›å‚æ•°     uint8           ZF_TRUE-è§£ææˆåŠŸ ZF_FALSE-æ•°æ®æœ‰é—®é¢˜ä¸èƒ½è§£æ
 544:libraries/zf_device/zf_device_gnss.c **** // ä½¿ç”¨ç¤ºä¾‹     gnss_data_parse();
 545:libraries/zf_device/zf_device_gnss.c **** // å¤‡æ³¨ä¿¡æ¯     
 546:libraries/zf_device/zf_device_gnss.c **** //-------------------------------------------------------------------------------------------------
 547:libraries/zf_device/zf_device_gnss.c **** uint8 gnss_data_parse (void)
 548:libraries/zf_device/zf_device_gnss.c **** {
 1858              		.loc 1 548 1
 1859              		.cfi_startproc
 1860              		@ args = 0, pretend = 0, frame = 16
 1861              		@ frame_needed = 0, uses_anonymous_args = 0
 1862 0000 00B5     		push	{lr}
 1863              		.cfi_def_cfa_offset 4
 1864              		.cfi_offset 14, -4
 1865 0002 85B0     		sub	sp, sp, #20
 1866              		.cfi_def_cfa_offset 24
 549:libraries/zf_device/zf_device_gnss.c ****     uint8 return_state = ZF_NO_ERROR;
 1867              		.loc 1 549 11
 1868 0004 0023     		movs	r3, #0
 1869 0006 8DF80F30 		strb	r3, [sp, #15]
 550:libraries/zf_device/zf_device_gnss.c **** 
 551:libraries/zf_device/zf_device_gnss.c ****     uint8 check_buffer[5] = {'0', 'x', 0x00, 0x00, 0x00};
 1870              		.loc 1 551 11
 1871 000a 704A     		ldr	r2, .L78
 1872 000c 6B46     		mov	r3, sp
 1873 000e 92E80300 		ldm	r2, {r0, r1}
 1874 0012 1860     		str	r0, [r3]
 1875 0014 0433     		adds	r3, r3, #4
 1876 0016 1970     		strb	r1, [r3]
 552:libraries/zf_device/zf_device_gnss.c ****     uint8 bbc_xor_origin = 0;
 1877              		.loc 1 552 11
 1878 0018 0023     		movs	r3, #0
 1879 001a 8DF80730 		strb	r3, [sp, #7]
 553:libraries/zf_device/zf_device_gnss.c ****     uint8 bbc_xor_calculation = 0;
 1880              		.loc 1 553 11
 1881 001e 0023     		movs	r3, #0
 1882 0020 8DF80E30 		strb	r3, [sp, #14]
 554:libraries/zf_device/zf_device_gnss.c ****     uint32 data_len = 0;
 1883              		.loc 1 554 12
 1884 0024 0023     		movs	r3, #0
 1885 0026 0293     		str	r3, [sp, #8]
 555:libraries/zf_device/zf_device_gnss.c **** 
 556:libraries/zf_device/zf_device_gnss.c ****     do
 557:libraries/zf_device/zf_device_gnss.c ****     {
 558:libraries/zf_device/zf_device_gnss.c ****         if(GNSS_STATE_RECEIVED == gnss_rmc_state)
 1886              		.loc 1 558 32
 1887 0028 694B     		ldr	r3, .L78+4
 1888 002a 1B78     		ldrb	r3, [r3]	@ zero_extendqisi2
 1889              		.loc 1 558 11
 1890 002c 012B     		cmp	r3, #1
 1891 002e 3CD1     		bne	.L64
 559:libraries/zf_device/zf_device_gnss.c ****         {
 560:libraries/zf_device/zf_device_gnss.c ****             gnss_rmc_state = GNSS_STATE_PARSING;
 1892              		.loc 1 560 28
 1893 0030 674B     		ldr	r3, .L78+4
 1894 0032 0222     		movs	r2, #2
 1895 0034 1A70     		strb	r2, [r3]
 561:libraries/zf_device/zf_device_gnss.c ****             strncpy((char *)&check_buffer[2], strchr((const char *)gnss_rmc_buffer, '*') + 1, 2);
 1896              		.loc 1 561 47
 1897 0036 2A21     		movs	r1, #42
 1898 0038 6648     		ldr	r0, .L78+8
 1899 003a FFF7FEFF 		bl	strchr
 1900 003e 0346     		mov	r3, r0
 1901              		.loc 1 561 90
 1902 0040 591C     		adds	r1, r3, #1
 1903              		.loc 1 561 13
 1904 0042 6B46     		mov	r3, sp
 1905 0044 0233     		adds	r3, r3, #2
 1906 0046 0222     		movs	r2, #2
 1907 0048 1846     		mov	r0, r3
 1908 004a FFF7FEFF 		bl	strncpy
 562:libraries/zf_device/zf_device_gnss.c ****             bbc_xor_origin = (uint8)zf_function_str_to_hex((char *)check_buffer);
 1909              		.loc 1 562 37
 1910 004e 6B46     		mov	r3, sp
 1911 0050 1846     		mov	r0, r3
 1912 0052 FFF7FEFF 		bl	zf_function_str_to_hex
 1913 0056 0346     		mov	r3, r0
 1914              		.loc 1 562 28
 1915 0058 8DF80730 		strb	r3, [sp, #7]
 563:libraries/zf_device/zf_device_gnss.c ****             for(bbc_xor_calculation = gnss_rmc_buffer[1], data_len = 2; '*' != gnss_rmc_buffer[data
 1916              		.loc 1 563 37
 1917 005c 5D4B     		ldr	r3, .L78+8
 1918 005e 5B78     		ldrb	r3, [r3, #1]
 1919 0060 8DF80E30 		strb	r3, [sp, #14]
 1920              		.loc 1 563 68
 1921 0064 0223     		movs	r3, #2
 1922 0066 0293     		str	r3, [sp, #8]
 1923              		.loc 1 563 13
 1924 0068 0BE0     		b	.L65
 1925              	.L66:
 564:libraries/zf_device/zf_device_gnss.c ****             {
 565:libraries/zf_device/zf_device_gnss.c ****                 bbc_xor_calculation ^= gnss_rmc_buffer[data_len];
 1926              		.loc 1 565 55 discriminator 3
 1927 006a 5A4A     		ldr	r2, .L78+8
 1928 006c 029B     		ldr	r3, [sp, #8]
 1929 006e 1344     		add	r3, r3, r2
 1930 0070 1A78     		ldrb	r2, [r3]	@ zero_extendqisi2
 1931              		.loc 1 565 37 discriminator 3
 1932 0072 9DF80E30 		ldrb	r3, [sp, #14]
 1933 0076 5340     		eors	r3, r3, r2
 1934 0078 8DF80E30 		strb	r3, [sp, #14]
 563:libraries/zf_device/zf_device_gnss.c ****             for(bbc_xor_calculation = gnss_rmc_buffer[1], data_len = 2; '*' != gnss_rmc_buffer[data
 1935              		.loc 1 563 116 discriminator 3
 1936 007c 029B     		ldr	r3, [sp, #8]
 1937 007e 0133     		adds	r3, r3, #1
 1938 0080 0293     		str	r3, [sp, #8]
 1939              	.L65:
 563:libraries/zf_device/zf_device_gnss.c ****             for(bbc_xor_calculation = gnss_rmc_buffer[1], data_len = 2; '*' != gnss_rmc_buffer[data
 1940              		.loc 1 563 95 discriminator 1
 1941 0082 544A     		ldr	r2, .L78+8
 1942 0084 029B     		ldr	r3, [sp, #8]
 1943 0086 1344     		add	r3, r3, r2
 1944 0088 1B78     		ldrb	r3, [r3]	@ zero_extendqisi2
 563:libraries/zf_device/zf_device_gnss.c ****             for(bbc_xor_calculation = gnss_rmc_buffer[1], data_len = 2; '*' != gnss_rmc_buffer[data
 1945              		.loc 1 563 13 discriminator 1
 1946 008a 2A2B     		cmp	r3, #42
 1947 008c EDD1     		bne	.L66
 566:libraries/zf_device/zf_device_gnss.c ****             }
 567:libraries/zf_device/zf_device_gnss.c ****             if(bbc_xor_calculation != bbc_xor_origin)
 1948              		.loc 1 567 15
 1949 008e 9DF80E20 		ldrb	r2, [sp, #14]	@ zero_extendqisi2
 1950 0092 9DF80730 		ldrb	r3, [sp, #7]	@ zero_extendqisi2
 1951 0096 9A42     		cmp	r2, r3
 1952 0098 03D0     		beq	.L67
 568:libraries/zf_device/zf_device_gnss.c ****             {
 569:libraries/zf_device/zf_device_gnss.c ****                 // æ•°æ®æ ¡éªŒå¤±è´¥
 570:libraries/zf_device/zf_device_gnss.c ****                 return_state = ZF_ERROR;
 1953              		.loc 1 570 30
 1954 009a 0123     		movs	r3, #1
 1955 009c 8DF80F30 		strb	r3, [sp, #15]
 571:libraries/zf_device/zf_device_gnss.c ****                 break;
 1956              		.loc 1 571 17
 1957 00a0 8EE0     		b	.L68
 1958              	.L67:
 572:libraries/zf_device/zf_device_gnss.c ****             }
 573:libraries/zf_device/zf_device_gnss.c **** 
 574:libraries/zf_device/zf_device_gnss.c ****             gnss_gnrmc_parse((char *)gnss_rmc_buffer, &gnss_info);
 1959              		.loc 1 574 13
 1960 00a2 4D49     		ldr	r1, .L78+12
 1961 00a4 4B48     		ldr	r0, .L78+8
 1962 00a6 FFF7FEFF 		bl	gnss_gnrmc_parse
 1963              	.L64:
 575:libraries/zf_device/zf_device_gnss.c ****         }
 576:libraries/zf_device/zf_device_gnss.c ****         gnss_rmc_state = GNSS_STATE_RECEIVING;
 1964              		.loc 1 576 24
 1965 00aa 494B     		ldr	r3, .L78+4
 1966 00ac 0022     		movs	r2, #0
 1967 00ae 1A70     		strb	r2, [r3]
 577:libraries/zf_device/zf_device_gnss.c ****         
 578:libraries/zf_device/zf_device_gnss.c ****         if(GNSS_STATE_RECEIVED == gnss_gga_state)
 1968              		.loc 1 578 32
 1969 00b0 4A4B     		ldr	r3, .L78+16
 1970 00b2 1B78     		ldrb	r3, [r3]	@ zero_extendqisi2
 1971              		.loc 1 578 11
 1972 00b4 012B     		cmp	r3, #1
 1973 00b6 3CD1     		bne	.L69
 579:libraries/zf_device/zf_device_gnss.c ****         {
 580:libraries/zf_device/zf_device_gnss.c ****             gnss_gga_state = GNSS_STATE_PARSING;
 1974              		.loc 1 580 28
 1975 00b8 484B     		ldr	r3, .L78+16
 1976 00ba 0222     		movs	r2, #2
 1977 00bc 1A70     		strb	r2, [r3]
 581:libraries/zf_device/zf_device_gnss.c ****             strncpy((char *)&check_buffer[2], strchr((const char *)gnss_gga_buffer, '*') + 1, 2);
 1978              		.loc 1 581 47
 1979 00be 2A21     		movs	r1, #42
 1980 00c0 4748     		ldr	r0, .L78+20
 1981 00c2 FFF7FEFF 		bl	strchr
 1982 00c6 0346     		mov	r3, r0
 1983              		.loc 1 581 90
 1984 00c8 591C     		adds	r1, r3, #1
 1985              		.loc 1 581 13
 1986 00ca 6B46     		mov	r3, sp
 1987 00cc 0233     		adds	r3, r3, #2
 1988 00ce 0222     		movs	r2, #2
 1989 00d0 1846     		mov	r0, r3
 1990 00d2 FFF7FEFF 		bl	strncpy
 582:libraries/zf_device/zf_device_gnss.c ****             bbc_xor_origin = (uint8)zf_function_str_to_hex((char *)check_buffer);
 1991              		.loc 1 582 37
 1992 00d6 6B46     		mov	r3, sp
 1993 00d8 1846     		mov	r0, r3
 1994 00da FFF7FEFF 		bl	zf_function_str_to_hex
 1995 00de 0346     		mov	r3, r0
 1996              		.loc 1 582 28
 1997 00e0 8DF80730 		strb	r3, [sp, #7]
 583:libraries/zf_device/zf_device_gnss.c ****             
 584:libraries/zf_device/zf_device_gnss.c ****             for(bbc_xor_calculation = gnss_gga_buffer[1], data_len = 2; '*' != gnss_gga_buffer[data
 1998              		.loc 1 584 37
 1999 00e4 3E4B     		ldr	r3, .L78+20
 2000 00e6 5B78     		ldrb	r3, [r3, #1]
 2001 00e8 8DF80E30 		strb	r3, [sp, #14]
 2002              		.loc 1 584 68
 2003 00ec 0223     		movs	r3, #2
 2004 00ee 0293     		str	r3, [sp, #8]
 2005              		.loc 1 584 13
 2006 00f0 0BE0     		b	.L70
 2007              	.L71:
 585:libraries/zf_device/zf_device_gnss.c ****             {
 586:libraries/zf_device/zf_device_gnss.c ****                 bbc_xor_calculation ^= gnss_gga_buffer[data_len];
 2008              		.loc 1 586 55 discriminator 3
 2009 00f2 3B4A     		ldr	r2, .L78+20
 2010 00f4 029B     		ldr	r3, [sp, #8]
 2011 00f6 1344     		add	r3, r3, r2
 2012 00f8 1A78     		ldrb	r2, [r3]	@ zero_extendqisi2
 2013              		.loc 1 586 37 discriminator 3
 2014 00fa 9DF80E30 		ldrb	r3, [sp, #14]
 2015 00fe 5340     		eors	r3, r3, r2
 2016 0100 8DF80E30 		strb	r3, [sp, #14]
 584:libraries/zf_device/zf_device_gnss.c ****             {
 2017              		.loc 1 584 116 discriminator 3
 2018 0104 029B     		ldr	r3, [sp, #8]
 2019 0106 0133     		adds	r3, r3, #1
 2020 0108 0293     		str	r3, [sp, #8]
 2021              	.L70:
 584:libraries/zf_device/zf_device_gnss.c ****             {
 2022              		.loc 1 584 95 discriminator 1
 2023 010a 354A     		ldr	r2, .L78+20
 2024 010c 029B     		ldr	r3, [sp, #8]
 2025 010e 1344     		add	r3, r3, r2
 2026 0110 1B78     		ldrb	r3, [r3]	@ zero_extendqisi2
 584:libraries/zf_device/zf_device_gnss.c ****             {
 2027              		.loc 1 584 13 discriminator 1
 2028 0112 2A2B     		cmp	r3, #42
 2029 0114 EDD1     		bne	.L71
 587:libraries/zf_device/zf_device_gnss.c ****             }
 588:libraries/zf_device/zf_device_gnss.c ****             if(bbc_xor_calculation != bbc_xor_origin)
 2030              		.loc 1 588 15
 2031 0116 9DF80E20 		ldrb	r2, [sp, #14]	@ zero_extendqisi2
 2032 011a 9DF80730 		ldrb	r3, [sp, #7]	@ zero_extendqisi2
 2033 011e 9A42     		cmp	r2, r3
 2034 0120 03D0     		beq	.L72
 589:libraries/zf_device/zf_device_gnss.c ****             {
 590:libraries/zf_device/zf_device_gnss.c ****                 // æ•°æ®æ ¡éªŒå¤±è´¥
 591:libraries/zf_device/zf_device_gnss.c ****                 return_state = ZF_ERROR;
 2035              		.loc 1 591 30
 2036 0122 0123     		movs	r3, #1
 2037 0124 8DF80F30 		strb	r3, [sp, #15]
 592:libraries/zf_device/zf_device_gnss.c ****                 break;
 2038              		.loc 1 592 17
 2039 0128 4AE0     		b	.L68
 2040              	.L72:
 593:libraries/zf_device/zf_device_gnss.c ****             }
 594:libraries/zf_device/zf_device_gnss.c **** 
 595:libraries/zf_device/zf_device_gnss.c ****             gnss_gngga_parse((char *)gnss_gga_buffer, &gnss_info);
 2041              		.loc 1 595 13
 2042 012a 2B49     		ldr	r1, .L78+12
 2043 012c 2C48     		ldr	r0, .L78+20
 2044 012e FFF7FEFF 		bl	gnss_gngga_parse
 2045              	.L69:
 596:libraries/zf_device/zf_device_gnss.c ****         }
 597:libraries/zf_device/zf_device_gnss.c ****         gnss_gga_state = GNSS_STATE_RECEIVING;
 2046              		.loc 1 597 24
 2047 0132 2A4B     		ldr	r3, .L78+16
 2048 0134 0022     		movs	r2, #0
 2049 0136 1A70     		strb	r2, [r3]
 598:libraries/zf_device/zf_device_gnss.c ****         
 599:libraries/zf_device/zf_device_gnss.c ****         if(GNSS_STATE_RECEIVED == gnss_ths_state)
 2050              		.loc 1 599 32
 2051 0138 2A4B     		ldr	r3, .L78+24
 2052 013a 1B78     		ldrb	r3, [r3]	@ zero_extendqisi2
 2053              		.loc 1 599 11
 2054 013c 012B     		cmp	r3, #1
 2055 013e 3CD1     		bne	.L73
 600:libraries/zf_device/zf_device_gnss.c ****         {
 601:libraries/zf_device/zf_device_gnss.c ****             gnss_ths_state = GNSS_STATE_PARSING;
 2056              		.loc 1 601 28
 2057 0140 284B     		ldr	r3, .L78+24
 2058 0142 0222     		movs	r2, #2
 2059 0144 1A70     		strb	r2, [r3]
 602:libraries/zf_device/zf_device_gnss.c ****             strncpy((char *)&check_buffer[2], strchr((const char *)gnss_ths_buffer, '*') + 1, 2);
 2060              		.loc 1 602 47
 2061 0146 2A21     		movs	r1, #42
 2062 0148 2748     		ldr	r0, .L78+28
 2063 014a FFF7FEFF 		bl	strchr
 2064 014e 0346     		mov	r3, r0
 2065              		.loc 1 602 90
 2066 0150 591C     		adds	r1, r3, #1
 2067              		.loc 1 602 13
 2068 0152 6B46     		mov	r3, sp
 2069 0154 0233     		adds	r3, r3, #2
 2070 0156 0222     		movs	r2, #2
 2071 0158 1846     		mov	r0, r3
 2072 015a FFF7FEFF 		bl	strncpy
 603:libraries/zf_device/zf_device_gnss.c ****             bbc_xor_origin = (uint8)zf_function_str_to_hex((char *)check_buffer);
 2073              		.loc 1 603 37
 2074 015e 6B46     		mov	r3, sp
 2075 0160 1846     		mov	r0, r3
 2076 0162 FFF7FEFF 		bl	zf_function_str_to_hex
 2077 0166 0346     		mov	r3, r0
 2078              		.loc 1 603 28
 2079 0168 8DF80730 		strb	r3, [sp, #7]
 604:libraries/zf_device/zf_device_gnss.c ****             
 605:libraries/zf_device/zf_device_gnss.c ****             for(bbc_xor_calculation = gnss_ths_buffer[1], data_len = 2; '*' != gnss_ths_buffer[data
 2080              		.loc 1 605 37
 2081 016c 1E4B     		ldr	r3, .L78+28
 2082 016e 5B78     		ldrb	r3, [r3, #1]
 2083 0170 8DF80E30 		strb	r3, [sp, #14]
 2084              		.loc 1 605 68
 2085 0174 0223     		movs	r3, #2
 2086 0176 0293     		str	r3, [sp, #8]
 2087              		.loc 1 605 13
 2088 0178 0BE0     		b	.L74
 2089              	.L75:
 606:libraries/zf_device/zf_device_gnss.c ****             {
 607:libraries/zf_device/zf_device_gnss.c ****                 bbc_xor_calculation ^= gnss_ths_buffer[data_len];
 2090              		.loc 1 607 55 discriminator 3
 2091 017a 1B4A     		ldr	r2, .L78+28
 2092 017c 029B     		ldr	r3, [sp, #8]
 2093 017e 1344     		add	r3, r3, r2
 2094 0180 1A78     		ldrb	r2, [r3]	@ zero_extendqisi2
 2095              		.loc 1 607 37 discriminator 3
 2096 0182 9DF80E30 		ldrb	r3, [sp, #14]
 2097 0186 5340     		eors	r3, r3, r2
 2098 0188 8DF80E30 		strb	r3, [sp, #14]
 605:libraries/zf_device/zf_device_gnss.c ****             {
 2099              		.loc 1 605 116 discriminator 3
 2100 018c 029B     		ldr	r3, [sp, #8]
 2101 018e 0133     		adds	r3, r3, #1
 2102 0190 0293     		str	r3, [sp, #8]
 2103              	.L74:
 605:libraries/zf_device/zf_device_gnss.c ****             {
 2104              		.loc 1 605 95 discriminator 1
 2105 0192 154A     		ldr	r2, .L78+28
 2106 0194 029B     		ldr	r3, [sp, #8]
 2107 0196 1344     		add	r3, r3, r2
 2108 0198 1B78     		ldrb	r3, [r3]	@ zero_extendqisi2
 605:libraries/zf_device/zf_device_gnss.c ****             {
 2109              		.loc 1 605 13 discriminator 1
 2110 019a 2A2B     		cmp	r3, #42
 2111 019c EDD1     		bne	.L75
 608:libraries/zf_device/zf_device_gnss.c ****             }
 609:libraries/zf_device/zf_device_gnss.c ****             if(bbc_xor_calculation != bbc_xor_origin)
 2112              		.loc 1 609 15
 2113 019e 9DF80E20 		ldrb	r2, [sp, #14]	@ zero_extendqisi2
 2114 01a2 9DF80730 		ldrb	r3, [sp, #7]	@ zero_extendqisi2
 2115 01a6 9A42     		cmp	r2, r3
 2116 01a8 03D0     		beq	.L76
 610:libraries/zf_device/zf_device_gnss.c ****             {
 611:libraries/zf_device/zf_device_gnss.c ****                 // æ•°æ®æ ¡éªŒå¤±è´¥
 612:libraries/zf_device/zf_device_gnss.c ****                 return_state = ZF_ERROR;
 2117              		.loc 1 612 30
 2118 01aa 0123     		movs	r3, #1
 2119 01ac 8DF80F30 		strb	r3, [sp, #15]
 613:libraries/zf_device/zf_device_gnss.c ****                 break;
 2120              		.loc 1 613 17
 2121 01b0 06E0     		b	.L68
 2122              	.L76:
 614:libraries/zf_device/zf_device_gnss.c ****             }
 615:libraries/zf_device/zf_device_gnss.c **** 
 616:libraries/zf_device/zf_device_gnss.c ****             gnss_gnths_parse((char *)gnss_ths_buffer, &gnss_info);
 2123              		.loc 1 616 13
 2124 01b2 0949     		ldr	r1, .L78+12
 2125 01b4 0C48     		ldr	r0, .L78+28
 2126 01b6 FFF7FEFF 		bl	gnss_gnths_parse
 2127              	.L73:
 617:libraries/zf_device/zf_device_gnss.c ****         }
 618:libraries/zf_device/zf_device_gnss.c ****         gnss_ths_state = GNSS_STATE_RECEIVING;
 2128              		.loc 1 618 24
 2129 01ba 0A4B     		ldr	r3, .L78+24
 2130 01bc 0022     		movs	r2, #0
 2131 01be 1A70     		strb	r2, [r3]
 2132              	.L68:
 619:libraries/zf_device/zf_device_gnss.c **** 
 620:libraries/zf_device/zf_device_gnss.c ****     }while(0);
 621:libraries/zf_device/zf_device_gnss.c **** 
 622:libraries/zf_device/zf_device_gnss.c ****     return return_state;
 2133              		.loc 1 622 12
 2134 01c0 9DF80F30 		ldrb	r3, [sp, #15]	@ zero_extendqisi2
 623:libraries/zf_device/zf_device_gnss.c **** }
 2135              		.loc 1 623 1
 2136 01c4 1846     		mov	r0, r3
 2137 01c6 05B0     		add	sp, sp, #20
 2138              		.cfi_def_cfa_offset 4
 2139              		@ sp needed
 2140 01c8 5DF804FB 		ldr	pc, [sp], #4
 2141              	.L79:
 2142              		.align	2
 2143              	.L78:
 2144 01cc 0C000000 		.word	.LC3
 2145 01d0 00000000 		.word	gnss_rmc_state
 2146 01d4 00000000 		.word	gnss_rmc_buffer
 2147 01d8 00000000 		.word	gnss_info
 2148 01dc 00000000 		.word	gnss_gga_state
 2149 01e0 00000000 		.word	gnss_gga_buffer
 2150 01e4 00000000 		.word	gnss_ths_state
 2151 01e8 00000000 		.word	gnss_ths_buffer
 2152              		.cfi_endproc
 2153              	.LFE493:
 2155              		.section	.rodata
 2156 0011 000000   		.align	2
 2157              	.LC4:
 2158 0014 F1D90642 		.ascii	"\361\331\006B\024\000\000\012\005\000d\000\000\000`"
 2158      1400000A 
 2158      05006400 
 2158      000060
 2159 0023 EA0000D0 		.ascii	"\352\000\000\320\007\000\000\310\000\000\000\270\355"
 2159      070000C8 
 2159      000000B8 
 2159      ED
 2160              		.align	2
 2161              	.LC5:
 2162 0030 F1D90601 		.ascii	"\361\331\006\001\003\000\360\000\001\373\020"
 2162      0300F000 
 2162      01FB10
 2163 003b 00       		.align	2
 2164              	.LC6:
 2165 003c F1D90601 		.ascii	"\361\331\006\001\003\000\360\005\001\000\032"
 2165      0300F005 
 2165      01001A
 2166 0047 00       		.align	2
 2167              	.LC7:
 2168 0048 F1D90601 		.ascii	"\361\331\006\001\003\000\360\001\000\373\021"
 2168      0300F001 
 2168      00FB11
 2169 0053 00       		.align	2
 2170              	.LC8:
 2171 0054 F1D90601 		.ascii	"\361\331\006\001\003\000\360\002\000\374\023"
 2171      0300F002 
 2171      00FC13
 2172 005f 00       		.align	2
 2173              	.LC9:
 2174 0060 F1D90601 		.ascii	"\361\331\006\001\003\000\360\003\000\375\025"
 2174      0300F003 
 2174      00FD15
 2175 006b 00       		.align	2
 2176              	.LC10:
 2177 006c F1D90601 		.ascii	"\361\331\006\001\003\000\360\004\000\376\027"
 2177      0300F004 
 2177      00FE17
 2178 0077 00       		.align	2
 2179              	.LC11:
 2180 0078 F1D90601 		.ascii	"\361\331\006\001\003\000\360\006\000\000\033"
 2180      0300F006 
 2180      00001B
 2181 0083 00       		.align	2
 2182              	.LC12:
 2183 0084 F1D90601 		.ascii	"\361\331\006\001\003\000\360\007\000\001\035"
 2183      0300F007 
 2183      00011D
 2184 008f 00       		.align	2
 2185              	.LC13:
 2186 0090 F1D90601 		.ascii	"\361\331\006\001\003\000\360\010\000\002\037"
 2186      0300F008 
 2186      00021F
 2187 009b 00       		.align	2
 2188              	.LC14:
 2189 009c F1D90601 		.ascii	"\361\331\006\001\003\000\360@\000:\217"
 2189      0300F040 
 2189      003A8F
 2190 00a7 00       		.align	2
 2191              	.LC15:
 2192 00a8 F1D90601 		.ascii	"\361\331\006\001\003\000\360 \000\032O"
 2192      0300F020 
 2192      001A4F
 2193              		.section	.text.gnss_init,"ax",%progbits
 2194              		.align	1
 2195              		.p2align 4,,15
 2196              		.global	gnss_init
 2197              		.syntax unified
 2198              		.thumb
 2199              		.thumb_func
 2201              	gnss_init:
 2202              	.LFB494:
 624:libraries/zf_device/zf_device_gnss.c **** 
 625:libraries/zf_device/zf_device_gnss.c **** //-------------------------------------------------------------------------------------------------
 626:libraries/zf_device/zf_device_gnss.c **** // å‡½æ•°ç®€ä»‹     GNSS åˆå§‹åŒ–
 627:libraries/zf_device/zf_device_gnss.c **** // å‚æ•°è¯´æ˜     void
 628:libraries/zf_device/zf_device_gnss.c **** // è¿”å›å‚æ•°     uint8           æ“ä½œçŠ¶æ€ ZF_NO_ERROR - å®Œæˆ å…¶ä½™å€¼ä¸ºå¼‚å¸¸
 629:libraries/zf_device/zf_device_gnss.c **** // ä½¿ç”¨ç¤ºä¾‹     gnss_init();
 630:libraries/zf_device/zf_device_gnss.c **** // å¤‡æ³¨ä¿¡æ¯     
 631:libraries/zf_device/zf_device_gnss.c **** //-------------------------------------------------------------------------------------------------
 632:libraries/zf_device/zf_device_gnss.c **** uint8 gnss_init (gnss_type_enum gnss_type)
 633:libraries/zf_device/zf_device_gnss.c **** {
 2203              		.loc 1 633 1
 2204              		.cfi_startproc
 2205              		@ args = 0, pretend = 0, frame = 176
 2206              		@ frame_needed = 0, uses_anonymous_args = 0
 2207 0000 30B5     		push	{r4, r5, lr}
 2208              		.cfi_def_cfa_offset 12
 2209              		.cfi_offset 4, -12
 2210              		.cfi_offset 5, -8
 2211              		.cfi_offset 14, -4
 2212 0002 ADB0     		sub	sp, sp, #180
 2213              		.cfi_def_cfa_offset 192
 2214 0004 0346     		mov	r3, r0
 2215 0006 8DF80730 		strb	r3, [sp, #7]
 634:libraries/zf_device/zf_device_gnss.c ****     uint8 return_state = ZF_ERROR;
 2216              		.loc 1 634 11
 2217 000a 0123     		movs	r3, #1
 2218 000c 8DF8AF30 		strb	r3, [sp, #175]
 635:libraries/zf_device/zf_device_gnss.c **** 
 636:libraries/zf_device/zf_device_gnss.c ****     const uint8 set_rate[]      = {0xF1, 0xD9, 0x06, 0x42, 0x14, 0x00, 0x00, 0x0A, 0x05, 0x00, 0x64
 2219              		.loc 1 636 17
 2220 0010 8D4B     		ldr	r3, .L86
 2221 0012 24AC     		add	r4, sp, #144
 2222 0014 1D46     		mov	r5, r3
 2223 0016 0FCD     		ldmia	r5!, {r0, r1, r2, r3}
 2224 0018 0FC4     		stmia	r4!, {r0, r1, r2, r3}
 2225 001a 95E80700 		ldm	r5, {r0, r1, r2}
 2226 001e 84E80700 		stm	r4, {r0, r1, r2}
 637:libraries/zf_device/zf_device_gnss.c ****     const uint8 open_gga[]      = {0xF1, 0xD9, 0x06, 0x01, 0x03, 0x00, 0xF0, 0x00, 0x01, 0xFB, 0x10
 2227              		.loc 1 637 17
 2228 0022 8A4A     		ldr	r2, .L86+4
 2229 0024 21AB     		add	r3, sp, #132
 2230 0026 07CA     		ldm	r2, {r0, r1, r2}
 2231 0028 03C3     		stmia	r3!, {r0, r1}
 2232 002a 1A80     		strh	r2, [r3]	@ movhi
 2233 002c 0233     		adds	r3, r3, #2
 2234 002e 120C     		lsrs	r2, r2, #16
 2235 0030 1A70     		strb	r2, [r3]
 638:libraries/zf_device/zf_device_gnss.c ****     const uint8 open_rmc[]      = {0xF1, 0xD9, 0x06, 0x01, 0x03, 0x00, 0xF0, 0x05, 0x01, 0x00, 0x1A
 2236              		.loc 1 638 17
 2237 0032 874A     		ldr	r2, .L86+8
 2238 0034 1EAB     		add	r3, sp, #120
 2239 0036 07CA     		ldm	r2, {r0, r1, r2}
 2240 0038 03C3     		stmia	r3!, {r0, r1}
 2241 003a 1A80     		strh	r2, [r3]	@ movhi
 2242 003c 0233     		adds	r3, r3, #2
 2243 003e 120C     		lsrs	r2, r2, #16
 2244 0040 1A70     		strb	r2, [r3]
 639:libraries/zf_device/zf_device_gnss.c ****     
 640:libraries/zf_device/zf_device_gnss.c ****     const uint8 close_gll[]     = {0xF1, 0xD9, 0x06, 0x01, 0x03, 0x00, 0xF0, 0x01, 0x00, 0xFB, 0x11
 2245              		.loc 1 640 17
 2246 0042 844A     		ldr	r2, .L86+12
 2247 0044 1BAB     		add	r3, sp, #108
 2248 0046 07CA     		ldm	r2, {r0, r1, r2}
 2249 0048 03C3     		stmia	r3!, {r0, r1}
 2250 004a 1A80     		strh	r2, [r3]	@ movhi
 2251 004c 0233     		adds	r3, r3, #2
 2252 004e 120C     		lsrs	r2, r2, #16
 2253 0050 1A70     		strb	r2, [r3]
 641:libraries/zf_device/zf_device_gnss.c ****     const uint8 close_gsa[]     = {0xF1, 0xD9, 0x06, 0x01, 0x03, 0x00, 0xF0, 0x02, 0x00, 0xFC, 0x13
 2254              		.loc 1 641 17
 2255 0052 814A     		ldr	r2, .L86+16
 2256 0054 18AB     		add	r3, sp, #96
 2257 0056 07CA     		ldm	r2, {r0, r1, r2}
 2258 0058 03C3     		stmia	r3!, {r0, r1}
 2259 005a 1A80     		strh	r2, [r3]	@ movhi
 2260 005c 0233     		adds	r3, r3, #2
 2261 005e 120C     		lsrs	r2, r2, #16
 2262 0060 1A70     		strb	r2, [r3]
 642:libraries/zf_device/zf_device_gnss.c ****     const uint8 close_grs[]     = {0xF1, 0xD9, 0x06, 0x01, 0x03, 0x00, 0xF0, 0x03, 0x00, 0xFD, 0x15
 2263              		.loc 1 642 17
 2264 0062 7E4A     		ldr	r2, .L86+20
 2265 0064 15AB     		add	r3, sp, #84
 2266 0066 07CA     		ldm	r2, {r0, r1, r2}
 2267 0068 03C3     		stmia	r3!, {r0, r1}
 2268 006a 1A80     		strh	r2, [r3]	@ movhi
 2269 006c 0233     		adds	r3, r3, #2
 2270 006e 120C     		lsrs	r2, r2, #16
 2271 0070 1A70     		strb	r2, [r3]
 643:libraries/zf_device/zf_device_gnss.c ****     const uint8 close_gsv[]     = {0xF1, 0xD9, 0x06, 0x01, 0x03, 0x00, 0xF0, 0x04, 0x00, 0xFE, 0x17
 2272              		.loc 1 643 17
 2273 0072 7B4A     		ldr	r2, .L86+24
 2274 0074 12AB     		add	r3, sp, #72
 2275 0076 07CA     		ldm	r2, {r0, r1, r2}
 2276 0078 03C3     		stmia	r3!, {r0, r1}
 2277 007a 1A80     		strh	r2, [r3]	@ movhi
 2278 007c 0233     		adds	r3, r3, #2
 2279 007e 120C     		lsrs	r2, r2, #16
 2280 0080 1A70     		strb	r2, [r3]
 644:libraries/zf_device/zf_device_gnss.c ****     const uint8 close_vtg[]     = {0xF1, 0xD9, 0x06, 0x01, 0x03, 0x00, 0xF0, 0x06, 0x00, 0x00, 0x1B
 2281              		.loc 1 644 17
 2282 0082 784A     		ldr	r2, .L86+28
 2283 0084 0FAB     		add	r3, sp, #60
 2284 0086 07CA     		ldm	r2, {r0, r1, r2}
 2285 0088 03C3     		stmia	r3!, {r0, r1}
 2286 008a 1A80     		strh	r2, [r3]	@ movhi
 2287 008c 0233     		adds	r3, r3, #2
 2288 008e 120C     		lsrs	r2, r2, #16
 2289 0090 1A70     		strb	r2, [r3]
 645:libraries/zf_device/zf_device_gnss.c ****     const uint8 close_zda[]     = {0xF1, 0xD9, 0x06, 0x01, 0x03, 0x00, 0xF0, 0x07, 0x00, 0x01, 0x1D
 2290              		.loc 1 645 17
 2291 0092 754A     		ldr	r2, .L86+32
 2292 0094 0CAB     		add	r3, sp, #48
 2293 0096 07CA     		ldm	r2, {r0, r1, r2}
 2294 0098 03C3     		stmia	r3!, {r0, r1}
 2295 009a 1A80     		strh	r2, [r3]	@ movhi
 2296 009c 0233     		adds	r3, r3, #2
 2297 009e 120C     		lsrs	r2, r2, #16
 2298 00a0 1A70     		strb	r2, [r3]
 646:libraries/zf_device/zf_device_gnss.c ****     const uint8 close_gst[]     = {0xF1, 0xD9, 0x06, 0x01, 0x03, 0x00, 0xF0, 0x08, 0x00, 0x02, 0x1F
 2299              		.loc 1 646 17
 2300 00a2 724A     		ldr	r2, .L86+36
 2301 00a4 09AB     		add	r3, sp, #36
 2302 00a6 07CA     		ldm	r2, {r0, r1, r2}
 2303 00a8 03C3     		stmia	r3!, {r0, r1}
 2304 00aa 1A80     		strh	r2, [r3]	@ movhi
 2305 00ac 0233     		adds	r3, r3, #2
 2306 00ae 120C     		lsrs	r2, r2, #16
 2307 00b0 1A70     		strb	r2, [r3]
 647:libraries/zf_device/zf_device_gnss.c ****     const uint8 close_txt[]     = {0xF1, 0xD9, 0x06, 0x01, 0x03, 0x00, 0xF0, 0x40, 0x00, 0x3A, 0x8F
 2308              		.loc 1 647 17
 2309 00b2 6F4A     		ldr	r2, .L86+40
 2310 00b4 06AB     		add	r3, sp, #24
 2311 00b6 07CA     		ldm	r2, {r0, r1, r2}
 2312 00b8 03C3     		stmia	r3!, {r0, r1}
 2313 00ba 1A80     		strh	r2, [r3]	@ movhi
 2314 00bc 0233     		adds	r3, r3, #2
 2315 00be 120C     		lsrs	r2, r2, #16
 2316 00c0 1A70     		strb	r2, [r3]
 648:libraries/zf_device/zf_device_gnss.c ****     const uint8 close_txt_ant[] = {0xF1, 0xD9, 0x06, 0x01, 0x03, 0x00, 0xF0, 0x20, 0x00, 0x1A, 0x4F
 2317              		.loc 1 648 17
 2318 00c2 6C4A     		ldr	r2, .L86+44
 2319 00c4 03AB     		add	r3, sp, #12
 2320 00c6 07CA     		ldm	r2, {r0, r1, r2}
 2321 00c8 03C3     		stmia	r3!, {r0, r1}
 2322 00ca 1A80     		strh	r2, [r3]	@ movhi
 2323 00cc 0233     		adds	r3, r3, #2
 2324 00ce 120C     		lsrs	r2, r2, #16
 2325 00d0 1A70     		strb	r2, [r3]
 649:libraries/zf_device/zf_device_gnss.c **** 
 650:libraries/zf_device/zf_device_gnss.c ****     switch(gnss_type)
 2326              		.loc 1 650 5
 2327 00d2 9DF80730 		ldrb	r3, [sp, #7]	@ zero_extendqisi2
 2328 00d6 012B     		cmp	r3, #1
 2329 00d8 03D0     		beq	.L81
 2330 00da 022B     		cmp	r3, #2
 2331 00dc 00F09080 		beq	.L82
 651:libraries/zf_device/zf_device_gnss.c ****     {
 652:libraries/zf_device/zf_device_gnss.c ****         case GNSS_TYPE_TAU1201:
 653:libraries/zf_device/zf_device_gnss.c ****         {
 654:libraries/zf_device/zf_device_gnss.c ****             zf_fifo_init(&gnss_receiver_fifo, FIFO_DATA_8BIT, gnss_receiver_buffer, GNSS_BUFFER_SIZ
 655:libraries/zf_device/zf_device_gnss.c ****             gnss_delay_ms(500);                                                 // ç­‰å¾…GNSSå¯åŠ¨
 656:libraries/zf_device/zf_device_gnss.c ****             zf_uart_init(GNSS_UART_INDEX, 115200, GNSS_RX_PIN, GNSS_TX_PIN);
 657:libraries/zf_device/zf_device_gnss.c **** 
 658:libraries/zf_device/zf_device_gnss.c ****             // è®¾ç½®GNSSæ›´æ–°é€Ÿç‡ä¸º10hz å¦‚æœä¸è°ƒç”¨æ­¤è¯­å¥åˆ™é»˜è®¤ä¸º1hz
 659:libraries/zf_device/zf_device_gnss.c ****             zf_uart_write_buffer(GNSS_UART_INDEX, (uint8 *)set_rate, sizeof(set_rate));
 660:libraries/zf_device/zf_device_gnss.c ****             gnss_delay_ms(200);   
 661:libraries/zf_device/zf_device_gnss.c **** 
 662:libraries/zf_device/zf_device_gnss.c ****             zf_uart_write_buffer(GNSS_UART_INDEX, (uint8 *)open_rmc, sizeof(open_rmc));
 663:libraries/zf_device/zf_device_gnss.c ****             gnss_delay_ms(50);    
 664:libraries/zf_device/zf_device_gnss.c ****             zf_uart_write_buffer(GNSS_UART_INDEX, (uint8 *)open_gga, sizeof(open_gga));
 665:libraries/zf_device/zf_device_gnss.c ****             gnss_delay_ms(50);
 666:libraries/zf_device/zf_device_gnss.c ****             zf_uart_write_buffer(GNSS_UART_INDEX, (uint8 *)close_gll, sizeof(close_gll));
 667:libraries/zf_device/zf_device_gnss.c ****             gnss_delay_ms(50);
 668:libraries/zf_device/zf_device_gnss.c ****             zf_uart_write_buffer(GNSS_UART_INDEX, (uint8 *)close_gsa, sizeof(close_gsa));
 669:libraries/zf_device/zf_device_gnss.c ****             gnss_delay_ms(50);
 670:libraries/zf_device/zf_device_gnss.c ****             zf_uart_write_buffer(GNSS_UART_INDEX, (uint8 *)close_grs, sizeof(close_grs));
 671:libraries/zf_device/zf_device_gnss.c ****             gnss_delay_ms(50);
 672:libraries/zf_device/zf_device_gnss.c ****             zf_uart_write_buffer(GNSS_UART_INDEX, (uint8 *)close_gsv, sizeof(close_gsv));
 673:libraries/zf_device/zf_device_gnss.c ****             gnss_delay_ms(50);
 674:libraries/zf_device/zf_device_gnss.c ****             zf_uart_write_buffer(GNSS_UART_INDEX, (uint8 *)close_vtg, sizeof(close_vtg));
 675:libraries/zf_device/zf_device_gnss.c ****             gnss_delay_ms(50);
 676:libraries/zf_device/zf_device_gnss.c ****             zf_uart_write_buffer(GNSS_UART_INDEX, (uint8 *)close_zda, sizeof(close_zda));
 677:libraries/zf_device/zf_device_gnss.c ****             gnss_delay_ms(50);
 678:libraries/zf_device/zf_device_gnss.c ****             zf_uart_write_buffer(GNSS_UART_INDEX, (uint8 *)close_gst, sizeof(close_gst));
 679:libraries/zf_device/zf_device_gnss.c ****             gnss_delay_ms(50);
 680:libraries/zf_device/zf_device_gnss.c ****             zf_uart_write_buffer(GNSS_UART_INDEX, (uint8 *)close_txt, sizeof(close_txt));
 681:libraries/zf_device/zf_device_gnss.c ****             gnss_delay_ms(50);
 682:libraries/zf_device/zf_device_gnss.c ****             zf_uart_write_buffer(GNSS_UART_INDEX, (uint8 *)close_txt_ant, sizeof(close_txt_ant));
 683:libraries/zf_device/zf_device_gnss.c ****             gnss_delay_ms(50);
 684:libraries/zf_device/zf_device_gnss.c **** 
 685:libraries/zf_device/zf_device_gnss.c ****             gnss_state = 1;
 686:libraries/zf_device/zf_device_gnss.c ****             zf_uart_set_interrupt_callback(GNSS_UART_INDEX, gnss_uart_callback, NULL);
 687:libraries/zf_device/zf_device_gnss.c ****             zf_uart_set_interrupt_config(GNSS_UART_INDEX, UART_INTERRUPT_CONFIG_RX_ENABLE);
 688:libraries/zf_device/zf_device_gnss.c **** 
 689:libraries/zf_device/zf_device_gnss.c ****             return_state = ZF_NO_ERROR;
 690:libraries/zf_device/zf_device_gnss.c ****         }break;
 691:libraries/zf_device/zf_device_gnss.c ****         case GNSS_TYPE_GN43RFA:
 692:libraries/zf_device/zf_device_gnss.c ****         {
 693:libraries/zf_device/zf_device_gnss.c ****             // GN43RFA RTKæ¨¡å—ä¸éœ€è¦è¿›è¡Œå‚æ•°è®¾ç½®ï¼Œå¦‚æœéœ€è¦ä¿®æ”¹å‚æ•°åº”è¯¥ä½¿ç”¨ä
 694:libraries/zf_device/zf_device_gnss.c ****             zf_fifo_init(&gnss_receiver_fifo, FIFO_DATA_8BIT, gnss_receiver_buffer, GNSS_BUFFER_SIZ
 695:libraries/zf_device/zf_device_gnss.c ****             zf_uart_init(GNSS_UART_INDEX, 115200, GNSS_RX_PIN, GNSS_TX_PIN);
 696:libraries/zf_device/zf_device_gnss.c **** 
 697:libraries/zf_device/zf_device_gnss.c ****             gnss_state = 1;
 698:libraries/zf_device/zf_device_gnss.c ****             zf_uart_set_interrupt_callback(GNSS_UART_INDEX, gnss_uart_callback, NULL);
 699:libraries/zf_device/zf_device_gnss.c ****             zf_uart_set_interrupt_config(GNSS_UART_INDEX, UART_INTERRUPT_CONFIG_RX_ENABLE);
 700:libraries/zf_device/zf_device_gnss.c **** 
 701:libraries/zf_device/zf_device_gnss.c ****             return_state = ZF_NO_ERROR;
 702:libraries/zf_device/zf_device_gnss.c ****         }break;
 703:libraries/zf_device/zf_device_gnss.c ****         default:
 704:libraries/zf_device/zf_device_gnss.c ****         {
 705:libraries/zf_device/zf_device_gnss.c ****         }break;
 2332              		.loc 1 705 9
 2333 00e0 ADE0     		b	.L84
 2334              	.L81:
 654:libraries/zf_device/zf_device_gnss.c ****             gnss_delay_ms(500);                                                 // ç­‰å¾…GNSSå¯åŠ¨
 2335              		.loc 1 654 13
 2336 00e2 8023     		movs	r3, #128
 2337 00e4 644A     		ldr	r2, .L86+48
 2338 00e6 0121     		movs	r1, #1
 2339 00e8 6448     		ldr	r0, .L86+52
 2340 00ea FFF7FEFF 		bl	zf_fifo_init
 655:libraries/zf_device/zf_device_gnss.c ****             zf_uart_init(GNSS_UART_INDEX, 115200, GNSS_RX_PIN, GNSS_TX_PIN);
 2341              		.loc 1 655 13
 2342 00ee 4FF4FA70 		mov	r0, #500
 2343 00f2 FFF7FEFF 		bl	zf_delay_ms
 656:libraries/zf_device/zf_device_gnss.c **** 
 2344              		.loc 1 656 13
 2345 00f6 47F2A203 		movw	r3, #28834
 2346 00fa 47F2A302 		movw	r2, #28835
 2347 00fe 4FF4E131 		mov	r1, #115200
 2348 0102 0020     		movs	r0, #0
 2349 0104 FFF7FEFF 		bl	zf_uart_init
 659:libraries/zf_device/zf_device_gnss.c ****             gnss_delay_ms(200);   
 2350              		.loc 1 659 13
 2351 0108 24AB     		add	r3, sp, #144
 2352 010a 1C22     		movs	r2, #28
 2353 010c 1946     		mov	r1, r3
 2354 010e 0020     		movs	r0, #0
 2355 0110 FFF7FEFF 		bl	zf_uart_write_buffer
 660:libraries/zf_device/zf_device_gnss.c **** 
 2356              		.loc 1 660 13
 2357 0114 C820     		movs	r0, #200
 2358 0116 FFF7FEFF 		bl	zf_delay_ms
 662:libraries/zf_device/zf_device_gnss.c ****             gnss_delay_ms(50);    
 2359              		.loc 1 662 13
 2360 011a 1EAB     		add	r3, sp, #120
 2361 011c 0B22     		movs	r2, #11
 2362 011e 1946     		mov	r1, r3
 2363 0120 0020     		movs	r0, #0
 2364 0122 FFF7FEFF 		bl	zf_uart_write_buffer
 663:libraries/zf_device/zf_device_gnss.c ****             zf_uart_write_buffer(GNSS_UART_INDEX, (uint8 *)open_gga, sizeof(open_gga));
 2365              		.loc 1 663 13
 2366 0126 3220     		movs	r0, #50
 2367 0128 FFF7FEFF 		bl	zf_delay_ms
 664:libraries/zf_device/zf_device_gnss.c ****             gnss_delay_ms(50);
 2368              		.loc 1 664 13
 2369 012c 21AB     		add	r3, sp, #132
 2370 012e 0B22     		movs	r2, #11
 2371 0130 1946     		mov	r1, r3
 2372 0132 0020     		movs	r0, #0
 2373 0134 FFF7FEFF 		bl	zf_uart_write_buffer
 665:libraries/zf_device/zf_device_gnss.c ****             zf_uart_write_buffer(GNSS_UART_INDEX, (uint8 *)close_gll, sizeof(close_gll));
 2374              		.loc 1 665 13
 2375 0138 3220     		movs	r0, #50
 2376 013a FFF7FEFF 		bl	zf_delay_ms
 666:libraries/zf_device/zf_device_gnss.c ****             gnss_delay_ms(50);
 2377              		.loc 1 666 13
 2378 013e 1BAB     		add	r3, sp, #108
 2379 0140 0B22     		movs	r2, #11
 2380 0142 1946     		mov	r1, r3
 2381 0144 0020     		movs	r0, #0
 2382 0146 FFF7FEFF 		bl	zf_uart_write_buffer
 667:libraries/zf_device/zf_device_gnss.c ****             zf_uart_write_buffer(GNSS_UART_INDEX, (uint8 *)close_gsa, sizeof(close_gsa));
 2383              		.loc 1 667 13
 2384 014a 3220     		movs	r0, #50
 2385 014c FFF7FEFF 		bl	zf_delay_ms
 668:libraries/zf_device/zf_device_gnss.c ****             gnss_delay_ms(50);
 2386              		.loc 1 668 13
 2387 0150 18AB     		add	r3, sp, #96
 2388 0152 0B22     		movs	r2, #11
 2389 0154 1946     		mov	r1, r3
 2390 0156 0020     		movs	r0, #0
 2391 0158 FFF7FEFF 		bl	zf_uart_write_buffer
 669:libraries/zf_device/zf_device_gnss.c ****             zf_uart_write_buffer(GNSS_UART_INDEX, (uint8 *)close_grs, sizeof(close_grs));
 2392              		.loc 1 669 13
 2393 015c 3220     		movs	r0, #50
 2394 015e FFF7FEFF 		bl	zf_delay_ms
 670:libraries/zf_device/zf_device_gnss.c ****             gnss_delay_ms(50);
 2395              		.loc 1 670 13
 2396 0162 15AB     		add	r3, sp, #84
 2397 0164 0B22     		movs	r2, #11
 2398 0166 1946     		mov	r1, r3
 2399 0168 0020     		movs	r0, #0
 2400 016a FFF7FEFF 		bl	zf_uart_write_buffer
 671:libraries/zf_device/zf_device_gnss.c ****             zf_uart_write_buffer(GNSS_UART_INDEX, (uint8 *)close_gsv, sizeof(close_gsv));
 2401              		.loc 1 671 13
 2402 016e 3220     		movs	r0, #50
 2403 0170 FFF7FEFF 		bl	zf_delay_ms
 672:libraries/zf_device/zf_device_gnss.c ****             gnss_delay_ms(50);
 2404              		.loc 1 672 13
 2405 0174 12AB     		add	r3, sp, #72
 2406 0176 0B22     		movs	r2, #11
 2407 0178 1946     		mov	r1, r3
 2408 017a 0020     		movs	r0, #0
 2409 017c FFF7FEFF 		bl	zf_uart_write_buffer
 673:libraries/zf_device/zf_device_gnss.c ****             zf_uart_write_buffer(GNSS_UART_INDEX, (uint8 *)close_vtg, sizeof(close_vtg));
 2410              		.loc 1 673 13
 2411 0180 3220     		movs	r0, #50
 2412 0182 FFF7FEFF 		bl	zf_delay_ms
 674:libraries/zf_device/zf_device_gnss.c ****             gnss_delay_ms(50);
 2413              		.loc 1 674 13
 2414 0186 0FAB     		add	r3, sp, #60
 2415 0188 0B22     		movs	r2, #11
 2416 018a 1946     		mov	r1, r3
 2417 018c 0020     		movs	r0, #0
 2418 018e FFF7FEFF 		bl	zf_uart_write_buffer
 675:libraries/zf_device/zf_device_gnss.c ****             zf_uart_write_buffer(GNSS_UART_INDEX, (uint8 *)close_zda, sizeof(close_zda));
 2419              		.loc 1 675 13
 2420 0192 3220     		movs	r0, #50
 2421 0194 FFF7FEFF 		bl	zf_delay_ms
 676:libraries/zf_device/zf_device_gnss.c ****             gnss_delay_ms(50);
 2422              		.loc 1 676 13
 2423 0198 0CAB     		add	r3, sp, #48
 2424 019a 0B22     		movs	r2, #11
 2425 019c 1946     		mov	r1, r3
 2426 019e 0020     		movs	r0, #0
 2427 01a0 FFF7FEFF 		bl	zf_uart_write_buffer
 677:libraries/zf_device/zf_device_gnss.c ****             zf_uart_write_buffer(GNSS_UART_INDEX, (uint8 *)close_gst, sizeof(close_gst));
 2428              		.loc 1 677 13
 2429 01a4 3220     		movs	r0, #50
 2430 01a6 FFF7FEFF 		bl	zf_delay_ms
 678:libraries/zf_device/zf_device_gnss.c ****             gnss_delay_ms(50);
 2431              		.loc 1 678 13
 2432 01aa 09AB     		add	r3, sp, #36
 2433 01ac 0B22     		movs	r2, #11
 2434 01ae 1946     		mov	r1, r3
 2435 01b0 0020     		movs	r0, #0
 2436 01b2 FFF7FEFF 		bl	zf_uart_write_buffer
 679:libraries/zf_device/zf_device_gnss.c ****             zf_uart_write_buffer(GNSS_UART_INDEX, (uint8 *)close_txt, sizeof(close_txt));
 2437              		.loc 1 679 13
 2438 01b6 3220     		movs	r0, #50
 2439 01b8 FFF7FEFF 		bl	zf_delay_ms
 680:libraries/zf_device/zf_device_gnss.c ****             gnss_delay_ms(50);
 2440              		.loc 1 680 13
 2441 01bc 06AB     		add	r3, sp, #24
 2442 01be 0B22     		movs	r2, #11
 2443 01c0 1946     		mov	r1, r3
 2444 01c2 0020     		movs	r0, #0
 2445 01c4 FFF7FEFF 		bl	zf_uart_write_buffer
 681:libraries/zf_device/zf_device_gnss.c ****             zf_uart_write_buffer(GNSS_UART_INDEX, (uint8 *)close_txt_ant, sizeof(close_txt_ant));
 2446              		.loc 1 681 13
 2447 01c8 3220     		movs	r0, #50
 2448 01ca FFF7FEFF 		bl	zf_delay_ms
 682:libraries/zf_device/zf_device_gnss.c ****             gnss_delay_ms(50);
 2449              		.loc 1 682 13
 2450 01ce 03AB     		add	r3, sp, #12
 2451 01d0 0B22     		movs	r2, #11
 2452 01d2 1946     		mov	r1, r3
 2453 01d4 0020     		movs	r0, #0
 2454 01d6 FFF7FEFF 		bl	zf_uart_write_buffer
 683:libraries/zf_device/zf_device_gnss.c **** 
 2455              		.loc 1 683 13
 2456 01da 3220     		movs	r0, #50
 2457 01dc FFF7FEFF 		bl	zf_delay_ms
 685:libraries/zf_device/zf_device_gnss.c ****             zf_uart_set_interrupt_callback(GNSS_UART_INDEX, gnss_uart_callback, NULL);
 2458              		.loc 1 685 24
 2459 01e0 274B     		ldr	r3, .L86+56
 2460 01e2 0122     		movs	r2, #1
 2461 01e4 1A70     		strb	r2, [r3]
 686:libraries/zf_device/zf_device_gnss.c ****             zf_uart_set_interrupt_config(GNSS_UART_INDEX, UART_INTERRUPT_CONFIG_RX_ENABLE);
 2462              		.loc 1 686 13
 2463 01e6 0022     		movs	r2, #0
 2464 01e8 2649     		ldr	r1, .L86+60
 2465 01ea 0020     		movs	r0, #0
 2466 01ec FFF7FEFF 		bl	zf_uart_set_interrupt_callback
 687:libraries/zf_device/zf_device_gnss.c **** 
 2467              		.loc 1 687 13
 2468 01f0 0421     		movs	r1, #4
 2469 01f2 0020     		movs	r0, #0
 2470 01f4 FFF7FEFF 		bl	zf_uart_set_interrupt_config
 689:libraries/zf_device/zf_device_gnss.c ****         }break;
 2471              		.loc 1 689 26
 2472 01f8 0023     		movs	r3, #0
 2473 01fa 8DF8AF30 		strb	r3, [sp, #175]
 690:libraries/zf_device/zf_device_gnss.c ****         case GNSS_TYPE_GN43RFA:
 2474              		.loc 1 690 9
 2475 01fe 1EE0     		b	.L84
 2476              	.L82:
 694:libraries/zf_device/zf_device_gnss.c ****             zf_uart_init(GNSS_UART_INDEX, 115200, GNSS_RX_PIN, GNSS_TX_PIN);
 2477              		.loc 1 694 13
 2478 0200 8023     		movs	r3, #128
 2479 0202 1D4A     		ldr	r2, .L86+48
 2480 0204 0121     		movs	r1, #1
 2481 0206 1D48     		ldr	r0, .L86+52
 2482 0208 FFF7FEFF 		bl	zf_fifo_init
 695:libraries/zf_device/zf_device_gnss.c **** 
 2483              		.loc 1 695 13
 2484 020c 47F2A203 		movw	r3, #28834
 2485 0210 47F2A302 		movw	r2, #28835
 2486 0214 4FF4E131 		mov	r1, #115200
 2487 0218 0020     		movs	r0, #0
 2488 021a FFF7FEFF 		bl	zf_uart_init
 697:libraries/zf_device/zf_device_gnss.c ****             zf_uart_set_interrupt_callback(GNSS_UART_INDEX, gnss_uart_callback, NULL);
 2489              		.loc 1 697 24
 2490 021e 184B     		ldr	r3, .L86+56
 2491 0220 0122     		movs	r2, #1
 2492 0222 1A70     		strb	r2, [r3]
 698:libraries/zf_device/zf_device_gnss.c ****             zf_uart_set_interrupt_config(GNSS_UART_INDEX, UART_INTERRUPT_CONFIG_RX_ENABLE);
 2493              		.loc 1 698 13
 2494 0224 0022     		movs	r2, #0
 2495 0226 1749     		ldr	r1, .L86+60
 2496 0228 0020     		movs	r0, #0
 2497 022a FFF7FEFF 		bl	zf_uart_set_interrupt_callback
 699:libraries/zf_device/zf_device_gnss.c **** 
 2498              		.loc 1 699 13
 2499 022e 0421     		movs	r1, #4
 2500 0230 0020     		movs	r0, #0
 2501 0232 FFF7FEFF 		bl	zf_uart_set_interrupt_config
 701:libraries/zf_device/zf_device_gnss.c ****         }break;
 2502              		.loc 1 701 26
 2503 0236 0023     		movs	r3, #0
 2504 0238 8DF8AF30 		strb	r3, [sp, #175]
 702:libraries/zf_device/zf_device_gnss.c ****         default:
 2505              		.loc 1 702 9
 2506 023c 00BF     		nop
 2507              	.L84:
 706:libraries/zf_device/zf_device_gnss.c ****     }
 707:libraries/zf_device/zf_device_gnss.c **** 
 708:libraries/zf_device/zf_device_gnss.c ****     return return_state;
 2508              		.loc 1 708 12
 2509 023e 9DF8AF30 		ldrb	r3, [sp, #175]	@ zero_extendqisi2
 709:libraries/zf_device/zf_device_gnss.c **** }
 2510              		.loc 1 709 1
 2511 0242 1846     		mov	r0, r3
 2512 0244 2DB0     		add	sp, sp, #180
 2513              		.cfi_def_cfa_offset 12
 2514              		@ sp needed
 2515 0246 30BD     		pop	{r4, r5, pc}
 2516              	.L87:
 2517              		.align	2
 2518              	.L86:
 2519 0248 14000000 		.word	.LC4
 2520 024c 30000000 		.word	.LC5
 2521 0250 3C000000 		.word	.LC6
 2522 0254 48000000 		.word	.LC7
 2523 0258 54000000 		.word	.LC8
 2524 025c 60000000 		.word	.LC9
 2525 0260 6C000000 		.word	.LC10
 2526 0264 78000000 		.word	.LC11
 2527 0268 84000000 		.word	.LC12
 2528 026c 90000000 		.word	.LC13
 2529 0270 9C000000 		.word	.LC14
 2530 0274 A8000000 		.word	.LC15
 2531 0278 00000000 		.word	gnss_receiver_buffer
 2532 027c 00000000 		.word	gnss_receiver_fifo
 2533 0280 00000000 		.word	gnss_state
 2534 0284 00000000 		.word	gnss_uart_callback
 2535              		.cfi_endproc
 2536              	.LFE494:
 2538              		.text
 2539              	.Letext0:
 2540              		.file 2 "libraries/zf_common/zf_common_typedef.h"
 2541              		.file 3 "C:/StellarStudio-7.0/SDKS/StellarESDK-1.7.0/Modules/Platform/MCU/include/sr5e1/sr5e1xx.h"
 2542              		.file 4 "libraries/zf_common/zf_common_fifo.h"
 2543              		.file 5 "libraries/zf_driver/zf_driver_gpio.h"
 2544              		.file 6 "libraries/zf_driver/zf_driver_adc.h"
 2545              		.file 7 "libraries/zf_driver/zf_driver_can.h"
 2546              		.file 8 "libraries/zf_driver/zf_driver_encoder.h"
 2547              		.file 9 "libraries/zf_driver/zf_driver_exti.h"
 2548              		.file 10 "libraries/zf_driver/zf_driver_hrtim.h"
 2549              		.file 11 "libraries/zf_driver/zf_driver_pwm.h"
 2550              		.file 12 "libraries/zf_driver/zf_driver_spi.h"
 2551              		.file 13 "libraries/zf_driver/zf_driver_uart.h"
 2552              		.file 14 "libraries/zf_device/zf_device_gnss.h"