   1              		.cpu cortex-m7
   2              		.arch armv7e-m
   3              		.fpu fpv5-d16
   4              		.eabi_attribute 28, 1
   5              		.eabi_attribute 20, 1
   6              		.eabi_attribute 21, 1
   7              		.eabi_attribute 23, 3
   8              		.eabi_attribute 24, 1
   9              		.eabi_attribute 25, 1
  10              		.eabi_attribute 26, 1
  11              		.eabi_attribute 30, 6
  12              		.eabi_attribute 34, 1
  13              		.eabi_attribute 18, 4
  14              		.file	"my_flash.c"
  15              		.text
  16              	.Ltext0:
  17              		.cfi_sections	.debug_frame
  18              		.global	point1
  19              		.section	.bss.point1,"aw",%nobits
  20              		.align	3
  23              	point1:
  24 0000 00000000 		.space	640
  24      00000000 
  24      00000000 
  24      00000000 
  24      00000000 
  25              		.global	exposure_time_save
  26              		.section	.bss.exposure_time_save,"aw",%nobits
  27              		.align	2
  30              	exposure_time_save:
  31 0000 0000     		.space	2
  32              		.section	.text.Flash_Save_Point1,"ax",%progbits
  33              		.align	1
  34              		.p2align 4,,15
  35              		.global	Flash_Save_Point1
  36              		.syntax unified
  37              		.thumb
  38              		.thumb_func
  40              	Flash_Save_Point1:
  41              	.LFB482:
  42              		.file 1 "user_code/my_flash.c"
   1:user_code/my_flash.c **** /*
   2:user_code/my_flash.c ****  * my_flash.c
   3:user_code/my_flash.c ****  *
   4:user_code/my_flash.c ****  *  Created on: 2025年1月9日
   5:user_code/my_flash.c ****  *      Author: ever.youthful
   6:user_code/my_flash.c ****  */
   7:user_code/my_flash.c **** #include "zf_libraries_headfile.h"
   8:user_code/my_flash.c **** double point1[point_num_max*2];
   9:user_code/my_flash.c **** 
  10:user_code/my_flash.c ****  uint16 exposure_time_save[1];
  11:user_code/my_flash.c **** 
  12:user_code/my_flash.c **** void Flash_Save_Point1(void)
  13:user_code/my_flash.c **** {
  43              		.loc 1 13 1
  44              		.cfi_startproc
  45              		@ args = 0, pretend = 0, frame = 0
  46              		@ frame_needed = 0, uses_anonymous_args = 0
  47 0000 08B5     		push	{r3, lr}
  48              		.cfi_def_cfa_offset 8
  49              		.cfi_offset 3, -8
  50              		.cfi_offset 14, -4
  14:user_code/my_flash.c ****    if (zf_flash_check_page(0, 0) == 1)
  51              		.loc 1 14 8
  52 0002 0021     		movs	r1, #0
  53 0004 0020     		movs	r0, #0
  54 0006 FFF7FEFF 		bl	zf_flash_check_page
  55 000a 0346     		mov	r3, r0
  56              		.loc 1 14 7
  57 000c 012B     		cmp	r3, #1
  58 000e 03D1     		bne	.L2
  15:user_code/my_flash.c ****     {
  16:user_code/my_flash.c **** 	   zf_flash_erase_page(0, 0);
  59              		.loc 1 16 5
  60 0010 0021     		movs	r1, #0
  61 0012 0020     		movs	r0, #0
  62 0014 FFF7FEFF 		bl	zf_flash_erase_page
  63              	.L2:
  17:user_code/my_flash.c ****     }
  18:user_code/my_flash.c **** 
  19:user_code/my_flash.c ****    zf_flash_write_page(0, 0, (uint32*)point1,400); //从第2页中写入数据
  64              		.loc 1 19 4
  65 0018 4FF4C873 		mov	r3, #400
  66 001c 034A     		ldr	r2, .L3
  67 001e 0021     		movs	r1, #0
  68 0020 0020     		movs	r0, #0
  69 0022 FFF7FEFF 		bl	zf_flash_write_page
  20:user_code/my_flash.c **** 
  21:user_code/my_flash.c **** }
  70              		.loc 1 21 1
  71 0026 00BF     		nop
  72 0028 08BD     		pop	{r3, pc}
  73              	.L4:
  74 002a 00BF     		.align	2
  75              	.L3:
  76 002c 00000000 		.word	point1
  77              		.cfi_endproc
  78              	.LFE482:
  80              		.section	.text.Flash_read_Point1,"ax",%progbits
  81              		.align	1
  82              		.p2align 4,,15
  83              		.global	Flash_read_Point1
  84              		.syntax unified
  85              		.thumb
  86              		.thumb_func
  88              	Flash_read_Point1:
  89              	.LFB483:
  22:user_code/my_flash.c **** 
  23:user_code/my_flash.c **** void Flash_read_Point1(void)
  24:user_code/my_flash.c **** {
  90              		.loc 1 24 1
  91              		.cfi_startproc
  92              		@ args = 0, pretend = 0, frame = 0
  93              		@ frame_needed = 0, uses_anonymous_args = 0
  94 0000 08B5     		push	{r3, lr}
  95              		.cfi_def_cfa_offset 8
  96              		.cfi_offset 3, -8
  97              		.cfi_offset 14, -4
  25:user_code/my_flash.c **** 
  26:user_code/my_flash.c ****    zf_flash_read_page(0, 0,(uint32*) point1,400); //从第二页中读取数据
  98              		.loc 1 26 4
  99 0002 4FF4C873 		mov	r3, #400
 100 0006 034A     		ldr	r2, .L6
 101 0008 0021     		movs	r1, #0
 102 000a 0020     		movs	r0, #0
 103 000c FFF7FEFF 		bl	zf_flash_read_page
  27:user_code/my_flash.c **** }
 104              		.loc 1 27 1
 105 0010 00BF     		nop
 106 0012 08BD     		pop	{r3, pc}
 107              	.L7:
 108              		.align	2
 109              	.L6:
 110 0014 00000000 		.word	point1
 111              		.cfi_endproc
 112              	.LFE483:
 114              		.section	.text.Flash_Save_index,"ax",%progbits
 115              		.align	1
 116              		.p2align 4,,15
 117              		.global	Flash_Save_index
 118              		.syntax unified
 119              		.thumb
 120              		.thumb_func
 122              	Flash_Save_index:
 123              	.LFB484:
  28:user_code/my_flash.c **** 
  29:user_code/my_flash.c **** 
  30:user_code/my_flash.c **** void Flash_Save_index(void)
  31:user_code/my_flash.c **** {
 124              		.loc 1 31 1
 125              		.cfi_startproc
 126              		@ args = 0, pretend = 0, frame = 0
 127              		@ frame_needed = 0, uses_anonymous_args = 0
 128 0000 08B5     		push	{r3, lr}
 129              		.cfi_def_cfa_offset 8
 130              		.cfi_offset 3, -8
 131              		.cfi_offset 14, -4
  32:user_code/my_flash.c **** 
  33:user_code/my_flash.c ****      if (zf_flash_check_page(0,1) == 1)
 132              		.loc 1 33 10
 133 0002 0121     		movs	r1, #1
 134 0004 0020     		movs	r0, #0
 135 0006 FFF7FEFF 		bl	zf_flash_check_page
 136 000a 0346     		mov	r3, r0
 137              		.loc 1 33 9
 138 000c 012B     		cmp	r3, #1
 139 000e 03D1     		bne	.L9
  34:user_code/my_flash.c ****     {
  35:user_code/my_flash.c ****     	 zf_flash_erase_page(0, 1);
 140              		.loc 1 35 7
 141 0010 0121     		movs	r1, #1
 142 0012 0020     		movs	r0, #0
 143 0014 FFF7FEFF 		bl	zf_flash_erase_page
 144              	.L9:
  36:user_code/my_flash.c ****     }
  37:user_code/my_flash.c **** 
  38:user_code/my_flash.c ****      zf_flash_write_page(0,1,(uint32*)gps_index_save, 20);
 145              		.loc 1 38 6
 146 0018 1423     		movs	r3, #20
 147 001a 034A     		ldr	r2, .L10
 148 001c 0121     		movs	r1, #1
 149 001e 0020     		movs	r0, #0
 150 0020 FFF7FEFF 		bl	zf_flash_write_page
  39:user_code/my_flash.c **** 
  40:user_code/my_flash.c **** }
 151              		.loc 1 40 1
 152 0024 00BF     		nop
 153 0026 08BD     		pop	{r3, pc}
 154              	.L11:
 155              		.align	2
 156              	.L10:
 157 0028 00000000 		.word	gps_index_save
 158              		.cfi_endproc
 159              	.LFE484:
 161              		.section	.text.Flash_read_index,"ax",%progbits
 162              		.align	1
 163              		.p2align 4,,15
 164              		.global	Flash_read_index
 165              		.syntax unified
 166              		.thumb
 167              		.thumb_func
 169              	Flash_read_index:
 170              	.LFB485:
  41:user_code/my_flash.c **** void Flash_read_index(void)
  42:user_code/my_flash.c **** {
 171              		.loc 1 42 1
 172              		.cfi_startproc
 173              		@ args = 0, pretend = 0, frame = 0
 174              		@ frame_needed = 0, uses_anonymous_args = 0
 175 0000 08B5     		push	{r3, lr}
 176              		.cfi_def_cfa_offset 8
 177              		.cfi_offset 3, -8
 178              		.cfi_offset 14, -4
  43:user_code/my_flash.c **** 
  44:user_code/my_flash.c **** 	zf_flash_read_page(0, 1,(uint32*) gps_index_save, 20);
 179              		.loc 1 44 2
 180 0002 1423     		movs	r3, #20
 181 0004 034A     		ldr	r2, .L13
 182 0006 0121     		movs	r1, #1
 183 0008 0020     		movs	r0, #0
 184 000a FFF7FEFF 		bl	zf_flash_read_page
  45:user_code/my_flash.c **** }
 185              		.loc 1 45 1
 186 000e 00BF     		nop
 187 0010 08BD     		pop	{r3, pc}
 188              	.L14:
 189 0012 00BF     		.align	2
 190              	.L13:
 191 0014 00000000 		.word	gps_index_save
 192              		.cfi_endproc
 193              	.LFE485:
 195              		.text
 196              	.Letext0:
 197              		.file 2 "libraries/zf_common/zf_common_typedef.h"
 198              		.file 3 "C:/StellarStudio-7.0/SDKS/StellarESDK-1.7.0/Modules/Platform/MCU/include/sr5e1/sr5e1xx.h"
 199              		.file 4 "libraries/zf_driver/zf_driver_gpio.h"
 200              		.file 5 "libraries/zf_driver/zf_driver_adc.h"
 201              		.file 6 "libraries/zf_driver/zf_driver_can.h"
 202              		.file 7 "libraries/zf_driver/zf_driver_encoder.h"
 203              		.file 8 "libraries/zf_driver/zf_driver_exti.h"
 204              		.file 9 "libraries/zf_driver/zf_driver_hrtim.h"
 205              		.file 10 "libraries/zf_driver/zf_driver_pwm.h"
 206              		.file 11 "libraries/zf_driver/zf_driver_spi.h"
 207              		.file 12 "libraries/zf_driver/zf_driver_uart.h"
 208              		.file 13 "libraries/zf_device/zf_device_imu_interface.h"
 209              		.file 14 "libraries/zf_device/zf_device_wireless_interface.h"
 210              		.file 15 "libraries/zf_device/zf_device_display_interface.h"
 211              		.file 16 "user_code/key.h"
 212              		.file 17 "user_code/my_flash.h"