   1              		.cpu cortex-m7
   2              		.arch armv7e-m
   3              		.fpu fpv5-d16
   4              		.eabi_attribute 28, 1
   5              		.eabi_attribute 20, 1
   6              		.eabi_attribute 21, 1
   7              		.eabi_attribute 23, 3
   8              		.eabi_attribute 24, 1
   9              		.eabi_attribute 25, 1
  10              		.eabi_attribute 26, 1
  11              		.eabi_attribute 30, 6
  12              		.eabi_attribute 34, 1
  13              		.eabi_attribute 18, 4
  14              		.file	"zf_common_debug.c"
  15              		.text
  16              	.Ltext0:
  17              		.cfi_sections	.debug_frame
  18              		.section	.bss.debug_output_obj,"aw",%nobits
  19              		.align	2
  22              	debug_output_obj:
  23 0000 00000000 		.space	20
  23      00000000 
  23      00000000 
  23      00000000 
  23      00000000 
  24              		.section	.bss.debug_uart_buffer,"aw",%nobits
  25              		.align	2
  28              	debug_uart_buffer:
  29 0000 00000000 		.space	64
  29      00000000 
  29      00000000 
  29      00000000 
  29      00000000 
  30              		.section	.data.debug_uart_fifo,"aw"
  31              		.align	2
  34              	debug_uart_fifo:
  35 0000 00000000 		.word	0
  36 0004 00000000 		.word	0
  37 0008 00000000 		.word	0
  38 000c 00000000 		.word	0
  39 0010 01       		.byte	1
  40 0011 00       		.byte	0
  41 0012 0000     		.space	2
  42              		.section	.text._write,"ax",%progbits
  43              		.align	1
  44              		.p2align 4,,15
  45              		.global	_write
  46              		.syntax unified
  47              		.thumb
  48              		.thumb_func
  50              	_write:
  51              	.LFB482:
  52              		.file 1 "libraries/zf_common/zf_common_debug.c"
   1:libraries/zf_common/zf_common_debug.c **** /**************************************************************************************************
   2:libraries/zf_common/zf_common_debug.c **** * Stellar-SR5E1E3 Opensource Library å³ï¼ˆStellar-SR5E1E3 å¼€æºåº“ï¼‰æ˜¯ä¸€ä¸ªåŸºäºå®˜æ–¹ SDK æ
   3:libraries/zf_common/zf_common_debug.c **** * Copyright (c) 2022 SEEKFREE é€é£ç§‘æŠ€
   4:libraries/zf_common/zf_common_debug.c **** *
   5:libraries/zf_common/zf_common_debug.c **** * æœ¬æ–‡ä»¶æ˜¯ Stellar-SR5E1E3 å¼€æºåº“çš„ä¸€éƒ¨åˆ†
   6:libraries/zf_common/zf_common_debug.c **** *
   7:libraries/zf_common/zf_common_debug.c **** * Stellar-SR5E1E3 å¼€æºåº“ æ˜¯å…è´¹è½¯ä»¶
   8:libraries/zf_common/zf_common_debug.c **** * æ‚¨å¯ä»¥æ ¹æ®è‡ªç”±è½¯ä»¶åŸºé‡‘ä¼šå‘å¸ƒçš„ GPLï¼ˆGNU General Public Licenseï¼Œå³ GNUé€šç”¨å…¬
   9:libraries/zf_common/zf_common_debug.c **** * å³ GPL çš„ç¬¬3ç‰ˆï¼ˆå³ GPL3.0ï¼‰æˆ–ï¼ˆæ‚¨é€‰æ‹©çš„ï¼‰ä»»ä½•åæ¥çš„ç‰ˆæœ¬ï¼Œé‡æ–°å‘å¸ƒå’Œ/æˆ
  10:libraries/zf_common/zf_common_debug.c **** *
  11:libraries/zf_common/zf_common_debug.c **** * æœ¬å¼€æºåº“çš„å‘å¸ƒæ˜¯å¸Œæœ›å®ƒèƒ½å‘æŒ¥ä½œç”¨ï¼Œä½†å¹¶æœªå¯¹å…¶ä½œä»»ä½•çš„ä¿è¯
  12:libraries/zf_common/zf_common_debug.c **** * ç”šè‡³æ²¡æœ‰éšå«çš„é€‚é”€æ€§æˆ–é€‚åˆç‰¹å®šç”¨é€”çš„ä¿è¯
  13:libraries/zf_common/zf_common_debug.c **** * æ›´å¤šç»†èŠ‚è¯·å‚è§ GPL
  14:libraries/zf_common/zf_common_debug.c **** *
  15:libraries/zf_common/zf_common_debug.c **** * æ‚¨åº”è¯¥åœ¨æ”¶åˆ°æœ¬å¼€æºåº“çš„åŒæ—¶æ”¶åˆ°ä¸€ä»½ GPL çš„å‰¯æœ¬
  16:libraries/zf_common/zf_common_debug.c **** * å¦‚æœæ²¡æœ‰ï¼Œè¯·å‚é˜…<https://www.gnu.org/licenses/>
  17:libraries/zf_common/zf_common_debug.c **** *
  18:libraries/zf_common/zf_common_debug.c **** * é¢å¤–æ³¨æ˜ï¼š
  19:libraries/zf_common/zf_common_debug.c **** * æœ¬å¼€æºåº“ä½¿ç”¨ GPL3.0 å¼€æºè®¸å¯è¯åè®® ä»¥ä¸Šè®¸å¯ç”³æ˜ä¸ºè¯‘æ–‡ç‰ˆæœ¬
  20:libraries/zf_common/zf_common_debug.c **** * è®¸å¯ç”³æ˜è‹±æ–‡ç‰ˆåœ¨ libraries/doc æ–‡ä»¶å¤¹ä¸‹çš„ GPL3_permission_statement.txt æ–‡ä»¶ä¸­
  21:libraries/zf_common/zf_common_debug.c **** * è®¸å¯è¯å‰¯æœ¬åœ¨ libraries æ–‡ä»¶å¤¹ä¸‹ å³è¯¥æ–‡ä»¶å¤¹ä¸‹çš„ LICENSE æ–‡ä»¶
  22:libraries/zf_common/zf_common_debug.c **** * æ¬¢è¿å„ä½ä½¿ç”¨å¹¶ä¼ æ’­æœ¬ç¨‹åº ä½†ä¿®æ”¹å†…å®¹æ—¶å¿…é¡»ä¿ç•™é€é£ç§‘æŠ€çš„ç‰ˆæƒå£°æ˜ï¼ˆ
  23:libraries/zf_common/zf_common_debug.c **** *
  24:libraries/zf_common/zf_common_debug.c **** * æ–‡ä»¶åç§°          zf_common_debug
  25:libraries/zf_common/zf_common_debug.c **** * å…¬å¸åç§°          æˆéƒ½é€é£ç§‘æŠ€æœ‰é™å…¬å¸
  26:libraries/zf_common/zf_common_debug.c **** * ç‰ˆæœ¬ä¿¡æ¯          æŸ¥çœ‹ libraries/doc æ–‡ä»¶å¤¹å†… version æ–‡ä»¶ ç‰ˆæœ¬è¯´æ˜
  27:libraries/zf_common/zf_common_debug.c **** * å¼€å‘ç¯å¢ƒ          StellarStudio 7.0.0
  28:libraries/zf_common/zf_common_debug.c **** * é€‚ç”¨å¹³å°          Stellar-SR5E1E3
  29:libraries/zf_common/zf_common_debug.c **** * åº—é“ºé“¾æ¥          https://www.seekfree.cn/
  30:libraries/zf_common/zf_common_debug.c **** ***************************************************************************************************
  31:libraries/zf_common/zf_common_debug.c **** 
  32:libraries/zf_common/zf_common_debug.c **** // zf_common å±‚å¼•ç”¨
  33:libraries/zf_common/zf_common_debug.c **** #include "zf_common_fifo.h"
  34:libraries/zf_common/zf_common_debug.c **** #include "zf_common_memory.h"
  35:libraries/zf_common/zf_common_debug.c **** #include "zf_libraries_headfile.h"
  36:libraries/zf_common/zf_common_debug.c **** // è‡ªèº«å¤´æ–‡ä»¶
  37:libraries/zf_common/zf_common_debug.c **** #include "zf_common_debug.h"
  38:libraries/zf_common/zf_common_debug.c **** 
  39:libraries/zf_common/zf_common_debug.c **** // æ­¤å¤„å®šä¹‰ æœ¬æ–‡ä»¶ç”¨ä½¿ç”¨çš„å˜é‡ä¸å¯¹è±¡ç­‰ è¿™é‡Œä¸å…è®¸ç”¨æˆ·ä¿®æ”¹
  40:libraries/zf_common/zf_common_debug.c **** // >>>>>>>>>>>>>>>>>>>>>>>>>>>>>>>>>>>>>>>>> Part Start >>>>>>>>>>>>>>>>>>>>>>>>>>>>>>>>>>>>>>>>>
  41:libraries/zf_common/zf_common_debug.c **** // å­˜å‚¨äºé¢„å¼€è¾Ÿçš„å†…å­˜æ± ä¸­çš„ç®¡ç†ä¿¡æ¯ æœ¬éƒ¨åˆ†å¯¹äºç”¨æˆ·æ¥è¯´æ˜¯ä¸å¼€æ”¾çš„
  42:libraries/zf_common/zf_common_debug.c **** AT_ZF_LIB_SECTION_START
  43:libraries/zf_common/zf_common_debug.c **** AT_ZF_LIB_SECTION static debug_obj_struct    debug_output_obj =
  44:libraries/zf_common/zf_common_debug.c **** {
  45:libraries/zf_common/zf_common_debug.c ****     .type_index             = DEBUG_OBJ_TYPE_NULL,
  46:libraries/zf_common/zf_common_debug.c ****     .display_x_max          = 0,
  47:libraries/zf_common/zf_common_debug.c ****     .display_y_max          = 0,
  48:libraries/zf_common/zf_common_debug.c ****     .font_x_size            = 0,
  49:libraries/zf_common/zf_common_debug.c ****     .font_y_size            = 0,
  50:libraries/zf_common/zf_common_debug.c ****     .device_obj             = NULL,
  51:libraries/zf_common/zf_common_debug.c ****     .output_uart            = NULL,
  52:libraries/zf_common/zf_common_debug.c ****     .output_screen_clear    = NULL
  53:libraries/zf_common/zf_common_debug.c **** };
  54:libraries/zf_common/zf_common_debug.c **** 
  55:libraries/zf_common/zf_common_debug.c **** #if DEBUG_UART_USE_INTERRUPT                                                    // å¦‚æœå¯ç”¨ deb
  56:libraries/zf_common/zf_common_debug.c **** AT_ZF_LIB_SECTION static uint8               debug_uart_buffer[DEBUG_RING_BUFFER_LEN] = {0};
  57:libraries/zf_common/zf_common_debug.c **** AT_ZF_LIB_SECTION static zf_fifo_obj_struct  debug_uart_fifo =
  58:libraries/zf_common/zf_common_debug.c **** {
  59:libraries/zf_common/zf_common_debug.c ****     .base_ptr       = 0,
  60:libraries/zf_common/zf_common_debug.c ****     .tail_ptr       = 0,
  61:libraries/zf_common/zf_common_debug.c ****     .write_ptr      = 0,
  62:libraries/zf_common/zf_common_debug.c ****     .read_ptr       = 0,
  63:libraries/zf_common/zf_common_debug.c ****     .step           = FIFO_DATA_8BIT,
  64:libraries/zf_common/zf_common_debug.c ****     .state          = 0
  65:libraries/zf_common/zf_common_debug.c **** };
  66:libraries/zf_common/zf_common_debug.c **** #endif
  67:libraries/zf_common/zf_common_debug.c **** AT_ZF_LIB_SECTION_END
  68:libraries/zf_common/zf_common_debug.c **** // <<<<<<<<<<<<<<<<<<<<<<<<<<<<<<<<<<<<<<<<< Part   End <<<<<<<<<<<<<<<<<<<<<<<<<<<<<<<<<<<<<<<<<
  69:libraries/zf_common/zf_common_debug.c **** 
  70:libraries/zf_common/zf_common_debug.c **** // æ­¤å¤„å®šä¹‰ æœ¬æ–‡ä»¶çš„å¤–éƒ¨é‡è½½å‡½æ•° è¿™é‡Œä¸å…è®¸ç”¨æˆ·ä¿®æ”¹
  71:libraries/zf_common/zf_common_debug.c **** // >>>>>>>>>>>>>>>>>>>>>>>>>>>>>>>>>>>>>>>>> Part Start >>>>>>>>>>>>>>>>>>>>>>>>>>>>>>>>>>>>>>>>>
  72:libraries/zf_common/zf_common_debug.c **** //-------------------------------------------------------------------------------------------------
  73:libraries/zf_common/zf_common_debug.c **** // å‡½æ•°ç®€ä»‹     é‡å®šå‘ printf åˆ°ä¸²å£
  74:libraries/zf_common/zf_common_debug.c **** // å‚æ•°è¯´æ˜     size                éœ€è¦æ‰“å°çš„é•¿åº¦
  75:libraries/zf_common/zf_common_debug.c **** // å‚æ•°è¯´æ˜     buf                 æ•°æ®æµ
  76:libraries/zf_common/zf_common_debug.c **** // è¿”å›å‚æ•°     int                 è¾“å‡ºçš„æ•°æ®æ•°é‡
  77:libraries/zf_common/zf_common_debug.c **** // å¤‡æ³¨ä¿¡æ¯     æ­¤å‡½æ•°ç”±ç¼–è¯‘å™¨è‡ªå¸¦åº“é‡Œçš„printfæ‰€è°ƒç”¨
  78:libraries/zf_common/zf_common_debug.c **** //-------------------------------------------------------------------------------------------------
  79:libraries/zf_common/zf_common_debug.c **** int _write(int fd, uint8_t *buf, int size)
  80:libraries/zf_common/zf_common_debug.c **** {
  53              		.loc 1 80 1
  54              		.cfi_startproc
  55              		@ args = 0, pretend = 0, frame = 16
  56              		@ frame_needed = 0, uses_anonymous_args = 0
  57 0000 00B5     		push	{lr}
  58              		.cfi_def_cfa_offset 4
  59              		.cfi_offset 14, -4
  60 0002 85B0     		sub	sp, sp, #20
  61              		.cfi_def_cfa_offset 24
  62 0004 0390     		str	r0, [sp, #12]
  63 0006 0291     		str	r1, [sp, #8]
  64 0008 0192     		str	r2, [sp, #4]
  81:libraries/zf_common/zf_common_debug.c ****     (void)fd;
  82:libraries/zf_common/zf_common_debug.c ****     debug_uart_transfer_handler(buf, size, NULL, 0);
  65              		.loc 1 82 5
  66 000a 0199     		ldr	r1, [sp, #4]
  67 000c 0023     		movs	r3, #0
  68 000e 0022     		movs	r2, #0
  69 0010 0298     		ldr	r0, [sp, #8]
  70 0012 FFF7FEFF 		bl	debug_uart_transfer_handler
  83:libraries/zf_common/zf_common_debug.c ****     return size;
  71              		.loc 1 83 12
  72 0016 019B     		ldr	r3, [sp, #4]
  84:libraries/zf_common/zf_common_debug.c **** }
  73              		.loc 1 84 1
  74 0018 1846     		mov	r0, r3
  75 001a 05B0     		add	sp, sp, #20
  76              		.cfi_def_cfa_offset 4
  77              		@ sp needed
  78 001c 5DF804FB 		ldr	pc, [sp], #4
  79              		.cfi_endproc
  80              	.LFE482:
  82              		.section	.data.heap_base.1,"aw"
  83              		.align	2
  86              	heap_base.1:
  87 0000 00000000 		.word	__heap_base__
  88              		.section	.text._sbrk,"ax",%progbits
  89              		.align	1
  90              		.p2align 4,,15
  91              		.global	_sbrk
  92              		.syntax unified
  93              		.thumb
  94              		.thumb_func
  96              	_sbrk:
  97              	.LFB483:
  85:libraries/zf_common/zf_common_debug.c **** 
  86:libraries/zf_common/zf_common_debug.c **** #if !defined(__ICCARM__)
  87:libraries/zf_common/zf_common_debug.c **** 
  88:libraries/zf_common/zf_common_debug.c **** #include <stdio.h>
  89:libraries/zf_common/zf_common_debug.c **** #include <errno.h>
  90:libraries/zf_common/zf_common_debug.c **** #include <stdint.h>
  91:libraries/zf_common/zf_common_debug.c **** 
  92:libraries/zf_common/zf_common_debug.c **** void *_sbrk (intptr_t increment)
  93:libraries/zf_common/zf_common_debug.c **** {
  98              		.loc 1 93 1
  99              		.cfi_startproc
 100              		@ args = 0, pretend = 0, frame = 16
 101              		@ frame_needed = 0, uses_anonymous_args = 0
 102 0000 00B5     		push	{lr}
 103              		.cfi_def_cfa_offset 4
 104              		.cfi_offset 14, -4
 105 0002 85B0     		sub	sp, sp, #20
 106              		.cfi_def_cfa_offset 24
 107 0004 0190     		str	r0, [sp, #4]
  94:libraries/zf_common/zf_common_debug.c ****     extern uint8_t __heap_base__;
  95:libraries/zf_common/zf_common_debug.c ****     extern uint8_t __heap_end__;
  96:libraries/zf_common/zf_common_debug.c **** 
  97:libraries/zf_common/zf_common_debug.c ****     static uint8_t *heap_base = &__heap_base__;
  98:libraries/zf_common/zf_common_debug.c ****     uint8_t *prev_head_base;
  99:libraries/zf_common/zf_common_debug.c **** 
 100:libraries/zf_common/zf_common_debug.c ****     prev_head_base = heap_base;
 108              		.loc 1 100 20
 109 0006 0E4B     		ldr	r3, .L6
 110 0008 1B68     		ldr	r3, [r3]
 111 000a 0393     		str	r3, [sp, #12]
 101:libraries/zf_common/zf_common_debug.c ****     if ((heap_base + increment) > (uint8_t*) &__heap_end__)
 112              		.loc 1 101 20
 113 000c 0C4B     		ldr	r3, .L6
 114 000e 1A68     		ldr	r2, [r3]
 115 0010 019B     		ldr	r3, [sp, #4]
 116 0012 1344     		add	r3, r3, r2
 117              		.loc 1 101 8
 118 0014 0B4A     		ldr	r2, .L6+4
 119 0016 9342     		cmp	r3, r2
 120 0018 07D9     		bls	.L4
 102:libraries/zf_common/zf_common_debug.c ****     {
 103:libraries/zf_common/zf_common_debug.c ****         errno = ENOMEM;
 121              		.loc 1 103 9
 122 001a FFF7FEFF 		bl	__errno
 123 001e 0346     		mov	r3, r0
 124              		.loc 1 103 15
 125 0020 0C22     		movs	r2, #12
 126 0022 1A60     		str	r2, [r3]
 104:libraries/zf_common/zf_common_debug.c ****         return (void *) -1;
 127              		.loc 1 104 16
 128 0024 4FF0FF33 		mov	r3, #-1
 129 0028 06E0     		b	.L5
 130              	.L4:
 105:libraries/zf_common/zf_common_debug.c ****     }
 106:libraries/zf_common/zf_common_debug.c ****     heap_base += increment;
 131              		.loc 1 106 15
 132 002a 054B     		ldr	r3, .L6
 133 002c 1A68     		ldr	r2, [r3]
 134 002e 019B     		ldr	r3, [sp, #4]
 135 0030 1344     		add	r3, r3, r2
 136 0032 034A     		ldr	r2, .L6
 137 0034 1360     		str	r3, [r2]
 107:libraries/zf_common/zf_common_debug.c **** 
 108:libraries/zf_common/zf_common_debug.c ****     return prev_head_base;
 138              		.loc 1 108 12
 139 0036 039B     		ldr	r3, [sp, #12]
 140              	.L5:
 109:libraries/zf_common/zf_common_debug.c **** }
 141              		.loc 1 109 1
 142 0038 1846     		mov	r0, r3
 143 003a 05B0     		add	sp, sp, #20
 144              		.cfi_def_cfa_offset 4
 145              		@ sp needed
 146 003c 5DF804FB 		ldr	pc, [sp], #4
 147              	.L7:
 148              		.align	2
 149              	.L6:
 150 0040 00000000 		.word	heap_base.1
 151 0044 00000000 		.word	__heap_end__
 152              		.cfi_endproc
 153              	.LFE483:
 155              		.section	.text.debug_pwm_protective_handler,"ax",%progbits
 156              		.align	1
 157              		.p2align 4,,15
 158              		.weak	debug_pwm_protective_handler
 159              		.syntax unified
 160              		.thumb
 161              		.thumb_func
 163              	debug_pwm_protective_handler:
 164              	.LFB484:
 110:libraries/zf_common/zf_common_debug.c **** #endif
 111:libraries/zf_common/zf_common_debug.c **** 
 112:libraries/zf_common/zf_common_debug.c **** //-------------------------------------------------------------------------------------------------
 113:libraries/zf_common/zf_common_debug.c **** // å‡½æ•°ç®€ä»‹     debug ä¿æŠ¤å¤„ç† ä¸»è¦æ˜¯é˜²æ­¢æ–­è¨€åå‡ºç°ä¿¡å·ç»´æŒè€Œå¯¼è‡´ç¡¬ä»¶å¤±
 114:libraries/zf_common/zf_common_debug.c **** // å‚æ•°è¯´æ˜     void
 115:libraries/zf_common/zf_common_debug.c **** // è¿”å›å‚æ•°     void
 116:libraries/zf_common/zf_common_debug.c **** // ä½¿ç”¨ç¤ºä¾‹     debug_pwm_protective_handler();
 117:libraries/zf_common/zf_common_debug.c **** // å¤‡æ³¨ä¿¡æ¯     æœ¬å‡½æ•°åœ¨æ–‡ä»¶å†…éƒ¨è°ƒç”¨ ç”¨æˆ·ä¸ç”¨å…³æ³¨
 118:libraries/zf_common/zf_common_debug.c **** //              æœ¬å‡½æ•°ç”±åº•å±‚åœ¨ zf_driver_pwm ä¸­è¿›è¡Œé‡è½½
 119:libraries/zf_common/zf_common_debug.c **** //-------------------------------------------------------------------------------------------------
 120:libraries/zf_common/zf_common_debug.c **** ZF_WEAK void debug_pwm_protective_handler (void)
 121:libraries/zf_common/zf_common_debug.c **** {
 165              		.loc 1 121 1
 166              		.cfi_startproc
 167              		@ args = 0, pretend = 0, frame = 0
 168              		@ frame_needed = 0, uses_anonymous_args = 0
 169              		@ link register save eliminated.
 122:libraries/zf_common/zf_common_debug.c **** }
 170              		.loc 1 122 1
 171 0000 00BF     		nop
 172 0002 7047     		bx	lr
 173              		.cfi_endproc
 174              	.LFE484:
 176              		.section	.text.debug_interrupt_protective_handler,"ax",%progbits
 177              		.align	1
 178              		.p2align 4,,15
 179              		.weak	debug_interrupt_protective_handler
 180              		.syntax unified
 181              		.thumb
 182              		.thumb_func
 184              	debug_interrupt_protective_handler:
 185              	.LFB485:
 123:libraries/zf_common/zf_common_debug.c **** 
 124:libraries/zf_common/zf_common_debug.c **** //-------------------------------------------------------------------------------------------------
 125:libraries/zf_common/zf_common_debug.c **** // å‡½æ•°ç®€ä»‹     debug ä¿æŠ¤å¤„ç† ä¸»è¦æ˜¯é˜²æ­¢æ–­è¨€åå‡ºç°ä¾æ—§è¿›è¡Œæ“ä½œçš„ç°è±¡
 126:libraries/zf_common/zf_common_debug.c **** // å‚æ•°è¯´æ˜     void
 127:libraries/zf_common/zf_common_debug.c **** // è¿”å›å‚æ•°     void
 128:libraries/zf_common/zf_common_debug.c **** // ä½¿ç”¨ç¤ºä¾‹     debug_interrupt_protective_handler();
 129:libraries/zf_common/zf_common_debug.c **** // å¤‡æ³¨ä¿¡æ¯     æœ¬å‡½æ•°åœ¨æ–‡ä»¶å†…éƒ¨è°ƒç”¨ ç”¨æˆ·ä¸ç”¨å…³æ³¨
 130:libraries/zf_common/zf_common_debug.c **** //              æœ¬å‡½æ•°ç”±åº•å±‚åœ¨ zf_driver_interrupt ä¸­è¿›è¡Œé‡è½½
 131:libraries/zf_common/zf_common_debug.c **** //-------------------------------------------------------------------------------------------------
 132:libraries/zf_common/zf_common_debug.c **** ZF_WEAK void debug_interrupt_protective_handler (void)
 133:libraries/zf_common/zf_common_debug.c **** {
 186              		.loc 1 133 1
 187              		.cfi_startproc
 188              		@ args = 0, pretend = 0, frame = 0
 189              		@ frame_needed = 0, uses_anonymous_args = 0
 190              		@ link register save eliminated.
 134:libraries/zf_common/zf_common_debug.c **** }
 191              		.loc 1 134 1
 192 0000 00BF     		nop
 193 0002 7047     		bx	lr
 194              		.cfi_endproc
 195              	.LFE485:
 197              		.section	.text.debug_uart_interrupr_handler,"ax",%progbits
 198              		.align	1
 199              		.p2align 4,,15
 200              		.weak	debug_uart_interrupr_handler
 201              		.syntax unified
 202              		.thumb
 203              		.thumb_func
 205              	debug_uart_interrupr_handler:
 206              	.LFB486:
 135:libraries/zf_common/zf_common_debug.c **** 
 136:libraries/zf_common/zf_common_debug.c **** //-------------------------------------------------------------------------------------------------
 137:libraries/zf_common/zf_common_debug.c **** // å‡½æ•°ç®€ä»‹     debug ä¸²å£ä¸­æ–­å¤„ç†å‡½æ•° isr.c ä¸­å¯¹åº”ä¸²å£ä¸­æ–­æœåŠ¡å‡½æ•°è°ƒç”¨
 138:libraries/zf_common/zf_common_debug.c **** // å‚æ•°è¯´æ˜     event               ä¸­æ–­äº‹ä»¶
 139:libraries/zf_common/zf_common_debug.c **** // å‚æ•°è¯´æ˜     *ptr                é»˜è®¤ä¼ å…¥æ˜¯ä¸€ä¸ª fifo å¯¹è±¡
 140:libraries/zf_common/zf_common_debug.c **** // è¿”å›å‚æ•°     void
 141:libraries/zf_common/zf_common_debug.c **** // ä½¿ç”¨ç¤ºä¾‹     debug_interrupr_handler();
 142:libraries/zf_common/zf_common_debug.c **** // å¤‡æ³¨ä¿¡æ¯     æœ¬å‡½æ•°éœ€è¦å¼€å¯ DEBUG_UART_USE_INTERRUPT å®å®šä¹‰æ‰å¯ä½¿ç”¨
 143:libraries/zf_common/zf_common_debug.c **** //-------------------------------------------------------------------------------------------------
 144:libraries/zf_common/zf_common_debug.c **** 
 145:libraries/zf_common/zf_common_debug.c **** ZF_WEAK void debug_uart_interrupr_handler (uint32 event, void *ptr)
 146:libraries/zf_common/zf_common_debug.c **** {
 207              		.loc 1 146 1
 208              		.cfi_startproc
 209              		@ args = 0, pretend = 0, frame = 8
 210              		@ frame_needed = 0, uses_anonymous_args = 0
 211              		@ link register save eliminated.
 212 0000 82B0     		sub	sp, sp, #8
 213              		.cfi_def_cfa_offset 8
 214 0002 0190     		str	r0, [sp, #4]
 215 0004 0091     		str	r1, [sp]
 147:libraries/zf_common/zf_common_debug.c **** 		(void)event;
 148:libraries/zf_common/zf_common_debug.c ****         (void)ptr;
 149:libraries/zf_common/zf_common_debug.c **** 
 150:libraries/zf_common/zf_common_debug.c **** 
 151:libraries/zf_common/zf_common_debug.c **** 
 152:libraries/zf_common/zf_common_debug.c **** 
 153:libraries/zf_common/zf_common_debug.c **** 
 154:libraries/zf_common/zf_common_debug.c **** 
 155:libraries/zf_common/zf_common_debug.c **** }
 216              		.loc 1 155 1
 217 0006 00BF     		nop
 218 0008 02B0     		add	sp, sp, #8
 219              		.cfi_def_cfa_offset 0
 220              		@ sp needed
 221 000a 7047     		bx	lr
 222              		.cfi_endproc
 223              	.LFE486:
 225              		.section	.text.debug_uart_str_output_handler,"ax",%progbits
 226              		.align	1
 227              		.p2align 4,,15
 228              		.weak	debug_uart_str_output_handler
 229              		.syntax unified
 230              		.thumb
 231              		.thumb_func
 233              	debug_uart_str_output_handler:
 234              	.LFB487:
 156:libraries/zf_common/zf_common_debug.c **** 
 157:libraries/zf_common/zf_common_debug.c **** //-------------------------------------------------------------------------------------------------
 158:libraries/zf_common/zf_common_debug.c **** // å‡½æ•°ç®€ä»‹     debug ä¸²å£å­—ç¬¦è¾“å‡ºæ¥å£
 159:libraries/zf_common/zf_common_debug.c **** // å‚æ•°è¯´æ˜     *str                éœ€è¦è¾“å‡ºçš„å­—ç¬¦ä¸²
 160:libraries/zf_common/zf_common_debug.c **** // è¿”å›å‚æ•°     void
 161:libraries/zf_common/zf_common_debug.c **** // ä½¿ç”¨ç¤ºä¾‹     debug_uart_str_output_handler("Log message");
 162:libraries/zf_common/zf_common_debug.c **** // å¤‡æ³¨ä¿¡æ¯     æœ¬å‡½æ•°åœ¨æ–‡ä»¶å†…éƒ¨è°ƒç”¨ ç”¨æˆ·ä¸ç”¨å…³æ³¨ ä¹Ÿä¸å¯ä¿®æ”¹
 163:libraries/zf_common/zf_common_debug.c **** //-------------------------------------------------------------------------------------------------
 164:libraries/zf_common/zf_common_debug.c **** ZF_WEAK void debug_uart_str_output_handler (const char *str)
 165:libraries/zf_common/zf_common_debug.c **** {
 235              		.loc 1 165 1
 236              		.cfi_startproc
 237              		@ args = 0, pretend = 0, frame = 8
 238              		@ frame_needed = 0, uses_anonymous_args = 0
 239              		@ link register save eliminated.
 240 0000 82B0     		sub	sp, sp, #8
 241              		.cfi_def_cfa_offset 8
 242 0002 0190     		str	r0, [sp, #4]
 166:libraries/zf_common/zf_common_debug.c ****     (void)str;
 167:libraries/zf_common/zf_common_debug.c **** }
 243              		.loc 1 167 1
 244 0004 00BF     		nop
 245 0006 02B0     		add	sp, sp, #8
 246              		.cfi_def_cfa_offset 0
 247              		@ sp needed
 248 0008 7047     		bx	lr
 249              		.cfi_endproc
 250              	.LFE487:
 252 000a 00BF     		.section	.text.debug_uart_write_buffer,"ax",%progbits
 253              		.align	1
 254              		.p2align 4,,15
 255              		.weak	debug_uart_write_buffer
 256              		.syntax unified
 257              		.thumb
 258              		.thumb_func
 260              	debug_uart_write_buffer:
 261              	.LFB488:
 168:libraries/zf_common/zf_common_debug.c **** 
 169:libraries/zf_common/zf_common_debug.c **** //-------------------------------------------------------------------------------------------------
 170:libraries/zf_common/zf_common_debug.c **** // å‡½æ•°ç®€ä»‹     debug ä¸²å£è¾“å‡ºæ¥å£
 171:libraries/zf_common/zf_common_debug.c **** // å‚æ•°è¯´æ˜     *buff           æ•°æ®åœ°å€
 172:libraries/zf_common/zf_common_debug.c **** // å‚æ•°è¯´æ˜     *length         é•¿åº¦
 173:libraries/zf_common/zf_common_debug.c **** // è¿”å›å‚æ•°     uint32          å‰©ä½™æœªå‘é€æ•°æ®é•¿åº¦
 174:libraries/zf_common/zf_common_debug.c **** // å¤‡æ³¨ä¿¡æ¯     æœ¬å‡½æ•°åœ¨æ–‡ä»¶å†…éƒ¨è°ƒç”¨ ç”¨æˆ·ä¸ç”¨å…³æ³¨ ä¹Ÿä¸å¯ä¿®æ”¹
 175:libraries/zf_common/zf_common_debug.c **** //-------------------------------------------------------------------------------------------------
 176:libraries/zf_common/zf_common_debug.c **** ZF_WEAK uint8 debug_uart_write_buffer (const uint8 *buff, uint32 *length)
 177:libraries/zf_common/zf_common_debug.c **** {
 262              		.loc 1 177 1
 263              		.cfi_startproc
 264              		@ args = 0, pretend = 0, frame = 8
 265              		@ frame_needed = 0, uses_anonymous_args = 0
 266              		@ link register save eliminated.
 267 0000 82B0     		sub	sp, sp, #8
 268              		.cfi_def_cfa_offset 8
 269 0002 0190     		str	r0, [sp, #4]
 270 0004 0091     		str	r1, [sp]
 178:libraries/zf_common/zf_common_debug.c ****     (void)buff;
 179:libraries/zf_common/zf_common_debug.c ****     (void)length;
 180:libraries/zf_common/zf_common_debug.c ****     // å½“é€‰æ‹©è‡ªå®šä¹‰é€šè®¯æ–¹å¼æ—¶ éœ€è¦è‡ªè¡Œå®Œæˆæ•°æ®æ¥æ”¶åŠŸèƒ½
 181:libraries/zf_common/zf_common_debug.c ****     return 0;
 271              		.loc 1 181 12
 272 0006 0023     		movs	r3, #0
 182:libraries/zf_common/zf_common_debug.c **** }
 273              		.loc 1 182 1
 274 0008 1846     		mov	r0, r3
 275 000a 02B0     		add	sp, sp, #8
 276              		.cfi_def_cfa_offset 0
 277              		@ sp needed
 278 000c 7047     		bx	lr
 279              		.cfi_endproc
 280              	.LFE488:
 282 000e 00BF     		.section	.text.debug_uart_read_buffer,"ax",%progbits
 283              		.align	1
 284              		.p2align 4,,15
 285              		.weak	debug_uart_read_buffer
 286              		.syntax unified
 287              		.thumb
 288              		.thumb_func
 290              	debug_uart_read_buffer:
 291              	.LFB489:
 183:libraries/zf_common/zf_common_debug.c **** 
 184:libraries/zf_common/zf_common_debug.c **** //-------------------------------------------------------------------------------------------------
 185:libraries/zf_common/zf_common_debug.c **** // å‡½æ•°ç®€ä»‹     debug ä¸²å£è¯»å–æ¥å£
 186:libraries/zf_common/zf_common_debug.c **** // å‚æ•°è¯´æ˜     *buff           æ•°æ®åœ°å€
 187:libraries/zf_common/zf_common_debug.c **** // å‚æ•°è¯´æ˜     *length         é•¿åº¦
 188:libraries/zf_common/zf_common_debug.c **** // è¿”å›å‚æ•°     void
 189:libraries/zf_common/zf_common_debug.c **** // ä½¿ç”¨ç¤ºä¾‹     debug_uart_str_output_handler("Log message");
 190:libraries/zf_common/zf_common_debug.c **** // å¤‡æ³¨ä¿¡æ¯     æœ¬å‡½æ•°åœ¨æ–‡ä»¶å†…éƒ¨è°ƒç”¨ ç”¨æˆ·ä¸ç”¨å…³æ³¨ ä¹Ÿä¸å¯ä¿®æ”¹
 191:libraries/zf_common/zf_common_debug.c **** //-------------------------------------------------------------------------------------------------
 192:libraries/zf_common/zf_common_debug.c **** ZF_WEAK uint8 debug_uart_read_buffer (uint8 *buff, uint32 *length)
 193:libraries/zf_common/zf_common_debug.c **** {
 292              		.loc 1 193 1
 293              		.cfi_startproc
 294              		@ args = 0, pretend = 0, frame = 8
 295              		@ frame_needed = 0, uses_anonymous_args = 0
 296              		@ link register save eliminated.
 297 0000 82B0     		sub	sp, sp, #8
 298              		.cfi_def_cfa_offset 8
 299 0002 0190     		str	r0, [sp, #4]
 300 0004 0091     		str	r1, [sp]
 194:libraries/zf_common/zf_common_debug.c ****     (void)buff;
 195:libraries/zf_common/zf_common_debug.c ****     (void)length;
 196:libraries/zf_common/zf_common_debug.c ****     // å½“é€‰æ‹©è‡ªå®šä¹‰é€šè®¯æ–¹å¼æ—¶ éœ€è¦è‡ªè¡Œå®Œæˆæ•°æ®æ¥æ”¶åŠŸèƒ½
 197:libraries/zf_common/zf_common_debug.c ****     return 0;
 301              		.loc 1 197 12
 302 0006 0023     		movs	r3, #0
 198:libraries/zf_common/zf_common_debug.c **** }
 303              		.loc 1 198 1
 304 0008 1846     		mov	r0, r3
 305 000a 02B0     		add	sp, sp, #8
 306              		.cfi_def_cfa_offset 0
 307              		@ sp needed
 308 000c 7047     		bx	lr
 309              		.cfi_endproc
 310              	.LFE489:
 312 000e 00BF     		.section	.text.debug_uart_transfer_handler,"ax",%progbits
 313              		.align	1
 314              		.p2align 4,,15
 315              		.weak	debug_uart_transfer_handler
 316              		.syntax unified
 317              		.thumb
 318              		.thumb_func
 320              	debug_uart_transfer_handler:
 321              	.LFB490:
 199:libraries/zf_common/zf_common_debug.c **** 
 200:libraries/zf_common/zf_common_debug.c **** //-------------------------------------------------------------------------------------------------
 201:libraries/zf_common/zf_common_debug.c **** // å‡½æ•°ç®€ä»‹     debug ä¸²å£ä¼ è¾“æ¥å£
 202:libraries/zf_common/zf_common_debug.c **** // å‚æ•°è¯´æ˜     *out                è¾“å‡ºæ•°æ®ç¼“å†²åŒº
 203:libraries/zf_common/zf_common_debug.c **** // å‚æ•°è¯´æ˜     out_len             è¾“å‡ºé•¿åº¦
 204:libraries/zf_common/zf_common_debug.c **** // å‚æ•°è¯´æ˜     *in                 æ¥æ”¶æ•°æ®ç¼“å†²åŒº
 205:libraries/zf_common/zf_common_debug.c **** // å‚æ•°è¯´æ˜     in_len              æ¥æ”¶é•¿åº¦
 206:libraries/zf_common/zf_common_debug.c **** // è¿”å›å‚æ•°     void
 207:libraries/zf_common/zf_common_debug.c **** // ä½¿ç”¨ç¤ºä¾‹     debug_uart_transfer_handler(out, out_len, in, in_len);
 208:libraries/zf_common/zf_common_debug.c **** // å¤‡æ³¨ä¿¡æ¯     æœ¬å‡½æ•°åœ¨æ–‡ä»¶å†…éƒ¨è°ƒç”¨ ç”¨æˆ·ä¸ç”¨å…³æ³¨ ä¹Ÿä¸å¯ä¿®æ”¹
 209:libraries/zf_common/zf_common_debug.c **** //-------------------------------------------------------------------------------------------------
 210:libraries/zf_common/zf_common_debug.c **** ZF_WEAK void debug_uart_transfer_handler (const uint8 *out, uint32 out_len, uint8 *in, uint32 in_le
 211:libraries/zf_common/zf_common_debug.c **** {
 322              		.loc 1 211 1
 323              		.cfi_startproc
 324              		@ args = 0, pretend = 0, frame = 16
 325              		@ frame_needed = 0, uses_anonymous_args = 0
 326              		@ link register save eliminated.
 327 0000 84B0     		sub	sp, sp, #16
 328              		.cfi_def_cfa_offset 16
 329 0002 0390     		str	r0, [sp, #12]
 330 0004 0291     		str	r1, [sp, #8]
 331 0006 0192     		str	r2, [sp, #4]
 332 0008 0093     		str	r3, [sp]
 212:libraries/zf_common/zf_common_debug.c ****     (void)out;
 213:libraries/zf_common/zf_common_debug.c ****     (void)out_len;
 214:libraries/zf_common/zf_common_debug.c ****     (void)in;
 215:libraries/zf_common/zf_common_debug.c ****     (void)in_len;
 216:libraries/zf_common/zf_common_debug.c **** }
 333              		.loc 1 216 1
 334 000a 00BF     		nop
 335 000c 04B0     		add	sp, sp, #16
 336              		.cfi_def_cfa_offset 0
 337              		@ sp needed
 338 000e 7047     		bx	lr
 339              		.cfi_endproc
 340              	.LFE490:
 342              		.section	.text.debug_uart_init_handler,"ax",%progbits
 343              		.align	1
 344              		.p2align 4,,15
 345              		.weak	debug_uart_init_handler
 346              		.syntax unified
 347              		.thumb
 348              		.thumb_func
 350              	debug_uart_init_handler:
 351              	.LFB491:
 217:libraries/zf_common/zf_common_debug.c **** 
 218:libraries/zf_common/zf_common_debug.c **** //-------------------------------------------------------------------------------------------------
 219:libraries/zf_common/zf_common_debug.c **** // å‡½æ•°ç®€ä»‹     debug ä¸²å£åˆå§‹åŒ–æ“ä½œ
 220:libraries/zf_common/zf_common_debug.c **** // å‚æ•°è¯´æ˜     *obj                Debug å¯¹è±¡æŒ‡é’ˆ
 221:libraries/zf_common/zf_common_debug.c **** // å‚æ•°è¯´æ˜     callback            å›è°ƒå‡½æ•° ä¸ºæ— è¿”å›å€¼ uint32 åŠ  void * å‚æ•°çš„å‡½
 222:libraries/zf_common/zf_common_debug.c **** // å‚æ•°è¯´æ˜     *ptr                å›è°ƒå‚æ•° ç”¨æˆ·è‡ªæ‹Ÿå®šçš„å‚æ•°æŒ‡é’ˆ ä¸éœ€è¦çš„è¯
 223:libraries/zf_common/zf_common_debug.c **** // è¿”å›å‚æ•°     void
 224:libraries/zf_common/zf_common_debug.c **** // ä½¿ç”¨ç¤ºä¾‹     debug_uart_init_handler(obj, callback, ptr);
 225:libraries/zf_common/zf_common_debug.c **** // å¤‡æ³¨ä¿¡æ¯     æœ¬å‡½æ•°åœ¨æ–‡ä»¶å†…éƒ¨è°ƒç”¨ ç”¨æˆ·ä¸ç”¨å…³æ³¨ ä¹Ÿä¸å¯ä¿®æ”¹
 226:libraries/zf_common/zf_common_debug.c **** //-------------------------------------------------------------------------------------------------
 227:libraries/zf_common/zf_common_debug.c **** ZF_WEAK void debug_uart_init_handler (debug_obj_struct *obj, void_callback_uint32_ptr callback, voi
 228:libraries/zf_common/zf_common_debug.c **** {
 352              		.loc 1 228 1
 353              		.cfi_startproc
 354              		@ args = 0, pretend = 0, frame = 16
 355              		@ frame_needed = 0, uses_anonymous_args = 0
 356              		@ link register save eliminated.
 357 0000 84B0     		sub	sp, sp, #16
 358              		.cfi_def_cfa_offset 16
 359 0002 0390     		str	r0, [sp, #12]
 360 0004 0291     		str	r1, [sp, #8]
 361 0006 0192     		str	r2, [sp, #4]
 229:libraries/zf_common/zf_common_debug.c ****     (void)obj;
 230:libraries/zf_common/zf_common_debug.c ****     (void)callback;
 231:libraries/zf_common/zf_common_debug.c ****     (void)ptr;
 232:libraries/zf_common/zf_common_debug.c **** }
 362              		.loc 1 232 1
 363 0008 00BF     		nop
 364 000a 04B0     		add	sp, sp, #16
 365              		.cfi_def_cfa_offset 0
 366              		@ sp needed
 367 000c 7047     		bx	lr
 368              		.cfi_endproc
 369              	.LFE491:
 371 000e 00BF     		.section	.text.debug_delay,"ax",%progbits
 372              		.align	1
 373              		.p2align 4,,15
 374              		.syntax unified
 375              		.thumb
 376              		.thumb_func
 378              	debug_delay:
 379              	.LFB492:
 233:libraries/zf_common/zf_common_debug.c **** // <<<<<<<<<<<<<<<<<<<<<<<<<<<<<<<<<<<<<<<<< Part   End <<<<<<<<<<<<<<<<<<<<<<<<<<<<<<<<<<<<<<<<<
 234:libraries/zf_common/zf_common_debug.c **** 
 235:libraries/zf_common/zf_common_debug.c **** // æ­¤å¤„å®šä¹‰ æœ¬æ–‡ä»¶çš„æ‰€æœ‰å‡½æ•°å…·ä½“å®šä¹‰ è¿™é‡Œä¸å…è®¸ç”¨æˆ·ä¿®æ”¹
 236:libraries/zf_common/zf_common_debug.c **** // >>>>>>>>>>>>>>>>>>>>>>>>>>>>>>>>>>>>>>>>> Part Start >>>>>>>>>>>>>>>>>>>>>>>>>>>>>>>>>>>>>>>>>
 237:libraries/zf_common/zf_common_debug.c **** //-------------------------------------------------------------------------------------------------
 238:libraries/zf_common/zf_common_debug.c **** // å‡½æ•°ç®€ä»‹     debug è½¯å»¶æ—¶å‡½æ•° å„å•ç‰‡æœºéœ€è¦æ ¹æ®å„è‡ªæ—¶é’Ÿæµ‹è¯•æ‰èƒ½çŸ¥é“å…·
 239:libraries/zf_common/zf_common_debug.c **** // å‚æ•°è¯´æ˜     void
 240:libraries/zf_common/zf_common_debug.c **** // è¿”å›å‚æ•°     void
 241:libraries/zf_common/zf_common_debug.c **** // ä½¿ç”¨ç¤ºä¾‹     debug_delay();
 242:libraries/zf_common/zf_common_debug.c **** // å¤‡æ³¨ä¿¡æ¯     æœ¬å‡½æ•°åœ¨æ–‡ä»¶å†…éƒ¨è°ƒç”¨ ç”¨æˆ·ä¸ç”¨å…³æ³¨ ä¹Ÿä¸å¯ä¿®æ”¹
 243:libraries/zf_common/zf_common_debug.c **** //-------------------------------------------------------------------------------------------------
 244:libraries/zf_common/zf_common_debug.c **** static void debug_delay (void)
 245:libraries/zf_common/zf_common_debug.c **** {
 380              		.loc 1 245 1
 381              		.cfi_startproc
 382              		@ args = 0, pretend = 0, frame = 8
 383              		@ frame_needed = 0, uses_anonymous_args = 0
 384              		@ link register save eliminated.
 385 0000 82B0     		sub	sp, sp, #8
 386              		.cfi_def_cfa_offset 8
 246:libraries/zf_common/zf_common_debug.c ****     vuint32 loop_1 = 0, loop_2 = 0;
 387              		.loc 1 246 13
 388 0002 0023     		movs	r3, #0
 389 0004 0193     		str	r3, [sp, #4]
 390              		.loc 1 246 25
 391 0006 0023     		movs	r3, #0
 392 0008 0093     		str	r3, [sp]
 247:libraries/zf_common/zf_common_debug.c ****     for(loop_1 = 0; 0xFF >= loop_1; loop_1 ++)
 393              		.loc 1 247 16
 394 000a 0023     		movs	r3, #0
 395 000c 0193     		str	r3, [sp, #4]
 396              		.loc 1 247 5
 397 000e 0CE0     		b	.L19
 398              	.L22:
 248:libraries/zf_common/zf_common_debug.c ****     {
 249:libraries/zf_common/zf_common_debug.c ****         for(loop_2 = 0; 0xFFFF >= loop_2; loop_2 ++)
 399              		.loc 1 249 20
 400 0010 0023     		movs	r3, #0
 401 0012 0093     		str	r3, [sp]
 402              		.loc 1 249 9
 403 0014 02E0     		b	.L20
 404              	.L21:
 405              		.loc 1 249 50 discriminator 3
 406 0016 009B     		ldr	r3, [sp]
 407 0018 0133     		adds	r3, r3, #1
 408 001a 0093     		str	r3, [sp]
 409              	.L20:
 410              		.loc 1 249 32 discriminator 1
 411 001c 009B     		ldr	r3, [sp]
 412              		.loc 1 249 9 discriminator 1
 413 001e B3F5803F 		cmp	r3, #65536
 414 0022 F8D3     		bcc	.L21
 247:libraries/zf_common/zf_common_debug.c ****     for(loop_1 = 0; 0xFF >= loop_1; loop_1 ++)
 415              		.loc 1 247 44 discriminator 2
 416 0024 019B     		ldr	r3, [sp, #4]
 417 0026 0133     		adds	r3, r3, #1
 418 0028 0193     		str	r3, [sp, #4]
 419              	.L19:
 247:libraries/zf_common/zf_common_debug.c ****     for(loop_1 = 0; 0xFF >= loop_1; loop_1 ++)
 420              		.loc 1 247 26 discriminator 1
 421 002a 019B     		ldr	r3, [sp, #4]
 247:libraries/zf_common/zf_common_debug.c ****     for(loop_1 = 0; 0xFF >= loop_1; loop_1 ++)
 422              		.loc 1 247 5 discriminator 1
 423 002c FF2B     		cmp	r3, #255
 424 002e EFD9     		bls	.L22
 250:libraries/zf_common/zf_common_debug.c ****         {
 251:libraries/zf_common/zf_common_debug.c ****         }
 252:libraries/zf_common/zf_common_debug.c ****     }
 253:libraries/zf_common/zf_common_debug.c **** }
 425              		.loc 1 253 1
 426 0030 00BF     		nop
 427 0032 00BF     		nop
 428 0034 02B0     		add	sp, sp, #8
 429              		.cfi_def_cfa_offset 0
 430              		@ sp needed
 431 0036 7047     		bx	lr
 432              		.cfi_endproc
 433              	.LFE492:
 435              		.section	.rodata
 436              		.align	2
 437              	.LC0:
 438 0000 66696C65 		.ascii	"file: %s\000"
 438      3A202573 
 438      00
 439 0009 000000   		.align	2
 440              	.LC1:
 441 000c 66696C65 		.ascii	"file: mdk/%s\000"
 441      3A206D64 
 441      6B2F2573 
 441      00
 442 0019 000000   		.align	2
 443              	.LC2:
 444 001c 6C696E65 		.ascii	"line: %d\000"
 444      3A202564 
 444      00
 445 0025 000000   		.align	2
 446              	.LC3:
 447 0028 0D0A6669 		.ascii	"\015\012file %s line %d: %s.\015\012\000"
 447      6C652025 
 447      73206C69 
 447      6E652025 
 447      643A2025 
 448 0041 000000   		.align	2
 449              	.LC4:
 450 0044 0D0A6669 		.ascii	"\015\012file %s line %d.\015\012\000"
 450      6C652025 
 450      73206C69 
 450      6E652025 
 450      642E0D0A 
 451              		.section	.text.debug_output,"ax",%progbits
 452              		.align	1
 453              		.p2align 4,,15
 454              		.syntax unified
 455              		.thumb
 456              		.thumb_func
 458              	debug_output:
 459              	.LFB493:
 254:libraries/zf_common/zf_common_debug.c **** 
 255:libraries/zf_common/zf_common_debug.c **** //-------------------------------------------------------------------------------------------------
 256:libraries/zf_common/zf_common_debug.c **** // å‡½æ•°ç®€ä»‹     debug è¾“å‡ºæ¥å£
 257:libraries/zf_common/zf_common_debug.c **** // å‚æ•°è¯´æ˜     *type               log ç±»å‹
 258:libraries/zf_common/zf_common_debug.c **** // å‚æ•°è¯´æ˜     *file               æ–‡ä»¶å
 259:libraries/zf_common/zf_common_debug.c **** // å‚æ•°è¯´æ˜     line                ç›®æ ‡è¡Œæ•°
 260:libraries/zf_common/zf_common_debug.c **** // å‚æ•°è¯´æ˜     *str                ä¿¡æ¯
 261:libraries/zf_common/zf_common_debug.c **** // è¿”å›å‚æ•°     void
 262:libraries/zf_common/zf_common_debug.c **** // ä½¿ç”¨ç¤ºä¾‹     debug_output("Log message", file, line, str);
 263:libraries/zf_common/zf_common_debug.c **** // å¤‡æ³¨ä¿¡æ¯     æœ¬å‡½æ•°åœ¨æ–‡ä»¶å†…éƒ¨è°ƒç”¨ ç”¨æˆ·ä¸ç”¨å…³æ³¨ ä¹Ÿä¸å¯ä¿®æ”¹
 264:libraries/zf_common/zf_common_debug.c **** //-------------------------------------------------------------------------------------------------
 265:libraries/zf_common/zf_common_debug.c **** static void debug_output (char *type, char *file, int line, char *str)
 266:libraries/zf_common/zf_common_debug.c **** {
 460              		.loc 1 266 1
 461              		.cfi_startproc
 462              		@ args = 0, pretend = 0, frame = 352
 463              		@ frame_needed = 0, uses_anonymous_args = 0
 464 0000 10B5     		push	{r4, lr}
 465              		.cfi_def_cfa_offset 8
 466              		.cfi_offset 4, -8
 467              		.cfi_offset 14, -4
 468 0002 DAB0     		sub	sp, sp, #360
 469              		.cfi_def_cfa_offset 368
 470 0004 5AAC     		add	r4, sp, #360
 471 0006 A4F5AA74 		sub	r4, r4, #340
 472 000a 2060     		str	r0, [r4]
 473 000c 5AA8     		add	r0, sp, #360
 474 000e A0F5AC70 		sub	r0, r0, #344
 475 0012 0160     		str	r1, [r0]
 476 0014 5AA9     		add	r1, sp, #360
 477 0016 A1F5AE71 		sub	r1, r1, #348
 478 001a 0A60     		str	r2, [r1]
 479 001c 5AAA     		add	r2, sp, #360
 480 001e A2F5B072 		sub	r2, r2, #352
 481 0022 1360     		str	r3, [r2]
 267:libraries/zf_common/zf_common_debug.c ****     char    *file_str       = NULL          ;
 482              		.loc 1 267 14
 483 0024 0023     		movs	r3, #0
 484 0026 5993     		str	r3, [sp, #356]
 268:libraries/zf_common/zf_common_debug.c ****     vuint16 temp_counter_1  = 0             ;
 485              		.loc 1 268 13
 486 0028 0023     		movs	r3, #0
 487 002a ADF86231 		strh	r3, [sp, #354]	@ movhi
 269:libraries/zf_common/zf_common_debug.c ****     vuint16 temp_counter_2  = 0             ;
 488              		.loc 1 269 13
 489 002e 0023     		movs	r3, #0
 490 0030 ADF86031 		strh	r3, [sp, #352]	@ movhi
 270:libraries/zf_common/zf_common_debug.c ****     vint16  len_origin      = strlen(file)  ;
 491              		.loc 1 270 31
 492 0034 5AAB     		add	r3, sp, #360
 493 0036 A3F5AC73 		sub	r3, r3, #344
 494 003a 1868     		ldr	r0, [r3]
 495 003c FFF7FEFF 		bl	strlen
 496 0040 0346     		mov	r3, r0
 497              		.loc 1 270 13
 498 0042 1BB2     		sxth	r3, r3
 499 0044 ADF85E31 		strh	r3, [sp, #350]	@ movhi
 271:libraries/zf_common/zf_common_debug.c ****     vint16  show_len        = 0             ;
 500              		.loc 1 271 13
 501 0048 0023     		movs	r3, #0
 502 004a ADF85C31 		strh	r3, [sp, #348]	@ movhi
 272:libraries/zf_common/zf_common_debug.c ****     vint16  show_line_index = 0             ;
 503              		.loc 1 272 13
 504 004e 0023     		movs	r3, #0
 505 0050 ADF85A31 		strh	r3, [sp, #346]	@ movhi
 273:libraries/zf_common/zf_common_debug.c **** 
 274:libraries/zf_common/zf_common_debug.c ****     char    output_buffer[256]              ;
 275:libraries/zf_common/zf_common_debug.c ****     char    file_path_buffer[64]            ;
 276:libraries/zf_common/zf_common_debug.c **** 
 277:libraries/zf_common/zf_common_debug.c ****     if(DEBUG_OBJ_TYPE_SCREEN == debug_output_obj.type_index)
 506              		.loc 1 277 49
 507 0054 9D4B     		ldr	r3, .L52
 508 0056 1B78     		ldrb	r3, [r3]	@ zero_extendqisi2
 509              		.loc 1 277 7
 510 0058 032B     		cmp	r3, #3
 511 005a 40F0C181 		bne	.L24
 278:libraries/zf_common/zf_common_debug.c ****     {
 279:libraries/zf_common/zf_common_debug.c ****         debug_output_obj.output_screen_clear(debug_output_obj.device_obj);
 512              		.loc 1 279 25
 513 005e 9B4B     		ldr	r3, .L52
 514 0060 1B69     		ldr	r3, [r3, #16]
 515              		.loc 1 279 9
 516 0062 9A4A     		ldr	r2, .L52
 517 0064 9268     		ldr	r2, [r2, #8]
 518 0066 1046     		mov	r0, r2
 519 0068 9847     		blx	r3
 520              	.LVL0:
 280:libraries/zf_common/zf_common_debug.c **** 
 281:libraries/zf_common/zf_common_debug.c ****         // éœ€è¦åˆ†è¡Œå°†æ–‡ä»¶çš„è·¯å¾„å’Œè¡Œæ•°è¾“å‡º
 282:libraries/zf_common/zf_common_debug.c ****         // <ä¸è¾“å‡ºå®Œæ•´è·¯å¾„ åªè¾“å‡ºä¸€çº§ç›®å½• ä¾‹å¦‚ src/main.c>
 283:libraries/zf_common/zf_common_debug.c ****         // è¾“å‡º line : xxxx
 284:libraries/zf_common/zf_common_debug.c **** 
 285:libraries/zf_common/zf_common_debug.c ****         // é¦–å…ˆè¾“å‡º Log ç±»å‹ é¢„è®¾ä¸ºæ–­è¨€è¾“å‡º "Assert error" è°ƒè¯•ä¿¡æ¯è¾“å‡º "Log mes
 286:libraries/zf_common/zf_common_debug.c ****         debug_output_obj.output_screen(debug_output_obj.device_obj, 0, show_line_index ++, type);
 521              		.loc 1 286 25
 522 006a 984B     		ldr	r3, .L52
 523 006c DC68     		ldr	r4, [r3, #12]
 524              		.loc 1 286 9
 525 006e 974B     		ldr	r3, .L52
 526 0070 9868     		ldr	r0, [r3, #8]
 527              		.loc 1 286 88
 528 0072 BDF85A31 		ldrh	r3, [sp, #346]	@ movhi
 529 0076 1AB2     		sxth	r2, r3
 530 0078 93B2     		uxth	r3, r2
 531 007a 0133     		adds	r3, r3, #1
 532 007c 9BB2     		uxth	r3, r3
 533 007e 1BB2     		sxth	r3, r3
 534 0080 ADF85A31 		strh	r3, [sp, #346]	@ movhi
 535              		.loc 1 286 9
 536 0084 92B2     		uxth	r2, r2
 537 0086 5AAB     		add	r3, sp, #360
 538 0088 A3F5AA73 		sub	r3, r3, #340
 539 008c 1B68     		ldr	r3, [r3]
 540 008e 0021     		movs	r1, #0
 541 0090 A047     		blx	r4
 542              	.LVL1:
 287:libraries/zf_common/zf_common_debug.c **** 
 288:libraries/zf_common/zf_common_debug.c ****         file_str    = file;
 543              		.loc 1 288 21
 544 0092 5AAB     		add	r3, sp, #360
 545 0094 A3F5AC73 		sub	r3, r3, #344
 546 0098 1B68     		ldr	r3, [r3]
 547 009a 5993     		str	r3, [sp, #356]
 289:libraries/zf_common/zf_common_debug.c ****         len_origin  = strlen(file);
 548              		.loc 1 289 23
 549 009c 5AAB     		add	r3, sp, #360
 550 009e A3F5AC73 		sub	r3, r3, #344
 551 00a2 1868     		ldr	r0, [r3]
 552 00a4 FFF7FEFF 		bl	strlen
 553 00a8 0346     		mov	r3, r0
 554              		.loc 1 289 21
 555 00aa 1BB2     		sxth	r3, r3
 556 00ac ADF85E31 		strh	r3, [sp, #350]	@ movhi
 290:libraries/zf_common/zf_common_debug.c ****         show_len    = (debug_output_obj.display_x_max / debug_output_obj.font_x_size);
 557              		.loc 1 290 40
 558 00b0 864B     		ldr	r3, .L52
 559 00b2 5B88     		ldrh	r3, [r3, #2]
 560 00b4 1A46     		mov	r2, r3
 561              		.loc 1 290 73
 562 00b6 854B     		ldr	r3, .L52
 563 00b8 9B79     		ldrb	r3, [r3, #6]	@ zero_extendqisi2
 564              		.loc 1 290 55
 565 00ba 92FBF3F3 		sdiv	r3, r2, r3
 566              		.loc 1 290 21
 567 00be 1BB2     		sxth	r3, r3
 568 00c0 ADF85C31 		strh	r3, [sp, #348]	@ movhi
 291:libraries/zf_common/zf_common_debug.c **** 
 292:libraries/zf_common/zf_common_debug.c ****         // é¦–å…ˆæŠŠæŒ‡é’ˆæŒ‡å‘è·¯å¾„å­—ç¬¦ä¸²å°¾éƒ¨
 293:libraries/zf_common/zf_common_debug.c ****         // å› ä¸ºåªå–ä¸€çº§ç›®å½•æ˜¾ç¤º å¦åˆ™æœ‰çš„ IDE ä¼šè¾“å‡ºç»å¯¹è·¯å¾„ å¤ªé•¿äº†æ²¡å¿…è¦
 294:libraries/zf_common/zf_common_debug.c ****         // åªéœ€è¦ç›´æ¥è¾“å‡ºå½“å‰å·¥ç¨‹çš„ç›¸å¯¹ç›®å½•å°±å¯ä»¥
 295:libraries/zf_common/zf_common_debug.c ****         while('\0' != *file_str ++);
 569              		.loc 1 295 14
 570 00c4 00BF     		nop
 571              	.L25:
 572              		.loc 1 295 33 discriminator 1
 573 00c6 599B     		ldr	r3, [sp, #356]
 574 00c8 5A1C     		adds	r2, r3, #1
 575 00ca 5992     		str	r2, [sp, #356]
 576              		.loc 1 295 23 discriminator 1
 577 00cc 93F90030 		ldrsb	r3, [r3]
 578              		.loc 1 295 14 discriminator 1
 579 00d0 002B     		cmp	r3, #0
 580 00d2 F8D1     		bne	.L25
 296:libraries/zf_common/zf_common_debug.c ****         for(temp_counter_2 = 0; (2 > temp_counter_2) && (0 <= len_origin); len_origin --)
 581              		.loc 1 296 28
 582 00d4 0023     		movs	r3, #0
 583 00d6 ADF86031 		strh	r3, [sp, #352]	@ movhi
 584              		.loc 1 296 9
 585 00da 1CE0     		b	.L26
 586              	.L30:
 297:libraries/zf_common/zf_common_debug.c ****         {                                                                       // éå†è·¯å¾„ ç›´
 298:libraries/zf_common/zf_common_debug.c ****             file_str --;                                                        // æŒ‡é’ˆä¸€ä¸ªå­—ç
 587              		.loc 1 298 22
 588 00dc 599B     		ldr	r3, [sp, #356]
 589 00de 013B     		subs	r3, r3, #1
 590 00e0 5993     		str	r3, [sp, #356]
 299:libraries/zf_common/zf_common_debug.c ****             if(('/' == *file_str) || (0x5C == *file_str))                       // æŸ¥æ‰¾ä¸¤ä¸ª '/'
 591              		.loc 1 299 24
 592 00e2 599B     		ldr	r3, [sp, #356]
 593 00e4 93F90030 		ldrsb	r3, [r3]
 594              		.loc 1 299 15
 595 00e8 2F2B     		cmp	r3, #47
 596 00ea 04D0     		beq	.L27
 597              		.loc 1 299 47 discriminator 1
 598 00ec 599B     		ldr	r3, [sp, #356]
 599 00ee 93F90030 		ldrsb	r3, [r3]
 600              		.loc 1 299 35 discriminator 1
 601 00f2 5C2B     		cmp	r3, #92
 602 00f4 06D1     		bne	.L28
 603              	.L27:
 300:libraries/zf_common/zf_common_debug.c ****             {
 301:libraries/zf_common/zf_common_debug.c ****                 temp_counter_2 ++;
 604              		.loc 1 301 32
 605 00f6 BDF86031 		ldrh	r3, [sp, #352]	@ movhi
 606 00fa 9BB2     		uxth	r3, r3
 607 00fc 0133     		adds	r3, r3, #1
 608 00fe 9BB2     		uxth	r3, r3
 609 0100 ADF86031 		strh	r3, [sp, #352]	@ movhi
 610              	.L28:
 296:libraries/zf_common/zf_common_debug.c ****         {                                                                       // éå†è·¯å¾„ ç›´
 611              		.loc 1 296 87 discriminator 2
 612 0104 BDF85E31 		ldrh	r3, [sp, #350]	@ movhi
 613 0108 1BB2     		sxth	r3, r3
 614 010a 9BB2     		uxth	r3, r3
 615 010c 013B     		subs	r3, r3, #1
 616 010e 9BB2     		uxth	r3, r3
 617 0110 1BB2     		sxth	r3, r3
 618 0112 ADF85E31 		strh	r3, [sp, #350]	@ movhi
 619              	.L26:
 296:libraries/zf_common/zf_common_debug.c ****         {                                                                       // éå†è·¯å¾„ ç›´
 620              		.loc 1 296 36 discriminator 1
 621 0116 BDF86031 		ldrh	r3, [sp, #352]	@ movhi
 622 011a 9BB2     		uxth	r3, r3
 296:libraries/zf_common/zf_common_debug.c ****         {                                                                       // éå†è·¯å¾„ ç›´
 623              		.loc 1 296 9 discriminator 1
 624 011c 012B     		cmp	r3, #1
 625 011e 04D8     		bhi	.L29
 296:libraries/zf_common/zf_common_debug.c ****         {                                                                       // éå†è·¯å¾„ ç›´
 626              		.loc 1 296 60 discriminator 3
 627 0120 BDF85E31 		ldrh	r3, [sp, #350]	@ movhi
 628 0124 1BB2     		sxth	r3, r3
 296:libraries/zf_common/zf_common_debug.c ****         {                                                                       // éå†è·¯å¾„ ç›´
 629              		.loc 1 296 54 discriminator 3
 630 0126 002B     		cmp	r3, #0
 631 0128 D8DA     		bge	.L30
 632              	.L29:
 302:libraries/zf_common/zf_common_debug.c ****             }
 303:libraries/zf_common/zf_common_debug.c ****         }
 304:libraries/zf_common/zf_common_debug.c **** 
 305:libraries/zf_common/zf_common_debug.c ****         // æ–‡ä»¶è·¯å¾„ä¿å­˜åˆ°æ•°ç»„ä¸­
 306:libraries/zf_common/zf_common_debug.c ****         if(0 <= len_origin)
 633              		.loc 1 306 14
 634 012a BDF85E31 		ldrh	r3, [sp, #350]	@ movhi
 635 012e 1BB2     		sxth	r3, r3
 636              		.loc 1 306 11
 637 0130 002B     		cmp	r3, #0
 638 0132 09DB     		blt	.L31
 307:libraries/zf_common/zf_common_debug.c ****         {
 308:libraries/zf_common/zf_common_debug.c ****             file_str ++;
 639              		.loc 1 308 22
 640 0134 599B     		ldr	r3, [sp, #356]
 641 0136 0133     		adds	r3, r3, #1
 642 0138 5993     		str	r3, [sp, #356]
 309:libraries/zf_common/zf_common_debug.c ****             sprintf(output_buffer, "file: %s", file_str);
 643              		.loc 1 309 13
 644 013a 16AB     		add	r3, sp, #88
 645 013c 599A     		ldr	r2, [sp, #356]
 646 013e 6449     		ldr	r1, .L52+4
 647 0140 1846     		mov	r0, r3
 648 0142 FFF7FEFF 		bl	sprintf
 649 0146 11E0     		b	.L32
 650              	.L31:
 310:libraries/zf_common/zf_common_debug.c ****         }
 311:libraries/zf_common/zf_common_debug.c ****         else
 312:libraries/zf_common/zf_common_debug.c ****         {
 313:libraries/zf_common/zf_common_debug.c ****             if(0 == temp_counter_2)
 651              		.loc 1 313 18
 652 0148 BDF86031 		ldrh	r3, [sp, #352]	@ movhi
 653 014c 9BB2     		uxth	r3, r3
 654              		.loc 1 313 15
 655 014e 002B     		cmp	r3, #0
 656 0150 06D1     		bne	.L33
 314:libraries/zf_common/zf_common_debug.c ****             {
 315:libraries/zf_common/zf_common_debug.c ****                 sprintf(output_buffer, "file: mdk/%s", file_str);
 657              		.loc 1 315 17
 658 0152 16AB     		add	r3, sp, #88
 659 0154 599A     		ldr	r2, [sp, #356]
 660 0156 5F49     		ldr	r1, .L52+8
 661 0158 1846     		mov	r0, r3
 662 015a FFF7FEFF 		bl	sprintf
 663 015e 05E0     		b	.L32
 664              	.L33:
 316:libraries/zf_common/zf_common_debug.c ****             }
 317:libraries/zf_common/zf_common_debug.c ****             else
 318:libraries/zf_common/zf_common_debug.c ****             {
 319:libraries/zf_common/zf_common_debug.c ****                 sprintf(output_buffer, "file: %s", file_str);
 665              		.loc 1 319 17
 666 0160 16AB     		add	r3, sp, #88
 667 0162 599A     		ldr	r2, [sp, #356]
 668 0164 5A49     		ldr	r1, .L52+4
 669 0166 1846     		mov	r0, r3
 670 0168 FFF7FEFF 		bl	sprintf
 671              	.L32:
 320:libraries/zf_common/zf_common_debug.c ****             }
 321:libraries/zf_common/zf_common_debug.c ****         }
 322:libraries/zf_common/zf_common_debug.c **** 
 323:libraries/zf_common/zf_common_debug.c ****         // å±å¹•æ˜¾ç¤ºè·¯å¾„
 324:libraries/zf_common/zf_common_debug.c ****         // è¿™é‡Œå°±æ˜¯æ ¹æ®å±å¹•çš„å®½åº¦æ¥è®¡ç®—æ€ä¹ˆæ˜¾ç¤º
 325:libraries/zf_common/zf_common_debug.c ****         // èƒ½å•è¡Œæ˜¾ç¤ºå®Œæ¯•çš„å°±ä¸€è¡Œæ˜¾ç¤ºå®Œæ¯•äº†
 326:libraries/zf_common/zf_common_debug.c ****         // éœ€è¦å¤šè¡Œæ˜¾ç¤ºçš„å°±ä¼šåˆ†æˆå¤šè¡Œæˆªæ–­æ˜¾ç¤º
 327:libraries/zf_common/zf_common_debug.c ****         for(temp_counter_1 = 0; temp_counter_1 < ((strlen(output_buffer) / show_len) + 1); temp_cou
 672              		.loc 1 327 28
 673 016c 0023     		movs	r3, #0
 674 016e ADF86231 		strh	r3, [sp, #354]	@ movhi
 675              		.loc 1 327 9
 676 0172 6BE0     		b	.L34
 677              	.L39:
 328:libraries/zf_common/zf_common_debug.c ****         {
 329:libraries/zf_common/zf_common_debug.c ****             for(temp_counter_2 = 0; temp_counter_2 < show_len; temp_counter_2 ++)
 678              		.loc 1 329 32
 679 0174 0023     		movs	r3, #0
 680 0176 ADF86031 		strh	r3, [sp, #352]	@ movhi
 681              		.loc 1 329 13
 682 017a 35E0     		b	.L35
 683              	.L38:
 330:libraries/zf_common/zf_common_debug.c ****             {
 331:libraries/zf_common/zf_common_debug.c ****                 if((uint16)strlen(output_buffer) < (temp_counter_2 + temp_counter_1 * show_len))
 684              		.loc 1 331 28
 685 017c 16AB     		add	r3, sp, #88
 686 017e 1846     		mov	r0, r3
 687 0180 FFF7FEFF 		bl	strlen
 688 0184 0346     		mov	r3, r0
 689              		.loc 1 331 20
 690 0186 9BB2     		uxth	r3, r3
 691 0188 1A46     		mov	r2, r3
 692              		.loc 1 331 68
 693 018a BDF86031 		ldrh	r3, [sp, #352]	@ movhi
 694 018e 9BB2     		uxth	r3, r3
 695 0190 1946     		mov	r1, r3
 696              		.loc 1 331 85
 697 0192 BDF86231 		ldrh	r3, [sp, #354]	@ movhi
 698 0196 9BB2     		uxth	r3, r3
 699 0198 BDF85C01 		ldrh	r0, [sp, #348]	@ movhi
 700 019c 00B2     		sxth	r0, r0
 701 019e 00FB03F3 		mul	r3, r0, r3
 702              		.loc 1 331 68
 703 01a2 0B44     		add	r3, r3, r1
 704              		.loc 1 331 19
 705 01a4 9A42     		cmp	r2, r3
 706 01a6 29DB     		blt	.L49
 332:libraries/zf_common/zf_common_debug.c ****                 {
 333:libraries/zf_common/zf_common_debug.c ****                     break;
 334:libraries/zf_common/zf_common_debug.c ****                 }
 335:libraries/zf_common/zf_common_debug.c ****                 file_path_buffer[temp_counter_2] = output_buffer[temp_counter_2 + temp_counter_1 * 
 707              		.loc 1 335 81 discriminator 2
 708 01a8 BDF86031 		ldrh	r3, [sp, #352]	@ movhi
 709 01ac 9BB2     		uxth	r3, r3
 710 01ae 1A46     		mov	r2, r3
 711              		.loc 1 335 98 discriminator 2
 712 01b0 BDF86231 		ldrh	r3, [sp, #354]	@ movhi
 713 01b4 9BB2     		uxth	r3, r3
 714 01b6 BDF85C11 		ldrh	r1, [sp, #348]	@ movhi
 715 01ba 09B2     		sxth	r1, r1
 716 01bc 01FB03F3 		mul	r3, r1, r3
 717              		.loc 1 335 81 discriminator 2
 718 01c0 1344     		add	r3, r3, r2
 719              		.loc 1 335 33 discriminator 2
 720 01c2 BDF86021 		ldrh	r2, [sp, #352]	@ movhi
 721 01c6 92B2     		uxth	r2, r2
 722 01c8 1146     		mov	r1, r2
 723              		.loc 1 335 65 discriminator 2
 724 01ca 5AAA     		add	r2, sp, #360
 725 01cc A2F58872 		sub	r2, r2, #272
 726 01d0 D256     		ldrsb	r2, [r2, r3]
 727              		.loc 1 335 50 discriminator 2
 728 01d2 5AAB     		add	r3, sp, #360
 729 01d4 A3F5A873 		sub	r3, r3, #336
 730 01d8 5A54     		strb	r2, [r3, r1]
 329:libraries/zf_common/zf_common_debug.c ****             {
 731              		.loc 1 329 79 discriminator 2
 732 01da BDF86031 		ldrh	r3, [sp, #352]	@ movhi
 733 01de 9BB2     		uxth	r3, r3
 734 01e0 0133     		adds	r3, r3, #1
 735 01e2 9BB2     		uxth	r3, r3
 736 01e4 ADF86031 		strh	r3, [sp, #352]	@ movhi
 737              	.L35:
 329:libraries/zf_common/zf_common_debug.c ****             {
 738              		.loc 1 329 52 discriminator 1
 739 01e8 BDF86031 		ldrh	r3, [sp, #352]	@ movhi
 740 01ec 9BB2     		uxth	r3, r3
 741 01ee 1A46     		mov	r2, r3
 742 01f0 BDF85C31 		ldrh	r3, [sp, #348]	@ movhi
 743 01f4 1BB2     		sxth	r3, r3
 329:libraries/zf_common/zf_common_debug.c ****             {
 744              		.loc 1 329 13 discriminator 1
 745 01f6 9A42     		cmp	r2, r3
 746 01f8 C0DB     		blt	.L38
 747 01fa 00E0     		b	.L37
 748              	.L49:
 333:libraries/zf_common/zf_common_debug.c ****                 }
 749              		.loc 1 333 21
 750 01fc 00BF     		nop
 751              	.L37:
 336:libraries/zf_common/zf_common_debug.c ****             }
 337:libraries/zf_common/zf_common_debug.c ****             
 338:libraries/zf_common/zf_common_debug.c ****             file_path_buffer[temp_counter_2] = '\0';                            // æœ«å°¾æ·»åŠ \0
 752              		.loc 1 338 29 discriminator 2
 753 01fe BDF86031 		ldrh	r3, [sp, #352]	@ movhi
 754 0202 9BB2     		uxth	r3, r3
 755 0204 1A46     		mov	r2, r3
 756              		.loc 1 338 46 discriminator 2
 757 0206 5AAB     		add	r3, sp, #360
 758 0208 A3F5A873 		sub	r3, r3, #336
 759 020c 0021     		movs	r1, #0
 760 020e 9954     		strb	r1, [r3, r2]
 339:libraries/zf_common/zf_common_debug.c ****             
 340:libraries/zf_common/zf_common_debug.c ****             debug_output_obj.output_screen(debug_output_obj.device_obj, 0, debug_output_obj.font_y_
 761              		.loc 1 340 29 discriminator 2
 762 0210 2E4B     		ldr	r3, .L52
 763 0212 DC68     		ldr	r4, [r3, #12]
 764              		.loc 1 340 13 discriminator 2
 765 0214 2D4B     		ldr	r3, .L52
 766 0216 9868     		ldr	r0, [r3, #8]
 767              		.loc 1 340 92 discriminator 2
 768 0218 2C4B     		ldr	r3, .L52
 769 021a DB79     		ldrb	r3, [r3, #7]	@ zero_extendqisi2
 770              		.loc 1 340 13 discriminator 2
 771 021c 9AB2     		uxth	r2, r3
 772              		.loc 1 340 123 discriminator 2
 773 021e BDF85A31 		ldrh	r3, [sp, #346]	@ movhi
 774 0222 19B2     		sxth	r1, r3
 775 0224 8BB2     		uxth	r3, r1
 776 0226 0133     		adds	r3, r3, #1
 777 0228 9BB2     		uxth	r3, r3
 778 022a 1BB2     		sxth	r3, r3
 779 022c ADF85A31 		strh	r3, [sp, #346]	@ movhi
 780              		.loc 1 340 13 discriminator 2
 781 0230 8BB2     		uxth	r3, r1
 782 0232 12FB03F3 		smulbb	r3, r2, r3
 783 0236 9AB2     		uxth	r2, r3
 784 0238 06AB     		add	r3, sp, #24
 785 023a 0021     		movs	r1, #0
 786 023c A047     		blx	r4
 787              	.LVL2:
 327:libraries/zf_common/zf_common_debug.c ****         {
 788              		.loc 1 327 107 discriminator 2
 789 023e BDF86231 		ldrh	r3, [sp, #354]	@ movhi
 790 0242 9BB2     		uxth	r3, r3
 791 0244 0133     		adds	r3, r3, #1
 792 0246 9BB2     		uxth	r3, r3
 793 0248 ADF86231 		strh	r3, [sp, #354]	@ movhi
 794              	.L34:
 327:libraries/zf_common/zf_common_debug.c ****         {
 795              		.loc 1 327 48 discriminator 1
 796 024c BDF86231 		ldrh	r3, [sp, #354]	@ movhi
 797 0250 9BB2     		uxth	r3, r3
 798 0252 1C46     		mov	r4, r3
 327:libraries/zf_common/zf_common_debug.c ****         {
 799              		.loc 1 327 52 discriminator 1
 800 0254 16AB     		add	r3, sp, #88
 801 0256 1846     		mov	r0, r3
 802 0258 FFF7FEFF 		bl	strlen
 803 025c 0346     		mov	r3, r0
 327:libraries/zf_common/zf_common_debug.c ****         {
 804              		.loc 1 327 74 discriminator 1
 805 025e BDF85C21 		ldrh	r2, [sp, #348]	@ movhi
 806 0262 12B2     		sxth	r2, r2
 807 0264 B3FBF2F3 		udiv	r3, r3, r2
 327:libraries/zf_common/zf_common_debug.c ****         {
 808              		.loc 1 327 86 discriminator 1
 809 0268 0133     		adds	r3, r3, #1
 327:libraries/zf_common/zf_common_debug.c ****         {
 810              		.loc 1 327 9 discriminator 1
 811 026a 9C42     		cmp	r4, r3
 812 026c 82D3     		bcc	.L39
 341:libraries/zf_common/zf_common_debug.c ****         }
 342:libraries/zf_common/zf_common_debug.c **** 
 343:libraries/zf_common/zf_common_debug.c ****         // å±å¹•æ˜¾ç¤ºè¡Œå·
 344:libraries/zf_common/zf_common_debug.c ****         sprintf(output_buffer, "line: %d", line);
 813              		.loc 1 344 9
 814 026e 5AAB     		add	r3, sp, #360
 815 0270 A3F5AE73 		sub	r3, r3, #348
 816 0274 16A8     		add	r0, sp, #88
 817 0276 1A68     		ldr	r2, [r3]
 818 0278 1749     		ldr	r1, .L52+12
 819 027a FFF7FEFF 		bl	sprintf
 345:libraries/zf_common/zf_common_debug.c ****         debug_output_obj.output_screen(debug_output_obj.device_obj, 0, debug_output_obj.font_y_size
 820              		.loc 1 345 25
 821 027e 134B     		ldr	r3, .L52
 822 0280 DC68     		ldr	r4, [r3, #12]
 823              		.loc 1 345 9
 824 0282 124B     		ldr	r3, .L52
 825 0284 9868     		ldr	r0, [r3, #8]
 826              		.loc 1 345 88
 827 0286 114B     		ldr	r3, .L52
 828 0288 DB79     		ldrb	r3, [r3, #7]	@ zero_extendqisi2
 829              		.loc 1 345 9
 830 028a 9AB2     		uxth	r2, r3
 831              		.loc 1 345 119
 832 028c BDF85A31 		ldrh	r3, [sp, #346]	@ movhi
 833 0290 19B2     		sxth	r1, r3
 834 0292 8BB2     		uxth	r3, r1
 835 0294 0133     		adds	r3, r3, #1
 836 0296 9BB2     		uxth	r3, r3
 837 0298 1BB2     		sxth	r3, r3
 838 029a ADF85A31 		strh	r3, [sp, #346]	@ movhi
 839              		.loc 1 345 9
 840 029e 8BB2     		uxth	r3, r1
 841 02a0 12FB03F3 		smulbb	r3, r2, r3
 842 02a4 9AB2     		uxth	r2, r3
 843 02a6 16AB     		add	r3, sp, #88
 844 02a8 0021     		movs	r1, #0
 845 02aa A047     		blx	r4
 846              	.LVL3:
 346:libraries/zf_common/zf_common_debug.c **** 
 347:libraries/zf_common/zf_common_debug.c ****         // å±å¹•æ˜¾ç¤º Log å¦‚æœæœ‰çš„è¯
 348:libraries/zf_common/zf_common_debug.c ****         // åŒæ ·æ˜¯æ ¹æ®å±å¹•çš„å®½åº¦æ¥è®¡ç®—æ€ä¹ˆæ˜¾ç¤º
 349:libraries/zf_common/zf_common_debug.c ****         // èƒ½å•è¡Œæ˜¾ç¤ºå®Œæ¯•çš„å°±ä¸€è¡Œæ˜¾ç¤ºå®Œæ¯•äº†
 350:libraries/zf_common/zf_common_debug.c ****         // éœ€è¦å¤šè¡Œæ˜¾ç¤ºçš„å°±ä¼šåˆ†æˆå¤šè¡Œæˆªæ–­æ˜¾ç¤º
 351:libraries/zf_common/zf_common_debug.c ****         if(NULL != str)
 847              		.loc 1 351 11
 848 02ac 5AAB     		add	r3, sp, #360
 849 02ae A3F5B073 		sub	r3, r3, #352
 850 02b2 1B68     		ldr	r3, [r3]
 851 02b4 002B     		cmp	r3, #0
 852 02b6 00F0CA80 		beq	.L50
 352:libraries/zf_common/zf_common_debug.c ****         {
 353:libraries/zf_common/zf_common_debug.c ****             for(temp_counter_1 = 0; temp_counter_1 < ((strlen(str) / show_len) + 1); temp_counter_1
 853              		.loc 1 353 32
 854 02ba 0023     		movs	r3, #0
 855 02bc ADF86231 		strh	r3, [sp, #354]	@ movhi
 856              		.loc 1 353 13
 857 02c0 79E0     		b	.L41
 858              	.L46:
 354:libraries/zf_common/zf_common_debug.c ****             {
 355:libraries/zf_common/zf_common_debug.c ****                 for(temp_counter_2 = 0; temp_counter_2 < show_len; temp_counter_2 ++)
 859              		.loc 1 355 36
 860 02c2 0023     		movs	r3, #0
 861 02c4 ADF86031 		strh	r3, [sp, #352]	@ movhi
 862              		.loc 1 355 17
 863 02c8 43E0     		b	.L42
 864              	.L53:
 865 02ca 00BF     		.align	2
 866              	.L52:
 867 02cc 00000000 		.word	debug_output_obj
 868 02d0 00000000 		.word	.LC0
 869 02d4 0C000000 		.word	.LC1
 870 02d8 1C000000 		.word	.LC2
 871              	.L45:
 356:libraries/zf_common/zf_common_debug.c ****                 {
 357:libraries/zf_common/zf_common_debug.c ****                     if((uint16)strlen(str) < (temp_counter_2 + temp_counter_1 * show_len))
 872              		.loc 1 357 32
 873 02dc 5AAB     		add	r3, sp, #360
 874 02de A3F5B073 		sub	r3, r3, #352
 875 02e2 1868     		ldr	r0, [r3]
 876 02e4 FFF7FEFF 		bl	strlen
 877 02e8 0346     		mov	r3, r0
 878              		.loc 1 357 24
 879 02ea 9BB2     		uxth	r3, r3
 880 02ec 1A46     		mov	r2, r3
 881              		.loc 1 357 62
 882 02ee BDF86031 		ldrh	r3, [sp, #352]	@ movhi
 883 02f2 9BB2     		uxth	r3, r3
 884 02f4 1946     		mov	r1, r3
 885              		.loc 1 357 79
 886 02f6 BDF86231 		ldrh	r3, [sp, #354]	@ movhi
 887 02fa 9BB2     		uxth	r3, r3
 888 02fc BDF85C01 		ldrh	r0, [sp, #348]	@ movhi
 889 0300 00B2     		sxth	r0, r0
 890 0302 00FB03F3 		mul	r3, r0, r3
 891              		.loc 1 357 62
 892 0306 0B44     		add	r3, r3, r1
 893              		.loc 1 357 23
 894 0308 9A42     		cmp	r2, r3
 895 030a 2CDB     		blt	.L51
 358:libraries/zf_common/zf_common_debug.c ****                     {
 359:libraries/zf_common/zf_common_debug.c ****                         break;
 360:libraries/zf_common/zf_common_debug.c ****                     }
 361:libraries/zf_common/zf_common_debug.c ****                     file_path_buffer[temp_counter_2] = str[temp_counter_2 + temp_counter_1 * show_l
 896              		.loc 1 361 75 discriminator 2
 897 030c BDF86031 		ldrh	r3, [sp, #352]	@ movhi
 898 0310 9BB2     		uxth	r3, r3
 899 0312 1A46     		mov	r2, r3
 900              		.loc 1 361 92 discriminator 2
 901 0314 BDF86231 		ldrh	r3, [sp, #354]	@ movhi
 902 0318 9BB2     		uxth	r3, r3
 903 031a BDF85C11 		ldrh	r1, [sp, #348]	@ movhi
 904 031e 09B2     		sxth	r1, r1
 905 0320 01FB03F3 		mul	r3, r1, r3
 906              		.loc 1 361 75 discriminator 2
 907 0324 1344     		add	r3, r3, r2
 908 0326 1A46     		mov	r2, r3
 909              		.loc 1 361 59 discriminator 2
 910 0328 5AAB     		add	r3, sp, #360
 911 032a A3F5B073 		sub	r3, r3, #352
 912 032e 1B68     		ldr	r3, [r3]
 913 0330 1344     		add	r3, r3, r2
 914              		.loc 1 361 37 discriminator 2
 915 0332 BDF86021 		ldrh	r2, [sp, #352]	@ movhi
 916 0336 92B2     		uxth	r2, r2
 917              		.loc 1 361 59 discriminator 2
 918 0338 93F90010 		ldrsb	r1, [r3]
 919              		.loc 1 361 54 discriminator 2
 920 033c 5AAB     		add	r3, sp, #360
 921 033e A3F5A873 		sub	r3, r3, #336
 922 0342 9954     		strb	r1, [r3, r2]
 355:libraries/zf_common/zf_common_debug.c ****                 {
 923              		.loc 1 355 83 discriminator 2
 924 0344 BDF86031 		ldrh	r3, [sp, #352]	@ movhi
 925 0348 9BB2     		uxth	r3, r3
 926 034a 0133     		adds	r3, r3, #1
 927 034c 9BB2     		uxth	r3, r3
 928 034e ADF86031 		strh	r3, [sp, #352]	@ movhi
 929              	.L42:
 355:libraries/zf_common/zf_common_debug.c ****                 {
 930              		.loc 1 355 56 discriminator 1
 931 0352 BDF86031 		ldrh	r3, [sp, #352]	@ movhi
 932 0356 9BB2     		uxth	r3, r3
 933 0358 1A46     		mov	r2, r3
 934 035a BDF85C31 		ldrh	r3, [sp, #348]	@ movhi
 935 035e 1BB2     		sxth	r3, r3
 355:libraries/zf_common/zf_common_debug.c ****                 {
 936              		.loc 1 355 17 discriminator 1
 937 0360 9A42     		cmp	r2, r3
 938 0362 BBDB     		blt	.L45
 939 0364 00E0     		b	.L44
 940              	.L51:
 359:libraries/zf_common/zf_common_debug.c ****                     }
 941              		.loc 1 359 25
 942 0366 00BF     		nop
 943              	.L44:
 362:libraries/zf_common/zf_common_debug.c ****                 }
 363:libraries/zf_common/zf_common_debug.c ****                 
 364:libraries/zf_common/zf_common_debug.c ****                 file_path_buffer[temp_counter_2] = '\0';                        // æœ«å°¾æ·»åŠ \0
 944              		.loc 1 364 33 discriminator 2
 945 0368 BDF86031 		ldrh	r3, [sp, #352]	@ movhi
 946 036c 9BB2     		uxth	r3, r3
 947 036e 1A46     		mov	r2, r3
 948              		.loc 1 364 50 discriminator 2
 949 0370 5AAB     		add	r3, sp, #360
 950 0372 A3F5A873 		sub	r3, r3, #336
 951 0376 0021     		movs	r1, #0
 952 0378 9954     		strb	r1, [r3, r2]
 365:libraries/zf_common/zf_common_debug.c ****                 
 366:libraries/zf_common/zf_common_debug.c ****                 debug_output_obj.output_screen(debug_output_obj.device_obj, 0, debug_output_obj.fon
 953              		.loc 1 366 33 discriminator 2
 954 037a 364B     		ldr	r3, .L54
 955 037c DC68     		ldr	r4, [r3, #12]
 956              		.loc 1 366 17 discriminator 2
 957 037e 354B     		ldr	r3, .L54
 958 0380 9868     		ldr	r0, [r3, #8]
 959              		.loc 1 366 96 discriminator 2
 960 0382 344B     		ldr	r3, .L54
 961 0384 DB79     		ldrb	r3, [r3, #7]	@ zero_extendqisi2
 962              		.loc 1 366 17 discriminator 2
 963 0386 9AB2     		uxth	r2, r3
 964              		.loc 1 366 127 discriminator 2
 965 0388 BDF85A31 		ldrh	r3, [sp, #346]	@ movhi
 966 038c 19B2     		sxth	r1, r3
 967 038e 8BB2     		uxth	r3, r1
 968 0390 0133     		adds	r3, r3, #1
 969 0392 9BB2     		uxth	r3, r3
 970 0394 1BB2     		sxth	r3, r3
 971 0396 ADF85A31 		strh	r3, [sp, #346]	@ movhi
 972              		.loc 1 366 17 discriminator 2
 973 039a 8BB2     		uxth	r3, r1
 974 039c 12FB03F3 		smulbb	r3, r2, r3
 975 03a0 9AB2     		uxth	r2, r3
 976 03a2 06AB     		add	r3, sp, #24
 977 03a4 0021     		movs	r1, #0
 978 03a6 A047     		blx	r4
 979              	.LVL4:
 353:libraries/zf_common/zf_common_debug.c ****             {
 980              		.loc 1 353 101 discriminator 2
 981 03a8 BDF86231 		ldrh	r3, [sp, #354]	@ movhi
 982 03ac 9BB2     		uxth	r3, r3
 983 03ae 0133     		adds	r3, r3, #1
 984 03b0 9BB2     		uxth	r3, r3
 985 03b2 ADF86231 		strh	r3, [sp, #354]	@ movhi
 986              	.L41:
 353:libraries/zf_common/zf_common_debug.c ****             {
 987              		.loc 1 353 52 discriminator 1
 988 03b6 BDF86231 		ldrh	r3, [sp, #354]	@ movhi
 989 03ba 9BB2     		uxth	r3, r3
 990 03bc 1C46     		mov	r4, r3
 353:libraries/zf_common/zf_common_debug.c ****             {
 991              		.loc 1 353 56 discriminator 1
 992 03be 5AAB     		add	r3, sp, #360
 993 03c0 A3F5B073 		sub	r3, r3, #352
 994 03c4 1868     		ldr	r0, [r3]
 995 03c6 FFF7FEFF 		bl	strlen
 996 03ca 0346     		mov	r3, r0
 353:libraries/zf_common/zf_common_debug.c ****             {
 997              		.loc 1 353 68 discriminator 1
 998 03cc BDF85C21 		ldrh	r2, [sp, #348]	@ movhi
 999 03d0 12B2     		sxth	r2, r2
 1000 03d2 B3FBF2F3 		udiv	r3, r3, r2
 353:libraries/zf_common/zf_common_debug.c ****             {
 1001              		.loc 1 353 80 discriminator 1
 1002 03d6 0133     		adds	r3, r3, #1
 353:libraries/zf_common/zf_common_debug.c ****             {
 1003              		.loc 1 353 13 discriminator 1
 1004 03d8 9C42     		cmp	r4, r3
 1005 03da FFF472AF 		bcc	.L46
 367:libraries/zf_common/zf_common_debug.c ****             }
 368:libraries/zf_common/zf_common_debug.c ****         }
 369:libraries/zf_common/zf_common_debug.c ****     }
 370:libraries/zf_common/zf_common_debug.c ****     else
 371:libraries/zf_common/zf_common_debug.c ****     {
 372:libraries/zf_common/zf_common_debug.c ****         // ä¸²å£è¾“å‡ºå°±æ²¡ä»€ä¹ˆé¡¾è™‘äº†
 373:libraries/zf_common/zf_common_debug.c ****         // æœ€é«˜ 256byte ç›´æ¥æ€¼åˆ°ä¸²å£å°±å®Œäº‹äº†
 374:libraries/zf_common/zf_common_debug.c ****         memset(output_buffer, 0, 256);
 375:libraries/zf_common/zf_common_debug.c ****         debug_output_obj.output_uart(type);
 376:libraries/zf_common/zf_common_debug.c ****         if(NULL != str)
 377:libraries/zf_common/zf_common_debug.c ****         {
 378:libraries/zf_common/zf_common_debug.c ****             sprintf(output_buffer, "\r\nfile %s line %d: %s.\r\n", file, line, str);
 379:libraries/zf_common/zf_common_debug.c ****         }
 380:libraries/zf_common/zf_common_debug.c ****         else
 381:libraries/zf_common/zf_common_debug.c ****         {
 382:libraries/zf_common/zf_common_debug.c ****             sprintf(output_buffer, "\r\nfile %s line %d.\r\n", file, line);
 383:libraries/zf_common/zf_common_debug.c ****         }
 384:libraries/zf_common/zf_common_debug.c ****         debug_output_obj.output_uart(output_buffer);
 385:libraries/zf_common/zf_common_debug.c ****     }
 386:libraries/zf_common/zf_common_debug.c **** }
 1006              		.loc 1 386 1
 1007 03de 36E0     		b	.L50
 1008              	.L24:
 374:libraries/zf_common/zf_common_debug.c ****         debug_output_obj.output_uart(type);
 1009              		.loc 1 374 9
 1010 03e0 16AB     		add	r3, sp, #88
 1011 03e2 4FF48072 		mov	r2, #256
 1012 03e6 0021     		movs	r1, #0
 1013 03e8 1846     		mov	r0, r3
 1014 03ea FFF7FEFF 		bl	memset
 375:libraries/zf_common/zf_common_debug.c ****         if(NULL != str)
 1015              		.loc 1 375 25
 1016 03ee 194B     		ldr	r3, .L54
 1017 03f0 DB68     		ldr	r3, [r3, #12]
 375:libraries/zf_common/zf_common_debug.c ****         if(NULL != str)
 1018              		.loc 1 375 9
 1019 03f2 5AAA     		add	r2, sp, #360
 1020 03f4 A2F5AA72 		sub	r2, r2, #340
 1021 03f8 1068     		ldr	r0, [r2]
 1022 03fa 9847     		blx	r3
 1023              	.LVL5:
 376:libraries/zf_common/zf_common_debug.c ****         {
 1024              		.loc 1 376 11
 1025 03fc 5AAB     		add	r3, sp, #360
 1026 03fe A3F5B073 		sub	r3, r3, #352
 1027 0402 1B68     		ldr	r3, [r3]
 1028 0404 002B     		cmp	r3, #0
 1029 0406 11D0     		beq	.L47
 378:libraries/zf_common/zf_common_debug.c ****         }
 1030              		.loc 1 378 13
 1031 0408 5AAB     		add	r3, sp, #360
 1032 040a A3F5AE73 		sub	r3, r3, #348
 1033 040e 5AAA     		add	r2, sp, #360
 1034 0410 A2F5AC72 		sub	r2, r2, #344
 1035 0414 16A8     		add	r0, sp, #88
 1036 0416 5AA9     		add	r1, sp, #360
 1037 0418 A1F5B071 		sub	r1, r1, #352
 1038 041c 0968     		ldr	r1, [r1]
 1039 041e 0091     		str	r1, [sp]
 1040 0420 1B68     		ldr	r3, [r3]
 1041 0422 1268     		ldr	r2, [r2]
 1042 0424 0C49     		ldr	r1, .L54+4
 1043 0426 FFF7FEFF 		bl	sprintf
 1044 042a 0BE0     		b	.L48
 1045              	.L47:
 382:libraries/zf_common/zf_common_debug.c ****         }
 1046              		.loc 1 382 13
 1047 042c 5AAB     		add	r3, sp, #360
 1048 042e A3F5AE73 		sub	r3, r3, #348
 1049 0432 5AAA     		add	r2, sp, #360
 1050 0434 A2F5AC72 		sub	r2, r2, #344
 1051 0438 16A8     		add	r0, sp, #88
 1052 043a 1B68     		ldr	r3, [r3]
 1053 043c 1268     		ldr	r2, [r2]
 1054 043e 0749     		ldr	r1, .L54+8
 1055 0440 FFF7FEFF 		bl	sprintf
 1056              	.L48:
 384:libraries/zf_common/zf_common_debug.c ****     }
 1057              		.loc 1 384 25
 1058 0444 034B     		ldr	r3, .L54
 1059 0446 DB68     		ldr	r3, [r3, #12]
 384:libraries/zf_common/zf_common_debug.c ****     }
 1060              		.loc 1 384 9
 1061 0448 16AA     		add	r2, sp, #88
 1062 044a 1046     		mov	r0, r2
 1063 044c 9847     		blx	r3
 1064              	.LVL6:
 1065              	.L50:
 1066              		.loc 1 386 1
 1067 044e 00BF     		nop
 1068 0450 5AB0     		add	sp, sp, #360
 1069              		.cfi_def_cfa_offset 8
 1070              		@ sp needed
 1071 0452 10BD     		pop	{r4, pc}
 1072              	.L55:
 1073              		.align	2
 1074              	.L54:
 1075 0454 00000000 		.word	debug_output_obj
 1076 0458 28000000 		.word	.LC3
 1077 045c 44000000 		.word	.LC4
 1078              		.cfi_endproc
 1079              	.LFE493:
 1081              		.section	.rodata
 1082 0059 000000   		.align	2
 1083              	.LC5:
 1084 005c 41737365 		.ascii	"Assert error\000"
 1084      72742065 
 1084      72726F72 
 1084      00
 1085 0069 000000   		.align	2
 1086              	.LC6:
 1087 006c 4C6F6720 		.ascii	"Log message\000"
 1087      6D657373 
 1087      61676500 
 1088              		.section	.text.debug_message_handler,"ax",%progbits
 1089              		.align	1
 1090              		.p2align 4,,15
 1091              		.global	debug_message_handler
 1092              		.syntax unified
 1093              		.thumb
 1094              		.thumb_func
 1096              	debug_message_handler:
 1097              	.LFB494:
 387:libraries/zf_common/zf_common_debug.c **** 
 388:libraries/zf_common/zf_common_debug.c **** //-------------------------------------------------------------------------------------------------
 389:libraries/zf_common/zf_common_debug.c **** // å‡½æ•°ç®€ä»‹     debug è°ƒè¯•ä¿¡æ¯å¤„ç†å‡½æ•°
 390:libraries/zf_common/zf_common_debug.c **** // å‚æ•°è¯´æ˜     output_level        è¾“å‡ºç­‰çº§
 391:libraries/zf_common/zf_common_debug.c **** // å‚æ•°è¯´æ˜     pass                æ¡ä»¶åˆ¤æ–­
 392:libraries/zf_common/zf_common_debug.c **** // å‚æ•°è¯´æ˜     *str                è¾“å‡ºçš„ä¿¡æ¯
 393:libraries/zf_common/zf_common_debug.c **** // å‚æ•°è¯´æ˜     *file               æ–‡ä»¶å
 394:libraries/zf_common/zf_common_debug.c **** // å‚æ•°è¯´æ˜     line                ç›®æ ‡è¡Œæ•°
 395:libraries/zf_common/zf_common_debug.c **** // è¿”å›å‚æ•°     uint8               è¿”å› pass åˆ¤æ–­å€¼
 396:libraries/zf_common/zf_common_debug.c **** // ä½¿ç”¨ç¤ºä¾‹     debug_message_handler(ZF_DEBUG_FILE, 0, "Error", ZF_DEBUG_FILE, ZF_DEBUG_LINE);
 397:libraries/zf_common/zf_common_debug.c **** // å¤‡æ³¨ä¿¡æ¯     æ­¤éƒ¨åˆ†ä¸å…è®¸ç”¨æˆ·æ›´æ”¹
 398:libraries/zf_common/zf_common_debug.c **** //              æ¨èä½¿ç”¨ zf_commmon_debug.h ä¸­çš„ zf_log(x, str) æ¥å£
 399:libraries/zf_common/zf_common_debug.c **** //-------------------------------------------------------------------------------------------------
 400:libraries/zf_common/zf_common_debug.c **** uint8 debug_message_handler (uint8 output_level, uint8 pass, char *str, char *file, int line)
 401:libraries/zf_common/zf_common_debug.c **** {
 1098              		.loc 1 401 1
 1099              		.cfi_startproc
 1100              		@ args = 4, pretend = 0, frame = 16
 1101              		@ frame_needed = 0, uses_anonymous_args = 0
 1102 0000 00B5     		push	{lr}
 1103              		.cfi_def_cfa_offset 4
 1104              		.cfi_offset 14, -4
 1105 0002 85B0     		sub	sp, sp, #20
 1106              		.cfi_def_cfa_offset 24
 1107 0004 0292     		str	r2, [sp, #8]
 1108 0006 0193     		str	r3, [sp, #4]
 1109 0008 0346     		mov	r3, r0
 1110 000a 8DF80F30 		strb	r3, [sp, #15]
 1111 000e 0B46     		mov	r3, r1
 1112 0010 8DF80E30 		strb	r3, [sp, #14]
 402:libraries/zf_common/zf_common_debug.c ****     if(!pass)
 1113              		.loc 1 402 7
 1114 0014 9DF80E30 		ldrb	r3, [sp, #14]	@ zero_extendqisi2
 1115 0018 002B     		cmp	r3, #0
 1116 001a 24D1     		bne	.L64
 403:libraries/zf_common/zf_common_debug.c ****     {
 404:libraries/zf_common/zf_common_debug.c ****         switch(output_level)
 1117              		.loc 1 404 9
 1118 001c 9DF80F30 		ldrb	r3, [sp, #15]	@ zero_extendqisi2
 1119 0020 012B     		cmp	r3, #1
 1120 0022 19D0     		beq	.L58
 1121 0024 022B     		cmp	r3, #2
 1122 0026 20D1     		bne	.L65
 1123              	.LBB2:
 405:libraries/zf_common/zf_common_debug.c ****         {
 406:libraries/zf_common/zf_common_debug.c ****             case DEBUG_OUTPUT_LEVEL_ASSERT:
 407:libraries/zf_common/zf_common_debug.c ****             {
 408:libraries/zf_common/zf_common_debug.c ****                 static uint8 assert_nest_index = 0;
 409:libraries/zf_common/zf_common_debug.c **** 
 410:libraries/zf_common/zf_common_debug.c ****                 if(0 != assert_nest_index)
 1124              		.loc 1 410 22
 1125 0028 164B     		ldr	r3, .L66
 1126 002a 1B78     		ldrb	r3, [r3]	@ zero_extendqisi2
 1127              		.loc 1 410 19
 1128 002c 002B     		cmp	r3, #0
 1129 002e 00D0     		beq	.L60
 1130              	.L61:
 411:libraries/zf_common/zf_common_debug.c ****                 {
 412:libraries/zf_common/zf_common_debug.c ****                     while(1);
 1131              		.loc 1 412 26 discriminator 1
 1132 0030 FEE7     		b	.L61
 1133              	.L60:
 413:libraries/zf_common/zf_common_debug.c ****                 }
 414:libraries/zf_common/zf_common_debug.c ****                 assert_nest_index ++;
 1134              		.loc 1 414 35
 1135 0032 144B     		ldr	r3, .L66
 1136 0034 1B78     		ldrb	r3, [r3]	@ zero_extendqisi2
 1137 0036 0133     		adds	r3, r3, #1
 1138 0038 DAB2     		uxtb	r2, r3
 1139 003a 124B     		ldr	r3, .L66
 1140 003c 1A70     		strb	r2, [r3]
 415:libraries/zf_common/zf_common_debug.c **** 
 416:libraries/zf_common/zf_common_debug.c ****                 debug_interrupt_protective_handler();
 1141              		.loc 1 416 17
 1142 003e FFF7FEFF 		bl	debug_interrupt_protective_handler
 417:libraries/zf_common/zf_common_debug.c ****                 debug_pwm_protective_handler();
 1143              		.loc 1 417 17
 1144 0042 FFF7FEFF 		bl	debug_pwm_protective_handler
 1145              	.L62:
 418:libraries/zf_common/zf_common_debug.c **** 
 419:libraries/zf_common/zf_common_debug.c ****                 while(1)
 420:libraries/zf_common/zf_common_debug.c ****                 {
 421:libraries/zf_common/zf_common_debug.c ****                     // å¦‚æœä»£ç è·³è½¬åˆ°è¿™é‡Œåœä½äº†
 422:libraries/zf_common/zf_common_debug.c ****                     // ä¸€èˆ¬ä½ çš„å‡½æ•°å‚æ•°ä¼ é€’å‡ºé”™äº†
 423:libraries/zf_common/zf_common_debug.c ****                     // æˆ–è€…ä½ è‡ªå·±è°ƒç”¨çš„ zf_assert(x) æ¥å£å¤„æŠ¥é”™äº†
 424:libraries/zf_common/zf_common_debug.c **** 
 425:libraries/zf_common/zf_common_debug.c ****                     // å¦‚æœè°ƒç”¨äº† debug_init åˆå§‹åŒ–äº† log è¾“å‡º
 426:libraries/zf_common/zf_common_debug.c ****                     // å°±åœ¨å¯¹åº”ä¸²å£è¾“å‡ºå»æŸ¥çœ‹æ˜¯å“ªä¸ªæ–‡ä»¶çš„å“ªä¸€è¡ŒæŠ¥é”™
 427:libraries/zf_common/zf_common_debug.c **** 
 428:libraries/zf_common/zf_common_debug.c ****                     // å¦‚æœæ²¡æœ‰åˆå§‹åŒ– debug
 429:libraries/zf_common/zf_common_debug.c ****                     // é‚£å°±çœ‹çœ‹è¿™ä¸ª file çš„å­—ç¬¦ä¸²å€¼å’Œ line çš„è¡Œæ•°
 430:libraries/zf_common/zf_common_debug.c ****                     // é‚£ä»£è¡¨æŠ¥é”™çš„æ–‡ä»¶è·¯å¾„åç§°å’Œå¯¹åº”æŠ¥é”™è¡Œæ•°
 431:libraries/zf_common/zf_common_debug.c **** 
 432:libraries/zf_common/zf_common_debug.c ****                     // å†å»è°ƒè¯•çœ‹çœ‹æ˜¯ä¸ºä»€ä¹ˆå‚æ•°å‡ºé”™
 433:libraries/zf_common/zf_common_debug.c **** 
 434:libraries/zf_common/zf_common_debug.c ****                     debug_output("Assert error", file, line, str);
 1146              		.loc 1 434 21 discriminator 1
 1147 0046 029B     		ldr	r3, [sp, #8]
 1148 0048 069A     		ldr	r2, [sp, #24]
 1149 004a 0199     		ldr	r1, [sp, #4]
 1150 004c 0E48     		ldr	r0, .L66+4
 1151 004e FFF7FEFF 		bl	debug_output
 435:libraries/zf_common/zf_common_debug.c ****                     debug_delay();
 1152              		.loc 1 435 21 discriminator 1
 1153 0052 FFF7FEFF 		bl	debug_delay
 434:libraries/zf_common/zf_common_debug.c ****                     debug_delay();
 1154              		.loc 1 434 21 discriminator 1
 1155 0056 F6E7     		b	.L62
 1156              	.L58:
 1157              	.LBE2:
 436:libraries/zf_common/zf_common_debug.c ****                 }
 437:libraries/zf_common/zf_common_debug.c ****             }break;
 438:libraries/zf_common/zf_common_debug.c ****             case DEBUG_OUTPUT_LEVEL_LOG:
 439:libraries/zf_common/zf_common_debug.c ****             {
 440:libraries/zf_common/zf_common_debug.c ****                 debug_output("Log message", file, line, str);
 1158              		.loc 1 440 17
 1159 0058 029B     		ldr	r3, [sp, #8]
 1160 005a 069A     		ldr	r2, [sp, #24]
 1161 005c 0199     		ldr	r1, [sp, #4]
 1162 005e 0B48     		ldr	r0, .L66+8
 1163 0060 FFF7FEFF 		bl	debug_output
 441:libraries/zf_common/zf_common_debug.c ****             }break;
 1164              		.loc 1 441 13
 1165 0064 02E0     		b	.L57
 1166              	.L64:
 442:libraries/zf_common/zf_common_debug.c ****             case DEBUG_OUTPUT_LEVEL_DISABLE:
 443:libraries/zf_common/zf_common_debug.c ****             default:
 444:libraries/zf_common/zf_common_debug.c ****             {
 445:libraries/zf_common/zf_common_debug.c ****             }break;
 446:libraries/zf_common/zf_common_debug.c ****         }
 447:libraries/zf_common/zf_common_debug.c ****     }
 1167              		.loc 1 447 5
 1168 0066 00BF     		nop
 1169 0068 00E0     		b	.L57
 1170              	.L65:
 445:libraries/zf_common/zf_common_debug.c ****         }
 1171              		.loc 1 445 13
 1172 006a 00BF     		nop
 1173              	.L57:
 448:libraries/zf_common/zf_common_debug.c ****     return !pass;
 1174              		.loc 1 448 12
 1175 006c 9DF80E30 		ldrb	r3, [sp, #14]	@ zero_extendqisi2
 1176 0070 002B     		cmp	r3, #0
 1177 0072 0CBF     		ite	eq
 1178 0074 0123     		moveq	r3, #1
 1179 0076 0023     		movne	r3, #0
 1180 0078 DBB2     		uxtb	r3, r3
 449:libraries/zf_common/zf_common_debug.c **** }
 1181              		.loc 1 449 1
 1182 007a 1846     		mov	r0, r3
 1183 007c 05B0     		add	sp, sp, #20
 1184              		.cfi_def_cfa_offset 4
 1185              		@ sp needed
 1186 007e 5DF804FB 		ldr	pc, [sp], #4
 1187              	.L67:
 1188 0082 00BF     		.align	2
 1189              	.L66:
 1190 0084 00000000 		.word	assert_nest_index.0
 1191 0088 5C000000 		.word	.LC5
 1192 008c 6C000000 		.word	.LC6
 1193              		.cfi_endproc
 1194              	.LFE494:
 1196              		.section	.text.debug_read_ring_buffer,"ax",%progbits
 1197              		.align	1
 1198              		.p2align 4,,15
 1199              		.global	debug_read_ring_buffer
 1200              		.syntax unified
 1201              		.thumb
 1202              		.thumb_func
 1204              	debug_read_ring_buffer:
 1205              	.LFB495:
 450:libraries/zf_common/zf_common_debug.c **** 
 451:libraries/zf_common/zf_common_debug.c **** //-------------------------------------------------------------------------------------------------
 452:libraries/zf_common/zf_common_debug.c **** // å‡½æ•°ç®€ä»‹     è¯»å– debug ç¯å½¢ç¼“å†²åŒºæ•°æ®
 453:libraries/zf_common/zf_common_debug.c **** // å‚æ•°è¯´æ˜     *data               è¯»å‡ºæ•°æ®å­˜æ”¾çš„æ•°ç»„æŒ‡é’ˆ
 454:libraries/zf_common/zf_common_debug.c **** // å‚æ•°è¯´æ˜     data_len            ç›®æ ‡è¯»å‡ºæ•°æ®é•¿åº¦
 455:libraries/zf_common/zf_common_debug.c **** // è¿”å›å‚æ•°     uint32              å®é™…è¯»å‡ºé•¿åº¦
 456:libraries/zf_common/zf_common_debug.c **** // ä½¿ç”¨ç¤ºä¾‹     debug_read_ring_buffer(data, data_len);
 457:libraries/zf_common/zf_common_debug.c **** // å¤‡æ³¨ä¿¡æ¯     æœ¬å‡½æ•°éœ€è¦å¼€å¯ DEBUG_UART_USE_INTERRUPT å®å®šä¹‰ å¦åˆ™ç›´æ¥è¿”å›
 458:libraries/zf_common/zf_common_debug.c **** //-------------------------------------------------------------------------------------------------
 459:libraries/zf_common/zf_common_debug.c **** uint32 debug_read_ring_buffer (uint8 *data, uint32 data_len)
 460:libraries/zf_common/zf_common_debug.c **** {
 1206              		.loc 1 460 1
 1207              		.cfi_startproc
 1208              		@ args = 0, pretend = 0, frame = 8
 1209              		@ frame_needed = 0, uses_anonymous_args = 0
 1210 0000 00B5     		push	{lr}
 1211              		.cfi_def_cfa_offset 4
 1212              		.cfi_offset 14, -4
 1213 0002 83B0     		sub	sp, sp, #12
 1214              		.cfi_def_cfa_offset 16
 1215 0004 0190     		str	r0, [sp, #4]
 1216 0006 0091     		str	r1, [sp]
 461:libraries/zf_common/zf_common_debug.c **** #if DEBUG_UART_USE_INTERRUPT                                                    // æ¡ä»¶ç¼–è¯‘ åª
 462:libraries/zf_common/zf_common_debug.c ****     zf_fifo_read_buffer(&debug_uart_fifo, data, &data_len, FIFO_READ_WITH_CLEAN);
 1217              		.loc 1 462 5
 1218 0008 6A46     		mov	r2, sp
 1219 000a 0123     		movs	r3, #1
 1220 000c 0199     		ldr	r1, [sp, #4]
 1221 000e 0448     		ldr	r0, .L70
 1222 0010 FFF7FEFF 		bl	zf_fifo_read_buffer
 463:libraries/zf_common/zf_common_debug.c ****     return data_len;
 1223              		.loc 1 463 12
 1224 0014 009B     		ldr	r3, [sp]
 464:libraries/zf_common/zf_common_debug.c **** #else
 465:libraries/zf_common/zf_common_debug.c ****     return 0;
 466:libraries/zf_common/zf_common_debug.c **** #endif
 467:libraries/zf_common/zf_common_debug.c **** }
 1225              		.loc 1 467 1
 1226 0016 1846     		mov	r0, r3
 1227 0018 03B0     		add	sp, sp, #12
 1228              		.cfi_def_cfa_offset 4
 1229              		@ sp needed
 1230 001a 5DF804FB 		ldr	pc, [sp], #4
 1231              	.L71:
 1232 001e 00BF     		.align	2
 1233              	.L70:
 1234 0020 00000000 		.word	debug_uart_fifo
 1235              		.cfi_endproc
 1236              	.LFE495:
 1238              		.section	.text.debug_screen_init,"ax",%progbits
 1239              		.align	1
 1240              		.p2align 4,,15
 1241              		.global	debug_screen_init
 1242              		.syntax unified
 1243              		.thumb
 1244              		.thumb_func
 1246              	debug_screen_init:
 1247              	.LFB496:
 468:libraries/zf_common/zf_common_debug.c **** 
 469:libraries/zf_common/zf_common_debug.c **** //-------------------------------------------------------------------------------------------------
 470:libraries/zf_common/zf_common_debug.c **** // å‡½æ•°ç®€ä»‹     debug è¾“å‡ºç»‘å®šåˆå§‹åŒ–
 471:libraries/zf_common/zf_common_debug.c **** // å‚æ•°è¯´æ˜     *obj                å±å¹•å¯¹è±¡
 472:libraries/zf_common/zf_common_debug.c **** // å‚æ•°è¯´æ˜     dispaly_x           å±å¹•æ¨ªè½´é•¿
 473:libraries/zf_common/zf_common_debug.c **** // å‚æ•°è¯´æ˜     dispaly_y           å±å¹•çºµè½´é•¿
 474:libraries/zf_common/zf_common_debug.c **** // å‚æ•°è¯´æ˜     font_x              å­—ä½“å®½åº¦
 475:libraries/zf_common/zf_common_debug.c **** // å‚æ•°è¯´æ˜     font_y              å­—ä½“é«˜åº¦
 476:libraries/zf_common/zf_common_debug.c **** // å‚æ•°è¯´æ˜     output_screen       å±å¹•å­—ç¬¦ä¸²è¾“å‡ºæ¥å£
 477:libraries/zf_common/zf_common_debug.c **** // å‚æ•°è¯´æ˜     output_screen_clear å±å¹•æ¸…ç©ºæ¥å£
 478:libraries/zf_common/zf_common_debug.c **** // è¿”å›å‚æ•°     void
 479:libraries/zf_common/zf_common_debug.c **** // ä½¿ç”¨ç¤ºä¾‹     debug_output_init(info);
 480:libraries/zf_common/zf_common_debug.c **** // å¤‡æ³¨ä¿¡æ¯     è¿™ä¸ªå‡½æ•°ä¸€èˆ¬ä¸ç”±ç”¨æˆ·è°ƒç”¨
 481:libraries/zf_common/zf_common_debug.c **** //-------------------------------------------------------------------------------------------------
 482:libraries/zf_common/zf_common_debug.c **** void debug_screen_init (void *obj, uint16 dispaly_x, uint16 dispaly_y, uint8 font_x, uint8 font_y, 
 483:libraries/zf_common/zf_common_debug.c **** {
 1248              		.loc 1 483 1
 1249              		.cfi_startproc
 1250              		@ args = 12, pretend = 0, frame = 16
 1251              		@ frame_needed = 0, uses_anonymous_args = 0
 1252              		@ link register save eliminated.
 1253 0000 84B0     		sub	sp, sp, #16
 1254              		.cfi_def_cfa_offset 16
 1255 0002 0390     		str	r0, [sp, #12]
 1256 0004 0846     		mov	r0, r1
 1257 0006 1146     		mov	r1, r2
 1258 0008 1A46     		mov	r2, r3
 1259 000a 0346     		mov	r3, r0	@ movhi
 1260 000c ADF80A30 		strh	r3, [sp, #10]	@ movhi
 1261 0010 0B46     		mov	r3, r1	@ movhi
 1262 0012 ADF80830 		strh	r3, [sp, #8]	@ movhi
 1263 0016 1346     		mov	r3, r2
 1264 0018 8DF80730 		strb	r3, [sp, #7]
 484:libraries/zf_common/zf_common_debug.c ****     do
 485:libraries/zf_common/zf_common_debug.c ****     {
 486:libraries/zf_common/zf_common_debug.c ****         if(NULL == obj)
 1265              		.loc 1 486 11
 1266 001c 039B     		ldr	r3, [sp, #12]
 1267 001e 002B     		cmp	r3, #0
 1268 0020 1CD0     		beq	.L75
 487:libraries/zf_common/zf_common_debug.c ****         {
 488:libraries/zf_common/zf_common_debug.c ****             break;
 489:libraries/zf_common/zf_common_debug.c ****         }
 490:libraries/zf_common/zf_common_debug.c **** 
 491:libraries/zf_common/zf_common_debug.c ****         debug_output_obj.device_obj             = obj;
 1269              		.loc 1 491 49
 1270 0022 104A     		ldr	r2, .L77
 1271 0024 039B     		ldr	r3, [sp, #12]
 1272 0026 9360     		str	r3, [r2, #8]
 492:libraries/zf_common/zf_common_debug.c ****         debug_output_obj.type_index             = DEBUG_OBJ_TYPE_SCREEN;
 1273              		.loc 1 492 49
 1274 0028 0E4B     		ldr	r3, .L77
 1275 002a 0322     		movs	r2, #3
 1276 002c 1A70     		strb	r2, [r3]
 493:libraries/zf_common/zf_common_debug.c **** 
 494:libraries/zf_common/zf_common_debug.c ****         debug_output_obj.display_x_max          = dispaly_x;
 1277              		.loc 1 494 49
 1278 002e 0D4A     		ldr	r2, .L77
 1279 0030 BDF80A30 		ldrh	r3, [sp, #10]	@ movhi
 1280 0034 5380     		strh	r3, [r2, #2]	@ movhi
 495:libraries/zf_common/zf_common_debug.c ****         debug_output_obj.display_y_max          = dispaly_y;
 1281              		.loc 1 495 49
 1282 0036 0B4A     		ldr	r2, .L77
 1283 0038 BDF80830 		ldrh	r3, [sp, #8]	@ movhi
 1284 003c 9380     		strh	r3, [r2, #4]	@ movhi
 496:libraries/zf_common/zf_common_debug.c **** 
 497:libraries/zf_common/zf_common_debug.c ****         debug_output_obj.font_x_size            = font_x;
 1285              		.loc 1 497 49
 1286 003e 094A     		ldr	r2, .L77
 1287 0040 9DF80730 		ldrb	r3, [sp, #7]
 1288 0044 9371     		strb	r3, [r2, #6]
 498:libraries/zf_common/zf_common_debug.c ****         debug_output_obj.font_y_size            = font_y;
 1289              		.loc 1 498 49
 1290 0046 074A     		ldr	r2, .L77
 1291 0048 9DF81030 		ldrb	r3, [sp, #16]
 1292 004c D371     		strb	r3, [r2, #7]
 499:libraries/zf_common/zf_common_debug.c **** 
 500:libraries/zf_common/zf_common_debug.c ****         debug_output_obj.output_screen          = output_screen;
 1293              		.loc 1 500 49
 1294 004e 054A     		ldr	r2, .L77
 1295 0050 059B     		ldr	r3, [sp, #20]
 1296 0052 D360     		str	r3, [r2, #12]
 501:libraries/zf_common/zf_common_debug.c ****         debug_output_obj.output_screen_clear    = output_screen_clear;
 1297              		.loc 1 501 49
 1298 0054 034A     		ldr	r2, .L77
 1299 0056 069B     		ldr	r3, [sp, #24]
 1300 0058 1361     		str	r3, [r2, #16]
 502:libraries/zf_common/zf_common_debug.c ****     }while(0);
 503:libraries/zf_common/zf_common_debug.c **** }
 1301              		.loc 1 503 1
 1302 005a 00E0     		b	.L76
 1303              	.L75:
 488:libraries/zf_common/zf_common_debug.c ****         }
 1304              		.loc 1 488 13
 1305 005c 00BF     		nop
 1306              	.L76:
 1307              		.loc 1 503 1
 1308 005e 00BF     		nop
 1309 0060 04B0     		add	sp, sp, #16
 1310              		.cfi_def_cfa_offset 0
 1311              		@ sp needed
 1312 0062 7047     		bx	lr
 1313              	.L78:
 1314              		.align	2
 1315              	.L77:
 1316 0064 00000000 		.word	debug_output_obj
 1317              		.cfi_endproc
 1318              	.LFE496:
 1320              		.section	.text.debug_init,"ax",%progbits
 1321              		.align	1
 1322              		.p2align 4,,15
 1323              		.global	debug_init
 1324              		.syntax unified
 1325              		.thumb
 1326              		.thumb_func
 1328              	debug_init:
 1329              	.LFB497:
 504:libraries/zf_common/zf_common_debug.c **** 
 505:libraries/zf_common/zf_common_debug.c **** //-------------------------------------------------------------------------------------------------
 506:libraries/zf_common/zf_common_debug.c **** // å‡½æ•°ç®€ä»‹     debug ä¸²å£åˆå§‹åŒ–
 507:libraries/zf_common/zf_common_debug.c **** // å‚æ•°è¯´æ˜     void
 508:libraries/zf_common/zf_common_debug.c **** // è¿”å›å‚æ•°     void
 509:libraries/zf_common/zf_common_debug.c **** // ä½¿ç”¨ç¤ºä¾‹     debug_init();
 510:libraries/zf_common/zf_common_debug.c **** // å¤‡æ³¨ä¿¡æ¯     å¼€æºåº“ç¤ºä¾‹é»˜è®¤è°ƒç”¨ ä½†é»˜è®¤ç¦ç”¨ä¸­æ–­æ¥æ”¶
 511:libraries/zf_common/zf_common_debug.c **** //-------------------------------------------------------------------------------------------------
 512:libraries/zf_common/zf_common_debug.c **** void debug_init (void)
 513:libraries/zf_common/zf_common_debug.c **** {
 1330              		.loc 1 513 1
 1331              		.cfi_startproc
 1332              		@ args = 0, pretend = 0, frame = 0
 1333              		@ frame_needed = 0, uses_anonymous_args = 0
 1334 0000 08B5     		push	{r3, lr}
 1335              		.cfi_def_cfa_offset 8
 1336              		.cfi_offset 3, -8
 1337              		.cfi_offset 14, -4
 514:libraries/zf_common/zf_common_debug.c ****     debug_output_obj.type_index     = DEBUG_OBJ_TYPE_UART;
 1338              		.loc 1 514 37
 1339 0002 094B     		ldr	r3, .L80
 1340 0004 0122     		movs	r2, #1
 1341 0006 1A70     		strb	r2, [r3]
 515:libraries/zf_common/zf_common_debug.c ****     debug_output_obj.output_uart    = debug_uart_str_output_handler;
 1342              		.loc 1 515 37
 1343 0008 074B     		ldr	r3, .L80
 1344 000a 084A     		ldr	r2, .L80+4
 1345 000c DA60     		str	r2, [r3, #12]
 516:libraries/zf_common/zf_common_debug.c **** 
 517:libraries/zf_common/zf_common_debug.c **** #if DEBUG_UART_USE_INTERRUPT                                                    // æ¡ä»¶ç¼–è¯‘ åª
 518:libraries/zf_common/zf_common_debug.c ****     zf_fifo_init(&debug_uart_fifo, FIFO_DATA_8BIT, debug_uart_buffer, DEBUG_RING_BUFFER_LEN);
 1346              		.loc 1 518 5
 1347 000e 4023     		movs	r3, #64
 1348 0010 074A     		ldr	r2, .L80+8
 1349 0012 0121     		movs	r1, #1
 1350 0014 0748     		ldr	r0, .L80+12
 1351 0016 FFF7FEFF 		bl	zf_fifo_init
 519:libraries/zf_common/zf_common_debug.c ****     debug_uart_init_handler(&debug_output_obj, debug_uart_interrupr_handler, &debug_uart_fifo);
 1352              		.loc 1 519 5
 1353 001a 064A     		ldr	r2, .L80+12
 1354 001c 0649     		ldr	r1, .L80+16
 1355 001e 0248     		ldr	r0, .L80
 1356 0020 FFF7FEFF 		bl	debug_uart_init_handler
 520:libraries/zf_common/zf_common_debug.c **** #else
 521:libraries/zf_common/zf_common_debug.c ****     debug_uart_init_handler(&debug_output_obj, debug_uart_interrupr_handler, NULL);
 522:libraries/zf_common/zf_common_debug.c **** #endif
 523:libraries/zf_common/zf_common_debug.c **** }
 1357              		.loc 1 523 1
 1358 0024 00BF     		nop
 1359 0026 08BD     		pop	{r3, pc}
 1360              	.L81:
 1361              		.align	2
 1362              	.L80:
 1363 0028 00000000 		.word	debug_output_obj
 1364 002c 00000000 		.word	debug_uart_str_output_handler
 1365 0030 00000000 		.word	debug_uart_buffer
 1366 0034 00000000 		.word	debug_uart_fifo
 1367 0038 00000000 		.word	debug_uart_interrupr_handler
 1368              		.cfi_endproc
 1369              	.LFE497:
 1371              		.section	.bss.assert_nest_index.0,"aw",%nobits
 1374              	assert_nest_index.0:
 1375 0000 00       		.space	1
 1376              		.text
 1377              	.Letext0:
 1378              		.file 2 "c:\\stellarstudio-7.0\\sdks\\tools-1.4.0\\toolchain\\arm\\mingw64_nt\\10.3-2021.10\\arm-n
 1379              		.file 3 "c:\\stellarstudio-7.0\\sdks\\tools-1.4.0\\toolchain\\arm\\mingw64_nt\\10.3-2021.10\\arm-n
 1380              		.file 4 "libraries/zf_common/zf_common_typedef.h"
 1381              		.file 5 "libraries/zf_common/zf_common_fifo.h"
 1382              		.file 6 "C:/StellarStudio-7.0/SDKS/StellarESDK-1.7.0/Modules/Platform/MCU/include/sr5e1/sr5e1xx.h"
 1383              		.file 7 "libraries/zf_common/zf_common_debug.h"
 1384              		.file 8 "libraries/zf_driver/zf_driver_gpio.h"
 1385              		.file 9 "libraries/zf_driver/zf_driver_adc.h"
 1386              		.file 10 "libraries/zf_driver/zf_driver_can.h"
 1387              		.file 11 "libraries/zf_driver/zf_driver_encoder.h"
 1388              		.file 12 "libraries/zf_driver/zf_driver_exti.h"
 1389              		.file 13 "libraries/zf_driver/zf_driver_hrtim.h"
 1390              		.file 14 "libraries/zf_driver/zf_driver_pwm.h"
 1391              		.file 15 "libraries/zf_driver/zf_driver_spi.h"
 1392              		.file 16 "libraries/zf_driver/zf_driver_uart.h"
 1393              		.file 17 "libraries/zf_device/zf_device_imu_interface.h"
 1394              		.file 18 "libraries/zf_device/zf_device_wireless_interface.h"
 1395              		.file 19 "libraries/zf_device/zf_device_display_interface.h"