   1              		.cpu cortex-m7
   2              		.arch armv7e-m
   3              		.fpu fpv5-d16
   4              		.eabi_attribute 28, 1
   5              		.eabi_attribute 20, 1
   6              		.eabi_attribute 21, 1
   7              		.eabi_attribute 23, 3
   8              		.eabi_attribute 24, 1
   9              		.eabi_attribute 25, 1
  10              		.eabi_attribute 26, 1
  11              		.eabi_attribute 30, 6
  12              		.eabi_attribute 34, 1
  13              		.eabi_attribute 18, 4
  14              		.file	"hrtim.c"
  15              		.text
  16              	.Ltext0:
  17              		.cfi_sections	.debug_frame
  18              		.section	.text.hrtim_reset_paramters,"ax",%progbits
  19              		.align	1
  20              		.p2align 4,,15
  21              		.syntax unified
  22              		.thumb
  23              		.thumb_func
  25              	hrtim_reset_paramters:
  26              	.LFB154:
  27              		.file 1 "C:/StellarStudio-7.0/SDKS/StellarESDK-1.7.0/Modules/Drivers/Timers/HRTIM/src/hrtim.c"
   1:C:/StellarStudio-7.0/SDKS/StellarESDK-1.7.0/Modules/Drivers/Timers/HRTIM/src\hrtim.c **** /****************************************************************************
   2:C:/StellarStudio-7.0/SDKS/StellarESDK-1.7.0/Modules/Drivers/Timers/HRTIM/src\hrtim.c ****  *
   3:C:/StellarStudio-7.0/SDKS/StellarESDK-1.7.0/Modules/Drivers/Timers/HRTIM/src\hrtim.c ****  * Copyright (c) 2022 STMicroelectronics - All Rights Reserved
   4:C:/StellarStudio-7.0/SDKS/StellarESDK-1.7.0/Modules/Drivers/Timers/HRTIM/src\hrtim.c ****  *
   5:C:/StellarStudio-7.0/SDKS/StellarESDK-1.7.0/Modules/Drivers/Timers/HRTIM/src\hrtim.c ****  * License terms: STMicroelectronics Proprietary in accordance with licensing
   6:C:/StellarStudio-7.0/SDKS/StellarESDK-1.7.0/Modules/Drivers/Timers/HRTIM/src\hrtim.c ****  * terms SLA0098 at www.st.com.
   7:C:/StellarStudio-7.0/SDKS/StellarESDK-1.7.0/Modules/Drivers/Timers/HRTIM/src\hrtim.c ****  *
   8:C:/StellarStudio-7.0/SDKS/StellarESDK-1.7.0/Modules/Drivers/Timers/HRTIM/src\hrtim.c ****  * THIS SOFTWARE IS DISTRIBUTED "AS IS," AND ALL WARRANTIES ARE DISCLAIMED,
   9:C:/StellarStudio-7.0/SDKS/StellarESDK-1.7.0/Modules/Drivers/Timers/HRTIM/src\hrtim.c ****  * INCLUDING MERCHANTABILITY AND FITNESS FOR A PARTICULAR PURPOSE.
  10:C:/StellarStudio-7.0/SDKS/StellarESDK-1.7.0/Modules/Drivers/Timers/HRTIM/src\hrtim.c ****  *
  11:C:/StellarStudio-7.0/SDKS/StellarESDK-1.7.0/Modules/Drivers/Timers/HRTIM/src\hrtim.c ****  *****************************************************************************/
  12:C:/StellarStudio-7.0/SDKS/StellarESDK-1.7.0/Modules/Drivers/Timers/HRTIM/src\hrtim.c **** /**
  13:C:/StellarStudio-7.0/SDKS/StellarESDK-1.7.0/Modules/Drivers/Timers/HRTIM/src\hrtim.c ****  * @file    hrtim.c
  14:C:/StellarStudio-7.0/SDKS/StellarESDK-1.7.0/Modules/Drivers/Timers/HRTIM/src\hrtim.c ****  * @brief   HRTIM driver source file.
  15:C:/StellarStudio-7.0/SDKS/StellarESDK-1.7.0/Modules/Drivers/Timers/HRTIM/src\hrtim.c ****  *
  16:C:/StellarStudio-7.0/SDKS/StellarESDK-1.7.0/Modules/Drivers/Timers/HRTIM/src\hrtim.c ****  * @addtogroup DRIVERS
  17:C:/StellarStudio-7.0/SDKS/StellarESDK-1.7.0/Modules/Drivers/Timers/HRTIM/src\hrtim.c ****  * @addtogroup TIMERS
  18:C:/StellarStudio-7.0/SDKS/StellarESDK-1.7.0/Modules/Drivers/Timers/HRTIM/src\hrtim.c ****  * @ingroup DRIVERS
  19:C:/StellarStudio-7.0/SDKS/StellarESDK-1.7.0/Modules/Drivers/Timers/HRTIM/src\hrtim.c ****  * @addtogroup HRTIM
  20:C:/StellarStudio-7.0/SDKS/StellarESDK-1.7.0/Modules/Drivers/Timers/HRTIM/src\hrtim.c ****  * @ingroup TIMERS
  21:C:/StellarStudio-7.0/SDKS/StellarESDK-1.7.0/Modules/Drivers/Timers/HRTIM/src\hrtim.c ****  * @{
  22:C:/StellarStudio-7.0/SDKS/StellarESDK-1.7.0/Modules/Drivers/Timers/HRTIM/src\hrtim.c ****  */
  23:C:/StellarStudio-7.0/SDKS/StellarESDK-1.7.0/Modules/Drivers/Timers/HRTIM/src\hrtim.c **** 
  24:C:/StellarStudio-7.0/SDKS/StellarESDK-1.7.0/Modules/Drivers/Timers/HRTIM/src\hrtim.c **** #include <hrtim.h>
  25:C:/StellarStudio-7.0/SDKS/StellarESDK-1.7.0/Modules/Drivers/Timers/HRTIM/src\hrtim.c **** #include <hrtim_private.h>
  26:C:/StellarStudio-7.0/SDKS/StellarESDK-1.7.0/Modules/Drivers/Timers/HRTIM/src\hrtim.c **** 
  27:C:/StellarStudio-7.0/SDKS/StellarESDK-1.7.0/Modules/Drivers/Timers/HRTIM/src\hrtim.c **** /*===========================================================================*/
  28:C:/StellarStudio-7.0/SDKS/StellarESDK-1.7.0/Modules/Drivers/Timers/HRTIM/src\hrtim.c **** /* Module local definitions.                                                 */
  29:C:/StellarStudio-7.0/SDKS/StellarESDK-1.7.0/Modules/Drivers/Timers/HRTIM/src\hrtim.c **** /*===========================================================================*/
  30:C:/StellarStudio-7.0/SDKS/StellarESDK-1.7.0/Modules/Drivers/Timers/HRTIM/src\hrtim.c **** 
  31:C:/StellarStudio-7.0/SDKS/StellarESDK-1.7.0/Modules/Drivers/Timers/HRTIM/src\hrtim.c **** /**
  32:C:/StellarStudio-7.0/SDKS/StellarESDK-1.7.0/Modules/Drivers/Timers/HRTIM/src\hrtim.c ****  * @brief   HRTIM CR1 fixed bits.
  33:C:/StellarStudio-7.0/SDKS/StellarESDK-1.7.0/Modules/Drivers/Timers/HRTIM/src\hrtim.c ****  */
  34:C:/StellarStudio-7.0/SDKS/StellarESDK-1.7.0/Modules/Drivers/Timers/HRTIM/src\hrtim.c **** #define HRTIM_CR1_CFG_FORBIDDEN             (HRTIM_CR1_MUDIS  |             \
  35:C:/StellarStudio-7.0/SDKS/StellarESDK-1.7.0/Modules/Drivers/Timers/HRTIM/src\hrtim.c ****                                              HRTIM_CR1_TAUDIS |             \
  36:C:/StellarStudio-7.0/SDKS/StellarESDK-1.7.0/Modules/Drivers/Timers/HRTIM/src\hrtim.c ****                                              HRTIM_CR1_TBUDIS |             \
  37:C:/StellarStudio-7.0/SDKS/StellarESDK-1.7.0/Modules/Drivers/Timers/HRTIM/src\hrtim.c ****                                              HRTIM_CR1_TCUDIS |             \
  38:C:/StellarStudio-7.0/SDKS/StellarESDK-1.7.0/Modules/Drivers/Timers/HRTIM/src\hrtim.c ****                                              HRTIM_CR1_TDUDIS |             \
  39:C:/StellarStudio-7.0/SDKS/StellarESDK-1.7.0/Modules/Drivers/Timers/HRTIM/src\hrtim.c ****                                              HRTIM_CR1_TEUDIS |             \
  40:C:/StellarStudio-7.0/SDKS/StellarESDK-1.7.0/Modules/Drivers/Timers/HRTIM/src\hrtim.c ****                                              HRTIM_CR1_TFUDIS)
  41:C:/StellarStudio-7.0/SDKS/StellarESDK-1.7.0/Modules/Drivers/Timers/HRTIM/src\hrtim.c **** 
  42:C:/StellarStudio-7.0/SDKS/StellarESDK-1.7.0/Modules/Drivers/Timers/HRTIM/src\hrtim.c **** /**
  43:C:/StellarStudio-7.0/SDKS/StellarESDK-1.7.0/Modules/Drivers/Timers/HRTIM/src\hrtim.c ****  * @brief   HRTIM CR2 fixed bits.
  44:C:/StellarStudio-7.0/SDKS/StellarESDK-1.7.0/Modules/Drivers/Timers/HRTIM/src\hrtim.c ****  */
  45:C:/StellarStudio-7.0/SDKS/StellarESDK-1.7.0/Modules/Drivers/Timers/HRTIM/src\hrtim.c **** #define HRTIM_CR2_CFG_FORBIDDEN             (HRTIM_CR2_MSWU   |             \
  46:C:/StellarStudio-7.0/SDKS/StellarESDK-1.7.0/Modules/Drivers/Timers/HRTIM/src\hrtim.c ****                                              HRTIM_CR2_TASWU  |             \
  47:C:/StellarStudio-7.0/SDKS/StellarESDK-1.7.0/Modules/Drivers/Timers/HRTIM/src\hrtim.c ****                                              HRTIM_CR2_TBSWU  |             \
  48:C:/StellarStudio-7.0/SDKS/StellarESDK-1.7.0/Modules/Drivers/Timers/HRTIM/src\hrtim.c ****                                              HRTIM_CR2_TCSWU  |             \
  49:C:/StellarStudio-7.0/SDKS/StellarESDK-1.7.0/Modules/Drivers/Timers/HRTIM/src\hrtim.c ****                                              HRTIM_CR2_TDSWU  |             \
  50:C:/StellarStudio-7.0/SDKS/StellarESDK-1.7.0/Modules/Drivers/Timers/HRTIM/src\hrtim.c ****                                              HRTIM_CR2_TESWU  |             \
  51:C:/StellarStudio-7.0/SDKS/StellarESDK-1.7.0/Modules/Drivers/Timers/HRTIM/src\hrtim.c ****                                              HRTIM_CR2_TFSWU  |             \
  52:C:/StellarStudio-7.0/SDKS/StellarESDK-1.7.0/Modules/Drivers/Timers/HRTIM/src\hrtim.c ****                                              HRTIM_CR2_MRST   |             \
  53:C:/StellarStudio-7.0/SDKS/StellarESDK-1.7.0/Modules/Drivers/Timers/HRTIM/src\hrtim.c ****                                              HRTIM_CR2_TARST  |             \
  54:C:/StellarStudio-7.0/SDKS/StellarESDK-1.7.0/Modules/Drivers/Timers/HRTIM/src\hrtim.c ****                                              HRTIM_CR2_TBRST  |             \
  55:C:/StellarStudio-7.0/SDKS/StellarESDK-1.7.0/Modules/Drivers/Timers/HRTIM/src\hrtim.c ****                                              HRTIM_CR2_TCRST  |             \
  56:C:/StellarStudio-7.0/SDKS/StellarESDK-1.7.0/Modules/Drivers/Timers/HRTIM/src\hrtim.c ****                                              HRTIM_CR2_TDRST  |             \
  57:C:/StellarStudio-7.0/SDKS/StellarESDK-1.7.0/Modules/Drivers/Timers/HRTIM/src\hrtim.c ****                                              HRTIM_CR2_TERST  |             \
  58:C:/StellarStudio-7.0/SDKS/StellarESDK-1.7.0/Modules/Drivers/Timers/HRTIM/src\hrtim.c ****                                              HRTIM_CR2_TFRST)
  59:C:/StellarStudio-7.0/SDKS/StellarESDK-1.7.0/Modules/Drivers/Timers/HRTIM/src\hrtim.c **** 
  60:C:/StellarStudio-7.0/SDKS/StellarESDK-1.7.0/Modules/Drivers/Timers/HRTIM/src\hrtim.c **** /**
  61:C:/StellarStudio-7.0/SDKS/StellarESDK-1.7.0/Modules/Drivers/Timers/HRTIM/src\hrtim.c ****  * @brief   HRTIM DLLCR fixed bits.
  62:C:/StellarStudio-7.0/SDKS/StellarESDK-1.7.0/Modules/Drivers/Timers/HRTIM/src\hrtim.c ****  */
  63:C:/StellarStudio-7.0/SDKS/StellarESDK-1.7.0/Modules/Drivers/Timers/HRTIM/src\hrtim.c **** #define HRTIM_DLLCR_CFG_FORBIDDEN           (HRTIM_DLLCR_CAL)
  64:C:/StellarStudio-7.0/SDKS/StellarESDK-1.7.0/Modules/Drivers/Timers/HRTIM/src\hrtim.c **** 
  65:C:/StellarStudio-7.0/SDKS/StellarESDK-1.7.0/Modules/Drivers/Timers/HRTIM/src\hrtim.c **** /*===========================================================================*/
  66:C:/StellarStudio-7.0/SDKS/StellarESDK-1.7.0/Modules/Drivers/Timers/HRTIM/src\hrtim.c **** /* Module exported variables.                                                */
  67:C:/StellarStudio-7.0/SDKS/StellarESDK-1.7.0/Modules/Drivers/Timers/HRTIM/src\hrtim.c **** /*===========================================================================*/
  68:C:/StellarStudio-7.0/SDKS/StellarESDK-1.7.0/Modules/Drivers/Timers/HRTIM/src\hrtim.c **** 
  69:C:/StellarStudio-7.0/SDKS/StellarESDK-1.7.0/Modules/Drivers/Timers/HRTIM/src\hrtim.c **** /*===========================================================================*/
  70:C:/StellarStudio-7.0/SDKS/StellarESDK-1.7.0/Modules/Drivers/Timers/HRTIM/src\hrtim.c **** /* Module local types.                                                       */
  71:C:/StellarStudio-7.0/SDKS/StellarESDK-1.7.0/Modules/Drivers/Timers/HRTIM/src\hrtim.c **** /*===========================================================================*/
  72:C:/StellarStudio-7.0/SDKS/StellarESDK-1.7.0/Modules/Drivers/Timers/HRTIM/src\hrtim.c **** 
  73:C:/StellarStudio-7.0/SDKS/StellarESDK-1.7.0/Modules/Drivers/Timers/HRTIM/src\hrtim.c **** /*===========================================================================*/
  74:C:/StellarStudio-7.0/SDKS/StellarESDK-1.7.0/Modules/Drivers/Timers/HRTIM/src\hrtim.c **** /* Module local variables.                                                   */
  75:C:/StellarStudio-7.0/SDKS/StellarESDK-1.7.0/Modules/Drivers/Timers/HRTIM/src\hrtim.c **** /*===========================================================================*/
  76:C:/StellarStudio-7.0/SDKS/StellarESDK-1.7.0/Modules/Drivers/Timers/HRTIM/src\hrtim.c **** 
  77:C:/StellarStudio-7.0/SDKS/StellarESDK-1.7.0/Modules/Drivers/Timers/HRTIM/src\hrtim.c **** /*===========================================================================*/
  78:C:/StellarStudio-7.0/SDKS/StellarESDK-1.7.0/Modules/Drivers/Timers/HRTIM/src\hrtim.c **** /* Module local functions.                                                   */
  79:C:/StellarStudio-7.0/SDKS/StellarESDK-1.7.0/Modules/Drivers/Timers/HRTIM/src\hrtim.c **** /*===========================================================================*/
  80:C:/StellarStudio-7.0/SDKS/StellarESDK-1.7.0/Modules/Drivers/Timers/HRTIM/src\hrtim.c **** 
  81:C:/StellarStudio-7.0/SDKS/StellarESDK-1.7.0/Modules/Drivers/Timers/HRTIM/src\hrtim.c **** /**
  82:C:/StellarStudio-7.0/SDKS/StellarESDK-1.7.0/Modules/Drivers/Timers/HRTIM/src\hrtim.c ****  * @brief   Resets HRTIM parameters.
  83:C:/StellarStudio-7.0/SDKS/StellarESDK-1.7.0/Modules/Drivers/Timers/HRTIM/src\hrtim.c ****  *
  84:C:/StellarStudio-7.0/SDKS/StellarESDK-1.7.0/Modules/Drivers/Timers/HRTIM/src\hrtim.c ****  * @param[out] hdp      pointer to an @p hrtim_driver_t structure to
  85:C:/StellarStudio-7.0/SDKS/StellarESDK-1.7.0/Modules/Drivers/Timers/HRTIM/src\hrtim.c ****  *                      be reset
  86:C:/StellarStudio-7.0/SDKS/StellarESDK-1.7.0/Modules/Drivers/Timers/HRTIM/src\hrtim.c ****  *
  87:C:/StellarStudio-7.0/SDKS/StellarESDK-1.7.0/Modules/Drivers/Timers/HRTIM/src\hrtim.c ****  * @notapi
  88:C:/StellarStudio-7.0/SDKS/StellarESDK-1.7.0/Modules/Drivers/Timers/HRTIM/src\hrtim.c ****  */
  89:C:/StellarStudio-7.0/SDKS/StellarESDK-1.7.0/Modules/Drivers/Timers/HRTIM/src\hrtim.c **** static void hrtim_reset_paramters(hrtim_driver_t *hdp) {
  28              		.loc 1 89 56
  29              		.cfi_startproc
  30              		@ args = 0, pretend = 0, frame = 16
  31              		@ frame_needed = 0, uses_anonymous_args = 0
  32              		@ link register save eliminated.
  33 0000 84B0     		sub	sp, sp, #16
  34              		.cfi_def_cfa_offset 16
  35 0002 0190     		str	r0, [sp, #4]
  90:C:/StellarStudio-7.0/SDKS/StellarESDK-1.7.0/Modules/Drivers/Timers/HRTIM/src\hrtim.c **** 
  91:C:/StellarStudio-7.0/SDKS/StellarESDK-1.7.0/Modules/Drivers/Timers/HRTIM/src\hrtim.c ****     uint8_t timer, comparator, set, output, adctrigger, eev_index, flt_index;
  92:C:/StellarStudio-7.0/SDKS/StellarESDK-1.7.0/Modules/Drivers/Timers/HRTIM/src\hrtim.c **** 
  93:C:/StellarStudio-7.0/SDKS/StellarESDK-1.7.0/Modules/Drivers/Timers/HRTIM/src\hrtim.c ****     /* Set all driver configuration parameters to default values.*/
  94:C:/StellarStudio-7.0/SDKS/StellarESDK-1.7.0/Modules/Drivers/Timers/HRTIM/src\hrtim.c ****     hdp->is_enable = false;
  36              		.loc 1 94 20
  37 0004 019B     		ldr	r3, [sp, #4]
  38 0006 0022     		movs	r2, #0
  39 0008 1A71     		strb	r2, [r3, #4]
  95:C:/StellarStudio-7.0/SDKS/StellarESDK-1.7.0/Modules/Drivers/Timers/HRTIM/src\hrtim.c **** 
  96:C:/StellarStudio-7.0/SDKS/StellarESDK-1.7.0/Modules/Drivers/Timers/HRTIM/src\hrtim.c ****     /* Set DLL calibration periodicity: 1048576 * tHRTIM (3.495 ms for fHRTIM
  97:C:/StellarStudio-7.0/SDKS/StellarESDK-1.7.0/Modules/Drivers/Timers/HRTIM/src\hrtim.c ****        = 300 MHz).*/
  98:C:/StellarStudio-7.0/SDKS/StellarESDK-1.7.0/Modules/Drivers/Timers/HRTIM/src\hrtim.c ****     hdp->cal_period = HRTIM_DLLCR_CALRTE_DIV1048576;
  40              		.loc 1 98 21
  41 000a 019B     		ldr	r3, [sp, #4]
  42 000c 0022     		movs	r2, #0
  43 000e DA60     		str	r2, [r3, #12]
  99:C:/StellarStudio-7.0/SDKS/StellarESDK-1.7.0/Modules/Drivers/Timers/HRTIM/src\hrtim.c **** 
 100:C:/StellarStudio-7.0/SDKS/StellarESDK-1.7.0/Modules/Drivers/Timers/HRTIM/src\hrtim.c ****     hdp->prio = IRQ_MIN_PRIORITY;
  44              		.loc 1 100 15
  45 0010 019B     		ldr	r3, [sp, #4]
  46 0012 0F22     		movs	r2, #15
  47 0014 1A61     		str	r2, [r3, #16]
 101:C:/StellarStudio-7.0/SDKS/StellarESDK-1.7.0/Modules/Drivers/Timers/HRTIM/src\hrtim.c **** 
 102:C:/StellarStudio-7.0/SDKS/StellarESDK-1.7.0/Modules/Drivers/Timers/HRTIM/src\hrtim.c ****     hdp->master_mode = HRTIM_MODE_SINGLE_SHOT_NO_RETRIGGERED;
  48              		.loc 1 102 22
  49 0016 019B     		ldr	r3, [sp, #4]
  50 0018 0022     		movs	r2, #0
  51 001a 1A75     		strb	r2, [r3, #20]
 103:C:/StellarStudio-7.0/SDKS/StellarESDK-1.7.0/Modules/Drivers/Timers/HRTIM/src\hrtim.c ****     hdp->master_prescaler = HRTIM_PRSC_DIV1;
  52              		.loc 1 103 27
  53 001c 019B     		ldr	r3, [sp, #4]
  54 001e 0522     		movs	r2, #5
  55 0020 5A75     		strb	r2, [r3, #21]
 104:C:/StellarStudio-7.0/SDKS/StellarESDK-1.7.0/Modules/Drivers/Timers/HRTIM/src\hrtim.c ****     hdp->master_period = 0U;
  56              		.loc 1 104 24
  57 0022 019B     		ldr	r3, [sp, #4]
  58 0024 0022     		movs	r2, #0
  59 0026 DA82     		strh	r2, [r3, #22]	@ movhi
 105:C:/StellarStudio-7.0/SDKS/StellarESDK-1.7.0/Modules/Drivers/Timers/HRTIM/src\hrtim.c ****     for (comparator = 0U; comparator < (uint8_t)HRTIM_COMP_NUM; comparator++) {
  60              		.loc 1 105 21
  61 0028 0023     		movs	r3, #0
  62 002a 8DF80E30 		strb	r3, [sp, #14]
  63              		.loc 1 105 5
  64 002e 0BE0     		b	.L2
  65              	.L3:
 106:C:/StellarStudio-7.0/SDKS/StellarESDK-1.7.0/Modules/Drivers/Timers/HRTIM/src\hrtim.c ****         hdp->master_cmp[comparator] = 0U;
  66              		.loc 1 106 24 discriminator 3
  67 0030 9DF80E20 		ldrb	r2, [sp, #14]	@ zero_extendqisi2
  68              		.loc 1 106 37 discriminator 3
  69 0034 019B     		ldr	r3, [sp, #4]
  70 0036 0C32     		adds	r2, r2, #12
  71 0038 0021     		movs	r1, #0
  72 003a 23F81210 		strh	r1, [r3, r2, lsl #1]	@ movhi
 105:C:/StellarStudio-7.0/SDKS/StellarESDK-1.7.0/Modules/Drivers/Timers/HRTIM/src\hrtim.c ****     for (comparator = 0U; comparator < (uint8_t)HRTIM_COMP_NUM; comparator++) {
  73              		.loc 1 105 75 discriminator 3
  74 003e 9DF80E30 		ldrb	r3, [sp, #14]	@ zero_extendqisi2
  75 0042 0133     		adds	r3, r3, #1
  76 0044 8DF80E30 		strb	r3, [sp, #14]
  77              	.L2:
 105:C:/StellarStudio-7.0/SDKS/StellarESDK-1.7.0/Modules/Drivers/Timers/HRTIM/src\hrtim.c ****     for (comparator = 0U; comparator < (uint8_t)HRTIM_COMP_NUM; comparator++) {
  78              		.loc 1 105 5 discriminator 1
  79 0048 9DF80E30 		ldrb	r3, [sp, #14]	@ zero_extendqisi2
  80 004c 032B     		cmp	r3, #3
  81 004e EFD9     		bls	.L3
 107:C:/StellarStudio-7.0/SDKS/StellarESDK-1.7.0/Modules/Drivers/Timers/HRTIM/src\hrtim.c ****     }
 108:C:/StellarStudio-7.0/SDKS/StellarESDK-1.7.0/Modules/Drivers/Timers/HRTIM/src\hrtim.c **** 
 109:C:/StellarStudio-7.0/SDKS/StellarESDK-1.7.0/Modules/Drivers/Timers/HRTIM/src\hrtim.c ****     hdp->master_preload.enable = HRTIM_PRELOAD_DISABLED;
  82              		.loc 1 109 32
  83 0050 019B     		ldr	r3, [sp, #4]
  84 0052 0022     		movs	r2, #0
  85 0054 C3F82423 		str	r2, [r3, #804]
 110:C:/StellarStudio-7.0/SDKS/StellarESDK-1.7.0/Modules/Drivers/Timers/HRTIM/src\hrtim.c ****     hdp->master_preload.update_event = HRTIM_TIMUPDATETRIGGER_NONE;
  86              		.loc 1 110 38
  87 0058 019B     		ldr	r3, [sp, #4]
  88 005a 0022     		movs	r2, #0
  89 005c C3F82823 		str	r2, [r3, #808]
 111:C:/StellarStudio-7.0/SDKS/StellarESDK-1.7.0/Modules/Drivers/Timers/HRTIM/src\hrtim.c ****     hdp->master_mode_tpg = HRTIM_MODE_HALF_INTLVD_DISABLED;
  90              		.loc 1 111 26
  91 0060 019B     		ldr	r3, [sp, #4]
  92 0062 0022     		movs	r2, #0
  93 0064 83F82C23 		strb	r2, [r3, #812]
 112:C:/StellarStudio-7.0/SDKS/StellarESDK-1.7.0/Modules/Drivers/Timers/HRTIM/src\hrtim.c **** 
 113:C:/StellarStudio-7.0/SDKS/StellarESDK-1.7.0/Modules/Drivers/Timers/HRTIM/src\hrtim.c ****     for (timer = 0U; timer < (uint8_t)HRTIM_TIMER_NUM; timer++) {
  94              		.loc 1 113 16
  95 0068 0023     		movs	r3, #0
  96 006a 8DF80F30 		strb	r3, [sp, #15]
  97              		.loc 1 113 5
  98 006e 90E1     		b	.L4
  99              	.L9:
 114:C:/StellarStudio-7.0/SDKS/StellarESDK-1.7.0/Modules/Drivers/Timers/HRTIM/src\hrtim.c ****         hdp->timer_cntr_mode[timer] = HRTIM_MODE_SINGLE_SHOT_NO_RETRIGGERED;
 100              		.loc 1 114 29
 101 0070 9DF80F30 		ldrb	r3, [sp, #15]	@ zero_extendqisi2
 102              		.loc 1 114 37
 103 0074 019A     		ldr	r2, [sp, #4]
 104 0076 1344     		add	r3, r3, r2
 105 0078 0022     		movs	r2, #0
 106 007a 83F82020 		strb	r2, [r3, #32]
 115:C:/StellarStudio-7.0/SDKS/StellarESDK-1.7.0/Modules/Drivers/Timers/HRTIM/src\hrtim.c ****         hdp->timer_prescaler[timer] = HRTIM_PRSC_DIV1;
 107              		.loc 1 115 29
 108 007e 9DF80F30 		ldrb	r3, [sp, #15]	@ zero_extendqisi2
 109              		.loc 1 115 37
 110 0082 019A     		ldr	r2, [sp, #4]
 111 0084 1344     		add	r3, r3, r2
 112 0086 0522     		movs	r2, #5
 113 0088 83F82620 		strb	r2, [r3, #38]
 116:C:/StellarStudio-7.0/SDKS/StellarESDK-1.7.0/Modules/Drivers/Timers/HRTIM/src\hrtim.c ****         hdp->timer_period[timer] = 0U;
 114              		.loc 1 116 26
 115 008c 9DF80F30 		ldrb	r3, [sp, #15]	@ zero_extendqisi2
 116              		.loc 1 116 34
 117 0090 019A     		ldr	r2, [sp, #4]
 118 0092 1433     		adds	r3, r3, #20
 119 0094 5B00     		lsls	r3, r3, #1
 120 0096 1344     		add	r3, r3, r2
 121 0098 0022     		movs	r2, #0
 122 009a 9A80     		strh	r2, [r3, #4]	@ movhi
 117:C:/StellarStudio-7.0/SDKS/StellarESDK-1.7.0/Modules/Drivers/Timers/HRTIM/src\hrtim.c **** 
 118:C:/StellarStudio-7.0/SDKS/StellarESDK-1.7.0/Modules/Drivers/Timers/HRTIM/src\hrtim.c ****         for (comparator = 0U; comparator < (uint8_t)HRTIM_COMP_NUM; comparator++) {
 123              		.loc 1 118 25
 124 009c 0023     		movs	r3, #0
 125 009e 8DF80E30 		strb	r3, [sp, #14]
 126              		.loc 1 118 9
 127 00a2 1AE0     		b	.L5
 128              	.L6:
 119:C:/StellarStudio-7.0/SDKS/StellarESDK-1.7.0/Modules/Drivers/Timers/HRTIM/src\hrtim.c ****             hdp->timer_cmp[timer][comparator] = 0U;
 129              		.loc 1 119 34 discriminator 3
 130 00a4 9DF80F10 		ldrb	r1, [sp, #15]	@ zero_extendqisi2
 131 00a8 9DF80E20 		ldrb	r2, [sp, #14]	@ zero_extendqisi2
 132              		.loc 1 119 47 discriminator 3
 133 00ac 019B     		ldr	r3, [sp, #4]
 134 00ae 8900     		lsls	r1, r1, #2
 135 00b0 0A44     		add	r2, r2, r1
 136 00b2 1C32     		adds	r2, r2, #28
 137 00b4 0021     		movs	r1, #0
 138 00b6 23F81210 		strh	r1, [r3, r2, lsl #1]	@ movhi
 120:C:/StellarStudio-7.0/SDKS/StellarESDK-1.7.0/Modules/Drivers/Timers/HRTIM/src\hrtim.c ****             /* Comparator auto-delayed mode is available only for
 121:C:/StellarStudio-7.0/SDKS/StellarESDK-1.7.0/Modules/Drivers/Timers/HRTIM/src\hrtim.c ****                [TimerA:TimerF] and Comparator 2 or Comparator 4).*/
 122:C:/StellarStudio-7.0/SDKS/StellarESDK-1.7.0/Modules/Drivers/Timers/HRTIM/src\hrtim.c ****             hdp->timer_cmp_ad_mode[timer][comparator] = HRTIM_CMP_AD_MODE_STANDARD;
 139              		.loc 1 122 42 discriminator 3
 140 00ba 9DF80F20 		ldrb	r2, [sp, #15]	@ zero_extendqisi2
 141 00be 9DF80E30 		ldrb	r3, [sp, #14]	@ zero_extendqisi2
 142              		.loc 1 122 55 discriminator 3
 143 00c2 0199     		ldr	r1, [sp, #4]
 144 00c4 9200     		lsls	r2, r2, #2
 145 00c6 0A44     		add	r2, r2, r1
 146 00c8 1344     		add	r3, r3, r2
 147 00ca 6833     		adds	r3, r3, #104
 148 00cc 0022     		movs	r2, #0
 149 00ce 1A70     		strb	r2, [r3]
 118:C:/StellarStudio-7.0/SDKS/StellarESDK-1.7.0/Modules/Drivers/Timers/HRTIM/src\hrtim.c ****             hdp->timer_cmp[timer][comparator] = 0U;
 150              		.loc 1 118 79 discriminator 3
 151 00d0 9DF80E30 		ldrb	r3, [sp, #14]	@ zero_extendqisi2
 152 00d4 0133     		adds	r3, r3, #1
 153 00d6 8DF80E30 		strb	r3, [sp, #14]
 154              	.L5:
 118:C:/StellarStudio-7.0/SDKS/StellarESDK-1.7.0/Modules/Drivers/Timers/HRTIM/src\hrtim.c ****             hdp->timer_cmp[timer][comparator] = 0U;
 155              		.loc 1 118 9 discriminator 1
 156 00da 9DF80E30 		ldrb	r3, [sp, #14]	@ zero_extendqisi2
 157 00de 032B     		cmp	r3, #3
 158 00e0 E0D9     		bls	.L6
 123:C:/StellarStudio-7.0/SDKS/StellarESDK-1.7.0/Modules/Drivers/Timers/HRTIM/src\hrtim.c ****         }
 124:C:/StellarStudio-7.0/SDKS/StellarESDK-1.7.0/Modules/Drivers/Timers/HRTIM/src\hrtim.c **** 
 125:C:/StellarStudio-7.0/SDKS/StellarESDK-1.7.0/Modules/Drivers/Timers/HRTIM/src\hrtim.c ****         hdp->deadtime[timer].enable    = false;
 159              		.loc 1 125 29
 160 00e2 9DF80F20 		ldrb	r2, [sp, #15]	@ zero_extendqisi2
 161              		.loc 1 125 40
 162 00e6 0199     		ldr	r1, [sp, #4]
 163 00e8 1346     		mov	r3, r2
 164 00ea 9B00     		lsls	r3, r3, #2
 165 00ec 1344     		add	r3, r3, r2
 166 00ee 5B00     		lsls	r3, r3, #1
 167 00f0 0B44     		add	r3, r3, r1
 168 00f2 8033     		adds	r3, r3, #128
 169 00f4 0022     		movs	r2, #0
 170 00f6 1A70     		strb	r2, [r3]
 126:C:/StellarStudio-7.0/SDKS/StellarESDK-1.7.0/Modules/Drivers/Timers/HRTIM/src\hrtim.c ****         hdp->deadtime[timer].prescaler = HRTIM_DT_PRSC_DIV1;
 171              		.loc 1 126 29
 172 00f8 9DF80F20 		ldrb	r2, [sp, #15]	@ zero_extendqisi2
 173              		.loc 1 126 40
 174 00fc 0199     		ldr	r1, [sp, #4]
 175 00fe 1346     		mov	r3, r2
 176 0100 9B00     		lsls	r3, r3, #2
 177 0102 1344     		add	r3, r3, r2
 178 0104 5B00     		lsls	r3, r3, #1
 179 0106 0B44     		add	r3, r3, r1
 180 0108 8133     		adds	r3, r3, #129
 181 010a 0322     		movs	r2, #3
 182 010c 1A70     		strb	r2, [r3]
 127:C:/StellarStudio-7.0/SDKS/StellarESDK-1.7.0/Modules/Drivers/Timers/HRTIM/src\hrtim.c ****         hdp->deadtime[timer].rvalue    = 0U;
 183              		.loc 1 127 29
 184 010e 9DF80F20 		ldrb	r2, [sp, #15]	@ zero_extendqisi2
 185              		.loc 1 127 40
 186 0112 0199     		ldr	r1, [sp, #4]
 187 0114 1346     		mov	r3, r2
 188 0116 9B00     		lsls	r3, r3, #2
 189 0118 1344     		add	r3, r3, r2
 190 011a 5B00     		lsls	r3, r3, #1
 191 011c 0B44     		add	r3, r3, r1
 192 011e 8233     		adds	r3, r3, #130
 193 0120 0022     		movs	r2, #0
 194 0122 1A80     		strh	r2, [r3]	@ movhi
 128:C:/StellarStudio-7.0/SDKS/StellarESDK-1.7.0/Modules/Drivers/Timers/HRTIM/src\hrtim.c ****         hdp->deadtime[timer].rsign     = HRTIM_DT_SIGN_POSITIVE;
 195              		.loc 1 128 29
 196 0124 9DF80F20 		ldrb	r2, [sp, #15]	@ zero_extendqisi2
 197              		.loc 1 128 40
 198 0128 0199     		ldr	r1, [sp, #4]
 199 012a 1346     		mov	r3, r2
 200 012c 9B00     		lsls	r3, r3, #2
 201 012e 1344     		add	r3, r3, r2
 202 0130 5B00     		lsls	r3, r3, #1
 203 0132 0B44     		add	r3, r3, r1
 204 0134 8433     		adds	r3, r3, #132
 205 0136 0022     		movs	r2, #0
 206 0138 1A70     		strb	r2, [r3]
 129:C:/StellarStudio-7.0/SDKS/StellarESDK-1.7.0/Modules/Drivers/Timers/HRTIM/src\hrtim.c ****         hdp->deadtime[timer].fvalue    = 0U;
 207              		.loc 1 129 29
 208 013a 9DF80F20 		ldrb	r2, [sp, #15]	@ zero_extendqisi2
 209              		.loc 1 129 40
 210 013e 0199     		ldr	r1, [sp, #4]
 211 0140 1346     		mov	r3, r2
 212 0142 9B00     		lsls	r3, r3, #2
 213 0144 1344     		add	r3, r3, r2
 214 0146 5B00     		lsls	r3, r3, #1
 215 0148 0B44     		add	r3, r3, r1
 216 014a 8633     		adds	r3, r3, #134
 217 014c 0022     		movs	r2, #0
 218 014e 1A80     		strh	r2, [r3]	@ movhi
 130:C:/StellarStudio-7.0/SDKS/StellarESDK-1.7.0/Modules/Drivers/Timers/HRTIM/src\hrtim.c ****         hdp->deadtime[timer].fsign     = HRTIM_DT_SIGN_POSITIVE;
 219              		.loc 1 130 29
 220 0150 9DF80F20 		ldrb	r2, [sp, #15]	@ zero_extendqisi2
 221              		.loc 1 130 40
 222 0154 0199     		ldr	r1, [sp, #4]
 223 0156 1346     		mov	r3, r2
 224 0158 9B00     		lsls	r3, r3, #2
 225 015a 1344     		add	r3, r3, r2
 226 015c 5B00     		lsls	r3, r3, #1
 227 015e 0B44     		add	r3, r3, r1
 228 0160 8833     		adds	r3, r3, #136
 229 0162 0022     		movs	r2, #0
 230 0164 1A70     		strb	r2, [r3]
 131:C:/StellarStudio-7.0/SDKS/StellarESDK-1.7.0/Modules/Drivers/Timers/HRTIM/src\hrtim.c **** 
 132:C:/StellarStudio-7.0/SDKS/StellarESDK-1.7.0/Modules/Drivers/Timers/HRTIM/src\hrtim.c ****         hdp->cb[timer] = NULL;
 231              		.loc 1 132 16
 232 0166 9DF80F30 		ldrb	r3, [sp, #15]	@ zero_extendqisi2
 233              		.loc 1 132 24
 234 016a 019A     		ldr	r2, [sp, #4]
 235 016c AE33     		adds	r3, r3, #174
 236 016e 9B00     		lsls	r3, r3, #2
 237 0170 1344     		add	r3, r3, r2
 238 0172 0022     		movs	r2, #0
 239 0174 5A60     		str	r2, [r3, #4]
 133:C:/StellarStudio-7.0/SDKS/StellarESDK-1.7.0/Modules/Drivers/Timers/HRTIM/src\hrtim.c **** 
 134:C:/StellarStudio-7.0/SDKS/StellarESDK-1.7.0/Modules/Drivers/Timers/HRTIM/src\hrtim.c ****         hdp->timer_preload[timer].enable = HRTIM_PRELOAD_DISABLED;
 240              		.loc 1 134 34
 241 0176 9DF80F30 		ldrb	r3, [sp, #15]	@ zero_extendqisi2
 242              		.loc 1 134 42
 243 017a 019A     		ldr	r2, [sp, #4]
 244 017c 5E33     		adds	r3, r3, #94
 245 017e DB00     		lsls	r3, r3, #3
 246 0180 1344     		add	r3, r3, r2
 247 0182 0022     		movs	r2, #0
 248 0184 5A60     		str	r2, [r3, #4]
 135:C:/StellarStudio-7.0/SDKS/StellarESDK-1.7.0/Modules/Drivers/Timers/HRTIM/src\hrtim.c ****         hdp->timer_preload[timer].update_event = HRTIM_TIMUPDATETRIGGER_NONE;
 249              		.loc 1 135 34
 250 0186 9DF80F30 		ldrb	r3, [sp, #15]	@ zero_extendqisi2
 251              		.loc 1 135 48
 252 018a 019A     		ldr	r2, [sp, #4]
 253 018c 5E33     		adds	r3, r3, #94
 254 018e DB00     		lsls	r3, r3, #3
 255 0190 1344     		add	r3, r3, r2
 256 0192 0022     		movs	r2, #0
 257 0194 9A60     		str	r2, [r3, #8]
 136:C:/StellarStudio-7.0/SDKS/StellarESDK-1.7.0/Modules/Drivers/Timers/HRTIM/src\hrtim.c ****         hdp->timer_mode_tpg[timer] = HRTIM_MODE_HALF_INTLVD_DISABLED;
 258              		.loc 1 136 28
 259 0196 9DF80F30 		ldrb	r3, [sp, #15]	@ zero_extendqisi2
 260              		.loc 1 136 36
 261 019a 019A     		ldr	r2, [sp, #4]
 262 019c 1344     		add	r3, r3, r2
 263 019e 0022     		movs	r2, #0
 264 01a0 83F8D023 		strb	r2, [r3, #976]
 137:C:/StellarStudio-7.0/SDKS/StellarESDK-1.7.0/Modules/Drivers/Timers/HRTIM/src\hrtim.c **** 
 138:C:/StellarStudio-7.0/SDKS/StellarESDK-1.7.0/Modules/Drivers/Timers/HRTIM/src\hrtim.c ****         hdp->timer_count_mode[timer].up_down_enable = false;
 265              		.loc 1 138 37
 266 01a4 9DF80F20 		ldrb	r2, [sp, #15]	@ zero_extendqisi2
 267              		.loc 1 138 53
 268 01a8 0199     		ldr	r1, [sp, #4]
 269 01aa 1346     		mov	r3, r2
 270 01ac 9B00     		lsls	r3, r3, #2
 271 01ae 1344     		add	r3, r3, r2
 272 01b0 9B00     		lsls	r3, r3, #2
 273 01b2 0B44     		add	r3, r3, r1
 274 01b4 03F57673 		add	r3, r3, #984
 275 01b8 0022     		movs	r2, #0
 276 01ba 1A70     		strb	r2, [r3]
 139:C:/StellarStudio-7.0/SDKS/StellarESDK-1.7.0/Modules/Drivers/Timers/HRTIM/src\hrtim.c ****         hdp->timer_count_mode[timer].up_down_mode = HRTIM_COUNTING_MODE_UP;
 277              		.loc 1 139 37
 278 01bc 9DF80F20 		ldrb	r2, [sp, #15]	@ zero_extendqisi2
 279              		.loc 1 139 51
 280 01c0 0199     		ldr	r1, [sp, #4]
 281 01c2 1346     		mov	r3, r2
 282 01c4 9B00     		lsls	r3, r3, #2
 283 01c6 1344     		add	r3, r3, r2
 284 01c8 9B00     		lsls	r3, r3, #2
 285 01ca 0B44     		add	r3, r3, r1
 286 01cc 03F57773 		add	r3, r3, #988
 287 01d0 0022     		movs	r2, #0
 288 01d2 1A60     		str	r2, [r3]
 140:C:/StellarStudio-7.0/SDKS/StellarESDK-1.7.0/Modules/Drivers/Timers/HRTIM/src\hrtim.c **** 
 141:C:/StellarStudio-7.0/SDKS/StellarESDK-1.7.0/Modules/Drivers/Timers/HRTIM/src\hrtim.c ****         for (eev_index = 0U; eev_index < (uint8_t)HRTIM_EXEVENT_NUM; eev_index++) {
 289              		.loc 1 141 24
 290 01d4 0023     		movs	r3, #0
 291 01d6 8DF80A30 		strb	r3, [sp, #10]
 292              		.loc 1 141 9
 293 01da 4BE0     		b	.L7
 294              	.L8:
 142:C:/StellarStudio-7.0/SDKS/StellarESDK-1.7.0/Modules/Drivers/Timers/HRTIM/src\hrtim.c ****             hdp->eev_counter[timer][eev_index].reset_mode = 0U;
 295              		.loc 1 142 47 discriminator 3
 296 01dc 9DF80F10 		ldrb	r1, [sp, #15]	@ zero_extendqisi2
 297 01e0 9DF80A30 		ldrb	r3, [sp, #10]	@ zero_extendqisi2
 298              		.loc 1 142 59 discriminator 3
 299 01e4 0198     		ldr	r0, [sp, #4]
 300 01e6 1A46     		mov	r2, r3
 301 01e8 5200     		lsls	r2, r2, #1
 302 01ea 1A44     		add	r2, r2, r3
 303 01ec 9300     		lsls	r3, r2, #2
 304 01ee 1A46     		mov	r2, r3
 305 01f0 0B46     		mov	r3, r1
 306 01f2 1B01     		lsls	r3, r3, #4
 307 01f4 5B1A     		subs	r3, r3, r1
 308 01f6 DB00     		lsls	r3, r3, #3
 309 01f8 1344     		add	r3, r3, r2
 310 01fa 0344     		add	r3, r3, r0
 311 01fc 03F5A663 		add	r3, r3, #1328
 312 0200 0022     		movs	r2, #0
 313 0202 1A60     		str	r2, [r3]
 143:C:/StellarStudio-7.0/SDKS/StellarESDK-1.7.0/Modules/Drivers/Timers/HRTIM/src\hrtim.c ****             hdp->eev_counter[timer][eev_index].source = 0U;
 314              		.loc 1 143 47 discriminator 3
 315 0204 9DF80F10 		ldrb	r1, [sp, #15]	@ zero_extendqisi2
 316 0208 9DF80A30 		ldrb	r3, [sp, #10]	@ zero_extendqisi2
 317              		.loc 1 143 55 discriminator 3
 318 020c 0198     		ldr	r0, [sp, #4]
 319 020e 1A46     		mov	r2, r3
 320 0210 5200     		lsls	r2, r2, #1
 321 0212 1A44     		add	r2, r2, r3
 322 0214 9300     		lsls	r3, r2, #2
 323 0216 1A46     		mov	r2, r3
 324 0218 0B46     		mov	r3, r1
 325 021a 1B01     		lsls	r3, r3, #4
 326 021c 5B1A     		subs	r3, r3, r1
 327 021e DB00     		lsls	r3, r3, #3
 328 0220 1344     		add	r3, r3, r2
 329 0222 0344     		add	r3, r3, r0
 330 0224 03F23453 		addw	r3, r3, #1332
 331 0228 0022     		movs	r2, #0
 332 022a 1A60     		str	r2, [r3]
 144:C:/StellarStudio-7.0/SDKS/StellarESDK-1.7.0/Modules/Drivers/Timers/HRTIM/src\hrtim.c **** 
 145:C:/StellarStudio-7.0/SDKS/StellarESDK-1.7.0/Modules/Drivers/Timers/HRTIM/src\hrtim.c ****             hdp->timer_eev_filter[timer][eev_index].latch = 0U;
 333              		.loc 1 145 52 discriminator 3
 334 022c 9DF80F20 		ldrb	r2, [sp, #15]	@ zero_extendqisi2
 335 0230 9DF80A00 		ldrb	r0, [sp, #10]	@ zero_extendqisi2
 336              		.loc 1 145 59 discriminator 3
 337 0234 0199     		ldr	r1, [sp, #4]
 338 0236 1346     		mov	r3, r2
 339 0238 9B00     		lsls	r3, r3, #2
 340 023a 1344     		add	r3, r3, r2
 341 023c 5B00     		lsls	r3, r3, #1
 342 023e 0344     		add	r3, r3, r0
 343 0240 03F58073 		add	r3, r3, #256
 344 0244 DB00     		lsls	r3, r3, #3
 345 0246 0B44     		add	r3, r3, r1
 346 0248 0022     		movs	r2, #0
 347 024a 5A60     		str	r2, [r3, #4]
 146:C:/StellarStudio-7.0/SDKS/StellarESDK-1.7.0/Modules/Drivers/Timers/HRTIM/src\hrtim.c ****             hdp->timer_eev_filter[timer][eev_index].filter = 0U;
 348              		.loc 1 146 52 discriminator 3
 349 024c 9DF80F20 		ldrb	r2, [sp, #15]	@ zero_extendqisi2
 350 0250 9DF80A00 		ldrb	r0, [sp, #10]	@ zero_extendqisi2
 351              		.loc 1 146 60 discriminator 3
 352 0254 0199     		ldr	r1, [sp, #4]
 353 0256 1346     		mov	r3, r2
 354 0258 9B00     		lsls	r3, r3, #2
 355 025a 1344     		add	r3, r3, r2
 356 025c 5B00     		lsls	r3, r3, #1
 357 025e 0344     		add	r3, r3, r0
 358 0260 03F58073 		add	r3, r3, #256
 359 0264 0022     		movs	r2, #0
 360 0266 41F83320 		str	r2, [r1, r3, lsl #3]
 141:C:/StellarStudio-7.0/SDKS/StellarESDK-1.7.0/Modules/Drivers/Timers/HRTIM/src\hrtim.c ****             hdp->eev_counter[timer][eev_index].reset_mode = 0U;
 361              		.loc 1 141 79 discriminator 3
 362 026a 9DF80A30 		ldrb	r3, [sp, #10]	@ zero_extendqisi2
 363 026e 0133     		adds	r3, r3, #1
 364 0270 8DF80A30 		strb	r3, [sp, #10]
 365              	.L7:
 141:C:/StellarStudio-7.0/SDKS/StellarESDK-1.7.0/Modules/Drivers/Timers/HRTIM/src\hrtim.c ****             hdp->eev_counter[timer][eev_index].reset_mode = 0U;
 366              		.loc 1 141 9 discriminator 1
 367 0274 9DF80A30 		ldrb	r3, [sp, #10]	@ zero_extendqisi2
 368 0278 092B     		cmp	r3, #9
 369 027a AFD9     		bls	.L8
 147:C:/StellarStudio-7.0/SDKS/StellarESDK-1.7.0/Modules/Drivers/Timers/HRTIM/src\hrtim.c ****         }
 148:C:/StellarStudio-7.0/SDKS/StellarESDK-1.7.0/Modules/Drivers/Timers/HRTIM/src\hrtim.c **** 
 149:C:/StellarStudio-7.0/SDKS/StellarESDK-1.7.0/Modules/Drivers/Timers/HRTIM/src\hrtim.c ****         hdp->timer_count_mode[timer].fault_event_rollover = HRTIM_ROLLOVER_MODE_BOTH;
 370              		.loc 1 149 37 discriminator 2
 371 027c 9DF80F20 		ldrb	r2, [sp, #15]	@ zero_extendqisi2
 372              		.loc 1 149 59 discriminator 2
 373 0280 0199     		ldr	r1, [sp, #4]
 374 0282 1346     		mov	r3, r2
 375 0284 9B00     		lsls	r3, r3, #2
 376 0286 1344     		add	r3, r3, r2
 377 0288 9B00     		lsls	r3, r3, #2
 378 028a 0B44     		add	r3, r3, r1
 379 028c 03F57A73 		add	r3, r3, #1000
 380 0290 0022     		movs	r2, #0
 381 0292 1A80     		strh	r2, [r3]	@ movhi
 150:C:/StellarStudio-7.0/SDKS/StellarESDK-1.7.0/Modules/Drivers/Timers/HRTIM/src\hrtim.c ****         hdp->timer_count_mode[timer].rollover = HRTIM_ROLLOVER_MODE_BOTH;
 382              		.loc 1 150 37 discriminator 2
 383 0294 9DF80F20 		ldrb	r2, [sp, #15]	@ zero_extendqisi2
 384              		.loc 1 150 47 discriminator 2
 385 0298 0199     		ldr	r1, [sp, #4]
 386 029a 1346     		mov	r3, r2
 387 029c 9B00     		lsls	r3, r3, #2
 388 029e 1344     		add	r3, r3, r2
 389 02a0 9B00     		lsls	r3, r3, #2
 390 02a2 0B44     		add	r3, r3, r1
 391 02a4 03F57873 		add	r3, r3, #992
 392 02a8 0022     		movs	r2, #0
 393 02aa 1A80     		strh	r2, [r3]	@ movhi
 151:C:/StellarStudio-7.0/SDKS/StellarESDK-1.7.0/Modules/Drivers/Timers/HRTIM/src\hrtim.c ****         hdp->timer_count_mode[timer].out_rollover = HRTIM_ROLLOVER_MODE_BOTH;
 394              		.loc 1 151 37 discriminator 2
 395 02ac 9DF80F20 		ldrb	r2, [sp, #15]	@ zero_extendqisi2
 396              		.loc 1 151 51 discriminator 2
 397 02b0 0199     		ldr	r1, [sp, #4]
 398 02b2 1346     		mov	r3, r2
 399 02b4 9B00     		lsls	r3, r3, #2
 400 02b6 1344     		add	r3, r3, r2
 401 02b8 9B00     		lsls	r3, r3, #2
 402 02ba 0B44     		add	r3, r3, r1
 403 02bc 03F2E233 		addw	r3, r3, #994
 404 02c0 0022     		movs	r2, #0
 405 02c2 1A80     		strh	r2, [r3]	@ movhi
 152:C:/StellarStudio-7.0/SDKS/StellarESDK-1.7.0/Modules/Drivers/Timers/HRTIM/src\hrtim.c ****         hdp->timer_count_mode[timer].adc_rollover = HRTIM_ROLLOVER_MODE_BOTH;
 406              		.loc 1 152 37 discriminator 2
 407 02c4 9DF80F20 		ldrb	r2, [sp, #15]	@ zero_extendqisi2
 408              		.loc 1 152 51 discriminator 2
 409 02c8 0199     		ldr	r1, [sp, #4]
 410 02ca 1346     		mov	r3, r2
 411 02cc 9B00     		lsls	r3, r3, #2
 412 02ce 1344     		add	r3, r3, r2
 413 02d0 9B00     		lsls	r3, r3, #2
 414 02d2 0B44     		add	r3, r3, r1
 415 02d4 03F57973 		add	r3, r3, #996
 416 02d8 0022     		movs	r2, #0
 417 02da 1A80     		strh	r2, [r3]	@ movhi
 153:C:/StellarStudio-7.0/SDKS/StellarESDK-1.7.0/Modules/Drivers/Timers/HRTIM/src\hrtim.c ****         hdp->timer_count_mode[timer].burstmode_rollover = HRTIM_ROLLOVER_MODE_BOTH;
 418              		.loc 1 153 37 discriminator 2
 419 02dc 9DF80F20 		ldrb	r2, [sp, #15]	@ zero_extendqisi2
 420              		.loc 1 153 57 discriminator 2
 421 02e0 0199     		ldr	r1, [sp, #4]
 422 02e2 1346     		mov	r3, r2
 423 02e4 9B00     		lsls	r3, r3, #2
 424 02e6 1344     		add	r3, r3, r2
 425 02e8 9B00     		lsls	r3, r3, #2
 426 02ea 0B44     		add	r3, r3, r1
 427 02ec 03F2E633 		addw	r3, r3, #998
 428 02f0 0022     		movs	r2, #0
 429 02f2 1A80     		strh	r2, [r3]	@ movhi
 154:C:/StellarStudio-7.0/SDKS/StellarESDK-1.7.0/Modules/Drivers/Timers/HRTIM/src\hrtim.c **** 
 155:C:/StellarStudio-7.0/SDKS/StellarESDK-1.7.0/Modules/Drivers/Timers/HRTIM/src\hrtim.c ****         hdp->timer_dualdac_enable[timer] = 0;
 430              		.loc 1 155 34 discriminator 2
 431 02f4 9DF80F30 		ldrb	r3, [sp, #15]	@ zero_extendqisi2
 432              		.loc 1 155 42 discriminator 2
 433 02f8 019A     		ldr	r2, [sp, #4]
 434 02fa 1344     		add	r3, r3, r2
 435 02fc 0022     		movs	r2, #0
 436 02fe 83F8E129 		strb	r2, [r3, #2529]
 156:C:/StellarStudio-7.0/SDKS/StellarESDK-1.7.0/Modules/Drivers/Timers/HRTIM/src\hrtim.c **** 
 157:C:/StellarStudio-7.0/SDKS/StellarESDK-1.7.0/Modules/Drivers/Timers/HRTIM/src\hrtim.c ****         hdp->fault_state[timer][0]  = HRTIM_OUTPUT_FAULTSTATE_NOACTIVE;
 437              		.loc 1 157 32 discriminator 2
 438 0302 9DF80F30 		ldrb	r3, [sp, #15]	@ zero_extendqisi2
 439              		.loc 1 157 37 discriminator 2
 440 0306 019A     		ldr	r2, [sp, #4]
 441 0308 03F5AC63 		add	r3, r3, #1376
 442 030c 5B00     		lsls	r3, r3, #1
 443 030e 1344     		add	r3, r3, r2
 444 0310 0022     		movs	r2, #0
 445 0312 1A71     		strb	r2, [r3, #4]
 158:C:/StellarStudio-7.0/SDKS/StellarESDK-1.7.0/Modules/Drivers/Timers/HRTIM/src\hrtim.c ****         hdp->fault_state[timer][1]  = HRTIM_OUTPUT_FAULTSTATE_NOACTIVE;
 446              		.loc 1 158 32 discriminator 2
 447 0314 9DF80F30 		ldrb	r3, [sp, #15]	@ zero_extendqisi2
 448              		.loc 1 158 37 discriminator 2
 449 0318 019A     		ldr	r2, [sp, #4]
 450 031a 5B00     		lsls	r3, r3, #1
 451 031c 1344     		add	r3, r3, r2
 452 031e 0022     		movs	r2, #0
 453 0320 83F8C52A 		strb	r2, [r3, #2757]
 159:C:/StellarStudio-7.0/SDKS/StellarESDK-1.7.0/Modules/Drivers/Timers/HRTIM/src\hrtim.c ****         hdp->idle_state[timer][0]   = HRTIM_OUTPUT_IDLESTATE_INACTIVE;
 454              		.loc 1 159 31 discriminator 2
 455 0324 9DF80F20 		ldrb	r2, [sp, #15]	@ zero_extendqisi2
 456              		.loc 1 159 37 discriminator 2
 457 0328 019B     		ldr	r3, [sp, #4]
 458 032a 02F5AD62 		add	r2, r2, #1384
 459 032e 0021     		movs	r1, #0
 460 0330 03F81210 		strb	r1, [r3, r2, lsl #1]
 160:C:/StellarStudio-7.0/SDKS/StellarESDK-1.7.0/Modules/Drivers/Timers/HRTIM/src\hrtim.c ****         hdp->idle_state[timer][1]   = HRTIM_OUTPUT_IDLESTATE_INACTIVE;
 461              		.loc 1 160 31 discriminator 2
 462 0334 9DF80F30 		ldrb	r3, [sp, #15]	@ zero_extendqisi2
 463              		.loc 1 160 37 discriminator 2
 464 0338 019A     		ldr	r2, [sp, #4]
 465 033a 5B00     		lsls	r3, r3, #1
 466 033c 1344     		add	r3, r3, r2
 467 033e 0022     		movs	r2, #0
 468 0340 83F8D12A 		strb	r2, [r3, #2769]
 161:C:/StellarStudio-7.0/SDKS/StellarESDK-1.7.0/Modules/Drivers/Timers/HRTIM/src\hrtim.c ****         hdp->out_polarity[timer][0] = HRTIM_OUTPUT_POLARITY_POSITIVE;
 469              		.loc 1 161 33 discriminator 2
 470 0344 9DF80F30 		ldrb	r3, [sp, #15]	@ zero_extendqisi2
 471              		.loc 1 161 37 discriminator 2
 472 0348 019A     		ldr	r2, [sp, #4]
 473 034a 03F26C53 		addw	r3, r3, #1388
 474 034e 5B00     		lsls	r3, r3, #1
 475 0350 1344     		add	r3, r3, r2
 476 0352 0022     		movs	r2, #0
 477 0354 1A71     		strb	r2, [r3, #4]
 162:C:/StellarStudio-7.0/SDKS/StellarESDK-1.7.0/Modules/Drivers/Timers/HRTIM/src\hrtim.c ****         hdp->out_polarity[timer][1] = HRTIM_OUTPUT_POLARITY_POSITIVE;
 478              		.loc 1 162 33 discriminator 2
 479 0356 9DF80F30 		ldrb	r3, [sp, #15]	@ zero_extendqisi2
 480              		.loc 1 162 37 discriminator 2
 481 035a 019A     		ldr	r2, [sp, #4]
 482 035c 5B00     		lsls	r3, r3, #1
 483 035e 1344     		add	r3, r3, r2
 484 0360 0022     		movs	r2, #0
 485 0362 83F8DD2A 		strb	r2, [r3, #2781]
 163:C:/StellarStudio-7.0/SDKS/StellarESDK-1.7.0/Modules/Drivers/Timers/HRTIM/src\hrtim.c **** 
 164:C:/StellarStudio-7.0/SDKS/StellarESDK-1.7.0/Modules/Drivers/Timers/HRTIM/src\hrtim.c ****         hdp->cpt_unit[timer].capture_trg_1 = HRTIM_CAPTURE_TRG_NONE;
 486              		.loc 1 164 29 discriminator 2
 487 0366 9DF80F20 		ldrb	r2, [sp, #15]	@ zero_extendqisi2
 488              		.loc 1 164 44 discriminator 2
 489 036a 019B     		ldr	r3, [sp, #4]
 490 036c 02F25D12 		addw	r2, r2, #349
 491 0370 0021     		movs	r1, #0
 492 0372 43F83210 		str	r1, [r3, r2, lsl #3]
 165:C:/StellarStudio-7.0/SDKS/StellarESDK-1.7.0/Modules/Drivers/Timers/HRTIM/src\hrtim.c ****         hdp->cpt_unit[timer].capture_trg_2 = HRTIM_CAPTURE_TRG_NONE;
 493              		.loc 1 165 29 discriminator 2
 494 0376 9DF80F30 		ldrb	r3, [sp, #15]	@ zero_extendqisi2
 495              		.loc 1 165 44 discriminator 2
 496 037a 019A     		ldr	r2, [sp, #4]
 497 037c 03F25D13 		addw	r3, r3, #349
 498 0380 DB00     		lsls	r3, r3, #3
 499 0382 1344     		add	r3, r3, r2
 500 0384 0022     		movs	r2, #0
 501 0386 5A60     		str	r2, [r3, #4]
 113:C:/StellarStudio-7.0/SDKS/StellarESDK-1.7.0/Modules/Drivers/Timers/HRTIM/src\hrtim.c ****         hdp->timer_cntr_mode[timer] = HRTIM_MODE_SINGLE_SHOT_NO_RETRIGGERED;
 502              		.loc 1 113 61 discriminator 2
 503 0388 9DF80F30 		ldrb	r3, [sp, #15]	@ zero_extendqisi2
 504 038c 0133     		adds	r3, r3, #1
 505 038e 8DF80F30 		strb	r3, [sp, #15]
 506              	.L4:
 113:C:/StellarStudio-7.0/SDKS/StellarESDK-1.7.0/Modules/Drivers/Timers/HRTIM/src\hrtim.c ****         hdp->timer_cntr_mode[timer] = HRTIM_MODE_SINGLE_SHOT_NO_RETRIGGERED;
 507              		.loc 1 113 5 discriminator 1
 508 0392 9DF80F30 		ldrb	r3, [sp, #15]	@ zero_extendqisi2
 509 0396 052B     		cmp	r3, #5
 510 0398 7FF66AAE 		bls	.L9
 166:C:/StellarStudio-7.0/SDKS/StellarESDK-1.7.0/Modules/Drivers/Timers/HRTIM/src\hrtim.c ****     }
 167:C:/StellarStudio-7.0/SDKS/StellarESDK-1.7.0/Modules/Drivers/Timers/HRTIM/src\hrtim.c **** 
 168:C:/StellarStudio-7.0/SDKS/StellarESDK-1.7.0/Modules/Drivers/Timers/HRTIM/src\hrtim.c ****     hdp->cb_mt  = NULL;
 511              		.loc 1 168 17
 512 039c 019B     		ldr	r3, [sp, #4]
 513 039e 0022     		movs	r2, #0
 514 03a0 C3F8D422 		str	r2, [r3, #724]
 169:C:/StellarStudio-7.0/SDKS/StellarESDK-1.7.0/Modules/Drivers/Timers/HRTIM/src\hrtim.c ****     hdp->cb_flt = NULL;
 515              		.loc 1 169 17
 516 03a4 019B     		ldr	r3, [sp, #4]
 517 03a6 0022     		movs	r2, #0
 518 03a8 C3F8D822 		str	r2, [r3, #728]
 170:C:/StellarStudio-7.0/SDKS/StellarESDK-1.7.0/Modules/Drivers/Timers/HRTIM/src\hrtim.c **** 
 171:C:/StellarStudio-7.0/SDKS/StellarESDK-1.7.0/Modules/Drivers/Timers/HRTIM/src\hrtim.c ****     for (set = 0U; set < (uint8_t)HRTIM_EVENT_NUM; set++) {
 519              		.loc 1 171 14
 520 03ac 0023     		movs	r3, #0
 521 03ae 8DF80D30 		strb	r3, [sp, #13]
 522              		.loc 1 171 5
 523 03b2 29E0     		b	.L10
 524              	.L13:
 172:C:/StellarStudio-7.0/SDKS/StellarESDK-1.7.0/Modules/Drivers/Timers/HRTIM/src\hrtim.c ****         for (output = 0U; output < (uint8_t)HRTIM_OUTPUT_NUM; output++) {
 525              		.loc 1 172 21
 526 03b4 0023     		movs	r3, #0
 527 03b6 8DF80C30 		strb	r3, [sp, #12]
 528              		.loc 1 172 9
 529 03ba 1CE0     		b	.L11
 530              	.L12:
 173:C:/StellarStudio-7.0/SDKS/StellarESDK-1.7.0/Modules/Drivers/Timers/HRTIM/src\hrtim.c ****             hdp->set_event[set][output] = HRTIM_OUTPUT_NONE;
 531              		.loc 1 173 32 discriminator 3
 532 03bc 9DF80D10 		ldrb	r1, [sp, #13]	@ zero_extendqisi2
 533 03c0 9DF80C30 		ldrb	r3, [sp, #12]	@ zero_extendqisi2
 534              		.loc 1 173 41 discriminator 3
 535 03c4 019A     		ldr	r2, [sp, #4]
 536 03c6 4900     		lsls	r1, r1, #1
 537 03c8 0B44     		add	r3, r3, r1
 538 03ca 2E33     		adds	r3, r3, #46
 539 03cc 9B00     		lsls	r3, r3, #2
 540 03ce 1344     		add	r3, r3, r2
 541 03d0 0022     		movs	r2, #0
 542 03d2 5A60     		str	r2, [r3, #4]
 174:C:/StellarStudio-7.0/SDKS/StellarESDK-1.7.0/Modules/Drivers/Timers/HRTIM/src\hrtim.c ****             hdp->rst_event[set][output] = HRTIM_OUTPUT_NONE;
 543              		.loc 1 174 32 discriminator 3
 544 03d4 9DF80D10 		ldrb	r1, [sp, #13]	@ zero_extendqisi2
 545 03d8 9DF80C30 		ldrb	r3, [sp, #12]	@ zero_extendqisi2
 546              		.loc 1 174 41 discriminator 3
 547 03dc 019A     		ldr	r2, [sp, #4]
 548 03de 4900     		lsls	r1, r1, #1
 549 03e0 0B44     		add	r3, r3, r1
 550 03e2 6E33     		adds	r3, r3, #110
 551 03e4 9B00     		lsls	r3, r3, #2
 552 03e6 1344     		add	r3, r3, r2
 553 03e8 0022     		movs	r2, #0
 554 03ea 5A60     		str	r2, [r3, #4]
 172:C:/StellarStudio-7.0/SDKS/StellarESDK-1.7.0/Modules/Drivers/Timers/HRTIM/src\hrtim.c ****         for (output = 0U; output < (uint8_t)HRTIM_OUTPUT_NUM; output++) {
 555              		.loc 1 172 69 discriminator 3
 556 03ec 9DF80C30 		ldrb	r3, [sp, #12]	@ zero_extendqisi2
 557 03f0 0133     		adds	r3, r3, #1
 558 03f2 8DF80C30 		strb	r3, [sp, #12]
 559              	.L11:
 172:C:/StellarStudio-7.0/SDKS/StellarESDK-1.7.0/Modules/Drivers/Timers/HRTIM/src\hrtim.c ****         for (output = 0U; output < (uint8_t)HRTIM_OUTPUT_NUM; output++) {
 560              		.loc 1 172 9 discriminator 1
 561 03f6 9DF80C30 		ldrb	r3, [sp, #12]	@ zero_extendqisi2
 562 03fa 012B     		cmp	r3, #1
 563 03fc DED9     		bls	.L12
 171:C:/StellarStudio-7.0/SDKS/StellarESDK-1.7.0/Modules/Drivers/Timers/HRTIM/src\hrtim.c ****         for (output = 0U; output < (uint8_t)HRTIM_OUTPUT_NUM; output++) {
 564              		.loc 1 171 55 discriminator 2
 565 03fe 9DF80D30 		ldrb	r3, [sp, #13]	@ zero_extendqisi2
 566 0402 0133     		adds	r3, r3, #1
 567 0404 8DF80D30 		strb	r3, [sp, #13]
 568              	.L10:
 171:C:/StellarStudio-7.0/SDKS/StellarESDK-1.7.0/Modules/Drivers/Timers/HRTIM/src\hrtim.c ****         for (output = 0U; output < (uint8_t)HRTIM_OUTPUT_NUM; output++) {
 569              		.loc 1 171 5 discriminator 1
 570 0408 9DF80D30 		ldrb	r3, [sp, #13]	@ zero_extendqisi2
 571 040c 1F2B     		cmp	r3, #31
 572 040e D1D9     		bls	.L13
 175:C:/StellarStudio-7.0/SDKS/StellarESDK-1.7.0/Modules/Drivers/Timers/HRTIM/src\hrtim.c ****         }
 176:C:/StellarStudio-7.0/SDKS/StellarESDK-1.7.0/Modules/Drivers/Timers/HRTIM/src\hrtim.c ****     }
 177:C:/StellarStudio-7.0/SDKS/StellarESDK-1.7.0/Modules/Drivers/Timers/HRTIM/src\hrtim.c **** 
 178:C:/StellarStudio-7.0/SDKS/StellarESDK-1.7.0/Modules/Drivers/Timers/HRTIM/src\hrtim.c ****     for (adctrigger = 0U; adctrigger < (uint8_t)HRTIM_ADCTRIG_NUM; adctrigger++) {
 573              		.loc 1 178 21
 574 0410 0023     		movs	r3, #0
 575 0412 8DF80B30 		strb	r3, [sp, #11]
 576              		.loc 1 178 5
 577 0416 27E0     		b	.L14
 578              	.L15:
 179:C:/StellarStudio-7.0/SDKS/StellarESDK-1.7.0/Modules/Drivers/Timers/HRTIM/src\hrtim.c ****        hdp->adc_trg[adctrigger].adc_trigger = HRTIM_NO_ADCTRIGGER;
 579              		.loc 1 179 32 discriminator 3
 580 0418 9DF80B30 		ldrb	r3, [sp, #11]	@ zero_extendqisi2
 581              		.loc 1 179 45 discriminator 3
 582 041c 019A     		ldr	r2, [sp, #4]
 583 041e 3333     		adds	r3, r3, #51
 584 0420 1B01     		lsls	r3, r3, #4
 585 0422 1344     		add	r3, r3, r2
 586 0424 0A22     		movs	r2, #10
 587 0426 1A70     		strb	r2, [r3]
 180:C:/StellarStudio-7.0/SDKS/StellarESDK-1.7.0/Modules/Drivers/Timers/HRTIM/src\hrtim.c ****        hdp->adc_trg[adctrigger].update_src = 0U;
 588              		.loc 1 180 32 discriminator 3
 589 0428 9DF80B30 		ldrb	r3, [sp, #11]	@ zero_extendqisi2
 590              		.loc 1 180 44 discriminator 3
 591 042c 019A     		ldr	r2, [sp, #4]
 592 042e 3333     		adds	r3, r3, #51
 593 0430 1B01     		lsls	r3, r3, #4
 594 0432 1344     		add	r3, r3, r2
 595 0434 0433     		adds	r3, r3, #4
 596 0436 0022     		movs	r2, #0
 597 0438 1A60     		str	r2, [r3]
 181:C:/StellarStudio-7.0/SDKS/StellarESDK-1.7.0/Modules/Drivers/Timers/HRTIM/src\hrtim.c ****        hdp->adc_trg[adctrigger].event_trigger = 0U;
 598              		.loc 1 181 32 discriminator 3
 599 043a 9DF80B30 		ldrb	r3, [sp, #11]	@ zero_extendqisi2
 600              		.loc 1 181 47 discriminator 3
 601 043e 019A     		ldr	r2, [sp, #4]
 602 0440 1B01     		lsls	r3, r3, #4
 603 0442 1344     		add	r3, r3, r2
 604 0444 03F54E73 		add	r3, r3, #824
 605 0448 0022     		movs	r2, #0
 606 044a 1A60     		str	r2, [r3]
 182:C:/StellarStudio-7.0/SDKS/StellarESDK-1.7.0/Modules/Drivers/Timers/HRTIM/src\hrtim.c ****        hdp->adc_trg[adctrigger].post_scaler_rate = 0U;
 607              		.loc 1 182 32 discriminator 3
 608 044c 9DF80B30 		ldrb	r3, [sp, #11]	@ zero_extendqisi2
 609              		.loc 1 182 50 discriminator 3
 610 0450 019A     		ldr	r2, [sp, #4]
 611 0452 1B01     		lsls	r3, r3, #4
 612 0454 1344     		add	r3, r3, r2
 613 0456 03F54F73 		add	r3, r3, #828
 614 045a 0022     		movs	r2, #0
 615 045c 1A60     		str	r2, [r3]
 178:C:/StellarStudio-7.0/SDKS/StellarESDK-1.7.0/Modules/Drivers/Timers/HRTIM/src\hrtim.c ****        hdp->adc_trg[adctrigger].adc_trigger = HRTIM_NO_ADCTRIGGER;
 616              		.loc 1 178 78 discriminator 3
 617 045e 9DF80B30 		ldrb	r3, [sp, #11]	@ zero_extendqisi2
 618 0462 0133     		adds	r3, r3, #1
 619 0464 8DF80B30 		strb	r3, [sp, #11]
 620              	.L14:
 178:C:/StellarStudio-7.0/SDKS/StellarESDK-1.7.0/Modules/Drivers/Timers/HRTIM/src\hrtim.c ****        hdp->adc_trg[adctrigger].adc_trigger = HRTIM_NO_ADCTRIGGER;
 621              		.loc 1 178 5 discriminator 1
 622 0468 9DF80B30 		ldrb	r3, [sp, #11]	@ zero_extendqisi2
 623 046c 092B     		cmp	r3, #9
 624 046e D3D9     		bls	.L15
 183:C:/StellarStudio-7.0/SDKS/StellarESDK-1.7.0/Modules/Drivers/Timers/HRTIM/src\hrtim.c ****     }
 184:C:/StellarStudio-7.0/SDKS/StellarESDK-1.7.0/Modules/Drivers/Timers/HRTIM/src\hrtim.c **** 
 185:C:/StellarStudio-7.0/SDKS/StellarESDK-1.7.0/Modules/Drivers/Timers/HRTIM/src\hrtim.c ****     for (eev_index = 0U; eev_index < (uint8_t)HRTIM_EXEVENT_NUM; eev_index++) {
 625              		.loc 1 185 20
 626 0470 0023     		movs	r3, #0
 627 0472 8DF80A30 		strb	r3, [sp, #10]
 628              		.loc 1 185 5
 629 0476 40E0     		b	.L16
 630              	.L17:
 186:C:/StellarStudio-7.0/SDKS/StellarESDK-1.7.0/Modules/Drivers/Timers/HRTIM/src\hrtim.c ****        hdp->eev[eev_index].source = 0U;
 631              		.loc 1 186 27 discriminator 3
 632 0478 9DF80A20 		ldrb	r2, [sp, #10]	@ zero_extendqisi2
 633              		.loc 1 186 35 discriminator 3
 634 047c 0199     		ldr	r1, [sp, #4]
 635 047e 1346     		mov	r3, r2
 636 0480 9B00     		lsls	r3, r3, #2
 637 0482 1344     		add	r3, r3, r2
 638 0484 9B00     		lsls	r3, r3, #2
 639 0486 0B44     		add	r3, r3, r1
 640 0488 03F58D63 		add	r3, r3, #1128
 641 048c 0022     		movs	r2, #0
 642 048e 1A60     		str	r2, [r3]
 187:C:/StellarStudio-7.0/SDKS/StellarESDK-1.7.0/Modules/Drivers/Timers/HRTIM/src\hrtim.c ****        hdp->eev[eev_index].polarity = 0U;
 643              		.loc 1 187 27 discriminator 3
 644 0490 9DF80A20 		ldrb	r2, [sp, #10]	@ zero_extendqisi2
 645              		.loc 1 187 37 discriminator 3
 646 0494 0199     		ldr	r1, [sp, #4]
 647 0496 1346     		mov	r3, r2
 648 0498 9B00     		lsls	r3, r3, #2
 649 049a 1344     		add	r3, r3, r2
 650 049c 9B00     		lsls	r3, r3, #2
 651 049e 0B44     		add	r3, r3, r1
 652 04a0 03F26C43 		addw	r3, r3, #1132
 653 04a4 0022     		movs	r2, #0
 654 04a6 1A60     		str	r2, [r3]
 188:C:/StellarStudio-7.0/SDKS/StellarESDK-1.7.0/Modules/Drivers/Timers/HRTIM/src\hrtim.c ****        hdp->eev[eev_index].sensitivity = 0U;
 655              		.loc 1 188 27 discriminator 3
 656 04a8 9DF80A20 		ldrb	r2, [sp, #10]	@ zero_extendqisi2
 657              		.loc 1 188 40 discriminator 3
 658 04ac 0199     		ldr	r1, [sp, #4]
 659 04ae 1346     		mov	r3, r2
 660 04b0 9B00     		lsls	r3, r3, #2
 661 04b2 1344     		add	r3, r3, r2
 662 04b4 9B00     		lsls	r3, r3, #2
 663 04b6 0B44     		add	r3, r3, r1
 664 04b8 03F58E63 		add	r3, r3, #1136
 665 04bc 0022     		movs	r2, #0
 666 04be 1A60     		str	r2, [r3]
 189:C:/StellarStudio-7.0/SDKS/StellarESDK-1.7.0/Modules/Drivers/Timers/HRTIM/src\hrtim.c ****        hdp->eev[eev_index].filter = 0U;
 667              		.loc 1 189 27 discriminator 3
 668 04c0 9DF80A20 		ldrb	r2, [sp, #10]	@ zero_extendqisi2
 669              		.loc 1 189 35 discriminator 3
 670 04c4 0199     		ldr	r1, [sp, #4]
 671 04c6 1346     		mov	r3, r2
 672 04c8 9B00     		lsls	r3, r3, #2
 673 04ca 1344     		add	r3, r3, r2
 674 04cc 9B00     		lsls	r3, r3, #2
 675 04ce 0B44     		add	r3, r3, r1
 676 04d0 03F27443 		addw	r3, r3, #1140
 677 04d4 0022     		movs	r2, #0
 678 04d6 1A60     		str	r2, [r3]
 190:C:/StellarStudio-7.0/SDKS/StellarESDK-1.7.0/Modules/Drivers/Timers/HRTIM/src\hrtim.c ****        hdp->eev[eev_index].fast_mode = 0U;
 679              		.loc 1 190 27 discriminator 3
 680 04d8 9DF80A20 		ldrb	r2, [sp, #10]	@ zero_extendqisi2
 681              		.loc 1 190 38 discriminator 3
 682 04dc 0199     		ldr	r1, [sp, #4]
 683 04de 1346     		mov	r3, r2
 684 04e0 9B00     		lsls	r3, r3, #2
 685 04e2 1344     		add	r3, r3, r2
 686 04e4 9B00     		lsls	r3, r3, #2
 687 04e6 0B44     		add	r3, r3, r1
 688 04e8 03F58F63 		add	r3, r3, #1144
 689 04ec 0022     		movs	r2, #0
 690 04ee 1A60     		str	r2, [r3]
 185:C:/StellarStudio-7.0/SDKS/StellarESDK-1.7.0/Modules/Drivers/Timers/HRTIM/src\hrtim.c ****        hdp->eev[eev_index].source = 0U;
 691              		.loc 1 185 75 discriminator 3
 692 04f0 9DF80A30 		ldrb	r3, [sp, #10]	@ zero_extendqisi2
 693 04f4 0133     		adds	r3, r3, #1
 694 04f6 8DF80A30 		strb	r3, [sp, #10]
 695              	.L16:
 185:C:/StellarStudio-7.0/SDKS/StellarESDK-1.7.0/Modules/Drivers/Timers/HRTIM/src\hrtim.c ****        hdp->eev[eev_index].source = 0U;
 696              		.loc 1 185 5 discriminator 1
 697 04fa 9DF80A30 		ldrb	r3, [sp, #10]	@ zero_extendqisi2
 698 04fe 092B     		cmp	r3, #9
 699 0500 BAD9     		bls	.L17
 191:C:/StellarStudio-7.0/SDKS/StellarESDK-1.7.0/Modules/Drivers/Timers/HRTIM/src\hrtim.c ****     }
 192:C:/StellarStudio-7.0/SDKS/StellarESDK-1.7.0/Modules/Drivers/Timers/HRTIM/src\hrtim.c **** 
 193:C:/StellarStudio-7.0/SDKS/StellarESDK-1.7.0/Modules/Drivers/Timers/HRTIM/src\hrtim.c ****     hdp->eev_prescaler = HRTIM_EVENTPRESCALER_DIV1;
 700              		.loc 1 193 24
 701 0502 019B     		ldr	r3, [sp, #4]
 702 0504 0022     		movs	r2, #0
 703 0506 83F8E029 		strb	r2, [r3, #2528]
 194:C:/StellarStudio-7.0/SDKS/StellarESDK-1.7.0/Modules/Drivers/Timers/HRTIM/src\hrtim.c **** 
 195:C:/StellarStudio-7.0/SDKS/StellarESDK-1.7.0/Modules/Drivers/Timers/HRTIM/src\hrtim.c ****     for (flt_index = 0U; flt_index < (uint8_t)HRTIM_FAULT_NUM; flt_index++) {
 704              		.loc 1 195 20
 705 050a 0023     		movs	r3, #0
 706 050c 8DF80930 		strb	r3, [sp, #9]
 707              		.loc 1 195 5
 708 0510 70E0     		b	.L18
 709              	.L19:
 196:C:/StellarStudio-7.0/SDKS/StellarESDK-1.7.0/Modules/Drivers/Timers/HRTIM/src\hrtim.c ****         hdp->fault[flt_index].fault_idx = HRTIM_NO_FAULT;
 710              		.loc 1 196 30 discriminator 3
 711 0512 9DF80920 		ldrb	r2, [sp, #9]	@ zero_extendqisi2
 712              		.loc 1 196 41 discriminator 3
 713 0516 0199     		ldr	r1, [sp, #4]
 714 0518 1346     		mov	r3, r2
 715 051a 9B00     		lsls	r3, r3, #2
 716 051c 1344     		add	r3, r3, r2
 717 051e 9B00     		lsls	r3, r3, #2
 718 0520 0B44     		add	r3, r3, r1
 719 0522 03F6E813 		addw	r3, r3, #2536
 720 0526 0622     		movs	r2, #6
 721 0528 1A70     		strb	r2, [r3]
 197:C:/StellarStudio-7.0/SDKS/StellarESDK-1.7.0/Modules/Drivers/Timers/HRTIM/src\hrtim.c ****         hdp->fault[flt_index].enable = false;
 722              		.loc 1 197 30 discriminator 3
 723 052a 9DF80920 		ldrb	r2, [sp, #9]	@ zero_extendqisi2
 724              		.loc 1 197 38 discriminator 3
 725 052e 0199     		ldr	r1, [sp, #4]
 726 0530 1346     		mov	r3, r2
 727 0532 9B00     		lsls	r3, r3, #2
 728 0534 1344     		add	r3, r3, r2
 729 0536 9B00     		lsls	r3, r3, #2
 730 0538 0B44     		add	r3, r3, r1
 731 053a 03F6E913 		addw	r3, r3, #2537
 732 053e 0022     		movs	r2, #0
 733 0540 1A70     		strb	r2, [r3]
 198:C:/StellarStudio-7.0/SDKS/StellarESDK-1.7.0/Modules/Drivers/Timers/HRTIM/src\hrtim.c ****         hdp->fault[flt_index].source = 0U;
 734              		.loc 1 198 30 discriminator 3
 735 0542 9DF80920 		ldrb	r2, [sp, #9]	@ zero_extendqisi2
 736              		.loc 1 198 38 discriminator 3
 737 0546 0199     		ldr	r1, [sp, #4]
 738 0548 1346     		mov	r3, r2
 739 054a 9B00     		lsls	r3, r3, #2
 740 054c 1344     		add	r3, r3, r2
 741 054e 9B00     		lsls	r3, r3, #2
 742 0550 0B44     		add	r3, r3, r1
 743 0552 03F6EC13 		addw	r3, r3, #2540
 744 0556 0022     		movs	r2, #0
 745 0558 1A60     		str	r2, [r3]
 199:C:/StellarStudio-7.0/SDKS/StellarESDK-1.7.0/Modules/Drivers/Timers/HRTIM/src\hrtim.c ****         hdp->fault[flt_index].polarity = HRTIM_FAULTPOLARITY_LOW;
 746              		.loc 1 199 30 discriminator 3
 747 055a 9DF80920 		ldrb	r2, [sp, #9]	@ zero_extendqisi2
 748              		.loc 1 199 40 discriminator 3
 749 055e 0199     		ldr	r1, [sp, #4]
 750 0560 1346     		mov	r3, r2
 751 0562 9B00     		lsls	r3, r3, #2
 752 0564 1344     		add	r3, r3, r2
 753 0566 9B00     		lsls	r3, r3, #2
 754 0568 0B44     		add	r3, r3, r1
 755 056a 03F51F63 		add	r3, r3, #2544
 756 056e 0022     		movs	r2, #0
 757 0570 1A60     		str	r2, [r3]
 200:C:/StellarStudio-7.0/SDKS/StellarESDK-1.7.0/Modules/Drivers/Timers/HRTIM/src\hrtim.c ****         hdp->fault[flt_index].filter = HRTIM_FAULTFILTER_NONE;
 758              		.loc 1 200 30 discriminator 3
 759 0572 9DF80920 		ldrb	r2, [sp, #9]	@ zero_extendqisi2
 760              		.loc 1 200 38 discriminator 3
 761 0576 0199     		ldr	r1, [sp, #4]
 762 0578 1346     		mov	r3, r2
 763 057a 9B00     		lsls	r3, r3, #2
 764 057c 1344     		add	r3, r3, r2
 765 057e 9B00     		lsls	r3, r3, #2
 766 0580 0B44     		add	r3, r3, r1
 767 0582 03F6F413 		addw	r3, r3, #2548
 768 0586 0022     		movs	r2, #0
 769 0588 1A60     		str	r2, [r3]
 201:C:/StellarStudio-7.0/SDKS/StellarESDK-1.7.0/Modules/Drivers/Timers/HRTIM/src\hrtim.c ****         hdp->fault[flt_index].lock = HRTIM_FAULTLOCK_READWRITE;
 770              		.loc 1 201 30 discriminator 3
 771 058a 9DF80920 		ldrb	r2, [sp, #9]	@ zero_extendqisi2
 772              		.loc 1 201 36 discriminator 3
 773 058e 0199     		ldr	r1, [sp, #4]
 774 0590 1346     		mov	r3, r2
 775 0592 9B00     		lsls	r3, r3, #2
 776 0594 1344     		add	r3, r3, r2
 777 0596 9B00     		lsls	r3, r3, #2
 778 0598 0B44     		add	r3, r3, r1
 779 059a 03F6F813 		addw	r3, r3, #2552
 780 059e 0022     		movs	r2, #0
 781 05a0 1A60     		str	r2, [r3]
 202:C:/StellarStudio-7.0/SDKS/StellarESDK-1.7.0/Modules/Drivers/Timers/HRTIM/src\hrtim.c **** 
 203:C:/StellarStudio-7.0/SDKS/StellarESDK-1.7.0/Modules/Drivers/Timers/HRTIM/src\hrtim.c ****         hdp->fault_blnk[flt_index].threshold = 0U;
 782              		.loc 1 203 35 discriminator 3
 783 05a2 9DF80930 		ldrb	r3, [sp, #9]	@ zero_extendqisi2
 784              		.loc 1 203 46 discriminator 3
 785 05a6 019A     		ldr	r2, [sp, #4]
 786 05a8 A633     		adds	r3, r3, #166
 787 05aa 1B01     		lsls	r3, r3, #4
 788 05ac 1344     		add	r3, r3, r2
 789 05ae 0433     		adds	r3, r3, #4
 790 05b0 0022     		movs	r2, #0
 791 05b2 1A60     		str	r2, [r3]
 204:C:/StellarStudio-7.0/SDKS/StellarESDK-1.7.0/Modules/Drivers/Timers/HRTIM/src\hrtim.c ****         hdp->fault_blnk[flt_index].reset_mode = HRTIM_FAULTCOUNTERRST_UNCONDITIONAL;
 792              		.loc 1 204 35 discriminator 3
 793 05b4 9DF80930 		ldrb	r3, [sp, #9]	@ zero_extendqisi2
 794              		.loc 1 204 47 discriminator 3
 795 05b8 019A     		ldr	r2, [sp, #4]
 796 05ba A633     		adds	r3, r3, #166
 797 05bc 1B01     		lsls	r3, r3, #4
 798 05be 1344     		add	r3, r3, r2
 799 05c0 0833     		adds	r3, r3, #8
 800 05c2 0022     		movs	r2, #0
 801 05c4 1A60     		str	r2, [r3]
 205:C:/StellarStudio-7.0/SDKS/StellarESDK-1.7.0/Modules/Drivers/Timers/HRTIM/src\hrtim.c **** 		hdp->fault_blnk[flt_index].blanking_enable = false;
 802              		.loc 1 205 29 discriminator 3
 803 05c6 9DF80930 		ldrb	r3, [sp, #9]	@ zero_extendqisi2
 804              		.loc 1 205 46 discriminator 3
 805 05ca 019A     		ldr	r2, [sp, #4]
 806 05cc 1B01     		lsls	r3, r3, #4
 807 05ce 1344     		add	r3, r3, r2
 808 05d0 03F66C23 		addw	r3, r3, #2668
 809 05d4 0022     		movs	r2, #0
 810 05d6 1A70     		strb	r2, [r3]
 206:C:/StellarStudio-7.0/SDKS/StellarESDK-1.7.0/Modules/Drivers/Timers/HRTIM/src\hrtim.c ****         hdp->fault_blnk[flt_index].blanking_source = HRTIM_FAULTBLANKINGMODE_RSTALIGNED;
 811              		.loc 1 206 35 discriminator 3
 812 05d8 9DF80930 		ldrb	r3, [sp, #9]	@ zero_extendqisi2
 813              		.loc 1 206 52 discriminator 3
 814 05dc 019A     		ldr	r2, [sp, #4]
 815 05de 1B01     		lsls	r3, r3, #4
 816 05e0 1344     		add	r3, r3, r2
 817 05e2 03F52763 		add	r3, r3, #2672
 818 05e6 0022     		movs	r2, #0
 819 05e8 1A60     		str	r2, [r3]
 195:C:/StellarStudio-7.0/SDKS/StellarESDK-1.7.0/Modules/Drivers/Timers/HRTIM/src\hrtim.c ****         hdp->fault[flt_index].fault_idx = HRTIM_NO_FAULT;
 820              		.loc 1 195 73 discriminator 3
 821 05ea 9DF80930 		ldrb	r3, [sp, #9]	@ zero_extendqisi2
 822 05ee 0133     		adds	r3, r3, #1
 823 05f0 8DF80930 		strb	r3, [sp, #9]
 824              	.L18:
 195:C:/StellarStudio-7.0/SDKS/StellarESDK-1.7.0/Modules/Drivers/Timers/HRTIM/src\hrtim.c ****         hdp->fault[flt_index].fault_idx = HRTIM_NO_FAULT;
 825              		.loc 1 195 5 discriminator 1
 826 05f4 9DF80930 		ldrb	r3, [sp, #9]	@ zero_extendqisi2
 827 05f8 052B     		cmp	r3, #5
 828 05fa 8AD9     		bls	.L19
 207:C:/StellarStudio-7.0/SDKS/StellarESDK-1.7.0/Modules/Drivers/Timers/HRTIM/src\hrtim.c ****     }
 208:C:/StellarStudio-7.0/SDKS/StellarESDK-1.7.0/Modules/Drivers/Timers/HRTIM/src\hrtim.c **** 
 209:C:/StellarStudio-7.0/SDKS/StellarESDK-1.7.0/Modules/Drivers/Timers/HRTIM/src\hrtim.c ****     hdp->fault_prescaler = HRTIM_FAULTPRESCALER_DIV1;
 829              		.loc 1 209 26
 830 05fc 019B     		ldr	r3, [sp, #4]
 831 05fe 0022     		movs	r2, #0
 832 0600 83F8602A 		strb	r2, [r3, #2656]
 210:C:/StellarStudio-7.0/SDKS/StellarESDK-1.7.0/Modules/Drivers/Timers/HRTIM/src\hrtim.c **** 
 211:C:/StellarStudio-7.0/SDKS/StellarESDK-1.7.0/Modules/Drivers/Timers/HRTIM/src\hrtim.c ****     hdp->sync_in  = HRTIM_SYNCIN_NONE;
 833              		.loc 1 211 19
 834 0604 019B     		ldr	r3, [sp, #4]
 835 0606 0022     		movs	r2, #0
 836 0608 83F8182B 		strb	r2, [r3, #2840]
 212:C:/StellarStudio-7.0/SDKS/StellarESDK-1.7.0/Modules/Drivers/Timers/HRTIM/src\hrtim.c ****     hdp->sync_out = HRTIM_SYNCOUT_DISABLED;
 837              		.loc 1 212 19
 838 060c 019B     		ldr	r3, [sp, #4]
 839 060e 0022     		movs	r2, #0
 840 0610 83F8192B 		strb	r2, [r3, #2841]
 213:C:/StellarStudio-7.0/SDKS/StellarESDK-1.7.0/Modules/Drivers/Timers/HRTIM/src\hrtim.c ****     hdp->sync_src = HRTIM_SYNCSRC_MASTER_START;
 841              		.loc 1 213 19
 842 0614 019B     		ldr	r3, [sp, #4]
 843 0616 0022     		movs	r2, #0
 844 0618 83F81A2B 		strb	r2, [r3, #2842]
 214:C:/StellarStudio-7.0/SDKS/StellarESDK-1.7.0/Modules/Drivers/Timers/HRTIM/src\hrtim.c ****     hdp->is_master_sync_start = false;
 845              		.loc 1 214 31
 846 061c 019B     		ldr	r3, [sp, #4]
 847 061e 0022     		movs	r2, #0
 848 0620 83F81B2B 		strb	r2, [r3, #2843]
 215:C:/StellarStudio-7.0/SDKS/StellarESDK-1.7.0/Modules/Drivers/Timers/HRTIM/src\hrtim.c ****     hdp->is_master_sync_reset = false;
 849              		.loc 1 215 31
 850 0624 019B     		ldr	r3, [sp, #4]
 851 0626 0022     		movs	r2, #0
 852 0628 83F81C2B 		strb	r2, [r3, #2844]
 216:C:/StellarStudio-7.0/SDKS/StellarESDK-1.7.0/Modules/Drivers/Timers/HRTIM/src\hrtim.c ****     for (timer = 0U; timer < (uint8_t)HRTIM_TIMER_NUM; timer++) {
 853              		.loc 1 216 16
 854 062c 0023     		movs	r3, #0
 855 062e 8DF80F30 		strb	r3, [sp, #15]
 856              		.loc 1 216 5
 857 0632 12E0     		b	.L20
 858              	.L21:
 217:C:/StellarStudio-7.0/SDKS/StellarESDK-1.7.0/Modules/Drivers/Timers/HRTIM/src\hrtim.c ****         hdp->is_timer_sync_start[timer] = false;
 859              		.loc 1 217 33 discriminator 3
 860 0634 9DF80F30 		ldrb	r3, [sp, #15]	@ zero_extendqisi2
 861              		.loc 1 217 41 discriminator 3
 862 0638 019A     		ldr	r2, [sp, #4]
 863 063a 1344     		add	r3, r3, r2
 864 063c 0022     		movs	r2, #0
 865 063e 83F81D2B 		strb	r2, [r3, #2845]
 218:C:/StellarStudio-7.0/SDKS/StellarESDK-1.7.0/Modules/Drivers/Timers/HRTIM/src\hrtim.c ****         hdp->is_timer_sync_reset[timer] = false;
 866              		.loc 1 218 33 discriminator 3
 867 0642 9DF80F30 		ldrb	r3, [sp, #15]	@ zero_extendqisi2
 868              		.loc 1 218 41 discriminator 3
 869 0646 019A     		ldr	r2, [sp, #4]
 870 0648 1344     		add	r3, r3, r2
 871 064a 0022     		movs	r2, #0
 872 064c 83F8232B 		strb	r2, [r3, #2851]
 216:C:/StellarStudio-7.0/SDKS/StellarESDK-1.7.0/Modules/Drivers/Timers/HRTIM/src\hrtim.c ****     for (timer = 0U; timer < (uint8_t)HRTIM_TIMER_NUM; timer++) {
 873              		.loc 1 216 61 discriminator 3
 874 0650 9DF80F30 		ldrb	r3, [sp, #15]	@ zero_extendqisi2
 875 0654 0133     		adds	r3, r3, #1
 876 0656 8DF80F30 		strb	r3, [sp, #15]
 877              	.L20:
 216:C:/StellarStudio-7.0/SDKS/StellarESDK-1.7.0/Modules/Drivers/Timers/HRTIM/src\hrtim.c ****     for (timer = 0U; timer < (uint8_t)HRTIM_TIMER_NUM; timer++) {
 878              		.loc 1 216 5 discriminator 1
 879 065a 9DF80F30 		ldrb	r3, [sp, #15]	@ zero_extendqisi2
 880 065e 052B     		cmp	r3, #5
 881 0660 E8D9     		bls	.L21
 219:C:/StellarStudio-7.0/SDKS/StellarESDK-1.7.0/Modules/Drivers/Timers/HRTIM/src\hrtim.c ****     }
 220:C:/StellarStudio-7.0/SDKS/StellarESDK-1.7.0/Modules/Drivers/Timers/HRTIM/src\hrtim.c **** }
 882              		.loc 1 220 1
 883 0662 00BF     		nop
 884 0664 00BF     		nop
 885 0666 04B0     		add	sp, sp, #16
 886              		.cfi_def_cfa_offset 0
 887              		@ sp needed
 888 0668 7047     		bx	lr
 889              		.cfi_endproc
 890              	.LFE154:
 892 066a 00BF     		.section	.text.hrtim_init,"ax",%progbits
 893              		.align	1
 894              		.p2align 4,,15
 895              		.global	hrtim_init
 896              		.syntax unified
 897              		.thumb
 898              		.thumb_func
 900              	hrtim_init:
 901              	.LFB155:
 221:C:/StellarStudio-7.0/SDKS/StellarESDK-1.7.0/Modules/Drivers/Timers/HRTIM/src\hrtim.c **** 
 222:C:/StellarStudio-7.0/SDKS/StellarESDK-1.7.0/Modules/Drivers/Timers/HRTIM/src\hrtim.c **** /*===========================================================================*/
 223:C:/StellarStudio-7.0/SDKS/StellarESDK-1.7.0/Modules/Drivers/Timers/HRTIM/src\hrtim.c **** /* Module exported functions.                                                */
 224:C:/StellarStudio-7.0/SDKS/StellarESDK-1.7.0/Modules/Drivers/Timers/HRTIM/src\hrtim.c **** /*===========================================================================*/
 225:C:/StellarStudio-7.0/SDKS/StellarESDK-1.7.0/Modules/Drivers/Timers/HRTIM/src\hrtim.c **** 
 226:C:/StellarStudio-7.0/SDKS/StellarESDK-1.7.0/Modules/Drivers/Timers/HRTIM/src\hrtim.c **** void hrtim_init(hrtim_driver_t *hdp) {
 902              		.loc 1 226 38
 903              		.cfi_startproc
 904              		@ args = 0, pretend = 0, frame = 8
 905              		@ frame_needed = 0, uses_anonymous_args = 0
 906 0000 00B5     		push	{lr}
 907              		.cfi_def_cfa_offset 4
 908              		.cfi_offset 14, -4
 909 0002 83B0     		sub	sp, sp, #12
 910              		.cfi_def_cfa_offset 16
 911 0004 0190     		str	r0, [sp, #4]
 227:C:/StellarStudio-7.0/SDKS/StellarESDK-1.7.0/Modules/Drivers/Timers/HRTIM/src\hrtim.c **** 
 228:C:/StellarStudio-7.0/SDKS/StellarESDK-1.7.0/Modules/Drivers/Timers/HRTIM/src\hrtim.c ****     /* Set pointer to HRTIM register block.*/
 229:C:/StellarStudio-7.0/SDKS/StellarESDK-1.7.0/Modules/Drivers/Timers/HRTIM/src\hrtim.c ****     hdp->hrtim = hrtim_dev_get_reg_ptr(hdp);
 912              		.loc 1 229 18
 913 0006 0198     		ldr	r0, [sp, #4]
 914 0008 FFF7FEFF 		bl	hrtim_dev_get_reg_ptr
 915 000c 0246     		mov	r2, r0
 916              		.loc 1 229 16
 917 000e 019B     		ldr	r3, [sp, #4]
 918 0010 1A60     		str	r2, [r3]
 230:C:/StellarStudio-7.0/SDKS/StellarESDK-1.7.0/Modules/Drivers/Timers/HRTIM/src\hrtim.c **** 
 231:C:/StellarStudio-7.0/SDKS/StellarESDK-1.7.0/Modules/Drivers/Timers/HRTIM/src\hrtim.c ****     /* Set HRTIM clock value based on clocktree configuration.*/
 232:C:/StellarStudio-7.0/SDKS/StellarESDK-1.7.0/Modules/Drivers/Timers/HRTIM/src\hrtim.c ****     hdp->clock = hrtim_dev_get_clock(hdp);
 919              		.loc 1 232 18
 920 0012 0198     		ldr	r0, [sp, #4]
 921 0014 FFF7FEFF 		bl	hrtim_dev_get_clock
 922 0018 0246     		mov	r2, r0
 923              		.loc 1 232 16
 924 001a 019B     		ldr	r3, [sp, #4]
 925 001c 9A60     		str	r2, [r3, #8]
 233:C:/StellarStudio-7.0/SDKS/StellarESDK-1.7.0/Modules/Drivers/Timers/HRTIM/src\hrtim.c **** 
 234:C:/StellarStudio-7.0/SDKS/StellarESDK-1.7.0/Modules/Drivers/Timers/HRTIM/src\hrtim.c ****     /* Reset HRTIM parameters.*/
 235:C:/StellarStudio-7.0/SDKS/StellarESDK-1.7.0/Modules/Drivers/Timers/HRTIM/src\hrtim.c ****     hrtim_reset_paramters(hdp);
 926              		.loc 1 235 5
 927 001e 0198     		ldr	r0, [sp, #4]
 928 0020 FFF7FEFF 		bl	hrtim_reset_paramters
 236:C:/StellarStudio-7.0/SDKS/StellarESDK-1.7.0/Modules/Drivers/Timers/HRTIM/src\hrtim.c **** }
 929              		.loc 1 236 1
 930 0024 00BF     		nop
 931 0026 03B0     		add	sp, sp, #12
 932              		.cfi_def_cfa_offset 4
 933              		@ sp needed
 934 0028 5DF804FB 		ldr	pc, [sp], #4
 935              		.cfi_endproc
 936              	.LFE155:
 938              		.section	.text.hrtim_set_prio,"ax",%progbits
 939              		.align	1
 940              		.p2align 4,,15
 941              		.global	hrtim_set_prio
 942              		.syntax unified
 943              		.thumb
 944              		.thumb_func
 946              	hrtim_set_prio:
 947              	.LFB156:
 237:C:/StellarStudio-7.0/SDKS/StellarESDK-1.7.0/Modules/Drivers/Timers/HRTIM/src\hrtim.c **** 
 238:C:/StellarStudio-7.0/SDKS/StellarESDK-1.7.0/Modules/Drivers/Timers/HRTIM/src\hrtim.c **** uint32_t hrtim_set_prio(hrtim_driver_t *hdp, uint32_t prio) {
 948              		.loc 1 238 61
 949              		.cfi_startproc
 950              		@ args = 0, pretend = 0, frame = 16
 951              		@ frame_needed = 0, uses_anonymous_args = 0
 952              		@ link register save eliminated.
 953 0000 84B0     		sub	sp, sp, #16
 954              		.cfi_def_cfa_offset 16
 955 0002 0190     		str	r0, [sp, #4]
 956 0004 0091     		str	r1, [sp]
 239:C:/StellarStudio-7.0/SDKS/StellarESDK-1.7.0/Modules/Drivers/Timers/HRTIM/src\hrtim.c **** 
 240:C:/StellarStudio-7.0/SDKS/StellarESDK-1.7.0/Modules/Drivers/Timers/HRTIM/src\hrtim.c ****     uint32_t prev_prio;
 241:C:/StellarStudio-7.0/SDKS/StellarESDK-1.7.0/Modules/Drivers/Timers/HRTIM/src\hrtim.c **** 
 242:C:/StellarStudio-7.0/SDKS/StellarESDK-1.7.0/Modules/Drivers/Timers/HRTIM/src\hrtim.c ****     prev_prio = hdp->prio;
 957              		.loc 1 242 15
 958 0006 019B     		ldr	r3, [sp, #4]
 959 0008 1B69     		ldr	r3, [r3, #16]
 960 000a 0393     		str	r3, [sp, #12]
 243:C:/StellarStudio-7.0/SDKS/StellarESDK-1.7.0/Modules/Drivers/Timers/HRTIM/src\hrtim.c ****     hdp->prio = prio;
 961              		.loc 1 243 15
 962 000c 019B     		ldr	r3, [sp, #4]
 963 000e 009A     		ldr	r2, [sp]
 964 0010 1A61     		str	r2, [r3, #16]
 244:C:/StellarStudio-7.0/SDKS/StellarESDK-1.7.0/Modules/Drivers/Timers/HRTIM/src\hrtim.c **** 
 245:C:/StellarStudio-7.0/SDKS/StellarESDK-1.7.0/Modules/Drivers/Timers/HRTIM/src\hrtim.c ****     return prev_prio;
 965              		.loc 1 245 12
 966 0012 039B     		ldr	r3, [sp, #12]
 246:C:/StellarStudio-7.0/SDKS/StellarESDK-1.7.0/Modules/Drivers/Timers/HRTIM/src\hrtim.c **** }
 967              		.loc 1 246 1
 968 0014 1846     		mov	r0, r3
 969 0016 04B0     		add	sp, sp, #16
 970              		.cfi_def_cfa_offset 0
 971              		@ sp needed
 972 0018 7047     		bx	lr
 973              		.cfi_endproc
 974              	.LFE156:
 976 001a 00BF     		.section	.text.hrtim_set_timer_mode,"ax",%progbits
 977              		.align	1
 978              		.p2align 4,,15
 979              		.global	hrtim_set_timer_mode
 980              		.syntax unified
 981              		.thumb
 982              		.thumb_func
 984              	hrtim_set_timer_mode:
 985              	.LFB157:
 247:C:/StellarStudio-7.0/SDKS/StellarESDK-1.7.0/Modules/Drivers/Timers/HRTIM/src\hrtim.c **** 
 248:C:/StellarStudio-7.0/SDKS/StellarESDK-1.7.0/Modules/Drivers/Timers/HRTIM/src\hrtim.c **** hrtim_cntr_mode_t hrtim_set_timer_mode(hrtim_driver_t *hdp, hrtim_timer_t timer,
 249:C:/StellarStudio-7.0/SDKS/StellarESDK-1.7.0/Modules/Drivers/Timers/HRTIM/src\hrtim.c ****                                        hrtim_cntr_mode_t mode) {
 986              		.loc 1 249 64
 987              		.cfi_startproc
 988              		@ args = 0, pretend = 0, frame = 16
 989              		@ frame_needed = 0, uses_anonymous_args = 0
 990              		@ link register save eliminated.
 991 0000 84B0     		sub	sp, sp, #16
 992              		.cfi_def_cfa_offset 16
 993 0002 0190     		str	r0, [sp, #4]
 994 0004 0B46     		mov	r3, r1
 995 0006 8DF80330 		strb	r3, [sp, #3]
 996 000a 1346     		mov	r3, r2
 997 000c 8DF80230 		strb	r3, [sp, #2]
 250:C:/StellarStudio-7.0/SDKS/StellarESDK-1.7.0/Modules/Drivers/Timers/HRTIM/src\hrtim.c ****     hrtim_cntr_mode_t prev_mode;
 251:C:/StellarStudio-7.0/SDKS/StellarESDK-1.7.0/Modules/Drivers/Timers/HRTIM/src\hrtim.c **** 
 252:C:/StellarStudio-7.0/SDKS/StellarESDK-1.7.0/Modules/Drivers/Timers/HRTIM/src\hrtim.c ****     if (timer == HRTIM_TIMER_MASTER) {
 998              		.loc 1 252 8
 999 0010 9DF80330 		ldrb	r3, [sp, #3]	@ zero_extendqisi2
 1000 0014 062B     		cmp	r3, #6
 1001 0016 08D1     		bne	.L26
 253:C:/StellarStudio-7.0/SDKS/StellarESDK-1.7.0/Modules/Drivers/Timers/HRTIM/src\hrtim.c ****         prev_mode = hdp->master_mode;
 1002              		.loc 1 253 19
 1003 0018 019B     		ldr	r3, [sp, #4]
 1004 001a 1B7D     		ldrb	r3, [r3, #20]
 1005 001c 8DF80F30 		strb	r3, [sp, #15]
 254:C:/StellarStudio-7.0/SDKS/StellarESDK-1.7.0/Modules/Drivers/Timers/HRTIM/src\hrtim.c ****         hdp->master_mode = mode;
 1006              		.loc 1 254 26
 1007 0020 019B     		ldr	r3, [sp, #4]
 1008 0022 9DF80220 		ldrb	r2, [sp, #2]
 1009 0026 1A75     		strb	r2, [r3, #20]
 1010 0028 0FE0     		b	.L27
 1011              	.L26:
 255:C:/StellarStudio-7.0/SDKS/StellarESDK-1.7.0/Modules/Drivers/Timers/HRTIM/src\hrtim.c ****     } else {
 256:C:/StellarStudio-7.0/SDKS/StellarESDK-1.7.0/Modules/Drivers/Timers/HRTIM/src\hrtim.c ****         prev_mode = hdp->timer_cntr_mode[timer];
 1012              		.loc 1 256 41
 1013 002a 9DF80330 		ldrb	r3, [sp, #3]	@ zero_extendqisi2
 1014              		.loc 1 256 19
 1015 002e 019A     		ldr	r2, [sp, #4]
 1016 0030 1344     		add	r3, r3, r2
 1017 0032 93F82030 		ldrb	r3, [r3, #32]
 1018 0036 8DF80F30 		strb	r3, [sp, #15]
 257:C:/StellarStudio-7.0/SDKS/StellarESDK-1.7.0/Modules/Drivers/Timers/HRTIM/src\hrtim.c ****         hdp->timer_cntr_mode[timer] = mode;
 1019              		.loc 1 257 29
 1020 003a 9DF80330 		ldrb	r3, [sp, #3]	@ zero_extendqisi2
 1021              		.loc 1 257 37
 1022 003e 019A     		ldr	r2, [sp, #4]
 1023 0040 1344     		add	r3, r3, r2
 1024 0042 9DF80220 		ldrb	r2, [sp, #2]
 1025 0046 83F82020 		strb	r2, [r3, #32]
 1026              	.L27:
 258:C:/StellarStudio-7.0/SDKS/StellarESDK-1.7.0/Modules/Drivers/Timers/HRTIM/src\hrtim.c ****     }
 259:C:/StellarStudio-7.0/SDKS/StellarESDK-1.7.0/Modules/Drivers/Timers/HRTIM/src\hrtim.c **** 
 260:C:/StellarStudio-7.0/SDKS/StellarESDK-1.7.0/Modules/Drivers/Timers/HRTIM/src\hrtim.c ****     return prev_mode;
 1027              		.loc 1 260 12
 1028 004a 9DF80F30 		ldrb	r3, [sp, #15]	@ zero_extendqisi2
 261:C:/StellarStudio-7.0/SDKS/StellarESDK-1.7.0/Modules/Drivers/Timers/HRTIM/src\hrtim.c **** }
 1029              		.loc 1 261 1
 1030 004e 1846     		mov	r0, r3
 1031 0050 04B0     		add	sp, sp, #16
 1032              		.cfi_def_cfa_offset 0
 1033              		@ sp needed
 1034 0052 7047     		bx	lr
 1035              		.cfi_endproc
 1036              	.LFE157:
 1038              		.section	.text.hrtim_timer_set_prescaler,"ax",%progbits
 1039              		.align	1
 1040              		.p2align 4,,15
 1041              		.global	hrtim_timer_set_prescaler
 1042              		.syntax unified
 1043              		.thumb
 1044              		.thumb_func
 1046              	hrtim_timer_set_prescaler:
 1047              	.LFB158:
 262:C:/StellarStudio-7.0/SDKS/StellarESDK-1.7.0/Modules/Drivers/Timers/HRTIM/src\hrtim.c **** 
 263:C:/StellarStudio-7.0/SDKS/StellarESDK-1.7.0/Modules/Drivers/Timers/HRTIM/src\hrtim.c **** hrtim_prsc_t hrtim_timer_set_prescaler(hrtim_driver_t *hdp, hrtim_timer_t timer,
 264:C:/StellarStudio-7.0/SDKS/StellarESDK-1.7.0/Modules/Drivers/Timers/HRTIM/src\hrtim.c ****                                        hrtim_prsc_t prescaler) {
 1048              		.loc 1 264 64
 1049              		.cfi_startproc
 1050              		@ args = 0, pretend = 0, frame = 16
 1051              		@ frame_needed = 0, uses_anonymous_args = 0
 1052              		@ link register save eliminated.
 1053 0000 84B0     		sub	sp, sp, #16
 1054              		.cfi_def_cfa_offset 16
 1055 0002 0190     		str	r0, [sp, #4]
 1056 0004 0B46     		mov	r3, r1
 1057 0006 8DF80330 		strb	r3, [sp, #3]
 1058 000a 1346     		mov	r3, r2
 1059 000c 8DF80230 		strb	r3, [sp, #2]
 265:C:/StellarStudio-7.0/SDKS/StellarESDK-1.7.0/Modules/Drivers/Timers/HRTIM/src\hrtim.c **** 
 266:C:/StellarStudio-7.0/SDKS/StellarESDK-1.7.0/Modules/Drivers/Timers/HRTIM/src\hrtim.c ****     hrtim_prsc_t prev_prescaler;
 267:C:/StellarStudio-7.0/SDKS/StellarESDK-1.7.0/Modules/Drivers/Timers/HRTIM/src\hrtim.c **** 
 268:C:/StellarStudio-7.0/SDKS/StellarESDK-1.7.0/Modules/Drivers/Timers/HRTIM/src\hrtim.c ****     if (timer == HRTIM_TIMER_MASTER) {
 1060              		.loc 1 268 8
 1061 0010 9DF80330 		ldrb	r3, [sp, #3]	@ zero_extendqisi2
 1062 0014 062B     		cmp	r3, #6
 1063 0016 08D1     		bne	.L30
 269:C:/StellarStudio-7.0/SDKS/StellarESDK-1.7.0/Modules/Drivers/Timers/HRTIM/src\hrtim.c ****         prev_prescaler = hdp->master_prescaler;
 1064              		.loc 1 269 24
 1065 0018 019B     		ldr	r3, [sp, #4]
 1066 001a 5B7D     		ldrb	r3, [r3, #21]
 1067 001c 8DF80F30 		strb	r3, [sp, #15]
 270:C:/StellarStudio-7.0/SDKS/StellarESDK-1.7.0/Modules/Drivers/Timers/HRTIM/src\hrtim.c ****         hdp->master_prescaler = prescaler;
 1068              		.loc 1 270 31
 1069 0020 019B     		ldr	r3, [sp, #4]
 1070 0022 9DF80220 		ldrb	r2, [sp, #2]
 1071 0026 5A75     		strb	r2, [r3, #21]
 1072 0028 0FE0     		b	.L31
 1073              	.L30:
 271:C:/StellarStudio-7.0/SDKS/StellarESDK-1.7.0/Modules/Drivers/Timers/HRTIM/src\hrtim.c ****     } else {
 272:C:/StellarStudio-7.0/SDKS/StellarESDK-1.7.0/Modules/Drivers/Timers/HRTIM/src\hrtim.c ****         prev_prescaler = hdp->timer_prescaler[timer];
 1074              		.loc 1 272 46
 1075 002a 9DF80330 		ldrb	r3, [sp, #3]	@ zero_extendqisi2
 1076              		.loc 1 272 24
 1077 002e 019A     		ldr	r2, [sp, #4]
 1078 0030 1344     		add	r3, r3, r2
 1079 0032 93F82630 		ldrb	r3, [r3, #38]
 1080 0036 8DF80F30 		strb	r3, [sp, #15]
 273:C:/StellarStudio-7.0/SDKS/StellarESDK-1.7.0/Modules/Drivers/Timers/HRTIM/src\hrtim.c ****         hdp->timer_prescaler[timer] = prescaler;
 1081              		.loc 1 273 29
 1082 003a 9DF80330 		ldrb	r3, [sp, #3]	@ zero_extendqisi2
 1083              		.loc 1 273 37
 1084 003e 019A     		ldr	r2, [sp, #4]
 1085 0040 1344     		add	r3, r3, r2
 1086 0042 9DF80220 		ldrb	r2, [sp, #2]
 1087 0046 83F82620 		strb	r2, [r3, #38]
 1088              	.L31:
 274:C:/StellarStudio-7.0/SDKS/StellarESDK-1.7.0/Modules/Drivers/Timers/HRTIM/src\hrtim.c ****     }
 275:C:/StellarStudio-7.0/SDKS/StellarESDK-1.7.0/Modules/Drivers/Timers/HRTIM/src\hrtim.c **** 
 276:C:/StellarStudio-7.0/SDKS/StellarESDK-1.7.0/Modules/Drivers/Timers/HRTIM/src\hrtim.c ****     /* Update on-fly.*/
 277:C:/StellarStudio-7.0/SDKS/StellarESDK-1.7.0/Modules/Drivers/Timers/HRTIM/src\hrtim.c ****     if (hdp->is_enable == true) {
 1089              		.loc 1 277 12
 1090 004a 019B     		ldr	r3, [sp, #4]
 1091 004c 1B79     		ldrb	r3, [r3, #4]	@ zero_extendqisi2
 1092              		.loc 1 277 8
 1093 004e 002B     		cmp	r3, #0
 1094 0050 24D0     		beq	.L32
 278:C:/StellarStudio-7.0/SDKS/StellarESDK-1.7.0/Modules/Drivers/Timers/HRTIM/src\hrtim.c ****         if (timer == HRTIM_TIMER_MASTER) {
 1095              		.loc 1 278 12
 1096 0052 9DF80330 		ldrb	r3, [sp, #3]	@ zero_extendqisi2
 1097 0056 062B     		cmp	r3, #6
 1098 0058 0BD1     		bne	.L33
 279:C:/StellarStudio-7.0/SDKS/StellarESDK-1.7.0/Modules/Drivers/Timers/HRTIM/src\hrtim.c ****             hdp->hrtim->sMasterRegs.MCR |= (((uint32_t)prescaler) & HRTIM_MCR_CK_PSC_Msk);
 1099              		.loc 1 279 16
 1100 005a 019B     		ldr	r3, [sp, #4]
 1101 005c 1B68     		ldr	r3, [r3]
 1102              		.loc 1 279 41
 1103 005e 1968     		ldr	r1, [r3]
 1104              		.loc 1 279 67
 1105 0060 9DF80230 		ldrb	r3, [sp, #2]	@ zero_extendqisi2
 1106 0064 03F00702 		and	r2, r3, #7
 1107              		.loc 1 279 16
 1108 0068 019B     		ldr	r3, [sp, #4]
 1109 006a 1B68     		ldr	r3, [r3]
 1110              		.loc 1 279 41
 1111 006c 0A43     		orrs	r2, r2, r1
 1112 006e 1A60     		str	r2, [r3]
 1113 0070 14E0     		b	.L32
 1114              	.L33:
 280:C:/StellarStudio-7.0/SDKS/StellarESDK-1.7.0/Modules/Drivers/Timers/HRTIM/src\hrtim.c ****         } else {
 281:C:/StellarStudio-7.0/SDKS/StellarESDK-1.7.0/Modules/Drivers/Timers/HRTIM/src\hrtim.c ****             hdp->hrtim->sTimerxRegs[timer].TIMxCR |= (((uint32_t)prescaler) & HRTIM_MCR_CK_PSC_Msk)
 1115              		.loc 1 281 16
 1116 0072 019B     		ldr	r3, [sp, #4]
 1117 0074 1A68     		ldr	r2, [r3]
 1118              		.loc 1 281 51
 1119 0076 9DF80330 		ldrb	r3, [sp, #3]	@ zero_extendqisi2
 1120 007a 0133     		adds	r3, r3, #1
 1121 007c DB01     		lsls	r3, r3, #7
 1122 007e 1344     		add	r3, r3, r2
 1123 0080 1868     		ldr	r0, [r3]
 1124              		.loc 1 281 77
 1125 0082 9DF80230 		ldrb	r3, [sp, #2]	@ zero_extendqisi2
 1126 0086 03F00702 		and	r2, r3, #7
 1127              		.loc 1 281 16
 1128 008a 019B     		ldr	r3, [sp, #4]
 1129 008c 1968     		ldr	r1, [r3]
 1130              		.loc 1 281 51
 1131 008e 9DF80330 		ldrb	r3, [sp, #3]	@ zero_extendqisi2
 1132 0092 0243     		orrs	r2, r2, r0
 1133 0094 0133     		adds	r3, r3, #1
 1134 0096 DB01     		lsls	r3, r3, #7
 1135 0098 0B44     		add	r3, r3, r1
 1136 009a 1A60     		str	r2, [r3]
 1137              	.L32:
 282:C:/StellarStudio-7.0/SDKS/StellarESDK-1.7.0/Modules/Drivers/Timers/HRTIM/src\hrtim.c ****         }
 283:C:/StellarStudio-7.0/SDKS/StellarESDK-1.7.0/Modules/Drivers/Timers/HRTIM/src\hrtim.c ****     }
 284:C:/StellarStudio-7.0/SDKS/StellarESDK-1.7.0/Modules/Drivers/Timers/HRTIM/src\hrtim.c **** 
 285:C:/StellarStudio-7.0/SDKS/StellarESDK-1.7.0/Modules/Drivers/Timers/HRTIM/src\hrtim.c ****     return prev_prescaler;
 1138              		.loc 1 285 12
 1139 009c 9DF80F30 		ldrb	r3, [sp, #15]	@ zero_extendqisi2
 286:C:/StellarStudio-7.0/SDKS/StellarESDK-1.7.0/Modules/Drivers/Timers/HRTIM/src\hrtim.c **** }
 1140              		.loc 1 286 1
 1141 00a0 1846     		mov	r0, r3
 1142 00a2 04B0     		add	sp, sp, #16
 1143              		.cfi_def_cfa_offset 0
 1144              		@ sp needed
 1145 00a4 7047     		bx	lr
 1146              		.cfi_endproc
 1147              	.LFE158:
 1149 00a6 00BF     		.section	.text.hrtim_timer_get_prescaler,"ax",%progbits
 1150              		.align	1
 1151              		.p2align 4,,15
 1152              		.global	hrtim_timer_get_prescaler
 1153              		.syntax unified
 1154              		.thumb
 1155              		.thumb_func
 1157              	hrtim_timer_get_prescaler:
 1158              	.LFB159:
 287:C:/StellarStudio-7.0/SDKS/StellarESDK-1.7.0/Modules/Drivers/Timers/HRTIM/src\hrtim.c **** 
 288:C:/StellarStudio-7.0/SDKS/StellarESDK-1.7.0/Modules/Drivers/Timers/HRTIM/src\hrtim.c **** hrtim_prsc_t hrtim_timer_get_prescaler(hrtim_driver_t *hdp, hrtim_timer_t timer) {
 1159              		.loc 1 288 82
 1160              		.cfi_startproc
 1161              		@ args = 0, pretend = 0, frame = 8
 1162              		@ frame_needed = 0, uses_anonymous_args = 0
 1163              		@ link register save eliminated.
 1164 0000 82B0     		sub	sp, sp, #8
 1165              		.cfi_def_cfa_offset 8
 1166 0002 0190     		str	r0, [sp, #4]
 1167 0004 0B46     		mov	r3, r1
 1168 0006 8DF80330 		strb	r3, [sp, #3]
 289:C:/StellarStudio-7.0/SDKS/StellarESDK-1.7.0/Modules/Drivers/Timers/HRTIM/src\hrtim.c **** 
 290:C:/StellarStudio-7.0/SDKS/StellarESDK-1.7.0/Modules/Drivers/Timers/HRTIM/src\hrtim.c ****     if (timer == HRTIM_TIMER_MASTER) {
 1169              		.loc 1 290 8
 1170 000a 9DF80330 		ldrb	r3, [sp, #3]	@ zero_extendqisi2
 1171 000e 062B     		cmp	r3, #6
 1172 0010 02D1     		bne	.L36
 291:C:/StellarStudio-7.0/SDKS/StellarESDK-1.7.0/Modules/Drivers/Timers/HRTIM/src\hrtim.c ****         return hdp->master_prescaler;
 1173              		.loc 1 291 19
 1174 0012 019B     		ldr	r3, [sp, #4]
 1175 0014 5B7D     		ldrb	r3, [r3, #21]	@ zero_extendqisi2
 1176 0016 05E0     		b	.L37
 1177              	.L36:
 292:C:/StellarStudio-7.0/SDKS/StellarESDK-1.7.0/Modules/Drivers/Timers/HRTIM/src\hrtim.c ****     } else {
 293:C:/StellarStudio-7.0/SDKS/StellarESDK-1.7.0/Modules/Drivers/Timers/HRTIM/src\hrtim.c ****         return hdp->timer_prescaler[timer];
 1178              		.loc 1 293 36
 1179 0018 9DF80330 		ldrb	r3, [sp, #3]	@ zero_extendqisi2
 1180 001c 019A     		ldr	r2, [sp, #4]
 1181 001e 1344     		add	r3, r3, r2
 1182 0020 93F82630 		ldrb	r3, [r3, #38]	@ zero_extendqisi2
 1183              	.L37:
 294:C:/StellarStudio-7.0/SDKS/StellarESDK-1.7.0/Modules/Drivers/Timers/HRTIM/src\hrtim.c ****     }
 295:C:/StellarStudio-7.0/SDKS/StellarESDK-1.7.0/Modules/Drivers/Timers/HRTIM/src\hrtim.c **** }
 1184              		.loc 1 295 1
 1185 0024 1846     		mov	r0, r3
 1186 0026 02B0     		add	sp, sp, #8
 1187              		.cfi_def_cfa_offset 0
 1188              		@ sp needed
 1189 0028 7047     		bx	lr
 1190              		.cfi_endproc
 1191              	.LFE159:
 1193 002a 00BF     		.section	.text.hrtim_timer_set_period,"ax",%progbits
 1194              		.align	1
 1195              		.p2align 4,,15
 1196              		.global	hrtim_timer_set_period
 1197              		.syntax unified
 1198              		.thumb
 1199              		.thumb_func
 1201              	hrtim_timer_set_period:
 1202              	.LFB160:
 296:C:/StellarStudio-7.0/SDKS/StellarESDK-1.7.0/Modules/Drivers/Timers/HRTIM/src\hrtim.c **** 
 297:C:/StellarStudio-7.0/SDKS/StellarESDK-1.7.0/Modules/Drivers/Timers/HRTIM/src\hrtim.c **** uint16_t hrtim_timer_set_period(hrtim_driver_t *hdp, hrtim_timer_t timer,
 298:C:/StellarStudio-7.0/SDKS/StellarESDK-1.7.0/Modules/Drivers/Timers/HRTIM/src\hrtim.c ****                                 uint16_t period) {
 1203              		.loc 1 298 50
 1204              		.cfi_startproc
 1205              		@ args = 0, pretend = 0, frame = 16
 1206              		@ frame_needed = 0, uses_anonymous_args = 0
 1207              		@ link register save eliminated.
 1208 0000 84B0     		sub	sp, sp, #16
 1209              		.cfi_def_cfa_offset 16
 1210 0002 0190     		str	r0, [sp, #4]
 1211 0004 0B46     		mov	r3, r1
 1212 0006 8DF80330 		strb	r3, [sp, #3]
 1213 000a 1346     		mov	r3, r2	@ movhi
 1214 000c ADF80030 		strh	r3, [sp]	@ movhi
 299:C:/StellarStudio-7.0/SDKS/StellarESDK-1.7.0/Modules/Drivers/Timers/HRTIM/src\hrtim.c ****     uint16_t prev_period;
 300:C:/StellarStudio-7.0/SDKS/StellarESDK-1.7.0/Modules/Drivers/Timers/HRTIM/src\hrtim.c **** 
 301:C:/StellarStudio-7.0/SDKS/StellarESDK-1.7.0/Modules/Drivers/Timers/HRTIM/src\hrtim.c ****     if (timer == HRTIM_TIMER_MASTER) {
 1215              		.loc 1 301 8
 1216 0010 9DF80330 		ldrb	r3, [sp, #3]	@ zero_extendqisi2
 1217 0014 062B     		cmp	r3, #6
 1218 0016 08D1     		bne	.L39
 302:C:/StellarStudio-7.0/SDKS/StellarESDK-1.7.0/Modules/Drivers/Timers/HRTIM/src\hrtim.c ****         prev_period = hdp->master_period;
 1219              		.loc 1 302 21
 1220 0018 019B     		ldr	r3, [sp, #4]
 1221 001a DB8A     		ldrh	r3, [r3, #22]	@ movhi
 1222 001c ADF80E30 		strh	r3, [sp, #14]	@ movhi
 303:C:/StellarStudio-7.0/SDKS/StellarESDK-1.7.0/Modules/Drivers/Timers/HRTIM/src\hrtim.c ****         hdp->master_period = period;
 1223              		.loc 1 303 28
 1224 0020 019B     		ldr	r3, [sp, #4]
 1225 0022 BDF80020 		ldrh	r2, [sp]	@ movhi
 1226 0026 DA82     		strh	r2, [r3, #22]	@ movhi
 1227 0028 11E0     		b	.L40
 1228              	.L39:
 304:C:/StellarStudio-7.0/SDKS/StellarESDK-1.7.0/Modules/Drivers/Timers/HRTIM/src\hrtim.c ****     } else {
 305:C:/StellarStudio-7.0/SDKS/StellarESDK-1.7.0/Modules/Drivers/Timers/HRTIM/src\hrtim.c ****         prev_period = hdp->timer_period[timer];
 1229              		.loc 1 305 40
 1230 002a 9DF80330 		ldrb	r3, [sp, #3]	@ zero_extendqisi2
 1231              		.loc 1 305 21
 1232 002e 019A     		ldr	r2, [sp, #4]
 1233 0030 1433     		adds	r3, r3, #20
 1234 0032 5B00     		lsls	r3, r3, #1
 1235 0034 1344     		add	r3, r3, r2
 1236 0036 9B88     		ldrh	r3, [r3, #4]	@ movhi
 1237 0038 ADF80E30 		strh	r3, [sp, #14]	@ movhi
 306:C:/StellarStudio-7.0/SDKS/StellarESDK-1.7.0/Modules/Drivers/Timers/HRTIM/src\hrtim.c ****         hdp->timer_period[timer] = period;
 1238              		.loc 1 306 26
 1239 003c 9DF80330 		ldrb	r3, [sp, #3]	@ zero_extendqisi2
 1240              		.loc 1 306 34
 1241 0040 019A     		ldr	r2, [sp, #4]
 1242 0042 1433     		adds	r3, r3, #20
 1243 0044 5B00     		lsls	r3, r3, #1
 1244 0046 1344     		add	r3, r3, r2
 1245 0048 BDF80020 		ldrh	r2, [sp]	@ movhi
 1246 004c 9A80     		strh	r2, [r3, #4]	@ movhi
 1247              	.L40:
 307:C:/StellarStudio-7.0/SDKS/StellarESDK-1.7.0/Modules/Drivers/Timers/HRTIM/src\hrtim.c ****     }
 308:C:/StellarStudio-7.0/SDKS/StellarESDK-1.7.0/Modules/Drivers/Timers/HRTIM/src\hrtim.c **** 
 309:C:/StellarStudio-7.0/SDKS/StellarESDK-1.7.0/Modules/Drivers/Timers/HRTIM/src\hrtim.c ****     /* Update on-fly.*/
 310:C:/StellarStudio-7.0/SDKS/StellarESDK-1.7.0/Modules/Drivers/Timers/HRTIM/src\hrtim.c ****     if (hdp->is_enable == true) {
 1248              		.loc 1 310 12
 1249 004e 019B     		ldr	r3, [sp, #4]
 1250 0050 1B79     		ldrb	r3, [r3, #4]	@ zero_extendqisi2
 1251              		.loc 1 310 8
 1252 0052 002B     		cmp	r3, #0
 1253 0054 13D0     		beq	.L41
 311:C:/StellarStudio-7.0/SDKS/StellarESDK-1.7.0/Modules/Drivers/Timers/HRTIM/src\hrtim.c ****         if (timer == HRTIM_TIMER_MASTER) {
 1254              		.loc 1 311 12
 1255 0056 9DF80330 		ldrb	r3, [sp, #3]	@ zero_extendqisi2
 1256 005a 062B     		cmp	r3, #6
 1257 005c 05D1     		bne	.L42
 312:C:/StellarStudio-7.0/SDKS/StellarESDK-1.7.0/Modules/Drivers/Timers/HRTIM/src\hrtim.c ****             hdp->hrtim->sMasterRegs.MPER = (uint32_t)period;
 1258              		.loc 1 312 16
 1259 005e 019B     		ldr	r3, [sp, #4]
 1260 0060 1B68     		ldr	r3, [r3]
 1261              		.loc 1 312 44
 1262 0062 BDF80020 		ldrh	r2, [sp]
 1263              		.loc 1 312 42
 1264 0066 5A61     		str	r2, [r3, #20]
 1265 0068 09E0     		b	.L41
 1266              	.L42:
 313:C:/StellarStudio-7.0/SDKS/StellarESDK-1.7.0/Modules/Drivers/Timers/HRTIM/src\hrtim.c ****         } else {
 314:C:/StellarStudio-7.0/SDKS/StellarESDK-1.7.0/Modules/Drivers/Timers/HRTIM/src\hrtim.c ****             hdp->hrtim->sTimerxRegs[timer].PERxR = (uint32_t)period;
 1267              		.loc 1 314 16
 1268 006a 019B     		ldr	r3, [sp, #4]
 1269 006c 1968     		ldr	r1, [r3]
 1270              		.loc 1 314 43
 1271 006e 9DF80330 		ldrb	r3, [sp, #3]	@ zero_extendqisi2
 1272              		.loc 1 314 52
 1273 0072 BDF80020 		ldrh	r2, [sp]
 1274              		.loc 1 314 50
 1275 0076 DB01     		lsls	r3, r3, #7
 1276 0078 0B44     		add	r3, r3, r1
 1277 007a 9433     		adds	r3, r3, #148
 1278 007c 1A60     		str	r2, [r3]
 1279              	.L41:
 315:C:/StellarStudio-7.0/SDKS/StellarESDK-1.7.0/Modules/Drivers/Timers/HRTIM/src\hrtim.c ****         }
 316:C:/StellarStudio-7.0/SDKS/StellarESDK-1.7.0/Modules/Drivers/Timers/HRTIM/src\hrtim.c ****     }
 317:C:/StellarStudio-7.0/SDKS/StellarESDK-1.7.0/Modules/Drivers/Timers/HRTIM/src\hrtim.c **** 
 318:C:/StellarStudio-7.0/SDKS/StellarESDK-1.7.0/Modules/Drivers/Timers/HRTIM/src\hrtim.c ****     return prev_period;
 1280              		.loc 1 318 12
 1281 007e BDF80E30 		ldrh	r3, [sp, #14]
 319:C:/StellarStudio-7.0/SDKS/StellarESDK-1.7.0/Modules/Drivers/Timers/HRTIM/src\hrtim.c **** }
 1282              		.loc 1 319 1
 1283 0082 1846     		mov	r0, r3
 1284 0084 04B0     		add	sp, sp, #16
 1285              		.cfi_def_cfa_offset 0
 1286              		@ sp needed
 1287 0086 7047     		bx	lr
 1288              		.cfi_endproc
 1289              	.LFE160:
 1291              		.section	.text.hrtim_timer_get_period,"ax",%progbits
 1292              		.align	1
 1293              		.p2align 4,,15
 1294              		.global	hrtim_timer_get_period
 1295              		.syntax unified
 1296              		.thumb
 1297              		.thumb_func
 1299              	hrtim_timer_get_period:
 1300              	.LFB161:
 320:C:/StellarStudio-7.0/SDKS/StellarESDK-1.7.0/Modules/Drivers/Timers/HRTIM/src\hrtim.c **** 
 321:C:/StellarStudio-7.0/SDKS/StellarESDK-1.7.0/Modules/Drivers/Timers/HRTIM/src\hrtim.c **** uint16_t hrtim_timer_get_period(hrtim_driver_t *hdp, hrtim_timer_t timer) {
 1301              		.loc 1 321 75
 1302              		.cfi_startproc
 1303              		@ args = 0, pretend = 0, frame = 8
 1304              		@ frame_needed = 0, uses_anonymous_args = 0
 1305              		@ link register save eliminated.
 1306 0000 82B0     		sub	sp, sp, #8
 1307              		.cfi_def_cfa_offset 8
 1308 0002 0190     		str	r0, [sp, #4]
 1309 0004 0B46     		mov	r3, r1
 1310 0006 8DF80330 		strb	r3, [sp, #3]
 322:C:/StellarStudio-7.0/SDKS/StellarESDK-1.7.0/Modules/Drivers/Timers/HRTIM/src\hrtim.c **** 
 323:C:/StellarStudio-7.0/SDKS/StellarESDK-1.7.0/Modules/Drivers/Timers/HRTIM/src\hrtim.c ****     if (timer == HRTIM_TIMER_MASTER) {
 1311              		.loc 1 323 8
 1312 000a 9DF80330 		ldrb	r3, [sp, #3]	@ zero_extendqisi2
 1313 000e 062B     		cmp	r3, #6
 1314 0010 02D1     		bne	.L45
 324:C:/StellarStudio-7.0/SDKS/StellarESDK-1.7.0/Modules/Drivers/Timers/HRTIM/src\hrtim.c ****         return hdp->master_period;
 1315              		.loc 1 324 19
 1316 0012 019B     		ldr	r3, [sp, #4]
 1317 0014 DB8A     		ldrh	r3, [r3, #22]
 1318 0016 06E0     		b	.L46
 1319              	.L45:
 325:C:/StellarStudio-7.0/SDKS/StellarESDK-1.7.0/Modules/Drivers/Timers/HRTIM/src\hrtim.c ****     } else {
 326:C:/StellarStudio-7.0/SDKS/StellarESDK-1.7.0/Modules/Drivers/Timers/HRTIM/src\hrtim.c ****         return hdp->timer_period[timer];
 1320              		.loc 1 326 33
 1321 0018 9DF80330 		ldrb	r3, [sp, #3]	@ zero_extendqisi2
 1322 001c 019A     		ldr	r2, [sp, #4]
 1323 001e 1433     		adds	r3, r3, #20
 1324 0020 5B00     		lsls	r3, r3, #1
 1325 0022 1344     		add	r3, r3, r2
 1326 0024 9B88     		ldrh	r3, [r3, #4]
 1327              	.L46:
 327:C:/StellarStudio-7.0/SDKS/StellarESDK-1.7.0/Modules/Drivers/Timers/HRTIM/src\hrtim.c ****     }
 328:C:/StellarStudio-7.0/SDKS/StellarESDK-1.7.0/Modules/Drivers/Timers/HRTIM/src\hrtim.c **** }
 1328              		.loc 1 328 1
 1329 0026 1846     		mov	r0, r3
 1330 0028 02B0     		add	sp, sp, #8
 1331              		.cfi_def_cfa_offset 0
 1332              		@ sp needed
 1333 002a 7047     		bx	lr
 1334              		.cfi_endproc
 1335              	.LFE161:
 1337              		.section	.text.hrtim_timer_set_cmp,"ax",%progbits
 1338              		.align	1
 1339              		.p2align 4,,15
 1340              		.global	hrtim_timer_set_cmp
 1341              		.syntax unified
 1342              		.thumb
 1343              		.thumb_func
 1345              	hrtim_timer_set_cmp:
 1346              	.LFB162:
 329:C:/StellarStudio-7.0/SDKS/StellarESDK-1.7.0/Modules/Drivers/Timers/HRTIM/src\hrtim.c **** 
 330:C:/StellarStudio-7.0/SDKS/StellarESDK-1.7.0/Modules/Drivers/Timers/HRTIM/src\hrtim.c **** uint16_t hrtim_timer_set_cmp(hrtim_driver_t *hdp, hrtim_timer_t timer,
 331:C:/StellarStudio-7.0/SDKS/StellarESDK-1.7.0/Modules/Drivers/Timers/HRTIM/src\hrtim.c ****                              hrtim_cmp_t comparator, uint16_t value) {
 1347              		.loc 1 331 70
 1348              		.cfi_startproc
 1349              		@ args = 0, pretend = 0, frame = 16
 1350              		@ frame_needed = 0, uses_anonymous_args = 0
 1351              		@ link register save eliminated.
 1352 0000 84B0     		sub	sp, sp, #16
 1353              		.cfi_def_cfa_offset 16
 1354 0002 0190     		str	r0, [sp, #4]
 1355 0004 0846     		mov	r0, r1
 1356 0006 1146     		mov	r1, r2
 1357 0008 1A46     		mov	r2, r3
 1358 000a 0346     		mov	r3, r0
 1359 000c 8DF80330 		strb	r3, [sp, #3]
 1360 0010 0B46     		mov	r3, r1
 1361 0012 8DF80230 		strb	r3, [sp, #2]
 1362 0016 1346     		mov	r3, r2	@ movhi
 1363 0018 ADF80030 		strh	r3, [sp]	@ movhi
 332:C:/StellarStudio-7.0/SDKS/StellarESDK-1.7.0/Modules/Drivers/Timers/HRTIM/src\hrtim.c **** 
 333:C:/StellarStudio-7.0/SDKS/StellarESDK-1.7.0/Modules/Drivers/Timers/HRTIM/src\hrtim.c ****     uint16_t prev_value = 0U;
 1364              		.loc 1 333 14
 1365 001c 0023     		movs	r3, #0
 1366 001e ADF80E30 		strh	r3, [sp, #14]	@ movhi
 334:C:/StellarStudio-7.0/SDKS/StellarESDK-1.7.0/Modules/Drivers/Timers/HRTIM/src\hrtim.c **** 
 335:C:/StellarStudio-7.0/SDKS/StellarESDK-1.7.0/Modules/Drivers/Timers/HRTIM/src\hrtim.c ****     if (timer == HRTIM_TIMER_MASTER) {
 1367              		.loc 1 335 8
 1368 0022 9DF80330 		ldrb	r3, [sp, #3]	@ zero_extendqisi2
 1369 0026 062B     		cmp	r3, #6
 1370 0028 34D1     		bne	.L48
 336:C:/StellarStudio-7.0/SDKS/StellarESDK-1.7.0/Modules/Drivers/Timers/HRTIM/src\hrtim.c ****         switch (comparator) {
 1371              		.loc 1 336 9
 1372 002a 9DF80230 		ldrb	r3, [sp, #2]	@ zero_extendqisi2
 1373 002e 032B     		cmp	r3, #3
 1374 0030 00F28480 		bhi	.L79
 1375 0034 01A2     		adr	r2, .L51
 1376 0036 52F823F0 		ldr	pc, [r2, r3, lsl #2]
 1377 003a 00BF     		.p2align 2
 1378              	.L51:
 1379 003c 4D000000 		.word	.L54+1
 1380 0040 5F000000 		.word	.L53+1
 1381 0044 71000000 		.word	.L52+1
 1382 0048 83000000 		.word	.L50+1
 1383              		.p2align 1
 1384              	.L54:
 337:C:/StellarStudio-7.0/SDKS/StellarESDK-1.7.0/Modules/Drivers/Timers/HRTIM/src\hrtim.c ****             case HRTIM_CMP1:
 338:C:/StellarStudio-7.0/SDKS/StellarESDK-1.7.0/Modules/Drivers/Timers/HRTIM/src\hrtim.c ****                 prev_value = hdp->master_cmp[HRTIM_CMP1];
 1385              		.loc 1 338 28
 1386 004c 019B     		ldr	r3, [sp, #4]
 1387 004e 1B8B     		ldrh	r3, [r3, #24]	@ movhi
 1388 0050 ADF80E30 		strh	r3, [sp, #14]	@ movhi
 339:C:/StellarStudio-7.0/SDKS/StellarESDK-1.7.0/Modules/Drivers/Timers/HRTIM/src\hrtim.c ****                 hdp->master_cmp[HRTIM_CMP1] = value;
 1389              		.loc 1 339 45
 1390 0054 019B     		ldr	r3, [sp, #4]
 1391 0056 BDF80020 		ldrh	r2, [sp]	@ movhi
 1392 005a 1A83     		strh	r2, [r3, #24]	@ movhi
 340:C:/StellarStudio-7.0/SDKS/StellarESDK-1.7.0/Modules/Drivers/Timers/HRTIM/src\hrtim.c ****                 break;
 1393              		.loc 1 340 17
 1394 005c 71E0     		b	.L56
 1395              	.L53:
 341:C:/StellarStudio-7.0/SDKS/StellarESDK-1.7.0/Modules/Drivers/Timers/HRTIM/src\hrtim.c ****             case HRTIM_CMP2:
 342:C:/StellarStudio-7.0/SDKS/StellarESDK-1.7.0/Modules/Drivers/Timers/HRTIM/src\hrtim.c ****                 prev_value = hdp->master_cmp[HRTIM_CMP2];
 1396              		.loc 1 342 28
 1397 005e 019B     		ldr	r3, [sp, #4]
 1398 0060 5B8B     		ldrh	r3, [r3, #26]	@ movhi
 1399 0062 ADF80E30 		strh	r3, [sp, #14]	@ movhi
 343:C:/StellarStudio-7.0/SDKS/StellarESDK-1.7.0/Modules/Drivers/Timers/HRTIM/src\hrtim.c ****                 hdp->master_cmp[HRTIM_CMP2] = value;
 1400              		.loc 1 343 45
 1401 0066 019B     		ldr	r3, [sp, #4]
 1402 0068 BDF80020 		ldrh	r2, [sp]	@ movhi
 1403 006c 5A83     		strh	r2, [r3, #26]	@ movhi
 344:C:/StellarStudio-7.0/SDKS/StellarESDK-1.7.0/Modules/Drivers/Timers/HRTIM/src\hrtim.c ****                 break;
 1404              		.loc 1 344 17
 1405 006e 68E0     		b	.L56
 1406              	.L52:
 345:C:/StellarStudio-7.0/SDKS/StellarESDK-1.7.0/Modules/Drivers/Timers/HRTIM/src\hrtim.c ****             case HRTIM_CMP3:
 346:C:/StellarStudio-7.0/SDKS/StellarESDK-1.7.0/Modules/Drivers/Timers/HRTIM/src\hrtim.c ****                 prev_value = hdp->master_cmp[HRTIM_CMP3];
 1407              		.loc 1 346 28
 1408 0070 019B     		ldr	r3, [sp, #4]
 1409 0072 9B8B     		ldrh	r3, [r3, #28]	@ movhi
 1410 0074 ADF80E30 		strh	r3, [sp, #14]	@ movhi
 347:C:/StellarStudio-7.0/SDKS/StellarESDK-1.7.0/Modules/Drivers/Timers/HRTIM/src\hrtim.c ****                 hdp->master_cmp[HRTIM_CMP3] = value;
 1411              		.loc 1 347 45
 1412 0078 019B     		ldr	r3, [sp, #4]
 1413 007a BDF80020 		ldrh	r2, [sp]	@ movhi
 1414 007e 9A83     		strh	r2, [r3, #28]	@ movhi
 348:C:/StellarStudio-7.0/SDKS/StellarESDK-1.7.0/Modules/Drivers/Timers/HRTIM/src\hrtim.c ****                 break;
 1415              		.loc 1 348 17
 1416 0080 5FE0     		b	.L56
 1417              	.L50:
 349:C:/StellarStudio-7.0/SDKS/StellarESDK-1.7.0/Modules/Drivers/Timers/HRTIM/src\hrtim.c ****             case HRTIM_CMP4:
 350:C:/StellarStudio-7.0/SDKS/StellarESDK-1.7.0/Modules/Drivers/Timers/HRTIM/src\hrtim.c ****                 prev_value = hdp->master_cmp[HRTIM_CMP4];
 1418              		.loc 1 350 28
 1419 0082 019B     		ldr	r3, [sp, #4]
 1420 0084 DB8B     		ldrh	r3, [r3, #30]	@ movhi
 1421 0086 ADF80E30 		strh	r3, [sp, #14]	@ movhi
 351:C:/StellarStudio-7.0/SDKS/StellarESDK-1.7.0/Modules/Drivers/Timers/HRTIM/src\hrtim.c ****                 hdp->master_cmp[HRTIM_CMP4] = value;
 1422              		.loc 1 351 45
 1423 008a 019B     		ldr	r3, [sp, #4]
 1424 008c BDF80020 		ldrh	r2, [sp]	@ movhi
 1425 0090 DA83     		strh	r2, [r3, #30]	@ movhi
 352:C:/StellarStudio-7.0/SDKS/StellarESDK-1.7.0/Modules/Drivers/Timers/HRTIM/src\hrtim.c ****                 break;
 1426              		.loc 1 352 17
 1427 0092 56E0     		b	.L56
 1428              	.L48:
 353:C:/StellarStudio-7.0/SDKS/StellarESDK-1.7.0/Modules/Drivers/Timers/HRTIM/src\hrtim.c ****             default:
 354:C:/StellarStudio-7.0/SDKS/StellarESDK-1.7.0/Modules/Drivers/Timers/HRTIM/src\hrtim.c ****                 /* for MISRA compliance */
 355:C:/StellarStudio-7.0/SDKS/StellarESDK-1.7.0/Modules/Drivers/Timers/HRTIM/src\hrtim.c ****                 break;
 356:C:/StellarStudio-7.0/SDKS/StellarESDK-1.7.0/Modules/Drivers/Timers/HRTIM/src\hrtim.c ****         }
 357:C:/StellarStudio-7.0/SDKS/StellarESDK-1.7.0/Modules/Drivers/Timers/HRTIM/src\hrtim.c ****     } else {
 358:C:/StellarStudio-7.0/SDKS/StellarESDK-1.7.0/Modules/Drivers/Timers/HRTIM/src\hrtim.c ****         switch (comparator) {
 1429              		.loc 1 358 9
 1430 0094 9DF80230 		ldrb	r3, [sp, #2]	@ zero_extendqisi2
 1431 0098 032B     		cmp	r3, #3
 1432 009a 51D8     		bhi	.L80
 1433 009c 01A2     		adr	r2, .L59
 1434 009e 52F823F0 		ldr	pc, [r2, r3, lsl #2]
 1435 00a2 00BF     		.p2align 2
 1436              	.L59:
 1437 00a4 B5000000 		.word	.L62+1
 1438 00a8 D7000000 		.word	.L61+1
 1439 00ac F9000000 		.word	.L60+1
 1440 00b0 1B010000 		.word	.L58+1
 1441              		.p2align 1
 1442              	.L62:
 359:C:/StellarStudio-7.0/SDKS/StellarESDK-1.7.0/Modules/Drivers/Timers/HRTIM/src\hrtim.c ****             case HRTIM_CMP1:
 360:C:/StellarStudio-7.0/SDKS/StellarESDK-1.7.0/Modules/Drivers/Timers/HRTIM/src\hrtim.c ****                 prev_value = hdp->timer_cmp[timer][HRTIM_CMP1];
 1443              		.loc 1 360 51
 1444 00b4 9DF80320 		ldrb	r2, [sp, #3]	@ zero_extendqisi2
 1445              		.loc 1 360 28
 1446 00b8 019B     		ldr	r3, [sp, #4]
 1447 00ba 0732     		adds	r2, r2, #7
 1448 00bc 33F83230 		ldrh	r3, [r3, r2, lsl #3]	@ movhi
 1449 00c0 ADF80E30 		strh	r3, [sp, #14]	@ movhi
 361:C:/StellarStudio-7.0/SDKS/StellarESDK-1.7.0/Modules/Drivers/Timers/HRTIM/src\hrtim.c ****                 hdp->timer_cmp[timer][HRTIM_CMP1] = value;
 1450              		.loc 1 361 38
 1451 00c4 9DF80320 		ldrb	r2, [sp, #3]	@ zero_extendqisi2
 1452              		.loc 1 361 51
 1453 00c8 019B     		ldr	r3, [sp, #4]
 1454 00ca 0732     		adds	r2, r2, #7
 1455 00cc BDF80010 		ldrh	r1, [sp]	@ movhi
 1456 00d0 23F83210 		strh	r1, [r3, r2, lsl #3]	@ movhi
 362:C:/StellarStudio-7.0/SDKS/StellarESDK-1.7.0/Modules/Drivers/Timers/HRTIM/src\hrtim.c ****                 break;
 1457              		.loc 1 362 17
 1458 00d4 35E0     		b	.L56
 1459              	.L61:
 363:C:/StellarStudio-7.0/SDKS/StellarESDK-1.7.0/Modules/Drivers/Timers/HRTIM/src\hrtim.c ****             case HRTIM_CMP2:
 364:C:/StellarStudio-7.0/SDKS/StellarESDK-1.7.0/Modules/Drivers/Timers/HRTIM/src\hrtim.c ****                 prev_value = hdp->timer_cmp[timer][HRTIM_CMP2];
 1460              		.loc 1 364 51
 1461 00d6 9DF80330 		ldrb	r3, [sp, #3]	@ zero_extendqisi2
 1462              		.loc 1 364 28
 1463 00da 019A     		ldr	r2, [sp, #4]
 1464 00dc DB00     		lsls	r3, r3, #3
 1465 00de 1344     		add	r3, r3, r2
 1466 00e0 5B8F     		ldrh	r3, [r3, #58]	@ movhi
 1467 00e2 ADF80E30 		strh	r3, [sp, #14]	@ movhi
 365:C:/StellarStudio-7.0/SDKS/StellarESDK-1.7.0/Modules/Drivers/Timers/HRTIM/src\hrtim.c ****                 hdp->timer_cmp[timer][HRTIM_CMP2] = value;
 1468              		.loc 1 365 38
 1469 00e6 9DF80330 		ldrb	r3, [sp, #3]	@ zero_extendqisi2
 1470              		.loc 1 365 51
 1471 00ea 019A     		ldr	r2, [sp, #4]
 1472 00ec DB00     		lsls	r3, r3, #3
 1473 00ee 1344     		add	r3, r3, r2
 1474 00f0 BDF80020 		ldrh	r2, [sp]	@ movhi
 1475 00f4 5A87     		strh	r2, [r3, #58]	@ movhi
 366:C:/StellarStudio-7.0/SDKS/StellarESDK-1.7.0/Modules/Drivers/Timers/HRTIM/src\hrtim.c ****                 break;
 1476              		.loc 1 366 17
 1477 00f6 24E0     		b	.L56
 1478              	.L60:
 367:C:/StellarStudio-7.0/SDKS/StellarESDK-1.7.0/Modules/Drivers/Timers/HRTIM/src\hrtim.c ****             case HRTIM_CMP3:
 368:C:/StellarStudio-7.0/SDKS/StellarESDK-1.7.0/Modules/Drivers/Timers/HRTIM/src\hrtim.c ****                 prev_value = hdp->timer_cmp[timer][HRTIM_CMP3];
 1479              		.loc 1 368 51
 1480 00f8 9DF80330 		ldrb	r3, [sp, #3]	@ zero_extendqisi2
 1481              		.loc 1 368 28
 1482 00fc 019A     		ldr	r2, [sp, #4]
 1483 00fe DB00     		lsls	r3, r3, #3
 1484 0100 1344     		add	r3, r3, r2
 1485 0102 9B8F     		ldrh	r3, [r3, #60]	@ movhi
 1486 0104 ADF80E30 		strh	r3, [sp, #14]	@ movhi
 369:C:/StellarStudio-7.0/SDKS/StellarESDK-1.7.0/Modules/Drivers/Timers/HRTIM/src\hrtim.c ****                 hdp->timer_cmp[timer][HRTIM_CMP3] = value;
 1487              		.loc 1 369 38
 1488 0108 9DF80330 		ldrb	r3, [sp, #3]	@ zero_extendqisi2
 1489              		.loc 1 369 51
 1490 010c 019A     		ldr	r2, [sp, #4]
 1491 010e DB00     		lsls	r3, r3, #3
 1492 0110 1344     		add	r3, r3, r2
 1493 0112 BDF80020 		ldrh	r2, [sp]	@ movhi
 1494 0116 9A87     		strh	r2, [r3, #60]	@ movhi
 370:C:/StellarStudio-7.0/SDKS/StellarESDK-1.7.0/Modules/Drivers/Timers/HRTIM/src\hrtim.c ****                 break;
 1495              		.loc 1 370 17
 1496 0118 13E0     		b	.L56
 1497              	.L58:
 371:C:/StellarStudio-7.0/SDKS/StellarESDK-1.7.0/Modules/Drivers/Timers/HRTIM/src\hrtim.c ****             case HRTIM_CMP4:
 372:C:/StellarStudio-7.0/SDKS/StellarESDK-1.7.0/Modules/Drivers/Timers/HRTIM/src\hrtim.c ****                 prev_value = hdp->timer_cmp[timer][HRTIM_CMP4];
 1498              		.loc 1 372 51
 1499 011a 9DF80330 		ldrb	r3, [sp, #3]	@ zero_extendqisi2
 1500              		.loc 1 372 28
 1501 011e 019A     		ldr	r2, [sp, #4]
 1502 0120 DB00     		lsls	r3, r3, #3
 1503 0122 1344     		add	r3, r3, r2
 1504 0124 DB8F     		ldrh	r3, [r3, #62]	@ movhi
 1505 0126 ADF80E30 		strh	r3, [sp, #14]	@ movhi
 373:C:/StellarStudio-7.0/SDKS/StellarESDK-1.7.0/Modules/Drivers/Timers/HRTIM/src\hrtim.c ****                 hdp->timer_cmp[timer][HRTIM_CMP4] = value;
 1506              		.loc 1 373 38
 1507 012a 9DF80330 		ldrb	r3, [sp, #3]	@ zero_extendqisi2
 1508              		.loc 1 373 51
 1509 012e 019A     		ldr	r2, [sp, #4]
 1510 0130 DB00     		lsls	r3, r3, #3
 1511 0132 1344     		add	r3, r3, r2
 1512 0134 BDF80020 		ldrh	r2, [sp]	@ movhi
 1513 0138 DA87     		strh	r2, [r3, #62]	@ movhi
 374:C:/StellarStudio-7.0/SDKS/StellarESDK-1.7.0/Modules/Drivers/Timers/HRTIM/src\hrtim.c ****                 break;
 1514              		.loc 1 374 17
 1515 013a 02E0     		b	.L56
 1516              	.L79:
 355:C:/StellarStudio-7.0/SDKS/StellarESDK-1.7.0/Modules/Drivers/Timers/HRTIM/src\hrtim.c ****         }
 1517              		.loc 1 355 17
 1518 013c 00BF     		nop
 1519 013e 00E0     		b	.L56
 1520              	.L80:
 375:C:/StellarStudio-7.0/SDKS/StellarESDK-1.7.0/Modules/Drivers/Timers/HRTIM/src\hrtim.c ****             default:
 376:C:/StellarStudio-7.0/SDKS/StellarESDK-1.7.0/Modules/Drivers/Timers/HRTIM/src\hrtim.c ****                 /* for MISRA compliance */
 377:C:/StellarStudio-7.0/SDKS/StellarESDK-1.7.0/Modules/Drivers/Timers/HRTIM/src\hrtim.c ****                 break;
 1521              		.loc 1 377 17
 1522 0140 00BF     		nop
 1523              	.L56:
 378:C:/StellarStudio-7.0/SDKS/StellarESDK-1.7.0/Modules/Drivers/Timers/HRTIM/src\hrtim.c ****         }
 379:C:/StellarStudio-7.0/SDKS/StellarESDK-1.7.0/Modules/Drivers/Timers/HRTIM/src\hrtim.c ****     }
 380:C:/StellarStudio-7.0/SDKS/StellarESDK-1.7.0/Modules/Drivers/Timers/HRTIM/src\hrtim.c **** 
 381:C:/StellarStudio-7.0/SDKS/StellarESDK-1.7.0/Modules/Drivers/Timers/HRTIM/src\hrtim.c ****     /* Update on-fly.*/
 382:C:/StellarStudio-7.0/SDKS/StellarESDK-1.7.0/Modules/Drivers/Timers/HRTIM/src\hrtim.c ****     if (hdp->is_enable == true) {
 1524              		.loc 1 382 12
 1525 0142 019B     		ldr	r3, [sp, #4]
 1526 0144 1B79     		ldrb	r3, [r3, #4]	@ zero_extendqisi2
 1527              		.loc 1 382 8
 1528 0146 002B     		cmp	r3, #0
 1529 0148 66D0     		beq	.L81
 383:C:/StellarStudio-7.0/SDKS/StellarESDK-1.7.0/Modules/Drivers/Timers/HRTIM/src\hrtim.c ****         if (timer == HRTIM_TIMER_MASTER) {
 1530              		.loc 1 383 12
 1531 014a 9DF80330 		ldrb	r3, [sp, #3]	@ zero_extendqisi2
 1532 014e 062B     		cmp	r3, #6
 1533 0150 26D1     		bne	.L64
 384:C:/StellarStudio-7.0/SDKS/StellarESDK-1.7.0/Modules/Drivers/Timers/HRTIM/src\hrtim.c ****             switch (comparator) {
 1534              		.loc 1 384 13
 1535 0152 9DF80230 		ldrb	r3, [sp, #2]	@ zero_extendqisi2
 1536 0156 032B     		cmp	r3, #3
 1537 0158 60D8     		bhi	.L82
 1538 015a 01A2     		adr	r2, .L67
 1539 015c 52F823F0 		ldr	pc, [r2, r3, lsl #2]
 1540              		.p2align 2
 1541              	.L67:
 1542 0160 71010000 		.word	.L70+1
 1543 0164 7D010000 		.word	.L69+1
 1544 0168 89010000 		.word	.L68+1
 1545 016c 95010000 		.word	.L66+1
 1546              		.p2align 1
 1547              	.L70:
 385:C:/StellarStudio-7.0/SDKS/StellarESDK-1.7.0/Modules/Drivers/Timers/HRTIM/src\hrtim.c ****                 case HRTIM_CMP1:
 386:C:/StellarStudio-7.0/SDKS/StellarESDK-1.7.0/Modules/Drivers/Timers/HRTIM/src\hrtim.c ****                     hdp->hrtim->sMasterRegs.MCMP1R = (uint32_t)value;
 1548              		.loc 1 386 24
 1549 0170 019B     		ldr	r3, [sp, #4]
 1550 0172 1B68     		ldr	r3, [r3]
 1551              		.loc 1 386 54
 1552 0174 BDF80020 		ldrh	r2, [sp]
 1553              		.loc 1 386 52
 1554 0178 DA61     		str	r2, [r3, #28]
 387:C:/StellarStudio-7.0/SDKS/StellarESDK-1.7.0/Modules/Drivers/Timers/HRTIM/src\hrtim.c ****                     break;
 1555              		.loc 1 387 21
 1556 017a 52E0     		b	.L63
 1557              	.L69:
 388:C:/StellarStudio-7.0/SDKS/StellarESDK-1.7.0/Modules/Drivers/Timers/HRTIM/src\hrtim.c ****                 case HRTIM_CMP2:
 389:C:/StellarStudio-7.0/SDKS/StellarESDK-1.7.0/Modules/Drivers/Timers/HRTIM/src\hrtim.c ****                     hdp->hrtim->sMasterRegs.MCMP2R = (uint32_t)value;
 1558              		.loc 1 389 24
 1559 017c 019B     		ldr	r3, [sp, #4]
 1560 017e 1B68     		ldr	r3, [r3]
 1561              		.loc 1 389 54
 1562 0180 BDF80020 		ldrh	r2, [sp]
 1563              		.loc 1 389 52
 1564 0184 5A62     		str	r2, [r3, #36]
 390:C:/StellarStudio-7.0/SDKS/StellarESDK-1.7.0/Modules/Drivers/Timers/HRTIM/src\hrtim.c ****                     break;
 1565              		.loc 1 390 21
 1566 0186 4CE0     		b	.L63
 1567              	.L68:
 391:C:/StellarStudio-7.0/SDKS/StellarESDK-1.7.0/Modules/Drivers/Timers/HRTIM/src\hrtim.c ****                 case HRTIM_CMP3:
 392:C:/StellarStudio-7.0/SDKS/StellarESDK-1.7.0/Modules/Drivers/Timers/HRTIM/src\hrtim.c ****                     hdp->hrtim->sMasterRegs.MCMP3R = (uint32_t)value;
 1568              		.loc 1 392 24
 1569 0188 019B     		ldr	r3, [sp, #4]
 1570 018a 1B68     		ldr	r3, [r3]
 1571              		.loc 1 392 54
 1572 018c BDF80020 		ldrh	r2, [sp]
 1573              		.loc 1 392 52
 1574 0190 9A62     		str	r2, [r3, #40]
 393:C:/StellarStudio-7.0/SDKS/StellarESDK-1.7.0/Modules/Drivers/Timers/HRTIM/src\hrtim.c ****                     break;
 1575              		.loc 1 393 21
 1576 0192 46E0     		b	.L63
 1577              	.L66:
 394:C:/StellarStudio-7.0/SDKS/StellarESDK-1.7.0/Modules/Drivers/Timers/HRTIM/src\hrtim.c ****                 case HRTIM_CMP4:
 395:C:/StellarStudio-7.0/SDKS/StellarESDK-1.7.0/Modules/Drivers/Timers/HRTIM/src\hrtim.c ****                     hdp->hrtim->sMasterRegs.MCMP4R = (uint32_t)value;
 1578              		.loc 1 395 24
 1579 0194 019B     		ldr	r3, [sp, #4]
 1580 0196 1B68     		ldr	r3, [r3]
 1581              		.loc 1 395 54
 1582 0198 BDF80020 		ldrh	r2, [sp]
 1583              		.loc 1 395 52
 1584 019c DA62     		str	r2, [r3, #44]
 396:C:/StellarStudio-7.0/SDKS/StellarESDK-1.7.0/Modules/Drivers/Timers/HRTIM/src\hrtim.c ****                     break;
 1585              		.loc 1 396 21
 1586 019e 40E0     		b	.L63
 1587              	.L64:
 397:C:/StellarStudio-7.0/SDKS/StellarESDK-1.7.0/Modules/Drivers/Timers/HRTIM/src\hrtim.c ****                 default:
 398:C:/StellarStudio-7.0/SDKS/StellarESDK-1.7.0/Modules/Drivers/Timers/HRTIM/src\hrtim.c ****                     /* for MISRA compliance */
 399:C:/StellarStudio-7.0/SDKS/StellarESDK-1.7.0/Modules/Drivers/Timers/HRTIM/src\hrtim.c ****                     break;
 400:C:/StellarStudio-7.0/SDKS/StellarESDK-1.7.0/Modules/Drivers/Timers/HRTIM/src\hrtim.c ****             }
 401:C:/StellarStudio-7.0/SDKS/StellarESDK-1.7.0/Modules/Drivers/Timers/HRTIM/src\hrtim.c ****         } else {
 402:C:/StellarStudio-7.0/SDKS/StellarESDK-1.7.0/Modules/Drivers/Timers/HRTIM/src\hrtim.c ****             switch (comparator) {
 1588              		.loc 1 402 13
 1589 01a0 9DF80230 		ldrb	r3, [sp, #2]	@ zero_extendqisi2
 1590 01a4 032B     		cmp	r3, #3
 1591 01a6 3BD8     		bhi	.L83
 1592 01a8 01A2     		adr	r2, .L74
 1593 01aa 52F823F0 		ldr	pc, [r2, r3, lsl #2]
 1594 01ae 00BF     		.p2align 2
 1595              	.L74:
 1596 01b0 C1010000 		.word	.L77+1
 1597 01b4 D7010000 		.word	.L76+1
 1598 01b8 ED010000 		.word	.L75+1
 1599 01bc 03020000 		.word	.L73+1
 1600              		.p2align 1
 1601              	.L77:
 403:C:/StellarStudio-7.0/SDKS/StellarESDK-1.7.0/Modules/Drivers/Timers/HRTIM/src\hrtim.c ****                 case HRTIM_CMP1: 
 404:C:/StellarStudio-7.0/SDKS/StellarESDK-1.7.0/Modules/Drivers/Timers/HRTIM/src\hrtim.c ****                     hdp->hrtim->sTimerxRegs[timer].CMP1xR = (uint32_t)value;
 1602              		.loc 1 404 24
 1603 01c0 019B     		ldr	r3, [sp, #4]
 1604 01c2 1968     		ldr	r1, [r3]
 1605              		.loc 1 404 51
 1606 01c4 9DF80330 		ldrb	r3, [sp, #3]	@ zero_extendqisi2
 1607              		.loc 1 404 61
 1608 01c8 BDF80020 		ldrh	r2, [sp]
 1609              		.loc 1 404 59
 1610 01cc DB01     		lsls	r3, r3, #7
 1611 01ce 0B44     		add	r3, r3, r1
 1612 01d0 9C33     		adds	r3, r3, #156
 1613 01d2 1A60     		str	r2, [r3]
 405:C:/StellarStudio-7.0/SDKS/StellarESDK-1.7.0/Modules/Drivers/Timers/HRTIM/src\hrtim.c ****                     break;
 1614              		.loc 1 405 21
 1615 01d4 25E0     		b	.L63
 1616              	.L76:
 406:C:/StellarStudio-7.0/SDKS/StellarESDK-1.7.0/Modules/Drivers/Timers/HRTIM/src\hrtim.c ****                 case HRTIM_CMP2:
 407:C:/StellarStudio-7.0/SDKS/StellarESDK-1.7.0/Modules/Drivers/Timers/HRTIM/src\hrtim.c ****                     hdp->hrtim->sTimerxRegs[timer].CMP2xR = (uint32_t)value;
 1617              		.loc 1 407 24
 1618 01d6 019B     		ldr	r3, [sp, #4]
 1619 01d8 1968     		ldr	r1, [r3]
 1620              		.loc 1 407 51
 1621 01da 9DF80330 		ldrb	r3, [sp, #3]	@ zero_extendqisi2
 1622              		.loc 1 407 61
 1623 01de BDF80020 		ldrh	r2, [sp]
 1624              		.loc 1 407 59
 1625 01e2 DB01     		lsls	r3, r3, #7
 1626 01e4 0B44     		add	r3, r3, r1
 1627 01e6 A433     		adds	r3, r3, #164
 1628 01e8 1A60     		str	r2, [r3]
 408:C:/StellarStudio-7.0/SDKS/StellarESDK-1.7.0/Modules/Drivers/Timers/HRTIM/src\hrtim.c ****                     break;
 1629              		.loc 1 408 21
 1630 01ea 1AE0     		b	.L63
 1631              	.L75:
 409:C:/StellarStudio-7.0/SDKS/StellarESDK-1.7.0/Modules/Drivers/Timers/HRTIM/src\hrtim.c ****                 case HRTIM_CMP3:
 410:C:/StellarStudio-7.0/SDKS/StellarESDK-1.7.0/Modules/Drivers/Timers/HRTIM/src\hrtim.c ****                     hdp->hrtim->sTimerxRegs[timer].CMP3xR = (uint32_t)value;
 1632              		.loc 1 410 24
 1633 01ec 019B     		ldr	r3, [sp, #4]
 1634 01ee 1968     		ldr	r1, [r3]
 1635              		.loc 1 410 51
 1636 01f0 9DF80330 		ldrb	r3, [sp, #3]	@ zero_extendqisi2
 1637              		.loc 1 410 61
 1638 01f4 BDF80020 		ldrh	r2, [sp]
 1639              		.loc 1 410 59
 1640 01f8 DB01     		lsls	r3, r3, #7
 1641 01fa 0B44     		add	r3, r3, r1
 1642 01fc A833     		adds	r3, r3, #168
 1643 01fe 1A60     		str	r2, [r3]
 411:C:/StellarStudio-7.0/SDKS/StellarESDK-1.7.0/Modules/Drivers/Timers/HRTIM/src\hrtim.c ****                     break;
 1644              		.loc 1 411 21
 1645 0200 0FE0     		b	.L63
 1646              	.L73:
 412:C:/StellarStudio-7.0/SDKS/StellarESDK-1.7.0/Modules/Drivers/Timers/HRTIM/src\hrtim.c ****                 case HRTIM_CMP4:
 413:C:/StellarStudio-7.0/SDKS/StellarESDK-1.7.0/Modules/Drivers/Timers/HRTIM/src\hrtim.c ****                     hdp->hrtim->sTimerxRegs[timer].CMP4xR = (uint32_t)value;
 1647              		.loc 1 413 24
 1648 0202 019B     		ldr	r3, [sp, #4]
 1649 0204 1968     		ldr	r1, [r3]
 1650              		.loc 1 413 51
 1651 0206 9DF80330 		ldrb	r3, [sp, #3]	@ zero_extendqisi2
 1652              		.loc 1 413 61
 1653 020a BDF80020 		ldrh	r2, [sp]
 1654              		.loc 1 413 59
 1655 020e DB01     		lsls	r3, r3, #7
 1656 0210 0B44     		add	r3, r3, r1
 1657 0212 AC33     		adds	r3, r3, #172
 1658 0214 1A60     		str	r2, [r3]
 414:C:/StellarStudio-7.0/SDKS/StellarESDK-1.7.0/Modules/Drivers/Timers/HRTIM/src\hrtim.c ****                     break;
 1659              		.loc 1 414 21
 1660 0216 04E0     		b	.L63
 1661              	.L81:
 415:C:/StellarStudio-7.0/SDKS/StellarESDK-1.7.0/Modules/Drivers/Timers/HRTIM/src\hrtim.c ****                 default:
 416:C:/StellarStudio-7.0/SDKS/StellarESDK-1.7.0/Modules/Drivers/Timers/HRTIM/src\hrtim.c ****                     /* for MISRA compliance */
 417:C:/StellarStudio-7.0/SDKS/StellarESDK-1.7.0/Modules/Drivers/Timers/HRTIM/src\hrtim.c ****                     break;
 418:C:/StellarStudio-7.0/SDKS/StellarESDK-1.7.0/Modules/Drivers/Timers/HRTIM/src\hrtim.c ****             }
 419:C:/StellarStudio-7.0/SDKS/StellarESDK-1.7.0/Modules/Drivers/Timers/HRTIM/src\hrtim.c ****         }
 1662              		.loc 1 419 9
 1663 0218 00BF     		nop
 1664 021a 02E0     		b	.L63
 1665              	.L82:
 399:C:/StellarStudio-7.0/SDKS/StellarESDK-1.7.0/Modules/Drivers/Timers/HRTIM/src\hrtim.c ****             }
 1666              		.loc 1 399 21
 1667 021c 00BF     		nop
 1668 021e 00E0     		b	.L63
 1669              	.L83:
 417:C:/StellarStudio-7.0/SDKS/StellarESDK-1.7.0/Modules/Drivers/Timers/HRTIM/src\hrtim.c ****             }
 1670              		.loc 1 417 21
 1671 0220 00BF     		nop
 1672              	.L63:
 420:C:/StellarStudio-7.0/SDKS/StellarESDK-1.7.0/Modules/Drivers/Timers/HRTIM/src\hrtim.c ****     }
 421:C:/StellarStudio-7.0/SDKS/StellarESDK-1.7.0/Modules/Drivers/Timers/HRTIM/src\hrtim.c **** 
 422:C:/StellarStudio-7.0/SDKS/StellarESDK-1.7.0/Modules/Drivers/Timers/HRTIM/src\hrtim.c ****     return prev_value;
 1673              		.loc 1 422 12
 1674 0222 BDF80E30 		ldrh	r3, [sp, #14]
 423:C:/StellarStudio-7.0/SDKS/StellarESDK-1.7.0/Modules/Drivers/Timers/HRTIM/src\hrtim.c **** }
 1675              		.loc 1 423 1
 1676 0226 1846     		mov	r0, r3
 1677 0228 04B0     		add	sp, sp, #16
 1678              		.cfi_def_cfa_offset 0
 1679              		@ sp needed
 1680 022a 7047     		bx	lr
 1681              		.cfi_endproc
 1682              	.LFE162:
 1684              		.section	.text.hrtim_timer_get_cmp,"ax",%progbits
 1685              		.align	1
 1686              		.p2align 4,,15
 1687              		.global	hrtim_timer_get_cmp
 1688              		.syntax unified
 1689              		.thumb
 1690              		.thumb_func
 1692              	hrtim_timer_get_cmp:
 1693              	.LFB163:
 424:C:/StellarStudio-7.0/SDKS/StellarESDK-1.7.0/Modules/Drivers/Timers/HRTIM/src\hrtim.c **** 
 425:C:/StellarStudio-7.0/SDKS/StellarESDK-1.7.0/Modules/Drivers/Timers/HRTIM/src\hrtim.c **** uint16_t hrtim_timer_get_cmp(hrtim_driver_t *hdp, hrtim_timer_t timer,
 426:C:/StellarStudio-7.0/SDKS/StellarESDK-1.7.0/Modules/Drivers/Timers/HRTIM/src\hrtim.c ****                              hrtim_cmp_t comparator){
 1694              		.loc 1 426 53
 1695              		.cfi_startproc
 1696              		@ args = 0, pretend = 0, frame = 8
 1697              		@ frame_needed = 0, uses_anonymous_args = 0
 1698              		@ link register save eliminated.
 1699 0000 82B0     		sub	sp, sp, #8
 1700              		.cfi_def_cfa_offset 8
 1701 0002 0190     		str	r0, [sp, #4]
 1702 0004 0B46     		mov	r3, r1
 1703 0006 8DF80330 		strb	r3, [sp, #3]
 1704 000a 1346     		mov	r3, r2
 1705 000c 8DF80230 		strb	r3, [sp, #2]
 427:C:/StellarStudio-7.0/SDKS/StellarESDK-1.7.0/Modules/Drivers/Timers/HRTIM/src\hrtim.c **** 
 428:C:/StellarStudio-7.0/SDKS/StellarESDK-1.7.0/Modules/Drivers/Timers/HRTIM/src\hrtim.c ****     if (timer == HRTIM_TIMER_MASTER) {
 1706              		.loc 1 428 8
 1707 0010 9DF80330 		ldrb	r3, [sp, #3]	@ zero_extendqisi2
 1708 0014 062B     		cmp	r3, #6
 1709 0016 1DD1     		bne	.L85
 429:C:/StellarStudio-7.0/SDKS/StellarESDK-1.7.0/Modules/Drivers/Timers/HRTIM/src\hrtim.c ****         switch (comparator) {
 1710              		.loc 1 429 9
 1711 0018 9DF80230 		ldrb	r3, [sp, #2]	@ zero_extendqisi2
 1712 001c 032B     		cmp	r3, #3
 1713 001e 17D8     		bhi	.L86
 1714 0020 01A2     		adr	r2, .L88
 1715 0022 52F823F0 		ldr	pc, [r2, r3, lsl #2]
 1716 0026 00BF     		.p2align 2
 1717              	.L88:
 1718 0028 39000000 		.word	.L91+1
 1719 002c 3F000000 		.word	.L90+1
 1720 0030 45000000 		.word	.L89+1
 1721 0034 4B000000 		.word	.L87+1
 1722              		.p2align 1
 1723              	.L91:
 430:C:/StellarStudio-7.0/SDKS/StellarESDK-1.7.0/Modules/Drivers/Timers/HRTIM/src\hrtim.c ****             case HRTIM_CMP1:
 431:C:/StellarStudio-7.0/SDKS/StellarESDK-1.7.0/Modules/Drivers/Timers/HRTIM/src\hrtim.c ****                 return hdp->master_cmp[HRTIM_CMP1];
 1724              		.loc 1 431 39
 1725 0038 019B     		ldr	r3, [sp, #4]
 1726 003a 1B8B     		ldrh	r3, [r3, #24]
 1727 003c 37E0     		b	.L92
 1728              	.L90:
 432:C:/StellarStudio-7.0/SDKS/StellarESDK-1.7.0/Modules/Drivers/Timers/HRTIM/src\hrtim.c ****             case HRTIM_CMP2:
 433:C:/StellarStudio-7.0/SDKS/StellarESDK-1.7.0/Modules/Drivers/Timers/HRTIM/src\hrtim.c ****                 return hdp->master_cmp[HRTIM_CMP2];
 1729              		.loc 1 433 39
 1730 003e 019B     		ldr	r3, [sp, #4]
 1731 0040 5B8B     		ldrh	r3, [r3, #26]
 1732 0042 34E0     		b	.L92
 1733              	.L89:
 434:C:/StellarStudio-7.0/SDKS/StellarESDK-1.7.0/Modules/Drivers/Timers/HRTIM/src\hrtim.c ****             case HRTIM_CMP3:
 435:C:/StellarStudio-7.0/SDKS/StellarESDK-1.7.0/Modules/Drivers/Timers/HRTIM/src\hrtim.c ****                 return hdp->master_cmp[HRTIM_CMP3];
 1734              		.loc 1 435 39
 1735 0044 019B     		ldr	r3, [sp, #4]
 1736 0046 9B8B     		ldrh	r3, [r3, #28]
 1737 0048 31E0     		b	.L92
 1738              	.L87:
 436:C:/StellarStudio-7.0/SDKS/StellarESDK-1.7.0/Modules/Drivers/Timers/HRTIM/src\hrtim.c ****             case HRTIM_CMP4:
 437:C:/StellarStudio-7.0/SDKS/StellarESDK-1.7.0/Modules/Drivers/Timers/HRTIM/src\hrtim.c ****                 return hdp->master_cmp[HRTIM_CMP4];
 1739              		.loc 1 437 39
 1740 004a 019B     		ldr	r3, [sp, #4]
 1741 004c DB8B     		ldrh	r3, [r3, #30]
 1742 004e 2EE0     		b	.L92
 1743              	.L86:
 438:C:/StellarStudio-7.0/SDKS/StellarESDK-1.7.0/Modules/Drivers/Timers/HRTIM/src\hrtim.c ****             default:
 439:C:/StellarStudio-7.0/SDKS/StellarESDK-1.7.0/Modules/Drivers/Timers/HRTIM/src\hrtim.c ****                 /* for MISRA compliance */
 440:C:/StellarStudio-7.0/SDKS/StellarESDK-1.7.0/Modules/Drivers/Timers/HRTIM/src\hrtim.c ****                 return 0U;
 1744              		.loc 1 440 24
 1745 0050 0023     		movs	r3, #0
 1746 0052 2CE0     		b	.L92
 1747              	.L85:
 441:C:/StellarStudio-7.0/SDKS/StellarESDK-1.7.0/Modules/Drivers/Timers/HRTIM/src\hrtim.c ****         }
 442:C:/StellarStudio-7.0/SDKS/StellarESDK-1.7.0/Modules/Drivers/Timers/HRTIM/src\hrtim.c ****     } else {
 443:C:/StellarStudio-7.0/SDKS/StellarESDK-1.7.0/Modules/Drivers/Timers/HRTIM/src\hrtim.c ****         switch (comparator) {
 1748              		.loc 1 443 9
 1749 0054 9DF80230 		ldrb	r3, [sp, #2]	@ zero_extendqisi2
 1750 0058 032B     		cmp	r3, #3
 1751 005a 27D8     		bhi	.L93
 1752 005c 01A2     		adr	r2, .L95
 1753 005e 52F823F0 		ldr	pc, [r2, r3, lsl #2]
 1754 0062 00BF     		.p2align 2
 1755              	.L95:
 1756 0064 75000000 		.word	.L98+1
 1757 0068 83000000 		.word	.L97+1
 1758 006c 91000000 		.word	.L96+1
 1759 0070 9F000000 		.word	.L94+1
 1760              		.p2align 1
 1761              	.L98:
 444:C:/StellarStudio-7.0/SDKS/StellarESDK-1.7.0/Modules/Drivers/Timers/HRTIM/src\hrtim.c ****             case HRTIM_CMP1:
 445:C:/StellarStudio-7.0/SDKS/StellarESDK-1.7.0/Modules/Drivers/Timers/HRTIM/src\hrtim.c ****                 return hdp->timer_cmp[timer][HRTIM_CMP1];
 1762              		.loc 1 445 45
 1763 0074 9DF80320 		ldrb	r2, [sp, #3]	@ zero_extendqisi2
 1764 0078 019B     		ldr	r3, [sp, #4]
 1765 007a 0732     		adds	r2, r2, #7
 1766 007c 33F83230 		ldrh	r3, [r3, r2, lsl #3]
 1767 0080 15E0     		b	.L92
 1768              	.L97:
 446:C:/StellarStudio-7.0/SDKS/StellarESDK-1.7.0/Modules/Drivers/Timers/HRTIM/src\hrtim.c ****             case HRTIM_CMP2:
 447:C:/StellarStudio-7.0/SDKS/StellarESDK-1.7.0/Modules/Drivers/Timers/HRTIM/src\hrtim.c ****                 return hdp->timer_cmp[timer][HRTIM_CMP2];
 1769              		.loc 1 447 45
 1770 0082 9DF80330 		ldrb	r3, [sp, #3]	@ zero_extendqisi2
 1771 0086 019A     		ldr	r2, [sp, #4]
 1772 0088 DB00     		lsls	r3, r3, #3
 1773 008a 1344     		add	r3, r3, r2
 1774 008c 5B8F     		ldrh	r3, [r3, #58]
 1775 008e 0EE0     		b	.L92
 1776              	.L96:
 448:C:/StellarStudio-7.0/SDKS/StellarESDK-1.7.0/Modules/Drivers/Timers/HRTIM/src\hrtim.c ****             case HRTIM_CMP3:
 449:C:/StellarStudio-7.0/SDKS/StellarESDK-1.7.0/Modules/Drivers/Timers/HRTIM/src\hrtim.c ****                 return hdp->timer_cmp[timer][HRTIM_CMP3];
 1777              		.loc 1 449 45
 1778 0090 9DF80330 		ldrb	r3, [sp, #3]	@ zero_extendqisi2
 1779 0094 019A     		ldr	r2, [sp, #4]
 1780 0096 DB00     		lsls	r3, r3, #3
 1781 0098 1344     		add	r3, r3, r2
 1782 009a 9B8F     		ldrh	r3, [r3, #60]
 1783 009c 07E0     		b	.L92
 1784              	.L94:
 450:C:/StellarStudio-7.0/SDKS/StellarESDK-1.7.0/Modules/Drivers/Timers/HRTIM/src\hrtim.c ****             case HRTIM_CMP4:
 451:C:/StellarStudio-7.0/SDKS/StellarESDK-1.7.0/Modules/Drivers/Timers/HRTIM/src\hrtim.c ****                 return hdp->timer_cmp[timer][HRTIM_CMP4];
 1785              		.loc 1 451 45
 1786 009e 9DF80330 		ldrb	r3, [sp, #3]	@ zero_extendqisi2
 1787 00a2 019A     		ldr	r2, [sp, #4]
 1788 00a4 DB00     		lsls	r3, r3, #3
 1789 00a6 1344     		add	r3, r3, r2
 1790 00a8 DB8F     		ldrh	r3, [r3, #62]
 1791 00aa 00E0     		b	.L92
 1792              	.L93:
 452:C:/StellarStudio-7.0/SDKS/StellarESDK-1.7.0/Modules/Drivers/Timers/HRTIM/src\hrtim.c ****             default:
 453:C:/StellarStudio-7.0/SDKS/StellarESDK-1.7.0/Modules/Drivers/Timers/HRTIM/src\hrtim.c ****                 /* for MISRA compliance */
 454:C:/StellarStudio-7.0/SDKS/StellarESDK-1.7.0/Modules/Drivers/Timers/HRTIM/src\hrtim.c ****                 return 0U;
 1793              		.loc 1 454 24
 1794 00ac 0023     		movs	r3, #0
 1795              	.L92:
 455:C:/StellarStudio-7.0/SDKS/StellarESDK-1.7.0/Modules/Drivers/Timers/HRTIM/src\hrtim.c ****         }
 456:C:/StellarStudio-7.0/SDKS/StellarESDK-1.7.0/Modules/Drivers/Timers/HRTIM/src\hrtim.c ****     }
 457:C:/StellarStudio-7.0/SDKS/StellarESDK-1.7.0/Modules/Drivers/Timers/HRTIM/src\hrtim.c **** }
 1796              		.loc 1 457 1
 1797 00ae 1846     		mov	r0, r3
 1798 00b0 02B0     		add	sp, sp, #8
 1799              		.cfi_def_cfa_offset 0
 1800              		@ sp needed
 1801 00b2 7047     		bx	lr
 1802              		.cfi_endproc
 1803              	.LFE163:
 1805              		.section	.text.hrtim_timer_set_autodelay,"ax",%progbits
 1806              		.align	1
 1807              		.p2align 4,,15
 1808              		.global	hrtim_timer_set_autodelay
 1809              		.syntax unified
 1810              		.thumb
 1811              		.thumb_func
 1813              	hrtim_timer_set_autodelay:
 1814              	.LFB164:
 458:C:/StellarStudio-7.0/SDKS/StellarESDK-1.7.0/Modules/Drivers/Timers/HRTIM/src\hrtim.c **** 
 459:C:/StellarStudio-7.0/SDKS/StellarESDK-1.7.0/Modules/Drivers/Timers/HRTIM/src\hrtim.c **** void hrtim_timer_set_autodelay(hrtim_driver_t *hdp,
 460:C:/StellarStudio-7.0/SDKS/StellarESDK-1.7.0/Modules/Drivers/Timers/HRTIM/src\hrtim.c ****                                hrtim_timer_t timer,
 461:C:/StellarStudio-7.0/SDKS/StellarESDK-1.7.0/Modules/Drivers/Timers/HRTIM/src\hrtim.c ****                                hrtim_cmp_t comparator,
 462:C:/StellarStudio-7.0/SDKS/StellarESDK-1.7.0/Modules/Drivers/Timers/HRTIM/src\hrtim.c ****                                hrtim_cmp_ad_mode_t mode) { 
 1815              		.loc 1 462 58
 1816              		.cfi_startproc
 1817              		@ args = 0, pretend = 0, frame = 8
 1818              		@ frame_needed = 0, uses_anonymous_args = 0
 1819              		@ link register save eliminated.
 1820 0000 82B0     		sub	sp, sp, #8
 1821              		.cfi_def_cfa_offset 8
 1822 0002 0190     		str	r0, [sp, #4]
 1823 0004 0846     		mov	r0, r1
 1824 0006 1146     		mov	r1, r2
 1825 0008 1A46     		mov	r2, r3
 1826 000a 0346     		mov	r3, r0
 1827 000c 8DF80330 		strb	r3, [sp, #3]
 1828 0010 0B46     		mov	r3, r1
 1829 0012 8DF80230 		strb	r3, [sp, #2]
 1830 0016 1346     		mov	r3, r2
 1831 0018 8DF80130 		strb	r3, [sp, #1]
 463:C:/StellarStudio-7.0/SDKS/StellarESDK-1.7.0/Modules/Drivers/Timers/HRTIM/src\hrtim.c **** 
 464:C:/StellarStudio-7.0/SDKS/StellarESDK-1.7.0/Modules/Drivers/Timers/HRTIM/src\hrtim.c ****     if (timer != HRTIM_TIMER_MASTER) {
 1832              		.loc 1 464 8
 1833 001c 9DF80330 		ldrb	r3, [sp, #3]	@ zero_extendqisi2
 1834 0020 062B     		cmp	r3, #6
 1835 0022 3DD0     		beq	.L108
 465:C:/StellarStudio-7.0/SDKS/StellarESDK-1.7.0/Modules/Drivers/Timers/HRTIM/src\hrtim.c ****         switch (comparator) {
 1836              		.loc 1 465 9
 1837 0024 9DF80230 		ldrb	r3, [sp, #2]	@ zero_extendqisi2
 1838 0028 012B     		cmp	r3, #1
 1839 002a 02D0     		beq	.L101
 1840 002c 032B     		cmp	r3, #3
 1841 002e 0AD0     		beq	.L102
 466:C:/StellarStudio-7.0/SDKS/StellarESDK-1.7.0/Modules/Drivers/Timers/HRTIM/src\hrtim.c ****             case HRTIM_CMP2:
 467:C:/StellarStudio-7.0/SDKS/StellarESDK-1.7.0/Modules/Drivers/Timers/HRTIM/src\hrtim.c ****                 hdp->timer_cmp_ad_mode[timer][HRTIM_CMP2] = mode;
 468:C:/StellarStudio-7.0/SDKS/StellarESDK-1.7.0/Modules/Drivers/Timers/HRTIM/src\hrtim.c ****                 break;
 469:C:/StellarStudio-7.0/SDKS/StellarESDK-1.7.0/Modules/Drivers/Timers/HRTIM/src\hrtim.c ****             case HRTIM_CMP4:
 470:C:/StellarStudio-7.0/SDKS/StellarESDK-1.7.0/Modules/Drivers/Timers/HRTIM/src\hrtim.c ****                 hdp->timer_cmp_ad_mode[timer][HRTIM_CMP4] = mode;
 471:C:/StellarStudio-7.0/SDKS/StellarESDK-1.7.0/Modules/Drivers/Timers/HRTIM/src\hrtim.c ****                 break;
 472:C:/StellarStudio-7.0/SDKS/StellarESDK-1.7.0/Modules/Drivers/Timers/HRTIM/src\hrtim.c ****             case HRTIM_CMP1:
 473:C:/StellarStudio-7.0/SDKS/StellarESDK-1.7.0/Modules/Drivers/Timers/HRTIM/src\hrtim.c ****             case HRTIM_CMP3:
 474:C:/StellarStudio-7.0/SDKS/StellarESDK-1.7.0/Modules/Drivers/Timers/HRTIM/src\hrtim.c ****             default:
 475:C:/StellarStudio-7.0/SDKS/StellarESDK-1.7.0/Modules/Drivers/Timers/HRTIM/src\hrtim.c ****                 /* for MISRA compliance */
 476:C:/StellarStudio-7.0/SDKS/StellarESDK-1.7.0/Modules/Drivers/Timers/HRTIM/src\hrtim.c ****                 break;
 1842              		.loc 1 476 17
 1843 0030 13E0     		b	.L104
 1844              	.L101:
 467:C:/StellarStudio-7.0/SDKS/StellarESDK-1.7.0/Modules/Drivers/Timers/HRTIM/src\hrtim.c ****                 break;
 1845              		.loc 1 467 46
 1846 0032 9DF80330 		ldrb	r3, [sp, #3]	@ zero_extendqisi2
 467:C:/StellarStudio-7.0/SDKS/StellarESDK-1.7.0/Modules/Drivers/Timers/HRTIM/src\hrtim.c ****                 break;
 1847              		.loc 1 467 59
 1848 0036 019A     		ldr	r2, [sp, #4]
 1849 0038 9B00     		lsls	r3, r3, #2
 1850 003a 1344     		add	r3, r3, r2
 1851 003c 9DF80120 		ldrb	r2, [sp, #1]
 1852 0040 83F86920 		strb	r2, [r3, #105]
 468:C:/StellarStudio-7.0/SDKS/StellarESDK-1.7.0/Modules/Drivers/Timers/HRTIM/src\hrtim.c ****             case HRTIM_CMP4:
 1853              		.loc 1 468 17
 1854 0044 09E0     		b	.L104
 1855              	.L102:
 470:C:/StellarStudio-7.0/SDKS/StellarESDK-1.7.0/Modules/Drivers/Timers/HRTIM/src\hrtim.c ****                 break;
 1856              		.loc 1 470 46
 1857 0046 9DF80330 		ldrb	r3, [sp, #3]	@ zero_extendqisi2
 470:C:/StellarStudio-7.0/SDKS/StellarESDK-1.7.0/Modules/Drivers/Timers/HRTIM/src\hrtim.c ****                 break;
 1858              		.loc 1 470 59
 1859 004a 019A     		ldr	r2, [sp, #4]
 1860 004c 9B00     		lsls	r3, r3, #2
 1861 004e 1344     		add	r3, r3, r2
 1862 0050 9DF80120 		ldrb	r2, [sp, #1]
 1863 0054 83F86B20 		strb	r2, [r3, #107]
 471:C:/StellarStudio-7.0/SDKS/StellarESDK-1.7.0/Modules/Drivers/Timers/HRTIM/src\hrtim.c ****             case HRTIM_CMP1:
 1864              		.loc 1 471 17
 1865 0058 00BF     		nop
 1866              	.L104:
 477:C:/StellarStudio-7.0/SDKS/StellarESDK-1.7.0/Modules/Drivers/Timers/HRTIM/src\hrtim.c ****         }
 478:C:/StellarStudio-7.0/SDKS/StellarESDK-1.7.0/Modules/Drivers/Timers/HRTIM/src\hrtim.c **** 
 479:C:/StellarStudio-7.0/SDKS/StellarESDK-1.7.0/Modules/Drivers/Timers/HRTIM/src\hrtim.c ****         /* Update on-fly.*/
 480:C:/StellarStudio-7.0/SDKS/StellarESDK-1.7.0/Modules/Drivers/Timers/HRTIM/src\hrtim.c ****         if (hdp->is_enable == true) {
 1867              		.loc 1 480 16
 1868 005a 019B     		ldr	r3, [sp, #4]
 1869 005c 1B79     		ldrb	r3, [r3, #4]	@ zero_extendqisi2
 1870              		.loc 1 480 12
 1871 005e 002B     		cmp	r3, #0
 1872 0060 1ED0     		beq	.L108
 481:C:/StellarStudio-7.0/SDKS/StellarESDK-1.7.0/Modules/Drivers/Timers/HRTIM/src\hrtim.c ****             switch (comparator) {
 1873              		.loc 1 481 13
 1874 0062 9DF80230 		ldrb	r3, [sp, #2]	@ zero_extendqisi2
 1875 0066 012B     		cmp	r3, #1
 1876 0068 02D0     		beq	.L105
 1877 006a 032B     		cmp	r3, #3
 1878 006c 0CD0     		beq	.L106
 482:C:/StellarStudio-7.0/SDKS/StellarESDK-1.7.0/Modules/Drivers/Timers/HRTIM/src\hrtim.c ****                 case HRTIM_CMP2:
 483:C:/StellarStudio-7.0/SDKS/StellarESDK-1.7.0/Modules/Drivers/Timers/HRTIM/src\hrtim.c ****                     hdp->hrtim->sTimerxRegs[timer].TIMxCR = ((uint32_t)mode) << HRTIM_TIMxCR_DELCMP
 484:C:/StellarStudio-7.0/SDKS/StellarESDK-1.7.0/Modules/Drivers/Timers/HRTIM/src\hrtim.c ****                     break;
 485:C:/StellarStudio-7.0/SDKS/StellarESDK-1.7.0/Modules/Drivers/Timers/HRTIM/src\hrtim.c ****                 case HRTIM_CMP4:
 486:C:/StellarStudio-7.0/SDKS/StellarESDK-1.7.0/Modules/Drivers/Timers/HRTIM/src\hrtim.c ****                     hdp->hrtim->sTimerxRegs[timer].TIMxCR = ((uint32_t)mode) << HRTIM_TIMxCR_DELCMP
 487:C:/StellarStudio-7.0/SDKS/StellarESDK-1.7.0/Modules/Drivers/Timers/HRTIM/src\hrtim.c ****                     break;
 488:C:/StellarStudio-7.0/SDKS/StellarESDK-1.7.0/Modules/Drivers/Timers/HRTIM/src\hrtim.c ****                 case HRTIM_CMP1:
 489:C:/StellarStudio-7.0/SDKS/StellarESDK-1.7.0/Modules/Drivers/Timers/HRTIM/src\hrtim.c ****                 case HRTIM_CMP3:
 490:C:/StellarStudio-7.0/SDKS/StellarESDK-1.7.0/Modules/Drivers/Timers/HRTIM/src\hrtim.c ****                 default:
 491:C:/StellarStudio-7.0/SDKS/StellarESDK-1.7.0/Modules/Drivers/Timers/HRTIM/src\hrtim.c ****                     /* for MISRA compliance */
 492:C:/StellarStudio-7.0/SDKS/StellarESDK-1.7.0/Modules/Drivers/Timers/HRTIM/src\hrtim.c ****                     break;
 1879              		.loc 1 492 21
 1880 006e 18E0     		b	.L100
 1881              	.L105:
 483:C:/StellarStudio-7.0/SDKS/StellarESDK-1.7.0/Modules/Drivers/Timers/HRTIM/src\hrtim.c ****                     break;
 1882              		.loc 1 483 62
 1883 0070 9DF80120 		ldrb	r2, [sp, #1]	@ zero_extendqisi2
 483:C:/StellarStudio-7.0/SDKS/StellarESDK-1.7.0/Modules/Drivers/Timers/HRTIM/src\hrtim.c ****                     break;
 1884              		.loc 1 483 24
 1885 0074 019B     		ldr	r3, [sp, #4]
 1886 0076 1968     		ldr	r1, [r3]
 483:C:/StellarStudio-7.0/SDKS/StellarESDK-1.7.0/Modules/Drivers/Timers/HRTIM/src\hrtim.c ****                     break;
 1887              		.loc 1 483 51
 1888 0078 9DF80330 		ldrb	r3, [sp, #3]	@ zero_extendqisi2
 483:C:/StellarStudio-7.0/SDKS/StellarESDK-1.7.0/Modules/Drivers/Timers/HRTIM/src\hrtim.c ****                     break;
 1889              		.loc 1 483 78
 1890 007c 1203     		lsls	r2, r2, #12
 483:C:/StellarStudio-7.0/SDKS/StellarESDK-1.7.0/Modules/Drivers/Timers/HRTIM/src\hrtim.c ****                     break;
 1891              		.loc 1 483 59
 1892 007e 0133     		adds	r3, r3, #1
 1893 0080 DB01     		lsls	r3, r3, #7
 1894 0082 0B44     		add	r3, r3, r1
 1895 0084 1A60     		str	r2, [r3]
 484:C:/StellarStudio-7.0/SDKS/StellarESDK-1.7.0/Modules/Drivers/Timers/HRTIM/src\hrtim.c ****                 case HRTIM_CMP4:
 1896              		.loc 1 484 21
 1897 0086 0CE0     		b	.L100
 1898              	.L106:
 486:C:/StellarStudio-7.0/SDKS/StellarESDK-1.7.0/Modules/Drivers/Timers/HRTIM/src\hrtim.c ****                     break;
 1899              		.loc 1 486 62
 1900 0088 9DF80120 		ldrb	r2, [sp, #1]	@ zero_extendqisi2
 486:C:/StellarStudio-7.0/SDKS/StellarESDK-1.7.0/Modules/Drivers/Timers/HRTIM/src\hrtim.c ****                     break;
 1901              		.loc 1 486 24
 1902 008c 019B     		ldr	r3, [sp, #4]
 1903 008e 1968     		ldr	r1, [r3]
 486:C:/StellarStudio-7.0/SDKS/StellarESDK-1.7.0/Modules/Drivers/Timers/HRTIM/src\hrtim.c ****                     break;
 1904              		.loc 1 486 51
 1905 0090 9DF80330 		ldrb	r3, [sp, #3]	@ zero_extendqisi2
 486:C:/StellarStudio-7.0/SDKS/StellarESDK-1.7.0/Modules/Drivers/Timers/HRTIM/src\hrtim.c ****                     break;
 1906              		.loc 1 486 78
 1907 0094 9203     		lsls	r2, r2, #14
 486:C:/StellarStudio-7.0/SDKS/StellarESDK-1.7.0/Modules/Drivers/Timers/HRTIM/src\hrtim.c ****                     break;
 1908              		.loc 1 486 59
 1909 0096 0133     		adds	r3, r3, #1
 1910 0098 DB01     		lsls	r3, r3, #7
 1911 009a 0B44     		add	r3, r3, r1
 1912 009c 1A60     		str	r2, [r3]
 487:C:/StellarStudio-7.0/SDKS/StellarESDK-1.7.0/Modules/Drivers/Timers/HRTIM/src\hrtim.c ****                 case HRTIM_CMP1:
 1913              		.loc 1 487 21
 1914 009e 00E0     		b	.L100
 1915              	.L108:
 493:C:/StellarStudio-7.0/SDKS/StellarESDK-1.7.0/Modules/Drivers/Timers/HRTIM/src\hrtim.c ****             }
 494:C:/StellarStudio-7.0/SDKS/StellarESDK-1.7.0/Modules/Drivers/Timers/HRTIM/src\hrtim.c ****         }
 1916              		.loc 1 494 9
 1917 00a0 00BF     		nop
 1918              	.L100:
 495:C:/StellarStudio-7.0/SDKS/StellarESDK-1.7.0/Modules/Drivers/Timers/HRTIM/src\hrtim.c ****     }
 496:C:/StellarStudio-7.0/SDKS/StellarESDK-1.7.0/Modules/Drivers/Timers/HRTIM/src\hrtim.c **** }
 1919              		.loc 1 496 1
 1920 00a2 00BF     		nop
 1921 00a4 02B0     		add	sp, sp, #8
 1922              		.cfi_def_cfa_offset 0
 1923              		@ sp needed
 1924 00a6 7047     		bx	lr
 1925              		.cfi_endproc
 1926              	.LFE164:
 1928              		.section	.text.hrtim_timer_set_deadtime,"ax",%progbits
 1929              		.align	1
 1930              		.p2align 4,,15
 1931              		.global	hrtim_timer_set_deadtime
 1932              		.syntax unified
 1933              		.thumb
 1934              		.thumb_func
 1936              	hrtim_timer_set_deadtime:
 1937              	.LFB165:
 497:C:/StellarStudio-7.0/SDKS/StellarESDK-1.7.0/Modules/Drivers/Timers/HRTIM/src\hrtim.c **** 
 498:C:/StellarStudio-7.0/SDKS/StellarESDK-1.7.0/Modules/Drivers/Timers/HRTIM/src\hrtim.c **** void hrtim_timer_set_deadtime(hrtim_driver_t *hdp, hrtim_timer_t timer,
 499:C:/StellarStudio-7.0/SDKS/StellarESDK-1.7.0/Modules/Drivers/Timers/HRTIM/src\hrtim.c ****                               hrtim_dt_prsc_t prescaler,
 500:C:/StellarStudio-7.0/SDKS/StellarESDK-1.7.0/Modules/Drivers/Timers/HRTIM/src\hrtim.c ****                               uint16_t rvalue, hrtim_dt_sign_t rsign,
 501:C:/StellarStudio-7.0/SDKS/StellarESDK-1.7.0/Modules/Drivers/Timers/HRTIM/src\hrtim.c ****                               uint16_t fvalue, hrtim_dt_sign_t fsign) {
 1938              		.loc 1 501 71
 1939              		.cfi_startproc
 1940              		@ args = 12, pretend = 0, frame = 8
 1941              		@ frame_needed = 0, uses_anonymous_args = 0
 1942              		@ link register save eliminated.
 1943 0000 82B0     		sub	sp, sp, #8
 1944              		.cfi_def_cfa_offset 8
 1945 0002 0190     		str	r0, [sp, #4]
 1946 0004 0846     		mov	r0, r1
 1947 0006 1146     		mov	r1, r2
 1948 0008 1A46     		mov	r2, r3
 1949 000a 0346     		mov	r3, r0
 1950 000c 8DF80330 		strb	r3, [sp, #3]
 1951 0010 0B46     		mov	r3, r1
 1952 0012 8DF80230 		strb	r3, [sp, #2]
 1953 0016 1346     		mov	r3, r2	@ movhi
 1954 0018 ADF80030 		strh	r3, [sp]	@ movhi
 502:C:/StellarStudio-7.0/SDKS/StellarESDK-1.7.0/Modules/Drivers/Timers/HRTIM/src\hrtim.c **** 
 503:C:/StellarStudio-7.0/SDKS/StellarESDK-1.7.0/Modules/Drivers/Timers/HRTIM/src\hrtim.c ****     hdp->deadtime[timer].prescaler = prescaler;
 1955              		.loc 1 503 25
 1956 001c 9DF80320 		ldrb	r2, [sp, #3]	@ zero_extendqisi2
 1957              		.loc 1 503 36
 1958 0020 0199     		ldr	r1, [sp, #4]
 1959 0022 1346     		mov	r3, r2
 1960 0024 9B00     		lsls	r3, r3, #2
 1961 0026 1344     		add	r3, r3, r2
 1962 0028 5B00     		lsls	r3, r3, #1
 1963 002a 0B44     		add	r3, r3, r1
 1964 002c 8133     		adds	r3, r3, #129
 1965 002e 9DF80220 		ldrb	r2, [sp, #2]
 1966 0032 1A70     		strb	r2, [r3]
 504:C:/StellarStudio-7.0/SDKS/StellarESDK-1.7.0/Modules/Drivers/Timers/HRTIM/src\hrtim.c ****     hdp->deadtime[timer].rvalue    = rvalue;
 1967              		.loc 1 504 25
 1968 0034 9DF80320 		ldrb	r2, [sp, #3]	@ zero_extendqisi2
 1969              		.loc 1 504 36
 1970 0038 0199     		ldr	r1, [sp, #4]
 1971 003a 1346     		mov	r3, r2
 1972 003c 9B00     		lsls	r3, r3, #2
 1973 003e 1344     		add	r3, r3, r2
 1974 0040 5B00     		lsls	r3, r3, #1
 1975 0042 0B44     		add	r3, r3, r1
 1976 0044 8233     		adds	r3, r3, #130
 1977 0046 BDF80020 		ldrh	r2, [sp]	@ movhi
 1978 004a 1A80     		strh	r2, [r3]	@ movhi
 505:C:/StellarStudio-7.0/SDKS/StellarESDK-1.7.0/Modules/Drivers/Timers/HRTIM/src\hrtim.c ****     hdp->deadtime[timer].rsign     = rsign;
 1979              		.loc 1 505 25
 1980 004c 9DF80320 		ldrb	r2, [sp, #3]	@ zero_extendqisi2
 1981              		.loc 1 505 36
 1982 0050 0199     		ldr	r1, [sp, #4]
 1983 0052 1346     		mov	r3, r2
 1984 0054 9B00     		lsls	r3, r3, #2
 1985 0056 1344     		add	r3, r3, r2
 1986 0058 5B00     		lsls	r3, r3, #1
 1987 005a 0B44     		add	r3, r3, r1
 1988 005c 8433     		adds	r3, r3, #132
 1989 005e 9DF80820 		ldrb	r2, [sp, #8]
 1990 0062 1A70     		strb	r2, [r3]
 506:C:/StellarStudio-7.0/SDKS/StellarESDK-1.7.0/Modules/Drivers/Timers/HRTIM/src\hrtim.c ****     hdp->deadtime[timer].fvalue    = fvalue;
 1991              		.loc 1 506 25
 1992 0064 9DF80320 		ldrb	r2, [sp, #3]	@ zero_extendqisi2
 1993              		.loc 1 506 36
 1994 0068 0199     		ldr	r1, [sp, #4]
 1995 006a 1346     		mov	r3, r2
 1996 006c 9B00     		lsls	r3, r3, #2
 1997 006e 1344     		add	r3, r3, r2
 1998 0070 5B00     		lsls	r3, r3, #1
 1999 0072 0B44     		add	r3, r3, r1
 2000 0074 8633     		adds	r3, r3, #134
 2001 0076 BDF80C20 		ldrh	r2, [sp, #12]	@ movhi
 2002 007a 1A80     		strh	r2, [r3]	@ movhi
 507:C:/StellarStudio-7.0/SDKS/StellarESDK-1.7.0/Modules/Drivers/Timers/HRTIM/src\hrtim.c ****     hdp->deadtime[timer].fsign     = fsign;
 2003              		.loc 1 507 25
 2004 007c 9DF80320 		ldrb	r2, [sp, #3]	@ zero_extendqisi2
 2005              		.loc 1 507 36
 2006 0080 0199     		ldr	r1, [sp, #4]
 2007 0082 1346     		mov	r3, r2
 2008 0084 9B00     		lsls	r3, r3, #2
 2009 0086 1344     		add	r3, r3, r2
 2010 0088 5B00     		lsls	r3, r3, #1
 2011 008a 0B44     		add	r3, r3, r1
 2012 008c 8833     		adds	r3, r3, #136
 2013 008e 9DF81020 		ldrb	r2, [sp, #16]
 2014 0092 1A70     		strb	r2, [r3]
 508:C:/StellarStudio-7.0/SDKS/StellarESDK-1.7.0/Modules/Drivers/Timers/HRTIM/src\hrtim.c **** 
 509:C:/StellarStudio-7.0/SDKS/StellarESDK-1.7.0/Modules/Drivers/Timers/HRTIM/src\hrtim.c ****     /* Update on-fly.*/
 510:C:/StellarStudio-7.0/SDKS/StellarESDK-1.7.0/Modules/Drivers/Timers/HRTIM/src\hrtim.c ****     if (hdp->is_enable == true) {
 2015              		.loc 1 510 12
 2016 0094 019B     		ldr	r3, [sp, #4]
 2017 0096 1B79     		ldrb	r3, [r3, #4]	@ zero_extendqisi2
 2018              		.loc 1 510 8
 2019 0098 002B     		cmp	r3, #0
 2020 009a 23D0     		beq	.L111
 511:C:/StellarStudio-7.0/SDKS/StellarESDK-1.7.0/Modules/Drivers/Timers/HRTIM/src\hrtim.c ****         hdp->hrtim->sTimerxRegs[timer].DTxR = 0U;
 2021              		.loc 1 511 12
 2022 009c 019B     		ldr	r3, [sp, #4]
 2023 009e 1A68     		ldr	r2, [r3]
 2024              		.loc 1 511 39
 2025 00a0 9DF80330 		ldrb	r3, [sp, #3]	@ zero_extendqisi2
 2026              		.loc 1 511 45
 2027 00a4 DB01     		lsls	r3, r3, #7
 2028 00a6 1344     		add	r3, r3, r2
 2029 00a8 B833     		adds	r3, r3, #184
 2030 00aa 0022     		movs	r2, #0
 2031 00ac 1A60     		str	r2, [r3]
 512:C:/StellarStudio-7.0/SDKS/StellarESDK-1.7.0/Modules/Drivers/Timers/HRTIM/src\hrtim.c ****         hdp->hrtim->sTimerxRegs[timer].DTxR = (((uint32_t)rvalue)    << HRTIM_DTxR_DTRx_Pos)   |
 2032              		.loc 1 512 70
 2033 00ae BDF80020 		ldrh	r2, [sp]
 513:C:/StellarStudio-7.0/SDKS/StellarESDK-1.7.0/Modules/Drivers/Timers/HRTIM/src\hrtim.c ****                                               (((uint32_t)rsign)     << HRTIM_DTxR_SDTRx_Pos)  |
 2034              		.loc 1 513 49
 2035 00b2 9DF80830 		ldrb	r3, [sp, #8]	@ zero_extendqisi2
 2036              		.loc 1 513 70
 2037 00b6 5B02     		lsls	r3, r3, #9
 512:C:/StellarStudio-7.0/SDKS/StellarESDK-1.7.0/Modules/Drivers/Timers/HRTIM/src\hrtim.c ****         hdp->hrtim->sTimerxRegs[timer].DTxR = (((uint32_t)rvalue)    << HRTIM_DTxR_DTRx_Pos)   |
 2038              		.loc 1 512 96
 2039 00b8 1A43     		orrs	r2, r2, r3
 514:C:/StellarStudio-7.0/SDKS/StellarESDK-1.7.0/Modules/Drivers/Timers/HRTIM/src\hrtim.c ****                                               (((uint32_t)prescaler) << HRTIM_DTxR_DTPRSC_Pos) | 
 2040              		.loc 1 514 49
 2041 00ba 9DF80230 		ldrb	r3, [sp, #2]	@ zero_extendqisi2
 2042              		.loc 1 514 70
 2043 00be 9B02     		lsls	r3, r3, #10
 513:C:/StellarStudio-7.0/SDKS/StellarESDK-1.7.0/Modules/Drivers/Timers/HRTIM/src\hrtim.c ****                                               (((uint32_t)rsign)     << HRTIM_DTxR_SDTRx_Pos)  |
 2044              		.loc 1 513 96
 2045 00c0 1A43     		orrs	r2, r2, r3
 515:C:/StellarStudio-7.0/SDKS/StellarESDK-1.7.0/Modules/Drivers/Timers/HRTIM/src\hrtim.c ****                                               (((uint32_t)fvalue)    << HRTIM_DTxR_DTFx_Pos)   |
 2046              		.loc 1 515 49
 2047 00c2 BDF80C30 		ldrh	r3, [sp, #12]
 2048              		.loc 1 515 70
 2049 00c6 1B04     		lsls	r3, r3, #16
 514:C:/StellarStudio-7.0/SDKS/StellarESDK-1.7.0/Modules/Drivers/Timers/HRTIM/src\hrtim.c ****                                               (((uint32_t)prescaler) << HRTIM_DTxR_DTPRSC_Pos) | 
 2050              		.loc 1 514 96
 2051 00c8 42EA0300 		orr	r0, r2, r3
 516:C:/StellarStudio-7.0/SDKS/StellarESDK-1.7.0/Modules/Drivers/Timers/HRTIM/src\hrtim.c ****                                               (((uint32_t)fsign)     << HRTIM_DTxR_SDTFx_Pos);
 2052              		.loc 1 516 49
 2053 00cc 9DF81030 		ldrb	r3, [sp, #16]	@ zero_extendqisi2
 2054              		.loc 1 516 70
 2055 00d0 5A06     		lsls	r2, r3, #25
 512:C:/StellarStudio-7.0/SDKS/StellarESDK-1.7.0/Modules/Drivers/Timers/HRTIM/src\hrtim.c ****                                               (((uint32_t)rsign)     << HRTIM_DTxR_SDTRx_Pos)  |
 2056              		.loc 1 512 12
 2057 00d2 019B     		ldr	r3, [sp, #4]
 2058 00d4 1968     		ldr	r1, [r3]
 512:C:/StellarStudio-7.0/SDKS/StellarESDK-1.7.0/Modules/Drivers/Timers/HRTIM/src\hrtim.c ****                                               (((uint32_t)rsign)     << HRTIM_DTxR_SDTRx_Pos)  |
 2059              		.loc 1 512 39
 2060 00d6 9DF80330 		ldrb	r3, [sp, #3]	@ zero_extendqisi2
 515:C:/StellarStudio-7.0/SDKS/StellarESDK-1.7.0/Modules/Drivers/Timers/HRTIM/src\hrtim.c ****                                               (((uint32_t)fvalue)    << HRTIM_DTxR_DTFx_Pos)   |
 2061              		.loc 1 515 96
 2062 00da 0243     		orrs	r2, r2, r0
 512:C:/StellarStudio-7.0/SDKS/StellarESDK-1.7.0/Modules/Drivers/Timers/HRTIM/src\hrtim.c ****                                               (((uint32_t)rsign)     << HRTIM_DTxR_SDTRx_Pos)  |
 2063              		.loc 1 512 45
 2064 00dc DB01     		lsls	r3, r3, #7
 2065 00de 0B44     		add	r3, r3, r1
 2066 00e0 B833     		adds	r3, r3, #184
 2067 00e2 1A60     		str	r2, [r3]
 2068              	.L111:
 517:C:/StellarStudio-7.0/SDKS/StellarESDK-1.7.0/Modules/Drivers/Timers/HRTIM/src\hrtim.c ****     }
 518:C:/StellarStudio-7.0/SDKS/StellarESDK-1.7.0/Modules/Drivers/Timers/HRTIM/src\hrtim.c **** }
 2069              		.loc 1 518 1
 2070 00e4 00BF     		nop
 2071 00e6 02B0     		add	sp, sp, #8
 2072              		.cfi_def_cfa_offset 0
 2073              		@ sp needed
 2074 00e8 7047     		bx	lr
 2075              		.cfi_endproc
 2076              	.LFE165:
 2078 00ea 00BF     		.section	.text.hrtim_timer_enable_deadtime,"ax",%progbits
 2079              		.align	1
 2080              		.p2align 4,,15
 2081              		.global	hrtim_timer_enable_deadtime
 2082              		.syntax unified
 2083              		.thumb
 2084              		.thumb_func
 2086              	hrtim_timer_enable_deadtime:
 2087              	.LFB166:
 519:C:/StellarStudio-7.0/SDKS/StellarESDK-1.7.0/Modules/Drivers/Timers/HRTIM/src\hrtim.c **** 
 520:C:/StellarStudio-7.0/SDKS/StellarESDK-1.7.0/Modules/Drivers/Timers/HRTIM/src\hrtim.c **** void hrtim_timer_enable_deadtime(hrtim_driver_t *hdp, hrtim_timer_t timer) {
 2088              		.loc 1 520 76
 2089              		.cfi_startproc
 2090              		@ args = 0, pretend = 0, frame = 8
 2091              		@ frame_needed = 0, uses_anonymous_args = 0
 2092              		@ link register save eliminated.
 2093 0000 82B0     		sub	sp, sp, #8
 2094              		.cfi_def_cfa_offset 8
 2095 0002 0190     		str	r0, [sp, #4]
 2096 0004 0B46     		mov	r3, r1
 2097 0006 8DF80330 		strb	r3, [sp, #3]
 521:C:/StellarStudio-7.0/SDKS/StellarESDK-1.7.0/Modules/Drivers/Timers/HRTIM/src\hrtim.c **** 
 522:C:/StellarStudio-7.0/SDKS/StellarESDK-1.7.0/Modules/Drivers/Timers/HRTIM/src\hrtim.c ****     hdp->deadtime[timer].enable = true;
 2098              		.loc 1 522 25
 2099 000a 9DF80320 		ldrb	r2, [sp, #3]	@ zero_extendqisi2
 2100              		.loc 1 522 33
 2101 000e 0199     		ldr	r1, [sp, #4]
 2102 0010 1346     		mov	r3, r2
 2103 0012 9B00     		lsls	r3, r3, #2
 2104 0014 1344     		add	r3, r3, r2
 2105 0016 5B00     		lsls	r3, r3, #1
 2106 0018 0B44     		add	r3, r3, r1
 2107 001a 8033     		adds	r3, r3, #128
 2108 001c 0122     		movs	r2, #1
 2109 001e 1A70     		strb	r2, [r3]
 523:C:/StellarStudio-7.0/SDKS/StellarESDK-1.7.0/Modules/Drivers/Timers/HRTIM/src\hrtim.c ****     if (hdp->is_enable == true) {
 2110              		.loc 1 523 12
 2111 0020 019B     		ldr	r3, [sp, #4]
 2112 0022 1B79     		ldrb	r3, [r3, #4]	@ zero_extendqisi2
 2113              		.loc 1 523 8
 2114 0024 002B     		cmp	r3, #0
 2115 0026 09D0     		beq	.L114
 524:C:/StellarStudio-7.0/SDKS/StellarESDK-1.7.0/Modules/Drivers/Timers/HRTIM/src\hrtim.c ****         hdp->hrtim->sTimerxRegs[timer].OUTxR = (1UL << HRTIM_OUTxR_DTEN_Pos);
 2116              		.loc 1 524 12
 2117 0028 019B     		ldr	r3, [sp, #4]
 2118 002a 1A68     		ldr	r2, [r3]
 2119              		.loc 1 524 39
 2120 002c 9DF80330 		ldrb	r3, [sp, #3]	@ zero_extendqisi2
 2121              		.loc 1 524 46
 2122 0030 DB01     		lsls	r3, r3, #7
 2123 0032 1344     		add	r3, r3, r2
 2124 0034 E433     		adds	r3, r3, #228
 2125 0036 4FF48072 		mov	r2, #256
 2126 003a 1A60     		str	r2, [r3]
 2127              	.L114:
 525:C:/StellarStudio-7.0/SDKS/StellarESDK-1.7.0/Modules/Drivers/Timers/HRTIM/src\hrtim.c ****     }
 526:C:/StellarStudio-7.0/SDKS/StellarESDK-1.7.0/Modules/Drivers/Timers/HRTIM/src\hrtim.c **** }
 2128              		.loc 1 526 1
 2129 003c 00BF     		nop
 2130 003e 02B0     		add	sp, sp, #8
 2131              		.cfi_def_cfa_offset 0
 2132              		@ sp needed
 2133 0040 7047     		bx	lr
 2134              		.cfi_endproc
 2135              	.LFE166:
 2137 0042 00BF     		.section	.text.hrtim_timer_disable_deadtime,"ax",%progbits
 2138              		.align	1
 2139              		.p2align 4,,15
 2140              		.global	hrtim_timer_disable_deadtime
 2141              		.syntax unified
 2142              		.thumb
 2143              		.thumb_func
 2145              	hrtim_timer_disable_deadtime:
 2146              	.LFB167:
 527:C:/StellarStudio-7.0/SDKS/StellarESDK-1.7.0/Modules/Drivers/Timers/HRTIM/src\hrtim.c **** 
 528:C:/StellarStudio-7.0/SDKS/StellarESDK-1.7.0/Modules/Drivers/Timers/HRTIM/src\hrtim.c **** void hrtim_timer_disable_deadtime(hrtim_driver_t *hdp, hrtim_timer_t timer) {
 2147              		.loc 1 528 77
 2148              		.cfi_startproc
 2149              		@ args = 0, pretend = 0, frame = 8
 2150              		@ frame_needed = 0, uses_anonymous_args = 0
 2151              		@ link register save eliminated.
 2152 0000 82B0     		sub	sp, sp, #8
 2153              		.cfi_def_cfa_offset 8
 2154 0002 0190     		str	r0, [sp, #4]
 2155 0004 0B46     		mov	r3, r1
 2156 0006 8DF80330 		strb	r3, [sp, #3]
 529:C:/StellarStudio-7.0/SDKS/StellarESDK-1.7.0/Modules/Drivers/Timers/HRTIM/src\hrtim.c **** 
 530:C:/StellarStudio-7.0/SDKS/StellarESDK-1.7.0/Modules/Drivers/Timers/HRTIM/src\hrtim.c ****     hdp->deadtime[timer].enable = false;
 2157              		.loc 1 530 25
 2158 000a 9DF80320 		ldrb	r2, [sp, #3]	@ zero_extendqisi2
 2159              		.loc 1 530 33
 2160 000e 0199     		ldr	r1, [sp, #4]
 2161 0010 1346     		mov	r3, r2
 2162 0012 9B00     		lsls	r3, r3, #2
 2163 0014 1344     		add	r3, r3, r2
 2164 0016 5B00     		lsls	r3, r3, #1
 2165 0018 0B44     		add	r3, r3, r1
 2166 001a 8033     		adds	r3, r3, #128
 2167 001c 0022     		movs	r2, #0
 2168 001e 1A70     		strb	r2, [r3]
 531:C:/StellarStudio-7.0/SDKS/StellarESDK-1.7.0/Modules/Drivers/Timers/HRTIM/src\hrtim.c ****     if (hdp->is_enable == true) {
 2169              		.loc 1 531 12
 2170 0020 019B     		ldr	r3, [sp, #4]
 2171 0022 1B79     		ldrb	r3, [r3, #4]	@ zero_extendqisi2
 2172              		.loc 1 531 8
 2173 0024 002B     		cmp	r3, #0
 2174 0026 08D0     		beq	.L117
 532:C:/StellarStudio-7.0/SDKS/StellarESDK-1.7.0/Modules/Drivers/Timers/HRTIM/src\hrtim.c ****         hdp->hrtim->sTimerxRegs[timer].OUTxR = 0U;
 2175              		.loc 1 532 12
 2176 0028 019B     		ldr	r3, [sp, #4]
 2177 002a 1A68     		ldr	r2, [r3]
 2178              		.loc 1 532 39
 2179 002c 9DF80330 		ldrb	r3, [sp, #3]	@ zero_extendqisi2
 2180              		.loc 1 532 46
 2181 0030 DB01     		lsls	r3, r3, #7
 2182 0032 1344     		add	r3, r3, r2
 2183 0034 E433     		adds	r3, r3, #228
 2184 0036 0022     		movs	r2, #0
 2185 0038 1A60     		str	r2, [r3]
 2186              	.L117:
 533:C:/StellarStudio-7.0/SDKS/StellarESDK-1.7.0/Modules/Drivers/Timers/HRTIM/src\hrtim.c ****     }
 534:C:/StellarStudio-7.0/SDKS/StellarESDK-1.7.0/Modules/Drivers/Timers/HRTIM/src\hrtim.c **** }
 2187              		.loc 1 534 1
 2188 003a 00BF     		nop
 2189 003c 02B0     		add	sp, sp, #8
 2190              		.cfi_def_cfa_offset 0
 2191              		@ sp needed
 2192 003e 7047     		bx	lr
 2193              		.cfi_endproc
 2194              	.LFE167:
 2196              		.section	.text.hrtim_timer_set_outputset,"ax",%progbits
 2197              		.align	1
 2198              		.p2align 4,,15
 2199              		.global	hrtim_timer_set_outputset
 2200              		.syntax unified
 2201              		.thumb
 2202              		.thumb_func
 2204              	hrtim_timer_set_outputset:
 2205              	.LFB168:
 535:C:/StellarStudio-7.0/SDKS/StellarESDK-1.7.0/Modules/Drivers/Timers/HRTIM/src\hrtim.c **** 
 536:C:/StellarStudio-7.0/SDKS/StellarESDK-1.7.0/Modules/Drivers/Timers/HRTIM/src\hrtim.c **** uint32_t hrtim_timer_set_outputset(hrtim_driver_t *hdp,
 537:C:/StellarStudio-7.0/SDKS/StellarESDK-1.7.0/Modules/Drivers/Timers/HRTIM/src\hrtim.c ****                                    hrtim_timer_t timer,
 538:C:/StellarStudio-7.0/SDKS/StellarESDK-1.7.0/Modules/Drivers/Timers/HRTIM/src\hrtim.c ****                                    hrtim_out_t output,
 539:C:/StellarStudio-7.0/SDKS/StellarESDK-1.7.0/Modules/Drivers/Timers/HRTIM/src\hrtim.c ****                                    uint32_t event) {
 2206              		.loc 1 539 52
 2207              		.cfi_startproc
 2208              		@ args = 0, pretend = 0, frame = 24
 2209              		@ frame_needed = 0, uses_anonymous_args = 0
 2210              		@ link register save eliminated.
 2211 0000 86B0     		sub	sp, sp, #24
 2212              		.cfi_def_cfa_offset 24
 2213 0002 0390     		str	r0, [sp, #12]
 2214 0004 0193     		str	r3, [sp, #4]
 2215 0006 0B46     		mov	r3, r1
 2216 0008 8DF80B30 		strb	r3, [sp, #11]
 2217 000c 1346     		mov	r3, r2
 2218 000e 8DF80A30 		strb	r3, [sp, #10]
 540:C:/StellarStudio-7.0/SDKS/StellarESDK-1.7.0/Modules/Drivers/Timers/HRTIM/src\hrtim.c **** 
 541:C:/StellarStudio-7.0/SDKS/StellarESDK-1.7.0/Modules/Drivers/Timers/HRTIM/src\hrtim.c ****     uint32_t prev_event = hdp->set_event[timer][output];
 2219              		.loc 1 541 48
 2220 0012 9DF80B10 		ldrb	r1, [sp, #11]	@ zero_extendqisi2
 2221 0016 9DF80A30 		ldrb	r3, [sp, #10]	@ zero_extendqisi2
 2222              		.loc 1 541 14
 2223 001a 039A     		ldr	r2, [sp, #12]
 2224 001c 4900     		lsls	r1, r1, #1
 2225 001e 0B44     		add	r3, r3, r1
 2226 0020 2E33     		adds	r3, r3, #46
 2227 0022 9B00     		lsls	r3, r3, #2
 2228 0024 1344     		add	r3, r3, r2
 2229 0026 5B68     		ldr	r3, [r3, #4]
 2230 0028 0593     		str	r3, [sp, #20]
 542:C:/StellarStudio-7.0/SDKS/StellarESDK-1.7.0/Modules/Drivers/Timers/HRTIM/src\hrtim.c **** 
 543:C:/StellarStudio-7.0/SDKS/StellarESDK-1.7.0/Modules/Drivers/Timers/HRTIM/src\hrtim.c ****     if (output == HRTIM_TIMER_OUTPUT_1) {
 2231              		.loc 1 543 8
 2232 002a 9DF80A30 		ldrb	r3, [sp, #10]	@ zero_extendqisi2
 2233 002e 002B     		cmp	r3, #0
 2234 0030 0BD1     		bne	.L119
 544:C:/StellarStudio-7.0/SDKS/StellarESDK-1.7.0/Modules/Drivers/Timers/HRTIM/src\hrtim.c ****         hdp->set_event[timer][output] = event;
 2235              		.loc 1 544 30
 2236 0032 9DF80B10 		ldrb	r1, [sp, #11]	@ zero_extendqisi2
 2237 0036 9DF80A30 		ldrb	r3, [sp, #10]	@ zero_extendqisi2
 2238              		.loc 1 544 39
 2239 003a 039A     		ldr	r2, [sp, #12]
 2240 003c 4900     		lsls	r1, r1, #1
 2241 003e 0B44     		add	r3, r3, r1
 2242 0040 2E33     		adds	r3, r3, #46
 2243 0042 9B00     		lsls	r3, r3, #2
 2244 0044 1344     		add	r3, r3, r2
 2245 0046 019A     		ldr	r2, [sp, #4]
 2246 0048 5A60     		str	r2, [r3, #4]
 2247              	.L119:
 545:C:/StellarStudio-7.0/SDKS/StellarESDK-1.7.0/Modules/Drivers/Timers/HRTIM/src\hrtim.c ****     }
 546:C:/StellarStudio-7.0/SDKS/StellarESDK-1.7.0/Modules/Drivers/Timers/HRTIM/src\hrtim.c **** 
 547:C:/StellarStudio-7.0/SDKS/StellarESDK-1.7.0/Modules/Drivers/Timers/HRTIM/src\hrtim.c ****     if (output == HRTIM_TIMER_OUTPUT_2 && hdp->deadtime[timer].enable == false) {
 2248              		.loc 1 547 8
 2249 004a 9DF80A30 		ldrb	r3, [sp, #10]	@ zero_extendqisi2
 2250 004e 012B     		cmp	r3, #1
 2251 0050 1AD1     		bne	.L120
 2252              		.loc 1 547 63 discriminator 1
 2253 0052 9DF80B20 		ldrb	r2, [sp, #11]	@ zero_extendqisi2
 2254 0056 0399     		ldr	r1, [sp, #12]
 2255 0058 1346     		mov	r3, r2
 2256 005a 9B00     		lsls	r3, r3, #2
 2257 005c 1344     		add	r3, r3, r2
 2258 005e 5B00     		lsls	r3, r3, #1
 2259 0060 0B44     		add	r3, r3, r1
 2260 0062 8033     		adds	r3, r3, #128
 2261 0064 1B78     		ldrb	r3, [r3]	@ zero_extendqisi2
 2262              		.loc 1 547 71 discriminator 1
 2263 0066 83F00103 		eor	r3, r3, #1
 2264 006a DBB2     		uxtb	r3, r3
 2265              		.loc 1 547 40 discriminator 1
 2266 006c 002B     		cmp	r3, #0
 2267 006e 0BD0     		beq	.L120
 548:C:/StellarStudio-7.0/SDKS/StellarESDK-1.7.0/Modules/Drivers/Timers/HRTIM/src\hrtim.c ****         hdp->set_event[timer][output] = event;
 2268              		.loc 1 548 30
 2269 0070 9DF80B10 		ldrb	r1, [sp, #11]	@ zero_extendqisi2
 2270 0074 9DF80A30 		ldrb	r3, [sp, #10]	@ zero_extendqisi2
 2271              		.loc 1 548 39
 2272 0078 039A     		ldr	r2, [sp, #12]
 2273 007a 4900     		lsls	r1, r1, #1
 2274 007c 0B44     		add	r3, r3, r1
 2275 007e 2E33     		adds	r3, r3, #46
 2276 0080 9B00     		lsls	r3, r3, #2
 2277 0082 1344     		add	r3, r3, r2
 2278 0084 019A     		ldr	r2, [sp, #4]
 2279 0086 5A60     		str	r2, [r3, #4]
 2280              	.L120:
 549:C:/StellarStudio-7.0/SDKS/StellarESDK-1.7.0/Modules/Drivers/Timers/HRTIM/src\hrtim.c ****     }
 550:C:/StellarStudio-7.0/SDKS/StellarESDK-1.7.0/Modules/Drivers/Timers/HRTIM/src\hrtim.c **** 
 551:C:/StellarStudio-7.0/SDKS/StellarESDK-1.7.0/Modules/Drivers/Timers/HRTIM/src\hrtim.c ****     /* Update on-fly.*/
 552:C:/StellarStudio-7.0/SDKS/StellarESDK-1.7.0/Modules/Drivers/Timers/HRTIM/src\hrtim.c ****     if (hdp->is_enable == true) {
 2281              		.loc 1 552 12
 2282 0088 039B     		ldr	r3, [sp, #12]
 2283 008a 1B79     		ldrb	r3, [r3, #4]	@ zero_extendqisi2
 2284              		.loc 1 552 8
 2285 008c 002B     		cmp	r3, #0
 2286 008e 28D0     		beq	.L121
 553:C:/StellarStudio-7.0/SDKS/StellarESDK-1.7.0/Modules/Drivers/Timers/HRTIM/src\hrtim.c ****         if (output == HRTIM_TIMER_OUTPUT_1) {
 2287              		.loc 1 553 12
 2288 0090 9DF80A30 		ldrb	r3, [sp, #10]	@ zero_extendqisi2
 2289 0094 002B     		cmp	r3, #0
 2290 0096 08D1     		bne	.L122
 554:C:/StellarStudio-7.0/SDKS/StellarESDK-1.7.0/Modules/Drivers/Timers/HRTIM/src\hrtim.c ****             hdp->hrtim->sTimerxRegs[timer].SETx1R = event;
 2291              		.loc 1 554 16
 2292 0098 039B     		ldr	r3, [sp, #12]
 2293 009a 1A68     		ldr	r2, [r3]
 2294              		.loc 1 554 43
 2295 009c 9DF80B30 		ldrb	r3, [sp, #11]	@ zero_extendqisi2
 2296              		.loc 1 554 51
 2297 00a0 DB01     		lsls	r3, r3, #7
 2298 00a2 1344     		add	r3, r3, r2
 2299 00a4 BC33     		adds	r3, r3, #188
 2300 00a6 019A     		ldr	r2, [sp, #4]
 2301 00a8 1A60     		str	r2, [r3]
 2302              	.L122:
 555:C:/StellarStudio-7.0/SDKS/StellarESDK-1.7.0/Modules/Drivers/Timers/HRTIM/src\hrtim.c ****         }
 556:C:/StellarStudio-7.0/SDKS/StellarESDK-1.7.0/Modules/Drivers/Timers/HRTIM/src\hrtim.c **** 
 557:C:/StellarStudio-7.0/SDKS/StellarESDK-1.7.0/Modules/Drivers/Timers/HRTIM/src\hrtim.c ****         if (output == HRTIM_TIMER_OUTPUT_2 && hdp->deadtime[timer].enable == false) {
 2303              		.loc 1 557 12
 2304 00aa 9DF80A30 		ldrb	r3, [sp, #10]	@ zero_extendqisi2
 2305 00ae 012B     		cmp	r3, #1
 2306 00b0 17D1     		bne	.L121
 2307              		.loc 1 557 67 discriminator 1
 2308 00b2 9DF80B20 		ldrb	r2, [sp, #11]	@ zero_extendqisi2
 2309 00b6 0399     		ldr	r1, [sp, #12]
 2310 00b8 1346     		mov	r3, r2
 2311 00ba 9B00     		lsls	r3, r3, #2
 2312 00bc 1344     		add	r3, r3, r2
 2313 00be 5B00     		lsls	r3, r3, #1
 2314 00c0 0B44     		add	r3, r3, r1
 2315 00c2 8033     		adds	r3, r3, #128
 2316 00c4 1B78     		ldrb	r3, [r3]	@ zero_extendqisi2
 2317              		.loc 1 557 75 discriminator 1
 2318 00c6 83F00103 		eor	r3, r3, #1
 2319 00ca DBB2     		uxtb	r3, r3
 2320              		.loc 1 557 44 discriminator 1
 2321 00cc 002B     		cmp	r3, #0
 2322 00ce 08D0     		beq	.L121
 558:C:/StellarStudio-7.0/SDKS/StellarESDK-1.7.0/Modules/Drivers/Timers/HRTIM/src\hrtim.c ****             hdp->hrtim->sTimerxRegs[timer].SETx2R = event;
 2323              		.loc 1 558 16
 2324 00d0 039B     		ldr	r3, [sp, #12]
 2325 00d2 1A68     		ldr	r2, [r3]
 2326              		.loc 1 558 43
 2327 00d4 9DF80B30 		ldrb	r3, [sp, #11]	@ zero_extendqisi2
 2328              		.loc 1 558 51
 2329 00d8 DB01     		lsls	r3, r3, #7
 2330 00da 1344     		add	r3, r3, r2
 2331 00dc C433     		adds	r3, r3, #196
 2332 00de 019A     		ldr	r2, [sp, #4]
 2333 00e0 1A60     		str	r2, [r3]
 2334              	.L121:
 559:C:/StellarStudio-7.0/SDKS/StellarESDK-1.7.0/Modules/Drivers/Timers/HRTIM/src\hrtim.c ****         }
 560:C:/StellarStudio-7.0/SDKS/StellarESDK-1.7.0/Modules/Drivers/Timers/HRTIM/src\hrtim.c ****     }
 561:C:/StellarStudio-7.0/SDKS/StellarESDK-1.7.0/Modules/Drivers/Timers/HRTIM/src\hrtim.c ****  
 562:C:/StellarStudio-7.0/SDKS/StellarESDK-1.7.0/Modules/Drivers/Timers/HRTIM/src\hrtim.c ****     return prev_event;
 2335              		.loc 1 562 12
 2336 00e2 059B     		ldr	r3, [sp, #20]
 563:C:/StellarStudio-7.0/SDKS/StellarESDK-1.7.0/Modules/Drivers/Timers/HRTIM/src\hrtim.c **** } 
 2337              		.loc 1 563 1
 2338 00e4 1846     		mov	r0, r3
 2339 00e6 06B0     		add	sp, sp, #24
 2340              		.cfi_def_cfa_offset 0
 2341              		@ sp needed
 2342 00e8 7047     		bx	lr
 2343              		.cfi_endproc
 2344              	.LFE168:
 2346              		.section	.text.hrtim_timer_set_outputrst,"ax",%progbits
 2347              		.align	1
 2348              		.p2align 4,,15
 2349              		.global	hrtim_timer_set_outputrst
 2350              		.syntax unified
 2351              		.thumb
 2352              		.thumb_func
 2354              	hrtim_timer_set_outputrst:
 2355              	.LFB169:
 564:C:/StellarStudio-7.0/SDKS/StellarESDK-1.7.0/Modules/Drivers/Timers/HRTIM/src\hrtim.c **** 
 565:C:/StellarStudio-7.0/SDKS/StellarESDK-1.7.0/Modules/Drivers/Timers/HRTIM/src\hrtim.c **** uint32_t hrtim_timer_set_outputrst(hrtim_driver_t *hdp,
 566:C:/StellarStudio-7.0/SDKS/StellarESDK-1.7.0/Modules/Drivers/Timers/HRTIM/src\hrtim.c ****                                    hrtim_timer_t timer,
 567:C:/StellarStudio-7.0/SDKS/StellarESDK-1.7.0/Modules/Drivers/Timers/HRTIM/src\hrtim.c ****                                    hrtim_out_t output,
 568:C:/StellarStudio-7.0/SDKS/StellarESDK-1.7.0/Modules/Drivers/Timers/HRTIM/src\hrtim.c ****                                    uint32_t event) {
 2356              		.loc 1 568 52
 2357              		.cfi_startproc
 2358              		@ args = 0, pretend = 0, frame = 24
 2359              		@ frame_needed = 0, uses_anonymous_args = 0
 2360              		@ link register save eliminated.
 2361 0000 86B0     		sub	sp, sp, #24
 2362              		.cfi_def_cfa_offset 24
 2363 0002 0390     		str	r0, [sp, #12]
 2364 0004 0193     		str	r3, [sp, #4]
 2365 0006 0B46     		mov	r3, r1
 2366 0008 8DF80B30 		strb	r3, [sp, #11]
 2367 000c 1346     		mov	r3, r2
 2368 000e 8DF80A30 		strb	r3, [sp, #10]
 569:C:/StellarStudio-7.0/SDKS/StellarESDK-1.7.0/Modules/Drivers/Timers/HRTIM/src\hrtim.c **** 
 570:C:/StellarStudio-7.0/SDKS/StellarESDK-1.7.0/Modules/Drivers/Timers/HRTIM/src\hrtim.c ****     uint32_t prev_event = hdp->rst_event[timer][output];
 2369              		.loc 1 570 48
 2370 0012 9DF80B10 		ldrb	r1, [sp, #11]	@ zero_extendqisi2
 2371 0016 9DF80A30 		ldrb	r3, [sp, #10]	@ zero_extendqisi2
 2372              		.loc 1 570 14
 2373 001a 039A     		ldr	r2, [sp, #12]
 2374 001c 4900     		lsls	r1, r1, #1
 2375 001e 0B44     		add	r3, r3, r1
 2376 0020 6E33     		adds	r3, r3, #110
 2377 0022 9B00     		lsls	r3, r3, #2
 2378 0024 1344     		add	r3, r3, r2
 2379 0026 5B68     		ldr	r3, [r3, #4]
 2380 0028 0593     		str	r3, [sp, #20]
 571:C:/StellarStudio-7.0/SDKS/StellarESDK-1.7.0/Modules/Drivers/Timers/HRTIM/src\hrtim.c **** 
 572:C:/StellarStudio-7.0/SDKS/StellarESDK-1.7.0/Modules/Drivers/Timers/HRTIM/src\hrtim.c ****     if(output == HRTIM_TIMER_OUTPUT_1) {
 2381              		.loc 1 572 7
 2382 002a 9DF80A30 		ldrb	r3, [sp, #10]	@ zero_extendqisi2
 2383 002e 002B     		cmp	r3, #0
 2384 0030 0BD1     		bne	.L125
 573:C:/StellarStudio-7.0/SDKS/StellarESDK-1.7.0/Modules/Drivers/Timers/HRTIM/src\hrtim.c ****         hdp->rst_event[timer][output] = event;
 2385              		.loc 1 573 30
 2386 0032 9DF80B10 		ldrb	r1, [sp, #11]	@ zero_extendqisi2
 2387 0036 9DF80A30 		ldrb	r3, [sp, #10]	@ zero_extendqisi2
 2388              		.loc 1 573 39
 2389 003a 039A     		ldr	r2, [sp, #12]
 2390 003c 4900     		lsls	r1, r1, #1
 2391 003e 0B44     		add	r3, r3, r1
 2392 0040 6E33     		adds	r3, r3, #110
 2393 0042 9B00     		lsls	r3, r3, #2
 2394 0044 1344     		add	r3, r3, r2
 2395 0046 019A     		ldr	r2, [sp, #4]
 2396 0048 5A60     		str	r2, [r3, #4]
 2397              	.L125:
 574:C:/StellarStudio-7.0/SDKS/StellarESDK-1.7.0/Modules/Drivers/Timers/HRTIM/src\hrtim.c ****     }
 575:C:/StellarStudio-7.0/SDKS/StellarESDK-1.7.0/Modules/Drivers/Timers/HRTIM/src\hrtim.c **** 
 576:C:/StellarStudio-7.0/SDKS/StellarESDK-1.7.0/Modules/Drivers/Timers/HRTIM/src\hrtim.c ****     if (output == HRTIM_TIMER_OUTPUT_2 && hdp->deadtime[timer].enable == false) {
 2398              		.loc 1 576 8
 2399 004a 9DF80A30 		ldrb	r3, [sp, #10]	@ zero_extendqisi2
 2400 004e 012B     		cmp	r3, #1
 2401 0050 1AD1     		bne	.L126
 2402              		.loc 1 576 63 discriminator 1
 2403 0052 9DF80B20 		ldrb	r2, [sp, #11]	@ zero_extendqisi2
 2404 0056 0399     		ldr	r1, [sp, #12]
 2405 0058 1346     		mov	r3, r2
 2406 005a 9B00     		lsls	r3, r3, #2
 2407 005c 1344     		add	r3, r3, r2
 2408 005e 5B00     		lsls	r3, r3, #1
 2409 0060 0B44     		add	r3, r3, r1
 2410 0062 8033     		adds	r3, r3, #128
 2411 0064 1B78     		ldrb	r3, [r3]	@ zero_extendqisi2
 2412              		.loc 1 576 71 discriminator 1
 2413 0066 83F00103 		eor	r3, r3, #1
 2414 006a DBB2     		uxtb	r3, r3
 2415              		.loc 1 576 40 discriminator 1
 2416 006c 002B     		cmp	r3, #0
 2417 006e 0BD0     		beq	.L126
 577:C:/StellarStudio-7.0/SDKS/StellarESDK-1.7.0/Modules/Drivers/Timers/HRTIM/src\hrtim.c ****         hdp->rst_event[timer][output] = event;
 2418              		.loc 1 577 30
 2419 0070 9DF80B10 		ldrb	r1, [sp, #11]	@ zero_extendqisi2
 2420 0074 9DF80A30 		ldrb	r3, [sp, #10]	@ zero_extendqisi2
 2421              		.loc 1 577 39
 2422 0078 039A     		ldr	r2, [sp, #12]
 2423 007a 4900     		lsls	r1, r1, #1
 2424 007c 0B44     		add	r3, r3, r1
 2425 007e 6E33     		adds	r3, r3, #110
 2426 0080 9B00     		lsls	r3, r3, #2
 2427 0082 1344     		add	r3, r3, r2
 2428 0084 019A     		ldr	r2, [sp, #4]
 2429 0086 5A60     		str	r2, [r3, #4]
 2430              	.L126:
 578:C:/StellarStudio-7.0/SDKS/StellarESDK-1.7.0/Modules/Drivers/Timers/HRTIM/src\hrtim.c ****     }
 579:C:/StellarStudio-7.0/SDKS/StellarESDK-1.7.0/Modules/Drivers/Timers/HRTIM/src\hrtim.c **** 
 580:C:/StellarStudio-7.0/SDKS/StellarESDK-1.7.0/Modules/Drivers/Timers/HRTIM/src\hrtim.c ****     /* Update on-fly.*/
 581:C:/StellarStudio-7.0/SDKS/StellarESDK-1.7.0/Modules/Drivers/Timers/HRTIM/src\hrtim.c ****     if (hdp->is_enable == true) {
 2431              		.loc 1 581 12
 2432 0088 039B     		ldr	r3, [sp, #12]
 2433 008a 1B79     		ldrb	r3, [r3, #4]	@ zero_extendqisi2
 2434              		.loc 1 581 8
 2435 008c 002B     		cmp	r3, #0
 2436 008e 28D0     		beq	.L127
 582:C:/StellarStudio-7.0/SDKS/StellarESDK-1.7.0/Modules/Drivers/Timers/HRTIM/src\hrtim.c ****         if (output == HRTIM_TIMER_OUTPUT_1) {
 2437              		.loc 1 582 12
 2438 0090 9DF80A30 		ldrb	r3, [sp, #10]	@ zero_extendqisi2
 2439 0094 002B     		cmp	r3, #0
 2440 0096 08D1     		bne	.L128
 583:C:/StellarStudio-7.0/SDKS/StellarESDK-1.7.0/Modules/Drivers/Timers/HRTIM/src\hrtim.c ****             hdp->hrtim->sTimerxRegs[timer].RSTx1R = event;
 2441              		.loc 1 583 16
 2442 0098 039B     		ldr	r3, [sp, #12]
 2443 009a 1A68     		ldr	r2, [r3]
 2444              		.loc 1 583 43
 2445 009c 9DF80B30 		ldrb	r3, [sp, #11]	@ zero_extendqisi2
 2446              		.loc 1 583 51
 2447 00a0 DB01     		lsls	r3, r3, #7
 2448 00a2 1344     		add	r3, r3, r2
 2449 00a4 C033     		adds	r3, r3, #192
 2450 00a6 019A     		ldr	r2, [sp, #4]
 2451 00a8 1A60     		str	r2, [r3]
 2452              	.L128:
 584:C:/StellarStudio-7.0/SDKS/StellarESDK-1.7.0/Modules/Drivers/Timers/HRTIM/src\hrtim.c ****         }
 585:C:/StellarStudio-7.0/SDKS/StellarESDK-1.7.0/Modules/Drivers/Timers/HRTIM/src\hrtim.c **** 
 586:C:/StellarStudio-7.0/SDKS/StellarESDK-1.7.0/Modules/Drivers/Timers/HRTIM/src\hrtim.c ****         if (output == HRTIM_TIMER_OUTPUT_2 && hdp->deadtime[timer].enable == false) {
 2453              		.loc 1 586 12
 2454 00aa 9DF80A30 		ldrb	r3, [sp, #10]	@ zero_extendqisi2
 2455 00ae 012B     		cmp	r3, #1
 2456 00b0 17D1     		bne	.L127
 2457              		.loc 1 586 67 discriminator 1
 2458 00b2 9DF80B20 		ldrb	r2, [sp, #11]	@ zero_extendqisi2
 2459 00b6 0399     		ldr	r1, [sp, #12]
 2460 00b8 1346     		mov	r3, r2
 2461 00ba 9B00     		lsls	r3, r3, #2
 2462 00bc 1344     		add	r3, r3, r2
 2463 00be 5B00     		lsls	r3, r3, #1
 2464 00c0 0B44     		add	r3, r3, r1
 2465 00c2 8033     		adds	r3, r3, #128
 2466 00c4 1B78     		ldrb	r3, [r3]	@ zero_extendqisi2
 2467              		.loc 1 586 75 discriminator 1
 2468 00c6 83F00103 		eor	r3, r3, #1
 2469 00ca DBB2     		uxtb	r3, r3
 2470              		.loc 1 586 44 discriminator 1
 2471 00cc 002B     		cmp	r3, #0
 2472 00ce 08D0     		beq	.L127
 587:C:/StellarStudio-7.0/SDKS/StellarESDK-1.7.0/Modules/Drivers/Timers/HRTIM/src\hrtim.c ****             hdp->hrtim->sTimerxRegs[timer].RSTx2R = event;
 2473              		.loc 1 587 16
 2474 00d0 039B     		ldr	r3, [sp, #12]
 2475 00d2 1A68     		ldr	r2, [r3]
 2476              		.loc 1 587 43
 2477 00d4 9DF80B30 		ldrb	r3, [sp, #11]	@ zero_extendqisi2
 2478              		.loc 1 587 51
 2479 00d8 DB01     		lsls	r3, r3, #7
 2480 00da 1344     		add	r3, r3, r2
 2481 00dc C833     		adds	r3, r3, #200
 2482 00de 019A     		ldr	r2, [sp, #4]
 2483 00e0 1A60     		str	r2, [r3]
 2484              	.L127:
 588:C:/StellarStudio-7.0/SDKS/StellarESDK-1.7.0/Modules/Drivers/Timers/HRTIM/src\hrtim.c ****         }
 589:C:/StellarStudio-7.0/SDKS/StellarESDK-1.7.0/Modules/Drivers/Timers/HRTIM/src\hrtim.c ****     }
 590:C:/StellarStudio-7.0/SDKS/StellarESDK-1.7.0/Modules/Drivers/Timers/HRTIM/src\hrtim.c ****     
 591:C:/StellarStudio-7.0/SDKS/StellarESDK-1.7.0/Modules/Drivers/Timers/HRTIM/src\hrtim.c ****     return prev_event;
 2485              		.loc 1 591 12
 2486 00e2 059B     		ldr	r3, [sp, #20]
 592:C:/StellarStudio-7.0/SDKS/StellarESDK-1.7.0/Modules/Drivers/Timers/HRTIM/src\hrtim.c **** }
 2487              		.loc 1 592 1
 2488 00e4 1846     		mov	r0, r3
 2489 00e6 06B0     		add	sp, sp, #24
 2490              		.cfi_def_cfa_offset 0
 2491              		@ sp needed
 2492 00e8 7047     		bx	lr
 2493              		.cfi_endproc
 2494              	.LFE169:
 2496              		.section	.text.hrtim_timer_clear_outputset,"ax",%progbits
 2497              		.align	1
 2498              		.p2align 4,,15
 2499              		.global	hrtim_timer_clear_outputset
 2500              		.syntax unified
 2501              		.thumb
 2502              		.thumb_func
 2504              	hrtim_timer_clear_outputset:
 2505              	.LFB170:
 593:C:/StellarStudio-7.0/SDKS/StellarESDK-1.7.0/Modules/Drivers/Timers/HRTIM/src\hrtim.c **** 
 594:C:/StellarStudio-7.0/SDKS/StellarESDK-1.7.0/Modules/Drivers/Timers/HRTIM/src\hrtim.c **** uint32_t hrtim_timer_clear_outputset(hrtim_driver_t *hdp,
 595:C:/StellarStudio-7.0/SDKS/StellarESDK-1.7.0/Modules/Drivers/Timers/HRTIM/src\hrtim.c ****                                      hrtim_timer_t timer,
 596:C:/StellarStudio-7.0/SDKS/StellarESDK-1.7.0/Modules/Drivers/Timers/HRTIM/src\hrtim.c ****                                      hrtim_out_t output,
 597:C:/StellarStudio-7.0/SDKS/StellarESDK-1.7.0/Modules/Drivers/Timers/HRTIM/src\hrtim.c ****                                      uint32_t event) {
 2506              		.loc 1 597 54
 2507              		.cfi_startproc
 2508              		@ args = 0, pretend = 0, frame = 24
 2509              		@ frame_needed = 0, uses_anonymous_args = 0
 2510              		@ link register save eliminated.
 2511 0000 86B0     		sub	sp, sp, #24
 2512              		.cfi_def_cfa_offset 24
 2513 0002 0390     		str	r0, [sp, #12]
 2514 0004 0193     		str	r3, [sp, #4]
 2515 0006 0B46     		mov	r3, r1
 2516 0008 8DF80B30 		strb	r3, [sp, #11]
 2517 000c 1346     		mov	r3, r2
 2518 000e 8DF80A30 		strb	r3, [sp, #10]
 598:C:/StellarStudio-7.0/SDKS/StellarESDK-1.7.0/Modules/Drivers/Timers/HRTIM/src\hrtim.c **** 
 599:C:/StellarStudio-7.0/SDKS/StellarESDK-1.7.0/Modules/Drivers/Timers/HRTIM/src\hrtim.c ****     uint32_t prev_event = hdp->set_event[timer][output];
 2519              		.loc 1 599 48
 2520 0012 9DF80B10 		ldrb	r1, [sp, #11]	@ zero_extendqisi2
 2521 0016 9DF80A30 		ldrb	r3, [sp, #10]	@ zero_extendqisi2
 2522              		.loc 1 599 14
 2523 001a 039A     		ldr	r2, [sp, #12]
 2524 001c 4900     		lsls	r1, r1, #1
 2525 001e 0B44     		add	r3, r3, r1
 2526 0020 2E33     		adds	r3, r3, #46
 2527 0022 9B00     		lsls	r3, r3, #2
 2528 0024 1344     		add	r3, r3, r2
 2529 0026 5B68     		ldr	r3, [r3, #4]
 2530 0028 0593     		str	r3, [sp, #20]
 600:C:/StellarStudio-7.0/SDKS/StellarESDK-1.7.0/Modules/Drivers/Timers/HRTIM/src\hrtim.c **** 
 601:C:/StellarStudio-7.0/SDKS/StellarESDK-1.7.0/Modules/Drivers/Timers/HRTIM/src\hrtim.c ****     if (output == HRTIM_TIMER_OUTPUT_1) {
 2531              		.loc 1 601 8
 2532 002a 9DF80A30 		ldrb	r3, [sp, #10]	@ zero_extendqisi2
 2533 002e 002B     		cmp	r3, #0
 2534 0030 18D1     		bne	.L131
 602:C:/StellarStudio-7.0/SDKS/StellarESDK-1.7.0/Modules/Drivers/Timers/HRTIM/src\hrtim.c ****         hdp->set_event[timer][output] &= ~(event);
 2535              		.loc 1 602 39
 2536 0032 9DF80B10 		ldrb	r1, [sp, #11]	@ zero_extendqisi2
 2537 0036 9DF80A30 		ldrb	r3, [sp, #10]	@ zero_extendqisi2
 2538 003a 039A     		ldr	r2, [sp, #12]
 2539 003c 4900     		lsls	r1, r1, #1
 2540 003e 0B44     		add	r3, r3, r1
 2541 0040 2E33     		adds	r3, r3, #46
 2542 0042 9B00     		lsls	r3, r3, #2
 2543 0044 1344     		add	r3, r3, r2
 2544 0046 5968     		ldr	r1, [r3, #4]
 2545              		.loc 1 602 42
 2546 0048 019B     		ldr	r3, [sp, #4]
 2547 004a DA43     		mvns	r2, r3
 2548              		.loc 1 602 39
 2549 004c 9DF80B00 		ldrb	r0, [sp, #11]	@ zero_extendqisi2
 2550 0050 9DF80A30 		ldrb	r3, [sp, #10]	@ zero_extendqisi2
 2551 0054 0A40     		ands	r2, r2, r1
 2552 0056 0399     		ldr	r1, [sp, #12]
 2553 0058 4000     		lsls	r0, r0, #1
 2554 005a 0344     		add	r3, r3, r0
 2555 005c 2E33     		adds	r3, r3, #46
 2556 005e 9B00     		lsls	r3, r3, #2
 2557 0060 0B44     		add	r3, r3, r1
 2558 0062 5A60     		str	r2, [r3, #4]
 2559              	.L131:
 603:C:/StellarStudio-7.0/SDKS/StellarESDK-1.7.0/Modules/Drivers/Timers/HRTIM/src\hrtim.c ****     }
 604:C:/StellarStudio-7.0/SDKS/StellarESDK-1.7.0/Modules/Drivers/Timers/HRTIM/src\hrtim.c **** 
 605:C:/StellarStudio-7.0/SDKS/StellarESDK-1.7.0/Modules/Drivers/Timers/HRTIM/src\hrtim.c ****     if (output == HRTIM_TIMER_OUTPUT_2 && hdp->deadtime[timer].enable == false) {
 2560              		.loc 1 605 8
 2561 0064 9DF80A30 		ldrb	r3, [sp, #10]	@ zero_extendqisi2
 2562 0068 012B     		cmp	r3, #1
 2563 006a 27D1     		bne	.L132
 2564              		.loc 1 605 63 discriminator 1
 2565 006c 9DF80B20 		ldrb	r2, [sp, #11]	@ zero_extendqisi2
 2566 0070 0399     		ldr	r1, [sp, #12]
 2567 0072 1346     		mov	r3, r2
 2568 0074 9B00     		lsls	r3, r3, #2
 2569 0076 1344     		add	r3, r3, r2
 2570 0078 5B00     		lsls	r3, r3, #1
 2571 007a 0B44     		add	r3, r3, r1
 2572 007c 8033     		adds	r3, r3, #128
 2573 007e 1B78     		ldrb	r3, [r3]	@ zero_extendqisi2
 2574              		.loc 1 605 71 discriminator 1
 2575 0080 83F00103 		eor	r3, r3, #1
 2576 0084 DBB2     		uxtb	r3, r3
 2577              		.loc 1 605 40 discriminator 1
 2578 0086 002B     		cmp	r3, #0
 2579 0088 18D0     		beq	.L132
 606:C:/StellarStudio-7.0/SDKS/StellarESDK-1.7.0/Modules/Drivers/Timers/HRTIM/src\hrtim.c ****         hdp->set_event[timer][output] &= ~(event);
 2580              		.loc 1 606 39
 2581 008a 9DF80B10 		ldrb	r1, [sp, #11]	@ zero_extendqisi2
 2582 008e 9DF80A30 		ldrb	r3, [sp, #10]	@ zero_extendqisi2
 2583 0092 039A     		ldr	r2, [sp, #12]
 2584 0094 4900     		lsls	r1, r1, #1
 2585 0096 0B44     		add	r3, r3, r1
 2586 0098 2E33     		adds	r3, r3, #46
 2587 009a 9B00     		lsls	r3, r3, #2
 2588 009c 1344     		add	r3, r3, r2
 2589 009e 5968     		ldr	r1, [r3, #4]
 2590              		.loc 1 606 42
 2591 00a0 019B     		ldr	r3, [sp, #4]
 2592 00a2 DA43     		mvns	r2, r3
 2593              		.loc 1 606 39
 2594 00a4 9DF80B00 		ldrb	r0, [sp, #11]	@ zero_extendqisi2
 2595 00a8 9DF80A30 		ldrb	r3, [sp, #10]	@ zero_extendqisi2
 2596 00ac 0A40     		ands	r2, r2, r1
 2597 00ae 0399     		ldr	r1, [sp, #12]
 2598 00b0 4000     		lsls	r0, r0, #1
 2599 00b2 0344     		add	r3, r3, r0
 2600 00b4 2E33     		adds	r3, r3, #46
 2601 00b6 9B00     		lsls	r3, r3, #2
 2602 00b8 0B44     		add	r3, r3, r1
 2603 00ba 5A60     		str	r2, [r3, #4]
 2604              	.L132:
 607:C:/StellarStudio-7.0/SDKS/StellarESDK-1.7.0/Modules/Drivers/Timers/HRTIM/src\hrtim.c ****     }
 608:C:/StellarStudio-7.0/SDKS/StellarESDK-1.7.0/Modules/Drivers/Timers/HRTIM/src\hrtim.c **** 
 609:C:/StellarStudio-7.0/SDKS/StellarESDK-1.7.0/Modules/Drivers/Timers/HRTIM/src\hrtim.c ****     /* Update on-fly.*/
 610:C:/StellarStudio-7.0/SDKS/StellarESDK-1.7.0/Modules/Drivers/Timers/HRTIM/src\hrtim.c ****     if (hdp->is_enable == true) {
 2605              		.loc 1 610 12
 2606 00bc 039B     		ldr	r3, [sp, #12]
 2607 00be 1B79     		ldrb	r3, [r3, #4]	@ zero_extendqisi2
 2608              		.loc 1 610 8
 2609 00c0 002B     		cmp	r3, #0
 2610 00c2 3CD0     		beq	.L133
 611:C:/StellarStudio-7.0/SDKS/StellarESDK-1.7.0/Modules/Drivers/Timers/HRTIM/src\hrtim.c ****         if (output == HRTIM_TIMER_OUTPUT_1) {
 2611              		.loc 1 611 12
 2612 00c4 9DF80A30 		ldrb	r3, [sp, #10]	@ zero_extendqisi2
 2613 00c8 002B     		cmp	r3, #0
 2614 00ca 12D1     		bne	.L134
 612:C:/StellarStudio-7.0/SDKS/StellarESDK-1.7.0/Modules/Drivers/Timers/HRTIM/src\hrtim.c ****             hdp->hrtim->sTimerxRegs[timer].SETx1R &= ~(event);
 2615              		.loc 1 612 16
 2616 00cc 039B     		ldr	r3, [sp, #12]
 2617 00ce 1A68     		ldr	r2, [r3]
 2618              		.loc 1 612 51
 2619 00d0 9DF80B30 		ldrb	r3, [sp, #11]	@ zero_extendqisi2
 2620 00d4 DB01     		lsls	r3, r3, #7
 2621 00d6 1344     		add	r3, r3, r2
 2622 00d8 BC33     		adds	r3, r3, #188
 2623 00da 1868     		ldr	r0, [r3]
 2624              		.loc 1 612 54
 2625 00dc 019B     		ldr	r3, [sp, #4]
 2626 00de DA43     		mvns	r2, r3
 2627              		.loc 1 612 16
 2628 00e0 039B     		ldr	r3, [sp, #12]
 2629 00e2 1968     		ldr	r1, [r3]
 2630              		.loc 1 612 51
 2631 00e4 9DF80B30 		ldrb	r3, [sp, #11]	@ zero_extendqisi2
 2632 00e8 0240     		ands	r2, r2, r0
 2633 00ea DB01     		lsls	r3, r3, #7
 2634 00ec 0B44     		add	r3, r3, r1
 2635 00ee BC33     		adds	r3, r3, #188
 2636 00f0 1A60     		str	r2, [r3]
 2637              	.L134:
 613:C:/StellarStudio-7.0/SDKS/StellarESDK-1.7.0/Modules/Drivers/Timers/HRTIM/src\hrtim.c ****         }
 614:C:/StellarStudio-7.0/SDKS/StellarESDK-1.7.0/Modules/Drivers/Timers/HRTIM/src\hrtim.c **** 
 615:C:/StellarStudio-7.0/SDKS/StellarESDK-1.7.0/Modules/Drivers/Timers/HRTIM/src\hrtim.c ****         if (output == HRTIM_TIMER_OUTPUT_2 && hdp->deadtime[timer].enable == false) {
 2638              		.loc 1 615 12
 2639 00f2 9DF80A30 		ldrb	r3, [sp, #10]	@ zero_extendqisi2
 2640 00f6 012B     		cmp	r3, #1
 2641 00f8 21D1     		bne	.L133
 2642              		.loc 1 615 67 discriminator 1
 2643 00fa 9DF80B20 		ldrb	r2, [sp, #11]	@ zero_extendqisi2
 2644 00fe 0399     		ldr	r1, [sp, #12]
 2645 0100 1346     		mov	r3, r2
 2646 0102 9B00     		lsls	r3, r3, #2
 2647 0104 1344     		add	r3, r3, r2
 2648 0106 5B00     		lsls	r3, r3, #1
 2649 0108 0B44     		add	r3, r3, r1
 2650 010a 8033     		adds	r3, r3, #128
 2651 010c 1B78     		ldrb	r3, [r3]	@ zero_extendqisi2
 2652              		.loc 1 615 75 discriminator 1
 2653 010e 83F00103 		eor	r3, r3, #1
 2654 0112 DBB2     		uxtb	r3, r3
 2655              		.loc 1 615 44 discriminator 1
 2656 0114 002B     		cmp	r3, #0
 2657 0116 12D0     		beq	.L133
 616:C:/StellarStudio-7.0/SDKS/StellarESDK-1.7.0/Modules/Drivers/Timers/HRTIM/src\hrtim.c ****             hdp->hrtim->sTimerxRegs[timer].SETx2R &= ~(event);
 2658              		.loc 1 616 16
 2659 0118 039B     		ldr	r3, [sp, #12]
 2660 011a 1A68     		ldr	r2, [r3]
 2661              		.loc 1 616 51
 2662 011c 9DF80B30 		ldrb	r3, [sp, #11]	@ zero_extendqisi2
 2663 0120 DB01     		lsls	r3, r3, #7
 2664 0122 1344     		add	r3, r3, r2
 2665 0124 C433     		adds	r3, r3, #196
 2666 0126 1868     		ldr	r0, [r3]
 2667              		.loc 1 616 54
 2668 0128 019B     		ldr	r3, [sp, #4]
 2669 012a DA43     		mvns	r2, r3
 2670              		.loc 1 616 16
 2671 012c 039B     		ldr	r3, [sp, #12]
 2672 012e 1968     		ldr	r1, [r3]
 2673              		.loc 1 616 51
 2674 0130 9DF80B30 		ldrb	r3, [sp, #11]	@ zero_extendqisi2
 2675 0134 0240     		ands	r2, r2, r0
 2676 0136 DB01     		lsls	r3, r3, #7
 2677 0138 0B44     		add	r3, r3, r1
 2678 013a C433     		adds	r3, r3, #196
 2679 013c 1A60     		str	r2, [r3]
 2680              	.L133:
 617:C:/StellarStudio-7.0/SDKS/StellarESDK-1.7.0/Modules/Drivers/Timers/HRTIM/src\hrtim.c ****         }
 618:C:/StellarStudio-7.0/SDKS/StellarESDK-1.7.0/Modules/Drivers/Timers/HRTIM/src\hrtim.c ****     }
 619:C:/StellarStudio-7.0/SDKS/StellarESDK-1.7.0/Modules/Drivers/Timers/HRTIM/src\hrtim.c **** 
 620:C:/StellarStudio-7.0/SDKS/StellarESDK-1.7.0/Modules/Drivers/Timers/HRTIM/src\hrtim.c ****     return prev_event;
 2681              		.loc 1 620 12
 2682 013e 059B     		ldr	r3, [sp, #20]
 621:C:/StellarStudio-7.0/SDKS/StellarESDK-1.7.0/Modules/Drivers/Timers/HRTIM/src\hrtim.c **** } 
 2683              		.loc 1 621 1
 2684 0140 1846     		mov	r0, r3
 2685 0142 06B0     		add	sp, sp, #24
 2686              		.cfi_def_cfa_offset 0
 2687              		@ sp needed
 2688 0144 7047     		bx	lr
 2689              		.cfi_endproc
 2690              	.LFE170:
 2692 0146 00BF     		.section	.text.hrtim_timer_clear_outputrst,"ax",%progbits
 2693              		.align	1
 2694              		.p2align 4,,15
 2695              		.global	hrtim_timer_clear_outputrst
 2696              		.syntax unified
 2697              		.thumb
 2698              		.thumb_func
 2700              	hrtim_timer_clear_outputrst:
 2701              	.LFB171:
 622:C:/StellarStudio-7.0/SDKS/StellarESDK-1.7.0/Modules/Drivers/Timers/HRTIM/src\hrtim.c **** 
 623:C:/StellarStudio-7.0/SDKS/StellarESDK-1.7.0/Modules/Drivers/Timers/HRTIM/src\hrtim.c **** uint32_t hrtim_timer_clear_outputrst(hrtim_driver_t *hdp,
 624:C:/StellarStudio-7.0/SDKS/StellarESDK-1.7.0/Modules/Drivers/Timers/HRTIM/src\hrtim.c ****                                      hrtim_timer_t timer,
 625:C:/StellarStudio-7.0/SDKS/StellarESDK-1.7.0/Modules/Drivers/Timers/HRTIM/src\hrtim.c ****                                      hrtim_out_t output,
 626:C:/StellarStudio-7.0/SDKS/StellarESDK-1.7.0/Modules/Drivers/Timers/HRTIM/src\hrtim.c ****                                      uint32_t event) {
 2702              		.loc 1 626 54
 2703              		.cfi_startproc
 2704              		@ args = 0, pretend = 0, frame = 24
 2705              		@ frame_needed = 0, uses_anonymous_args = 0
 2706              		@ link register save eliminated.
 2707 0000 86B0     		sub	sp, sp, #24
 2708              		.cfi_def_cfa_offset 24
 2709 0002 0390     		str	r0, [sp, #12]
 2710 0004 0193     		str	r3, [sp, #4]
 2711 0006 0B46     		mov	r3, r1
 2712 0008 8DF80B30 		strb	r3, [sp, #11]
 2713 000c 1346     		mov	r3, r2
 2714 000e 8DF80A30 		strb	r3, [sp, #10]
 627:C:/StellarStudio-7.0/SDKS/StellarESDK-1.7.0/Modules/Drivers/Timers/HRTIM/src\hrtim.c **** 
 628:C:/StellarStudio-7.0/SDKS/StellarESDK-1.7.0/Modules/Drivers/Timers/HRTIM/src\hrtim.c ****     uint32_t prev_event = hdp->rst_event[timer][output];
 2715              		.loc 1 628 48
 2716 0012 9DF80B10 		ldrb	r1, [sp, #11]	@ zero_extendqisi2
 2717 0016 9DF80A30 		ldrb	r3, [sp, #10]	@ zero_extendqisi2
 2718              		.loc 1 628 14
 2719 001a 039A     		ldr	r2, [sp, #12]
 2720 001c 4900     		lsls	r1, r1, #1
 2721 001e 0B44     		add	r3, r3, r1
 2722 0020 6E33     		adds	r3, r3, #110
 2723 0022 9B00     		lsls	r3, r3, #2
 2724 0024 1344     		add	r3, r3, r2
 2725 0026 5B68     		ldr	r3, [r3, #4]
 2726 0028 0593     		str	r3, [sp, #20]
 629:C:/StellarStudio-7.0/SDKS/StellarESDK-1.7.0/Modules/Drivers/Timers/HRTIM/src\hrtim.c **** 
 630:C:/StellarStudio-7.0/SDKS/StellarESDK-1.7.0/Modules/Drivers/Timers/HRTIM/src\hrtim.c ****     if(output == HRTIM_TIMER_OUTPUT_1) {
 2727              		.loc 1 630 7
 2728 002a 9DF80A30 		ldrb	r3, [sp, #10]	@ zero_extendqisi2
 2729 002e 002B     		cmp	r3, #0
 2730 0030 18D1     		bne	.L137
 631:C:/StellarStudio-7.0/SDKS/StellarESDK-1.7.0/Modules/Drivers/Timers/HRTIM/src\hrtim.c ****         hdp->rst_event[timer][output] &= ~(event);
 2731              		.loc 1 631 39
 2732 0032 9DF80B10 		ldrb	r1, [sp, #11]	@ zero_extendqisi2
 2733 0036 9DF80A30 		ldrb	r3, [sp, #10]	@ zero_extendqisi2
 2734 003a 039A     		ldr	r2, [sp, #12]
 2735 003c 4900     		lsls	r1, r1, #1
 2736 003e 0B44     		add	r3, r3, r1
 2737 0040 6E33     		adds	r3, r3, #110
 2738 0042 9B00     		lsls	r3, r3, #2
 2739 0044 1344     		add	r3, r3, r2
 2740 0046 5968     		ldr	r1, [r3, #4]
 2741              		.loc 1 631 42
 2742 0048 019B     		ldr	r3, [sp, #4]
 2743 004a DA43     		mvns	r2, r3
 2744              		.loc 1 631 39
 2745 004c 9DF80B00 		ldrb	r0, [sp, #11]	@ zero_extendqisi2
 2746 0050 9DF80A30 		ldrb	r3, [sp, #10]	@ zero_extendqisi2
 2747 0054 0A40     		ands	r2, r2, r1
 2748 0056 0399     		ldr	r1, [sp, #12]
 2749 0058 4000     		lsls	r0, r0, #1
 2750 005a 0344     		add	r3, r3, r0
 2751 005c 6E33     		adds	r3, r3, #110
 2752 005e 9B00     		lsls	r3, r3, #2
 2753 0060 0B44     		add	r3, r3, r1
 2754 0062 5A60     		str	r2, [r3, #4]
 2755              	.L137:
 632:C:/StellarStudio-7.0/SDKS/StellarESDK-1.7.0/Modules/Drivers/Timers/HRTIM/src\hrtim.c ****     }
 633:C:/StellarStudio-7.0/SDKS/StellarESDK-1.7.0/Modules/Drivers/Timers/HRTIM/src\hrtim.c **** 
 634:C:/StellarStudio-7.0/SDKS/StellarESDK-1.7.0/Modules/Drivers/Timers/HRTIM/src\hrtim.c ****     if (output == HRTIM_TIMER_OUTPUT_2 && hdp->deadtime[timer].enable == false) {
 2756              		.loc 1 634 8
 2757 0064 9DF80A30 		ldrb	r3, [sp, #10]	@ zero_extendqisi2
 2758 0068 012B     		cmp	r3, #1
 2759 006a 27D1     		bne	.L138
 2760              		.loc 1 634 63 discriminator 1
 2761 006c 9DF80B20 		ldrb	r2, [sp, #11]	@ zero_extendqisi2
 2762 0070 0399     		ldr	r1, [sp, #12]
 2763 0072 1346     		mov	r3, r2
 2764 0074 9B00     		lsls	r3, r3, #2
 2765 0076 1344     		add	r3, r3, r2
 2766 0078 5B00     		lsls	r3, r3, #1
 2767 007a 0B44     		add	r3, r3, r1
 2768 007c 8033     		adds	r3, r3, #128
 2769 007e 1B78     		ldrb	r3, [r3]	@ zero_extendqisi2
 2770              		.loc 1 634 71 discriminator 1
 2771 0080 83F00103 		eor	r3, r3, #1
 2772 0084 DBB2     		uxtb	r3, r3
 2773              		.loc 1 634 40 discriminator 1
 2774 0086 002B     		cmp	r3, #0
 2775 0088 18D0     		beq	.L138
 635:C:/StellarStudio-7.0/SDKS/StellarESDK-1.7.0/Modules/Drivers/Timers/HRTIM/src\hrtim.c ****         hdp->rst_event[timer][output] &= ~(event);
 2776              		.loc 1 635 39
 2777 008a 9DF80B10 		ldrb	r1, [sp, #11]	@ zero_extendqisi2
 2778 008e 9DF80A30 		ldrb	r3, [sp, #10]	@ zero_extendqisi2
 2779 0092 039A     		ldr	r2, [sp, #12]
 2780 0094 4900     		lsls	r1, r1, #1
 2781 0096 0B44     		add	r3, r3, r1
 2782 0098 6E33     		adds	r3, r3, #110
 2783 009a 9B00     		lsls	r3, r3, #2
 2784 009c 1344     		add	r3, r3, r2
 2785 009e 5968     		ldr	r1, [r3, #4]
 2786              		.loc 1 635 42
 2787 00a0 019B     		ldr	r3, [sp, #4]
 2788 00a2 DA43     		mvns	r2, r3
 2789              		.loc 1 635 39
 2790 00a4 9DF80B00 		ldrb	r0, [sp, #11]	@ zero_extendqisi2
 2791 00a8 9DF80A30 		ldrb	r3, [sp, #10]	@ zero_extendqisi2
 2792 00ac 0A40     		ands	r2, r2, r1
 2793 00ae 0399     		ldr	r1, [sp, #12]
 2794 00b0 4000     		lsls	r0, r0, #1
 2795 00b2 0344     		add	r3, r3, r0
 2796 00b4 6E33     		adds	r3, r3, #110
 2797 00b6 9B00     		lsls	r3, r3, #2
 2798 00b8 0B44     		add	r3, r3, r1
 2799 00ba 5A60     		str	r2, [r3, #4]
 2800              	.L138:
 636:C:/StellarStudio-7.0/SDKS/StellarESDK-1.7.0/Modules/Drivers/Timers/HRTIM/src\hrtim.c ****     }
 637:C:/StellarStudio-7.0/SDKS/StellarESDK-1.7.0/Modules/Drivers/Timers/HRTIM/src\hrtim.c **** 
 638:C:/StellarStudio-7.0/SDKS/StellarESDK-1.7.0/Modules/Drivers/Timers/HRTIM/src\hrtim.c ****     /* Update on-fly.*/
 639:C:/StellarStudio-7.0/SDKS/StellarESDK-1.7.0/Modules/Drivers/Timers/HRTIM/src\hrtim.c ****     if (hdp->is_enable == true) {
 2801              		.loc 1 639 12
 2802 00bc 039B     		ldr	r3, [sp, #12]
 2803 00be 1B79     		ldrb	r3, [r3, #4]	@ zero_extendqisi2
 2804              		.loc 1 639 8
 2805 00c0 002B     		cmp	r3, #0
 2806 00c2 3CD0     		beq	.L139
 640:C:/StellarStudio-7.0/SDKS/StellarESDK-1.7.0/Modules/Drivers/Timers/HRTIM/src\hrtim.c ****         if (output == HRTIM_TIMER_OUTPUT_1) {
 2807              		.loc 1 640 12
 2808 00c4 9DF80A30 		ldrb	r3, [sp, #10]	@ zero_extendqisi2
 2809 00c8 002B     		cmp	r3, #0
 2810 00ca 12D1     		bne	.L140
 641:C:/StellarStudio-7.0/SDKS/StellarESDK-1.7.0/Modules/Drivers/Timers/HRTIM/src\hrtim.c ****             hdp->hrtim->sTimerxRegs[timer].RSTx1R &= ~(event);
 2811              		.loc 1 641 16
 2812 00cc 039B     		ldr	r3, [sp, #12]
 2813 00ce 1A68     		ldr	r2, [r3]
 2814              		.loc 1 641 51
 2815 00d0 9DF80B30 		ldrb	r3, [sp, #11]	@ zero_extendqisi2
 2816 00d4 DB01     		lsls	r3, r3, #7
 2817 00d6 1344     		add	r3, r3, r2
 2818 00d8 C033     		adds	r3, r3, #192
 2819 00da 1868     		ldr	r0, [r3]
 2820              		.loc 1 641 54
 2821 00dc 019B     		ldr	r3, [sp, #4]
 2822 00de DA43     		mvns	r2, r3
 2823              		.loc 1 641 16
 2824 00e0 039B     		ldr	r3, [sp, #12]
 2825 00e2 1968     		ldr	r1, [r3]
 2826              		.loc 1 641 51
 2827 00e4 9DF80B30 		ldrb	r3, [sp, #11]	@ zero_extendqisi2
 2828 00e8 0240     		ands	r2, r2, r0
 2829 00ea DB01     		lsls	r3, r3, #7
 2830 00ec 0B44     		add	r3, r3, r1
 2831 00ee C033     		adds	r3, r3, #192
 2832 00f0 1A60     		str	r2, [r3]
 2833              	.L140:
 642:C:/StellarStudio-7.0/SDKS/StellarESDK-1.7.0/Modules/Drivers/Timers/HRTIM/src\hrtim.c ****         }
 643:C:/StellarStudio-7.0/SDKS/StellarESDK-1.7.0/Modules/Drivers/Timers/HRTIM/src\hrtim.c **** 
 644:C:/StellarStudio-7.0/SDKS/StellarESDK-1.7.0/Modules/Drivers/Timers/HRTIM/src\hrtim.c ****         if (output == HRTIM_TIMER_OUTPUT_2 && hdp->deadtime[timer].enable == false) {
 2834              		.loc 1 644 12
 2835 00f2 9DF80A30 		ldrb	r3, [sp, #10]	@ zero_extendqisi2
 2836 00f6 012B     		cmp	r3, #1
 2837 00f8 21D1     		bne	.L139
 2838              		.loc 1 644 67 discriminator 1
 2839 00fa 9DF80B20 		ldrb	r2, [sp, #11]	@ zero_extendqisi2
 2840 00fe 0399     		ldr	r1, [sp, #12]
 2841 0100 1346     		mov	r3, r2
 2842 0102 9B00     		lsls	r3, r3, #2
 2843 0104 1344     		add	r3, r3, r2
 2844 0106 5B00     		lsls	r3, r3, #1
 2845 0108 0B44     		add	r3, r3, r1
 2846 010a 8033     		adds	r3, r3, #128
 2847 010c 1B78     		ldrb	r3, [r3]	@ zero_extendqisi2
 2848              		.loc 1 644 75 discriminator 1
 2849 010e 83F00103 		eor	r3, r3, #1
 2850 0112 DBB2     		uxtb	r3, r3
 2851              		.loc 1 644 44 discriminator 1
 2852 0114 002B     		cmp	r3, #0
 2853 0116 12D0     		beq	.L139
 645:C:/StellarStudio-7.0/SDKS/StellarESDK-1.7.0/Modules/Drivers/Timers/HRTIM/src\hrtim.c ****             hdp->hrtim->sTimerxRegs[timer].RSTx2R &= ~(event);
 2854              		.loc 1 645 16
 2855 0118 039B     		ldr	r3, [sp, #12]
 2856 011a 1A68     		ldr	r2, [r3]
 2857              		.loc 1 645 51
 2858 011c 9DF80B30 		ldrb	r3, [sp, #11]	@ zero_extendqisi2
 2859 0120 DB01     		lsls	r3, r3, #7
 2860 0122 1344     		add	r3, r3, r2
 2861 0124 C833     		adds	r3, r3, #200
 2862 0126 1868     		ldr	r0, [r3]
 2863              		.loc 1 645 54
 2864 0128 019B     		ldr	r3, [sp, #4]
 2865 012a DA43     		mvns	r2, r3
 2866              		.loc 1 645 16
 2867 012c 039B     		ldr	r3, [sp, #12]
 2868 012e 1968     		ldr	r1, [r3]
 2869              		.loc 1 645 51
 2870 0130 9DF80B30 		ldrb	r3, [sp, #11]	@ zero_extendqisi2
 2871 0134 0240     		ands	r2, r2, r0
 2872 0136 DB01     		lsls	r3, r3, #7
 2873 0138 0B44     		add	r3, r3, r1
 2874 013a C833     		adds	r3, r3, #200
 2875 013c 1A60     		str	r2, [r3]
 2876              	.L139:
 646:C:/StellarStudio-7.0/SDKS/StellarESDK-1.7.0/Modules/Drivers/Timers/HRTIM/src\hrtim.c ****         }
 647:C:/StellarStudio-7.0/SDKS/StellarESDK-1.7.0/Modules/Drivers/Timers/HRTIM/src\hrtim.c ****     }
 648:C:/StellarStudio-7.0/SDKS/StellarESDK-1.7.0/Modules/Drivers/Timers/HRTIM/src\hrtim.c **** 
 649:C:/StellarStudio-7.0/SDKS/StellarESDK-1.7.0/Modules/Drivers/Timers/HRTIM/src\hrtim.c ****     return prev_event;
 2877              		.loc 1 649 12
 2878 013e 059B     		ldr	r3, [sp, #20]
 650:C:/StellarStudio-7.0/SDKS/StellarESDK-1.7.0/Modules/Drivers/Timers/HRTIM/src\hrtim.c **** }
 2879              		.loc 1 650 1
 2880 0140 1846     		mov	r0, r3
 2881 0142 06B0     		add	sp, sp, #24
 2882              		.cfi_def_cfa_offset 0
 2883              		@ sp needed
 2884 0144 7047     		bx	lr
 2885              		.cfi_endproc
 2886              	.LFE171:
 2888 0146 00BF     		.section	.text.hrtim_set_cb,"ax",%progbits
 2889              		.align	1
 2890              		.p2align 4,,15
 2891              		.global	hrtim_set_cb
 2892              		.syntax unified
 2893              		.thumb
 2894              		.thumb_func
 2896              	hrtim_set_cb:
 2897              	.LFB172:
 651:C:/StellarStudio-7.0/SDKS/StellarESDK-1.7.0/Modules/Drivers/Timers/HRTIM/src\hrtim.c **** 
 652:C:/StellarStudio-7.0/SDKS/StellarESDK-1.7.0/Modules/Drivers/Timers/HRTIM/src\hrtim.c **** hrtim_cb_t hrtim_set_cb(hrtim_driver_t *hdp, hrtim_cb_ops_t cb_op, 
 653:C:/StellarStudio-7.0/SDKS/StellarESDK-1.7.0/Modules/Drivers/Timers/HRTIM/src\hrtim.c ****                         hrtim_cb_t cb) {
 2898              		.loc 1 653 40
 2899              		.cfi_startproc
 2900              		@ args = 0, pretend = 0, frame = 24
 2901              		@ frame_needed = 0, uses_anonymous_args = 0
 2902              		@ link register save eliminated.
 2903 0000 86B0     		sub	sp, sp, #24
 2904              		.cfi_def_cfa_offset 24
 2905 0002 0390     		str	r0, [sp, #12]
 2906 0004 0B46     		mov	r3, r1
 2907 0006 0192     		str	r2, [sp, #4]
 2908 0008 8DF80B30 		strb	r3, [sp, #11]
 654:C:/StellarStudio-7.0/SDKS/StellarESDK-1.7.0/Modules/Drivers/Timers/HRTIM/src\hrtim.c **** 
 655:C:/StellarStudio-7.0/SDKS/StellarESDK-1.7.0/Modules/Drivers/Timers/HRTIM/src\hrtim.c ****     hrtim_cb_t prev_cb;
 656:C:/StellarStudio-7.0/SDKS/StellarESDK-1.7.0/Modules/Drivers/Timers/HRTIM/src\hrtim.c **** 
 657:C:/StellarStudio-7.0/SDKS/StellarESDK-1.7.0/Modules/Drivers/Timers/HRTIM/src\hrtim.c ****     if (cb_op == HRTIM_CB_MASTER) {
 2909              		.loc 1 657 8
 2910 000c 9DF80B30 		ldrb	r3, [sp, #11]	@ zero_extendqisi2
 2911 0010 062B     		cmp	r3, #6
 2912 0012 08D1     		bne	.L143
 658:C:/StellarStudio-7.0/SDKS/StellarESDK-1.7.0/Modules/Drivers/Timers/HRTIM/src\hrtim.c ****         prev_cb = hdp->cb_mt;
 2913              		.loc 1 658 17
 2914 0014 039B     		ldr	r3, [sp, #12]
 2915 0016 D3F8D432 		ldr	r3, [r3, #724]
 2916 001a 0593     		str	r3, [sp, #20]
 659:C:/StellarStudio-7.0/SDKS/StellarESDK-1.7.0/Modules/Drivers/Timers/HRTIM/src\hrtim.c ****         hdp->cb_mt = cb;
 2917              		.loc 1 659 20
 2918 001c 039B     		ldr	r3, [sp, #12]
 2919 001e 019A     		ldr	r2, [sp, #4]
 2920 0020 C3F8D422 		str	r2, [r3, #724]
 2921 0024 1CE0     		b	.L144
 2922              	.L143:
 660:C:/StellarStudio-7.0/SDKS/StellarESDK-1.7.0/Modules/Drivers/Timers/HRTIM/src\hrtim.c ****     } else if (cb_op == HRTIM_CB_FAULT) {
 2923              		.loc 1 660 15
 2924 0026 9DF80B30 		ldrb	r3, [sp, #11]	@ zero_extendqisi2
 2925 002a 072B     		cmp	r3, #7
 2926 002c 08D1     		bne	.L145
 661:C:/StellarStudio-7.0/SDKS/StellarESDK-1.7.0/Modules/Drivers/Timers/HRTIM/src\hrtim.c ****         prev_cb = hdp->cb_flt;
 2927              		.loc 1 661 17
 2928 002e 039B     		ldr	r3, [sp, #12]
 2929 0030 D3F8D832 		ldr	r3, [r3, #728]
 2930 0034 0593     		str	r3, [sp, #20]
 662:C:/StellarStudio-7.0/SDKS/StellarESDK-1.7.0/Modules/Drivers/Timers/HRTIM/src\hrtim.c ****         hdp->cb_flt = cb;
 2931              		.loc 1 662 21
 2932 0036 039B     		ldr	r3, [sp, #12]
 2933 0038 019A     		ldr	r2, [sp, #4]
 2934 003a C3F8D822 		str	r2, [r3, #728]
 2935 003e 0FE0     		b	.L144
 2936              	.L145:
 663:C:/StellarStudio-7.0/SDKS/StellarESDK-1.7.0/Modules/Drivers/Timers/HRTIM/src\hrtim.c ****     } else {
 664:C:/StellarStudio-7.0/SDKS/StellarESDK-1.7.0/Modules/Drivers/Timers/HRTIM/src\hrtim.c ****         prev_cb = hdp->cb[cb_op];
 2937              		.loc 1 664 26
 2938 0040 9DF80B30 		ldrb	r3, [sp, #11]	@ zero_extendqisi2
 2939              		.loc 1 664 17
 2940 0044 039A     		ldr	r2, [sp, #12]
 2941 0046 AE33     		adds	r3, r3, #174
 2942 0048 9B00     		lsls	r3, r3, #2
 2943 004a 1344     		add	r3, r3, r2
 2944 004c 5B68     		ldr	r3, [r3, #4]
 2945 004e 0593     		str	r3, [sp, #20]
 665:C:/StellarStudio-7.0/SDKS/StellarESDK-1.7.0/Modules/Drivers/Timers/HRTIM/src\hrtim.c ****         hdp->cb[cb_op] = cb;
 2946              		.loc 1 665 16
 2947 0050 9DF80B30 		ldrb	r3, [sp, #11]	@ zero_extendqisi2
 2948              		.loc 1 665 24
 2949 0054 039A     		ldr	r2, [sp, #12]
 2950 0056 AE33     		adds	r3, r3, #174
 2951 0058 9B00     		lsls	r3, r3, #2
 2952 005a 1344     		add	r3, r3, r2
 2953 005c 019A     		ldr	r2, [sp, #4]
 2954 005e 5A60     		str	r2, [r3, #4]
 2955              	.L144:
 666:C:/StellarStudio-7.0/SDKS/StellarESDK-1.7.0/Modules/Drivers/Timers/HRTIM/src\hrtim.c ****     }
 667:C:/StellarStudio-7.0/SDKS/StellarESDK-1.7.0/Modules/Drivers/Timers/HRTIM/src\hrtim.c **** 
 668:C:/StellarStudio-7.0/SDKS/StellarESDK-1.7.0/Modules/Drivers/Timers/HRTIM/src\hrtim.c ****     return prev_cb;
 2956              		.loc 1 668 12
 2957 0060 059B     		ldr	r3, [sp, #20]
 669:C:/StellarStudio-7.0/SDKS/StellarESDK-1.7.0/Modules/Drivers/Timers/HRTIM/src\hrtim.c **** }
 2958              		.loc 1 669 1
 2959 0062 1846     		mov	r0, r3
 2960 0064 06B0     		add	sp, sp, #24
 2961              		.cfi_def_cfa_offset 0
 2962              		@ sp needed
 2963 0066 7047     		bx	lr
 2964              		.cfi_endproc
 2965              	.LFE172:
 2967              		.section	.text.hrtim_start,"ax",%progbits
 2968              		.align	1
 2969              		.p2align 4,,15
 2970              		.global	hrtim_start
 2971              		.syntax unified
 2972              		.thumb
 2973              		.thumb_func
 2975              	hrtim_start:
 2976              	.LFB173:
 670:C:/StellarStudio-7.0/SDKS/StellarESDK-1.7.0/Modules/Drivers/Timers/HRTIM/src\hrtim.c **** 
 671:C:/StellarStudio-7.0/SDKS/StellarESDK-1.7.0/Modules/Drivers/Timers/HRTIM/src\hrtim.c **** void hrtim_start(hrtim_driver_t *hdp) {
 2977              		.loc 1 671 39
 2978              		.cfi_startproc
 2979              		@ args = 0, pretend = 0, frame = 64
 2980              		@ frame_needed = 0, uses_anonymous_args = 0
 2981 0000 30B5     		push	{r4, r5, lr}
 2982              		.cfi_def_cfa_offset 12
 2983              		.cfi_offset 4, -12
 2984              		.cfi_offset 5, -8
 2985              		.cfi_offset 14, -4
 2986 0002 91B0     		sub	sp, sp, #68
 2987              		.cfi_def_cfa_offset 80
 2988 0004 0190     		str	r0, [sp, #4]
 672:C:/StellarStudio-7.0/SDKS/StellarESDK-1.7.0/Modules/Drivers/Timers/HRTIM/src\hrtim.c **** 
 673:C:/StellarStudio-7.0/SDKS/StellarESDK-1.7.0/Modules/Drivers/Timers/HRTIM/src\hrtim.c ****     uint32_t cr, mstr_cr; 
 674:C:/StellarStudio-7.0/SDKS/StellarESDK-1.7.0/Modules/Drivers/Timers/HRTIM/src\hrtim.c ****     uint8_t i;
 675:C:/StellarStudio-7.0/SDKS/StellarESDK-1.7.0/Modules/Drivers/Timers/HRTIM/src\hrtim.c ****     uint8_t  eev_idx;
 676:C:/StellarStudio-7.0/SDKS/StellarESDK-1.7.0/Modules/Drivers/Timers/HRTIM/src\hrtim.c ****     uint32_t hrtim_cr1;
 677:C:/StellarStudio-7.0/SDKS/StellarESDK-1.7.0/Modules/Drivers/Timers/HRTIM/src\hrtim.c ****     uint32_t hrtim_adcur;
 678:C:/StellarStudio-7.0/SDKS/StellarESDK-1.7.0/Modules/Drivers/Timers/HRTIM/src\hrtim.c ****     uint32_t hrtim_eecr1;
 679:C:/StellarStudio-7.0/SDKS/StellarESDK-1.7.0/Modules/Drivers/Timers/HRTIM/src\hrtim.c ****     uint32_t hrtim_eecr2;
 680:C:/StellarStudio-7.0/SDKS/StellarESDK-1.7.0/Modules/Drivers/Timers/HRTIM/src\hrtim.c ****     uint32_t hrtim_eecr3;
 681:C:/StellarStudio-7.0/SDKS/StellarESDK-1.7.0/Modules/Drivers/Timers/HRTIM/src\hrtim.c ****     uint32_t hrtim_eefr3;
 682:C:/StellarStudio-7.0/SDKS/StellarESDK-1.7.0/Modules/Drivers/Timers/HRTIM/src\hrtim.c ****     uint32_t hrtim_fltinr1;
 683:C:/StellarStudio-7.0/SDKS/StellarESDK-1.7.0/Modules/Drivers/Timers/HRTIM/src\hrtim.c ****     uint32_t hrtim_fltinr2;
 684:C:/StellarStudio-7.0/SDKS/StellarESDK-1.7.0/Modules/Drivers/Timers/HRTIM/src\hrtim.c ****     uint32_t source0,source1;
 685:C:/StellarStudio-7.0/SDKS/StellarESDK-1.7.0/Modules/Drivers/Timers/HRTIM/src\hrtim.c ****     uint32_t idx;
 686:C:/StellarStudio-7.0/SDKS/StellarESDK-1.7.0/Modules/Drivers/Timers/HRTIM/src\hrtim.c **** 
 687:C:/StellarStudio-7.0/SDKS/StellarESDK-1.7.0/Modules/Drivers/Timers/HRTIM/src\hrtim.c ****     /* Enable clock.*/
 688:C:/StellarStudio-7.0/SDKS/StellarESDK-1.7.0/Modules/Drivers/Timers/HRTIM/src\hrtim.c ****     hrtim_dev_clock_enable(hdp);
 2989              		.loc 1 688 5
 2990 0006 0198     		ldr	r0, [sp, #4]
 2991 0008 FFF7FEFF 		bl	hrtim_dev_clock_enable
 689:C:/StellarStudio-7.0/SDKS/StellarESDK-1.7.0/Modules/Drivers/Timers/HRTIM/src\hrtim.c **** 
 690:C:/StellarStudio-7.0/SDKS/StellarESDK-1.7.0/Modules/Drivers/Timers/HRTIM/src\hrtim.c ****     /* Update enable status.*/
 691:C:/StellarStudio-7.0/SDKS/StellarESDK-1.7.0/Modules/Drivers/Timers/HRTIM/src\hrtim.c ****     hdp->is_enable = true;
 2992              		.loc 1 691 20
 2993 000c 019B     		ldr	r3, [sp, #4]
 2994 000e 0122     		movs	r2, #1
 2995 0010 1A71     		strb	r2, [r3, #4]
 692:C:/StellarStudio-7.0/SDKS/StellarESDK-1.7.0/Modules/Drivers/Timers/HRTIM/src\hrtim.c **** 
 693:C:/StellarStudio-7.0/SDKS/StellarESDK-1.7.0/Modules/Drivers/Timers/HRTIM/src\hrtim.c ****     /* Configure and enable interrupts.*/
 694:C:/StellarStudio-7.0/SDKS/StellarESDK-1.7.0/Modules/Drivers/Timers/HRTIM/src\hrtim.c ****     hrtim_dev_enable_irq(hdp, hdp->prio);
 2996              		.loc 1 694 5
 2997 0012 019B     		ldr	r3, [sp, #4]
 2998 0014 1B69     		ldr	r3, [r3, #16]
 2999 0016 1946     		mov	r1, r3
 3000 0018 0198     		ldr	r0, [sp, #4]
 3001 001a FFF7FEFF 		bl	hrtim_dev_enable_irq
 695:C:/StellarStudio-7.0/SDKS/StellarESDK-1.7.0/Modules/Drivers/Timers/HRTIM/src\hrtim.c **** 
 696:C:/StellarStudio-7.0/SDKS/StellarESDK-1.7.0/Modules/Drivers/Timers/HRTIM/src\hrtim.c ****     /* Setup calibration procedure and DLLC.*/
 697:C:/StellarStudio-7.0/SDKS/StellarESDK-1.7.0/Modules/Drivers/Timers/HRTIM/src\hrtim.c ****     hrtim_dev_calib_procedure(hdp);
 3002              		.loc 1 697 5
 3003 001e 0198     		ldr	r0, [sp, #4]
 3004 0020 FFF7FEFF 		bl	hrtim_dev_calib_procedure
 698:C:/StellarStudio-7.0/SDKS/StellarESDK-1.7.0/Modules/Drivers/Timers/HRTIM/src\hrtim.c **** 
 699:C:/StellarStudio-7.0/SDKS/StellarESDK-1.7.0/Modules/Drivers/Timers/HRTIM/src\hrtim.c ****     /* Timer settings.*/
 700:C:/StellarStudio-7.0/SDKS/StellarESDK-1.7.0/Modules/Drivers/Timers/HRTIM/src\hrtim.c ****     mstr_cr  = 0U;
 3005              		.loc 1 700 14
 3006 0024 0023     		movs	r3, #0
 3007 0026 0E93     		str	r3, [sp, #56]
 701:C:/StellarStudio-7.0/SDKS/StellarESDK-1.7.0/Modules/Drivers/Timers/HRTIM/src\hrtim.c **** 
 702:C:/StellarStudio-7.0/SDKS/StellarESDK-1.7.0/Modules/Drivers/Timers/HRTIM/src\hrtim.c ****     /* Mode-specific initializations.*/
 703:C:/StellarStudio-7.0/SDKS/StellarESDK-1.7.0/Modules/Drivers/Timers/HRTIM/src\hrtim.c ****     for (i = 0U; i < HRTIM_TIMER_NUM; i++) {
 3008              		.loc 1 703 12
 3009 0028 0023     		movs	r3, #0
 3010 002a 8DF83730 		strb	r3, [sp, #55]
 3011              		.loc 1 703 5
 3012 002e 00F00FBE 		b	.L148
 3013              	.L182:
 704:C:/StellarStudio-7.0/SDKS/StellarESDK-1.7.0/Modules/Drivers/Timers/HRTIM/src\hrtim.c ****         cr = 0U;
 3014              		.loc 1 704 12
 3015 0032 0023     		movs	r3, #0
 3016 0034 0F93     		str	r3, [sp, #60]
 705:C:/StellarStudio-7.0/SDKS/StellarESDK-1.7.0/Modules/Drivers/Timers/HRTIM/src\hrtim.c **** 
 706:C:/StellarStudio-7.0/SDKS/StellarESDK-1.7.0/Modules/Drivers/Timers/HRTIM/src\hrtim.c ****         switch (hdp->timer_cntr_mode[i]) {
 3017              		.loc 1 706 37
 3018 0036 9DF83730 		ldrb	r3, [sp, #55]	@ zero_extendqisi2
 3019 003a 019A     		ldr	r2, [sp, #4]
 3020 003c 1344     		add	r3, r3, r2
 3021 003e 93F82030 		ldrb	r3, [r3, #32]	@ zero_extendqisi2
 3022              		.loc 1 706 9
 3023 0042 022B     		cmp	r3, #2
 3024 0044 0BD0     		beq	.L149
 3025 0046 022B     		cmp	r3, #2
 3026 0048 0EDC     		bgt	.L259
 3027 004a 002B     		cmp	r3, #0
 3028 004c 0ED0     		beq	.L260
 3029 004e 012B     		cmp	r3, #1
 3030 0050 00D0     		beq	.L152
 707:C:/StellarStudio-7.0/SDKS/StellarESDK-1.7.0/Modules/Drivers/Timers/HRTIM/src\hrtim.c ****             case HRTIM_MODE_SINGLE_SHOT_NO_RETRIGGERED:
 708:C:/StellarStudio-7.0/SDKS/StellarESDK-1.7.0/Modules/Drivers/Timers/HRTIM/src\hrtim.c ****                 break;
 709:C:/StellarStudio-7.0/SDKS/StellarESDK-1.7.0/Modules/Drivers/Timers/HRTIM/src\hrtim.c ****             case HRTIM_MODE_SINGLE_SHOT_RETRIGGERED:
 710:C:/StellarStudio-7.0/SDKS/StellarESDK-1.7.0/Modules/Drivers/Timers/HRTIM/src\hrtim.c ****                 cr |= HRTIM_TIMxCR_RETRIG;
 711:C:/StellarStudio-7.0/SDKS/StellarESDK-1.7.0/Modules/Drivers/Timers/HRTIM/src\hrtim.c ****                 break;
 712:C:/StellarStudio-7.0/SDKS/StellarESDK-1.7.0/Modules/Drivers/Timers/HRTIM/src\hrtim.c ****             case HRTIM_MODE_CONTINUOS:
 713:C:/StellarStudio-7.0/SDKS/StellarESDK-1.7.0/Modules/Drivers/Timers/HRTIM/src\hrtim.c ****                 cr |= HRTIM_TIMxCR_CONT;
 714:C:/StellarStudio-7.0/SDKS/StellarESDK-1.7.0/Modules/Drivers/Timers/HRTIM/src\hrtim.c ****                 break;
 715:C:/StellarStudio-7.0/SDKS/StellarESDK-1.7.0/Modules/Drivers/Timers/HRTIM/src\hrtim.c ****             default:
 716:C:/StellarStudio-7.0/SDKS/StellarESDK-1.7.0/Modules/Drivers/Timers/HRTIM/src\hrtim.c ****                 /* for MISRA compliance */
 717:C:/StellarStudio-7.0/SDKS/StellarESDK-1.7.0/Modules/Drivers/Timers/HRTIM/src\hrtim.c ****                 break;
 3031              		.loc 1 717 17
 3032 0052 09E0     		b	.L259
 3033              	.L152:
 710:C:/StellarStudio-7.0/SDKS/StellarESDK-1.7.0/Modules/Drivers/Timers/HRTIM/src\hrtim.c ****                 break;
 3034              		.loc 1 710 20
 3035 0054 0F9B     		ldr	r3, [sp, #60]
 3036 0056 43F01003 		orr	r3, r3, #16
 3037 005a 0F93     		str	r3, [sp, #60]
 711:C:/StellarStudio-7.0/SDKS/StellarESDK-1.7.0/Modules/Drivers/Timers/HRTIM/src\hrtim.c ****             case HRTIM_MODE_CONTINUOS:
 3038              		.loc 1 711 17
 3039 005c 07E0     		b	.L153
 3040              	.L149:
 713:C:/StellarStudio-7.0/SDKS/StellarESDK-1.7.0/Modules/Drivers/Timers/HRTIM/src\hrtim.c ****                 break;
 3041              		.loc 1 713 20
 3042 005e 0F9B     		ldr	r3, [sp, #60]
 3043 0060 43F00803 		orr	r3, r3, #8
 3044 0064 0F93     		str	r3, [sp, #60]
 714:C:/StellarStudio-7.0/SDKS/StellarESDK-1.7.0/Modules/Drivers/Timers/HRTIM/src\hrtim.c ****             default:
 3045              		.loc 1 714 17
 3046 0066 02E0     		b	.L153
 3047              	.L259:
 3048              		.loc 1 717 17
 3049 0068 00BF     		nop
 3050 006a 00E0     		b	.L153
 3051              	.L260:
 708:C:/StellarStudio-7.0/SDKS/StellarESDK-1.7.0/Modules/Drivers/Timers/HRTIM/src\hrtim.c ****             case HRTIM_MODE_SINGLE_SHOT_RETRIGGERED:
 3052              		.loc 1 708 17
 3053 006c 00BF     		nop
 3054              	.L153:
 718:C:/StellarStudio-7.0/SDKS/StellarESDK-1.7.0/Modules/Drivers/Timers/HRTIM/src\hrtim.c ****         }
 719:C:/StellarStudio-7.0/SDKS/StellarESDK-1.7.0/Modules/Drivers/Timers/HRTIM/src\hrtim.c **** 
 720:C:/StellarStudio-7.0/SDKS/StellarESDK-1.7.0/Modules/Drivers/Timers/HRTIM/src\hrtim.c ****         switch (hdp->timer_mode_tpg[i]) {
 3055              		.loc 1 720 36
 3056 006e 9DF83730 		ldrb	r3, [sp, #55]	@ zero_extendqisi2
 3057 0072 019A     		ldr	r2, [sp, #4]
 3058 0074 1344     		add	r3, r3, r2
 3059 0076 93F8D033 		ldrb	r3, [r3, #976]	@ zero_extendqisi2
 3060              		.loc 1 720 9
 3061 007a 042B     		cmp	r3, #4
 3062 007c 2DD8     		bhi	.L261
 3063 007e 01A2     		adr	r2, .L156
 3064 0080 52F823F0 		ldr	pc, [r2, r3, lsl #2]
 3065              		.p2align 2
 3066              	.L156:
 3067 0084 99000000 		.word	.L160+1
 3068 0088 A3000000 		.word	.L159+1
 3069 008c B5000000 		.word	.L158+1
 3070 0090 C7000000 		.word	.L157+1
 3071 0094 D1000000 		.word	.L155+1
 3072              		.p2align 1
 3073              	.L160:
 721:C:/StellarStudio-7.0/SDKS/StellarESDK-1.7.0/Modules/Drivers/Timers/HRTIM/src\hrtim.c ****             case HRTIM_MODE_HALF_INTLVD_DISABLED:
 722:C:/StellarStudio-7.0/SDKS/StellarESDK-1.7.0/Modules/Drivers/Timers/HRTIM/src\hrtim.c ****                 cr &= ~(HRTIM_TIMxCR_HALF     |
 3074              		.loc 1 722 20
 3075 0098 0F9B     		ldr	r3, [sp, #60]
 3076 009a 23F4D073 		bic	r3, r3, #416
 3077 009e 0F93     		str	r3, [sp, #60]
 723:C:/StellarStudio-7.0/SDKS/StellarESDK-1.7.0/Modules/Drivers/Timers/HRTIM/src\hrtim.c ****                         HRTIM_TIMxCR_INTLVD_0 |
 724:C:/StellarStudio-7.0/SDKS/StellarESDK-1.7.0/Modules/Drivers/Timers/HRTIM/src\hrtim.c ****                         HRTIM_TIMxCR_INTLVD_1);
 725:C:/StellarStudio-7.0/SDKS/StellarESDK-1.7.0/Modules/Drivers/Timers/HRTIM/src\hrtim.c ****                 break;
 3078              		.loc 1 725 17
 3079 00a0 1CE0     		b	.L161
 3080              	.L159:
 726:C:/StellarStudio-7.0/SDKS/StellarESDK-1.7.0/Modules/Drivers/Timers/HRTIM/src\hrtim.c ****             case HRTIM_MODE_TRIPLE_INTERVALLED:
 727:C:/StellarStudio-7.0/SDKS/StellarESDK-1.7.0/Modules/Drivers/Timers/HRTIM/src\hrtim.c ****                 cr &= ~(HRTIM_TIMxCR_HALF);
 3081              		.loc 1 727 20
 3082 00a2 0F9B     		ldr	r3, [sp, #60]
 3083 00a4 23F02003 		bic	r3, r3, #32
 3084 00a8 0F93     		str	r3, [sp, #60]
 728:C:/StellarStudio-7.0/SDKS/StellarESDK-1.7.0/Modules/Drivers/Timers/HRTIM/src\hrtim.c ****                 cr |= HRTIM_TIMxCR_INTLVD_0;
 3085              		.loc 1 728 20
 3086 00aa 0F9B     		ldr	r3, [sp, #60]
 3087 00ac 43F08003 		orr	r3, r3, #128
 3088 00b0 0F93     		str	r3, [sp, #60]
 729:C:/StellarStudio-7.0/SDKS/StellarESDK-1.7.0/Modules/Drivers/Timers/HRTIM/src\hrtim.c ****                 break;
 3089              		.loc 1 729 17
 3090 00b2 13E0     		b	.L161
 3091              	.L158:
 730:C:/StellarStudio-7.0/SDKS/StellarESDK-1.7.0/Modules/Drivers/Timers/HRTIM/src\hrtim.c ****             case HRTIM_MODE_QUAD_INTERVALLED:
 731:C:/StellarStudio-7.0/SDKS/StellarESDK-1.7.0/Modules/Drivers/Timers/HRTIM/src\hrtim.c ****                 cr &= ~(HRTIM_TIMxCR_HALF);
 3092              		.loc 1 731 20
 3093 00b4 0F9B     		ldr	r3, [sp, #60]
 3094 00b6 23F02003 		bic	r3, r3, #32
 3095 00ba 0F93     		str	r3, [sp, #60]
 732:C:/StellarStudio-7.0/SDKS/StellarESDK-1.7.0/Modules/Drivers/Timers/HRTIM/src\hrtim.c ****                 cr |= HRTIM_TIMxCR_INTLVD_1;
 3096              		.loc 1 732 20
 3097 00bc 0F9B     		ldr	r3, [sp, #60]
 3098 00be 43F48073 		orr	r3, r3, #256
 3099 00c2 0F93     		str	r3, [sp, #60]
 733:C:/StellarStudio-7.0/SDKS/StellarESDK-1.7.0/Modules/Drivers/Timers/HRTIM/src\hrtim.c ****                 break;
 3100              		.loc 1 733 17
 3101 00c4 0AE0     		b	.L161
 3102              	.L157:
 734:C:/StellarStudio-7.0/SDKS/StellarESDK-1.7.0/Modules/Drivers/Timers/HRTIM/src\hrtim.c ****             case HRTIM_MODE_DUAL_INTERVALLED:
 735:C:/StellarStudio-7.0/SDKS/StellarESDK-1.7.0/Modules/Drivers/Timers/HRTIM/src\hrtim.c ****                 cr |= HRTIM_TIMxCR_HALF;
 3103              		.loc 1 735 20
 3104 00c6 0F9B     		ldr	r3, [sp, #60]
 3105 00c8 43F02003 		orr	r3, r3, #32
 3106 00cc 0F93     		str	r3, [sp, #60]
 736:C:/StellarStudio-7.0/SDKS/StellarESDK-1.7.0/Modules/Drivers/Timers/HRTIM/src\hrtim.c ****                 break;
 3107              		.loc 1 736 17
 3108 00ce 05E0     		b	.L161
 3109              	.L155:
 737:C:/StellarStudio-7.0/SDKS/StellarESDK-1.7.0/Modules/Drivers/Timers/HRTIM/src\hrtim.c ****             case HRTIM_MODE_HALF:
 738:C:/StellarStudio-7.0/SDKS/StellarESDK-1.7.0/Modules/Drivers/Timers/HRTIM/src\hrtim.c ****                 cr |= HRTIM_TIMxCR_HALF;
 3110              		.loc 1 738 20
 3111 00d0 0F9B     		ldr	r3, [sp, #60]
 3112 00d2 43F02003 		orr	r3, r3, #32
 3113 00d6 0F93     		str	r3, [sp, #60]
 739:C:/StellarStudio-7.0/SDKS/StellarESDK-1.7.0/Modules/Drivers/Timers/HRTIM/src\hrtim.c ****                 break;
 3114              		.loc 1 739 17
 3115 00d8 00E0     		b	.L161
 3116              	.L261:
 740:C:/StellarStudio-7.0/SDKS/StellarESDK-1.7.0/Modules/Drivers/Timers/HRTIM/src\hrtim.c ****             default:
 741:C:/StellarStudio-7.0/SDKS/StellarESDK-1.7.0/Modules/Drivers/Timers/HRTIM/src\hrtim.c ****                 /* for MISRA compliance */
 742:C:/StellarStudio-7.0/SDKS/StellarESDK-1.7.0/Modules/Drivers/Timers/HRTIM/src\hrtim.c ****                 break;
 3117              		.loc 1 742 17
 3118 00da 00BF     		nop
 3119              	.L161:
 743:C:/StellarStudio-7.0/SDKS/StellarESDK-1.7.0/Modules/Drivers/Timers/HRTIM/src\hrtim.c ****         }
 744:C:/StellarStudio-7.0/SDKS/StellarESDK-1.7.0/Modules/Drivers/Timers/HRTIM/src\hrtim.c **** 
 745:C:/StellarStudio-7.0/SDKS/StellarESDK-1.7.0/Modules/Drivers/Timers/HRTIM/src\hrtim.c ****         /* Configure comparator auto-delayes modes.*/
 746:C:/StellarStudio-7.0/SDKS/StellarESDK-1.7.0/Modules/Drivers/Timers/HRTIM/src\hrtim.c ****         cr |= ((uint32_t)hdp->timer_cmp_ad_mode[i][HRTIM_CMP2]) << HRTIM_TIMxCR_DELCMP2_Pos |
 3120              		.loc 1 746 51
 3121 00dc 9DF83730 		ldrb	r3, [sp, #55]	@ zero_extendqisi2
 3122 00e0 019A     		ldr	r2, [sp, #4]
 3123 00e2 9B00     		lsls	r3, r3, #2
 3124 00e4 1344     		add	r3, r3, r2
 3125 00e6 93F86930 		ldrb	r3, [r3, #105]	@ zero_extendqisi2
 3126              		.loc 1 746 65
 3127 00ea 1A03     		lsls	r2, r3, #12
 747:C:/StellarStudio-7.0/SDKS/StellarESDK-1.7.0/Modules/Drivers/Timers/HRTIM/src\hrtim.c ****               ((uint32_t)hdp->timer_cmp_ad_mode[i][HRTIM_CMP4]) << HRTIM_TIMxCR_DELCMP4_Pos;
 3128              		.loc 1 747 51
 3129 00ec 9DF83730 		ldrb	r3, [sp, #55]	@ zero_extendqisi2
 3130 00f0 0199     		ldr	r1, [sp, #4]
 3131 00f2 9B00     		lsls	r3, r3, #2
 3132 00f4 0B44     		add	r3, r3, r1
 3133 00f6 93F86B30 		ldrb	r3, [r3, #107]	@ zero_extendqisi2
 3134              		.loc 1 747 65
 3135 00fa 9B03     		lsls	r3, r3, #14
 746:C:/StellarStudio-7.0/SDKS/StellarESDK-1.7.0/Modules/Drivers/Timers/HRTIM/src\hrtim.c ****               ((uint32_t)hdp->timer_cmp_ad_mode[i][HRTIM_CMP4]) << HRTIM_TIMxCR_DELCMP4_Pos;
 3136              		.loc 1 746 93
 3137 00fc 1343     		orrs	r3, r3, r2
 746:C:/StellarStudio-7.0/SDKS/StellarESDK-1.7.0/Modules/Drivers/Timers/HRTIM/src\hrtim.c ****               ((uint32_t)hdp->timer_cmp_ad_mode[i][HRTIM_CMP4]) << HRTIM_TIMxCR_DELCMP4_Pos;
 3138              		.loc 1 746 12
 3139 00fe 0F9A     		ldr	r2, [sp, #60]
 3140 0100 1343     		orrs	r3, r3, r2
 3141 0102 0F93     		str	r3, [sp, #60]
 748:C:/StellarStudio-7.0/SDKS/StellarESDK-1.7.0/Modules/Drivers/Timers/HRTIM/src\hrtim.c **** 
 749:C:/StellarStudio-7.0/SDKS/StellarESDK-1.7.0/Modules/Drivers/Timers/HRTIM/src\hrtim.c ****         hdp->hrtim->sTimerxRegs[i].EEFxR1 = 0U;
 3142              		.loc 1 749 12
 3143 0104 019B     		ldr	r3, [sp, #4]
 3144 0106 1A68     		ldr	r2, [r3]
 3145              		.loc 1 749 35
 3146 0108 9DF83730 		ldrb	r3, [sp, #55]	@ zero_extendqisi2
 3147              		.loc 1 749 43
 3148 010c DB01     		lsls	r3, r3, #7
 3149 010e 1344     		add	r3, r3, r2
 3150 0110 CC33     		adds	r3, r3, #204
 3151 0112 0022     		movs	r2, #0
 3152 0114 1A60     		str	r2, [r3]
 750:C:/StellarStudio-7.0/SDKS/StellarESDK-1.7.0/Modules/Drivers/Timers/HRTIM/src\hrtim.c ****         hdp->hrtim->sTimerxRegs[i].EEFxR2 = 0U;
 3153              		.loc 1 750 12
 3154 0116 019B     		ldr	r3, [sp, #4]
 3155 0118 1A68     		ldr	r2, [r3]
 3156              		.loc 1 750 35
 3157 011a 9DF83730 		ldrb	r3, [sp, #55]	@ zero_extendqisi2
 3158              		.loc 1 750 43
 3159 011e DB01     		lsls	r3, r3, #7
 3160 0120 1344     		add	r3, r3, r2
 3161 0122 D033     		adds	r3, r3, #208
 3162 0124 0022     		movs	r2, #0
 3163 0126 1A60     		str	r2, [r3]
 751:C:/StellarStudio-7.0/SDKS/StellarESDK-1.7.0/Modules/Drivers/Timers/HRTIM/src\hrtim.c ****         hdp->hrtim->sTimerxRegs[i].EEFxR3 = 0U;
 3164              		.loc 1 751 12
 3165 0128 019B     		ldr	r3, [sp, #4]
 3166 012a 1A68     		ldr	r2, [r3]
 3167              		.loc 1 751 35
 3168 012c 9DF83730 		ldrb	r3, [sp, #55]	@ zero_extendqisi2
 3169              		.loc 1 751 43
 3170 0130 DB01     		lsls	r3, r3, #7
 3171 0132 1344     		add	r3, r3, r2
 3172 0134 F033     		adds	r3, r3, #240
 3173 0136 0022     		movs	r2, #0
 3174 0138 1A60     		str	r2, [r3]
 752:C:/StellarStudio-7.0/SDKS/StellarESDK-1.7.0/Modules/Drivers/Timers/HRTIM/src\hrtim.c ****         for (eev_idx = 1U; eev_idx <= HRTIM_EXEVENT_NUM; eev_idx++) {
 3175              		.loc 1 752 22
 3176 013a 0123     		movs	r3, #1
 3177 013c 8DF83630 		strb	r3, [sp, #54]
 3178              		.loc 1 752 9
 3179 0140 55E3     		b	.L162
 3180              	.L177:
 753:C:/StellarStudio-7.0/SDKS/StellarESDK-1.7.0/Modules/Drivers/Timers/HRTIM/src\hrtim.c ****             /* Configure timer event filtering capabilities */
 754:C:/StellarStudio-7.0/SDKS/StellarESDK-1.7.0/Modules/Drivers/Timers/HRTIM/src\hrtim.c ****             switch (eev_idx) {
 3181              		.loc 1 754 13
 3182 0142 9DF83630 		ldrb	r3, [sp, #54]	@ zero_extendqisi2
 3183 0146 013B     		subs	r3, r3, #1
 3184 0148 092B     		cmp	r3, #9
 3185 014a 00F2C982 		bhi	.L262
 3186 014e 01A2     		adr	r2, .L165
 3187 0150 52F823F0 		ldr	pc, [r2, r3, lsl #2]
 3188              		.p2align 2
 3189              	.L165:
 3190 0154 7D010000 		.word	.L174+1
 3191 0158 07020000 		.word	.L173+1
 3192 015c 91020000 		.word	.L172+1
 3193 0160 1B030000 		.word	.L171+1
 3194 0164 A5030000 		.word	.L170+1
 3195 0168 2F040000 		.word	.L169+1
 3196 016c B9040000 		.word	.L168+1
 3197 0170 43050000 		.word	.L167+1
 3198 0174 CD050000 		.word	.L166+1
 3199 0178 57060000 		.word	.L164+1
 3200              		.p2align 1
 3201              	.L174:
 755:C:/StellarStudio-7.0/SDKS/StellarESDK-1.7.0/Modules/Drivers/Timers/HRTIM/src\hrtim.c ****                 case HRTIM_EVENT_1:
 756:C:/StellarStudio-7.0/SDKS/StellarESDK-1.7.0/Modules/Drivers/Timers/HRTIM/src\hrtim.c ****                     hdp->hrtim->sTimerxRegs[i].EEFxR1 &= ~( HRTIM_EEFxR1_EE1LTCH| HRTIM_EEFxR1_EE1F
 3202              		.loc 1 756 24
 3203 017c 019B     		ldr	r3, [sp, #4]
 3204 017e 1A68     		ldr	r2, [r3]
 3205              		.loc 1 756 55
 3206 0180 9DF83730 		ldrb	r3, [sp, #55]	@ zero_extendqisi2
 3207 0184 DB01     		lsls	r3, r3, #7
 3208 0186 1344     		add	r3, r3, r2
 3209 0188 CC33     		adds	r3, r3, #204
 3210 018a 1A68     		ldr	r2, [r3]
 3211              		.loc 1 756 24
 3212 018c 019B     		ldr	r3, [sp, #4]
 3213 018e 1968     		ldr	r1, [r3]
 3214              		.loc 1 756 55
 3215 0190 9DF83730 		ldrb	r3, [sp, #55]	@ zero_extendqisi2
 3216 0194 22F01F02 		bic	r2, r2, #31
 3217 0198 DB01     		lsls	r3, r3, #7
 3218 019a 0B44     		add	r3, r3, r1
 3219 019c CC33     		adds	r3, r3, #204
 3220 019e 1A60     		str	r2, [r3]
 757:C:/StellarStudio-7.0/SDKS/StellarESDK-1.7.0/Modules/Drivers/Timers/HRTIM/src\hrtim.c ****                     hdp->hrtim->sTimerxRegs[i].EEFxR1 |= (uint32_t)(hdp->timer_eev_filter[i][eev_id
 3221              		.loc 1 757 24
 3222 01a0 019B     		ldr	r3, [sp, #4]
 3223 01a2 1A68     		ldr	r2, [r3]
 3224              		.loc 1 757 55
 3225 01a4 9DF83730 		ldrb	r3, [sp, #55]	@ zero_extendqisi2
 3226 01a8 DB01     		lsls	r3, r3, #7
 3227 01aa 1344     		add	r3, r3, r2
 3228 01ac CC33     		adds	r3, r3, #204
 3229 01ae 1868     		ldr	r0, [r3]
 3230              		.loc 1 757 107
 3231 01b0 9DF83720 		ldrb	r2, [sp, #55]	@ zero_extendqisi2
 3232              		.loc 1 757 102
 3233 01b4 9DF83630 		ldrb	r3, [sp, #54]	@ zero_extendqisi2
 3234 01b8 5C1E     		subs	r4, r3, #1
 3235              		.loc 1 757 107
 3236 01ba 0199     		ldr	r1, [sp, #4]
 3237 01bc 1346     		mov	r3, r2
 3238 01be 9B00     		lsls	r3, r3, #2
 3239 01c0 1344     		add	r3, r3, r2
 3240 01c2 5B00     		lsls	r3, r3, #1
 3241 01c4 2344     		add	r3, r3, r4
 3242 01c6 03F58073 		add	r3, r3, #256
 3243 01ca DB00     		lsls	r3, r3, #3
 3244 01cc 0B44     		add	r3, r3, r1
 3245 01ce 5968     		ldr	r1, [r3, #4]
 3246              		.loc 1 757 154
 3247 01d0 9DF83720 		ldrb	r2, [sp, #55]	@ zero_extendqisi2
 3248              		.loc 1 757 149
 3249 01d4 9DF83630 		ldrb	r3, [sp, #54]	@ zero_extendqisi2
 3250 01d8 5D1E     		subs	r5, r3, #1
 3251              		.loc 1 757 154
 3252 01da 019C     		ldr	r4, [sp, #4]
 3253 01dc 1346     		mov	r3, r2
 3254 01de 9B00     		lsls	r3, r3, #2
 3255 01e0 1344     		add	r3, r3, r2
 3256 01e2 5B00     		lsls	r3, r3, #1
 3257 01e4 2B44     		add	r3, r3, r5
 3258 01e6 03F58073 		add	r3, r3, #256
 3259 01ea 54F83330 		ldr	r3, [r4, r3, lsl #3]
 3260              		.loc 1 757 114
 3261 01ee 41EA0302 		orr	r2, r1, r3
 3262              		.loc 1 757 24
 3263 01f2 019B     		ldr	r3, [sp, #4]
 3264 01f4 1968     		ldr	r1, [r3]
 3265              		.loc 1 757 55
 3266 01f6 9DF83730 		ldrb	r3, [sp, #55]	@ zero_extendqisi2
 3267 01fa 0243     		orrs	r2, r2, r0
 3268 01fc DB01     		lsls	r3, r3, #7
 3269 01fe 0B44     		add	r3, r3, r1
 3270 0200 CC33     		adds	r3, r3, #204
 3271 0202 1A60     		str	r2, [r3]
 758:C:/StellarStudio-7.0/SDKS/StellarESDK-1.7.0/Modules/Drivers/Timers/HRTIM/src\hrtim.c ****                     break;
 3272              		.loc 1 758 21
 3273 0204 6DE2     		b	.L175
 3274              	.L173:
 759:C:/StellarStudio-7.0/SDKS/StellarESDK-1.7.0/Modules/Drivers/Timers/HRTIM/src\hrtim.c ****                 case HRTIM_EVENT_2:
 760:C:/StellarStudio-7.0/SDKS/StellarESDK-1.7.0/Modules/Drivers/Timers/HRTIM/src\hrtim.c ****                     hdp->hrtim->sTimerxRegs[i].EEFxR1 &= ~( HRTIM_EEFxR1_EE2LTCH| HRTIM_EEFxR1_EE2F
 3275              		.loc 1 760 24
 3276 0206 019B     		ldr	r3, [sp, #4]
 3277 0208 1A68     		ldr	r2, [r3]
 3278              		.loc 1 760 55
 3279 020a 9DF83730 		ldrb	r3, [sp, #55]	@ zero_extendqisi2
 3280 020e DB01     		lsls	r3, r3, #7
 3281 0210 1344     		add	r3, r3, r2
 3282 0212 CC33     		adds	r3, r3, #204
 3283 0214 1A68     		ldr	r2, [r3]
 3284              		.loc 1 760 24
 3285 0216 019B     		ldr	r3, [sp, #4]
 3286 0218 1968     		ldr	r1, [r3]
 3287              		.loc 1 760 55
 3288 021a 9DF83730 		ldrb	r3, [sp, #55]	@ zero_extendqisi2
 3289 021e 22F4F862 		bic	r2, r2, #1984
 3290 0222 DB01     		lsls	r3, r3, #7
 3291 0224 0B44     		add	r3, r3, r1
 3292 0226 CC33     		adds	r3, r3, #204
 3293 0228 1A60     		str	r2, [r3]
 761:C:/StellarStudio-7.0/SDKS/StellarESDK-1.7.0/Modules/Drivers/Timers/HRTIM/src\hrtim.c ****                     hdp->hrtim->sTimerxRegs[i].EEFxR1 |= (uint32_t)((hdp->timer_eev_filter[i][eev_i
 3294              		.loc 1 761 24
 3295 022a 019B     		ldr	r3, [sp, #4]
 3296 022c 1A68     		ldr	r2, [r3]
 3297              		.loc 1 761 55
 3298 022e 9DF83730 		ldrb	r3, [sp, #55]	@ zero_extendqisi2
 3299 0232 DB01     		lsls	r3, r3, #7
 3300 0234 1344     		add	r3, r3, r2
 3301 0236 CC33     		adds	r3, r3, #204
 3302 0238 1868     		ldr	r0, [r3]
 3303              		.loc 1 761 108
 3304 023a 9DF83720 		ldrb	r2, [sp, #55]	@ zero_extendqisi2
 3305              		.loc 1 761 103
 3306 023e 9DF83630 		ldrb	r3, [sp, #54]	@ zero_extendqisi2
 3307 0242 5C1E     		subs	r4, r3, #1
 3308              		.loc 1 761 108
 3309 0244 0199     		ldr	r1, [sp, #4]
 3310 0246 1346     		mov	r3, r2
 3311 0248 9B00     		lsls	r3, r3, #2
 3312 024a 1344     		add	r3, r3, r2
 3313 024c 5B00     		lsls	r3, r3, #1
 3314 024e 2344     		add	r3, r3, r4
 3315 0250 03F58073 		add	r3, r3, #256
 3316 0254 DB00     		lsls	r3, r3, #3
 3317 0256 0B44     		add	r3, r3, r1
 3318 0258 5968     		ldr	r1, [r3, #4]
 3319              		.loc 1 761 155
 3320 025a 9DF83720 		ldrb	r2, [sp, #55]	@ zero_extendqisi2
 3321              		.loc 1 761 150
 3322 025e 9DF83630 		ldrb	r3, [sp, #54]	@ zero_extendqisi2
 3323 0262 5D1E     		subs	r5, r3, #1
 3324              		.loc 1 761 155
 3325 0264 019C     		ldr	r4, [sp, #4]
 3326 0266 1346     		mov	r3, r2
 3327 0268 9B00     		lsls	r3, r3, #2
 3328 026a 1344     		add	r3, r3, r2
 3329 026c 5B00     		lsls	r3, r3, #1
 3330 026e 2B44     		add	r3, r3, r5
 3331 0270 03F58073 		add	r3, r3, #256
 3332 0274 54F83330 		ldr	r3, [r4, r3, lsl #3]
 3333              		.loc 1 761 115
 3334 0278 0B43     		orrs	r3, r3, r1
 3335              		.loc 1 761 164
 3336 027a 9A01     		lsls	r2, r3, #6
 3337              		.loc 1 761 24
 3338 027c 019B     		ldr	r3, [sp, #4]
 3339 027e 1968     		ldr	r1, [r3]
 3340              		.loc 1 761 55
 3341 0280 9DF83730 		ldrb	r3, [sp, #55]	@ zero_extendqisi2
 3342 0284 0243     		orrs	r2, r2, r0
 3343 0286 DB01     		lsls	r3, r3, #7
 3344 0288 0B44     		add	r3, r3, r1
 3345 028a CC33     		adds	r3, r3, #204
 3346 028c 1A60     		str	r2, [r3]
 762:C:/StellarStudio-7.0/SDKS/StellarESDK-1.7.0/Modules/Drivers/Timers/HRTIM/src\hrtim.c ****                     break;
 3347              		.loc 1 762 21
 3348 028e 28E2     		b	.L175
 3349              	.L172:
 763:C:/StellarStudio-7.0/SDKS/StellarESDK-1.7.0/Modules/Drivers/Timers/HRTIM/src\hrtim.c ****                 case HRTIM_EVENT_3:
 764:C:/StellarStudio-7.0/SDKS/StellarESDK-1.7.0/Modules/Drivers/Timers/HRTIM/src\hrtim.c ****                     hdp->hrtim->sTimerxRegs[i].EEFxR1 &= ~( HRTIM_EEFxR1_EE3LTCH| HRTIM_EEFxR1_EE3F
 3350              		.loc 1 764 24
 3351 0290 019B     		ldr	r3, [sp, #4]
 3352 0292 1A68     		ldr	r2, [r3]
 3353              		.loc 1 764 55
 3354 0294 9DF83730 		ldrb	r3, [sp, #55]	@ zero_extendqisi2
 3355 0298 DB01     		lsls	r3, r3, #7
 3356 029a 1344     		add	r3, r3, r2
 3357 029c CC33     		adds	r3, r3, #204
 3358 029e 1A68     		ldr	r2, [r3]
 3359              		.loc 1 764 24
 3360 02a0 019B     		ldr	r3, [sp, #4]
 3361 02a2 1968     		ldr	r1, [r3]
 3362              		.loc 1 764 55
 3363 02a4 9DF83730 		ldrb	r3, [sp, #55]	@ zero_extendqisi2
 3364 02a8 22F4F832 		bic	r2, r2, #126976
 3365 02ac DB01     		lsls	r3, r3, #7
 3366 02ae 0B44     		add	r3, r3, r1
 3367 02b0 CC33     		adds	r3, r3, #204
 3368 02b2 1A60     		str	r2, [r3]
 765:C:/StellarStudio-7.0/SDKS/StellarESDK-1.7.0/Modules/Drivers/Timers/HRTIM/src\hrtim.c ****                     hdp->hrtim->sTimerxRegs[i].EEFxR1 |= (uint32_t)((hdp->timer_eev_filter[i][eev_i
 3369              		.loc 1 765 24
 3370 02b4 019B     		ldr	r3, [sp, #4]
 3371 02b6 1A68     		ldr	r2, [r3]
 3372              		.loc 1 765 55
 3373 02b8 9DF83730 		ldrb	r3, [sp, #55]	@ zero_extendqisi2
 3374 02bc DB01     		lsls	r3, r3, #7
 3375 02be 1344     		add	r3, r3, r2
 3376 02c0 CC33     		adds	r3, r3, #204
 3377 02c2 1868     		ldr	r0, [r3]
 3378              		.loc 1 765 108
 3379 02c4 9DF83720 		ldrb	r2, [sp, #55]	@ zero_extendqisi2
 3380              		.loc 1 765 103
 3381 02c8 9DF83630 		ldrb	r3, [sp, #54]	@ zero_extendqisi2
 3382 02cc 5C1E     		subs	r4, r3, #1
 3383              		.loc 1 765 108
 3384 02ce 0199     		ldr	r1, [sp, #4]
 3385 02d0 1346     		mov	r3, r2
 3386 02d2 9B00     		lsls	r3, r3, #2
 3387 02d4 1344     		add	r3, r3, r2
 3388 02d6 5B00     		lsls	r3, r3, #1
 3389 02d8 2344     		add	r3, r3, r4
 3390 02da 03F58073 		add	r3, r3, #256
 3391 02de DB00     		lsls	r3, r3, #3
 3392 02e0 0B44     		add	r3, r3, r1
 3393 02e2 5968     		ldr	r1, [r3, #4]
 3394              		.loc 1 765 155
 3395 02e4 9DF83720 		ldrb	r2, [sp, #55]	@ zero_extendqisi2
 3396              		.loc 1 765 150
 3397 02e8 9DF83630 		ldrb	r3, [sp, #54]	@ zero_extendqisi2
 3398 02ec 5D1E     		subs	r5, r3, #1
 3399              		.loc 1 765 155
 3400 02ee 019C     		ldr	r4, [sp, #4]
 3401 02f0 1346     		mov	r3, r2
 3402 02f2 9B00     		lsls	r3, r3, #2
 3403 02f4 1344     		add	r3, r3, r2
 3404 02f6 5B00     		lsls	r3, r3, #1
 3405 02f8 2B44     		add	r3, r3, r5
 3406 02fa 03F58073 		add	r3, r3, #256
 3407 02fe 54F83330 		ldr	r3, [r4, r3, lsl #3]
 3408              		.loc 1 765 115
 3409 0302 0B43     		orrs	r3, r3, r1
 3410              		.loc 1 765 164
 3411 0304 1A03     		lsls	r2, r3, #12
 3412              		.loc 1 765 24
 3413 0306 019B     		ldr	r3, [sp, #4]
 3414 0308 1968     		ldr	r1, [r3]
 3415              		.loc 1 765 55
 3416 030a 9DF83730 		ldrb	r3, [sp, #55]	@ zero_extendqisi2
 3417 030e 0243     		orrs	r2, r2, r0
 3418 0310 DB01     		lsls	r3, r3, #7
 3419 0312 0B44     		add	r3, r3, r1
 3420 0314 CC33     		adds	r3, r3, #204
 3421 0316 1A60     		str	r2, [r3]
 766:C:/StellarStudio-7.0/SDKS/StellarESDK-1.7.0/Modules/Drivers/Timers/HRTIM/src\hrtim.c ****                     break;
 3422              		.loc 1 766 21
 3423 0318 E3E1     		b	.L175
 3424              	.L171:
 767:C:/StellarStudio-7.0/SDKS/StellarESDK-1.7.0/Modules/Drivers/Timers/HRTIM/src\hrtim.c ****                 case HRTIM_EVENT_4:
 768:C:/StellarStudio-7.0/SDKS/StellarESDK-1.7.0/Modules/Drivers/Timers/HRTIM/src\hrtim.c ****                     hdp->hrtim->sTimerxRegs[i].EEFxR1 &= ~( HRTIM_EEFxR1_EE4LTCH| HRTIM_EEFxR1_EE4F
 3425              		.loc 1 768 24
 3426 031a 019B     		ldr	r3, [sp, #4]
 3427 031c 1A68     		ldr	r2, [r3]
 3428              		.loc 1 768 55
 3429 031e 9DF83730 		ldrb	r3, [sp, #55]	@ zero_extendqisi2
 3430 0322 DB01     		lsls	r3, r3, #7
 3431 0324 1344     		add	r3, r3, r2
 3432 0326 CC33     		adds	r3, r3, #204
 3433 0328 1A68     		ldr	r2, [r3]
 3434              		.loc 1 768 24
 3435 032a 019B     		ldr	r3, [sp, #4]
 3436 032c 1968     		ldr	r1, [r3]
 3437              		.loc 1 768 55
 3438 032e 9DF83730 		ldrb	r3, [sp, #55]	@ zero_extendqisi2
 3439 0332 22F4F802 		bic	r2, r2, #8126464
 3440 0336 DB01     		lsls	r3, r3, #7
 3441 0338 0B44     		add	r3, r3, r1
 3442 033a CC33     		adds	r3, r3, #204
 3443 033c 1A60     		str	r2, [r3]
 769:C:/StellarStudio-7.0/SDKS/StellarESDK-1.7.0/Modules/Drivers/Timers/HRTIM/src\hrtim.c ****                     hdp->hrtim->sTimerxRegs[i].EEFxR1 |= (uint32_t)((hdp->timer_eev_filter[i][eev_i
 3444              		.loc 1 769 24
 3445 033e 019B     		ldr	r3, [sp, #4]
 3446 0340 1A68     		ldr	r2, [r3]
 3447              		.loc 1 769 55
 3448 0342 9DF83730 		ldrb	r3, [sp, #55]	@ zero_extendqisi2
 3449 0346 DB01     		lsls	r3, r3, #7
 3450 0348 1344     		add	r3, r3, r2
 3451 034a CC33     		adds	r3, r3, #204
 3452 034c 1868     		ldr	r0, [r3]
 3453              		.loc 1 769 108
 3454 034e 9DF83720 		ldrb	r2, [sp, #55]	@ zero_extendqisi2
 3455              		.loc 1 769 103
 3456 0352 9DF83630 		ldrb	r3, [sp, #54]	@ zero_extendqisi2
 3457 0356 5C1E     		subs	r4, r3, #1
 3458              		.loc 1 769 108
 3459 0358 0199     		ldr	r1, [sp, #4]
 3460 035a 1346     		mov	r3, r2
 3461 035c 9B00     		lsls	r3, r3, #2
 3462 035e 1344     		add	r3, r3, r2
 3463 0360 5B00     		lsls	r3, r3, #1
 3464 0362 2344     		add	r3, r3, r4
 3465 0364 03F58073 		add	r3, r3, #256
 3466 0368 DB00     		lsls	r3, r3, #3
 3467 036a 0B44     		add	r3, r3, r1
 3468 036c 5968     		ldr	r1, [r3, #4]
 3469              		.loc 1 769 155
 3470 036e 9DF83720 		ldrb	r2, [sp, #55]	@ zero_extendqisi2
 3471              		.loc 1 769 150
 3472 0372 9DF83630 		ldrb	r3, [sp, #54]	@ zero_extendqisi2
 3473 0376 5D1E     		subs	r5, r3, #1
 3474              		.loc 1 769 155
 3475 0378 019C     		ldr	r4, [sp, #4]
 3476 037a 1346     		mov	r3, r2
 3477 037c 9B00     		lsls	r3, r3, #2
 3478 037e 1344     		add	r3, r3, r2
 3479 0380 5B00     		lsls	r3, r3, #1
 3480 0382 2B44     		add	r3, r3, r5
 3481 0384 03F58073 		add	r3, r3, #256
 3482 0388 54F83330 		ldr	r3, [r4, r3, lsl #3]
 3483              		.loc 1 769 115
 3484 038c 0B43     		orrs	r3, r3, r1
 3485              		.loc 1 769 164
 3486 038e 9A04     		lsls	r2, r3, #18
 3487              		.loc 1 769 24
 3488 0390 019B     		ldr	r3, [sp, #4]
 3489 0392 1968     		ldr	r1, [r3]
 3490              		.loc 1 769 55
 3491 0394 9DF83730 		ldrb	r3, [sp, #55]	@ zero_extendqisi2
 3492 0398 0243     		orrs	r2, r2, r0
 3493 039a DB01     		lsls	r3, r3, #7
 3494 039c 0B44     		add	r3, r3, r1
 3495 039e CC33     		adds	r3, r3, #204
 3496 03a0 1A60     		str	r2, [r3]
 770:C:/StellarStudio-7.0/SDKS/StellarESDK-1.7.0/Modules/Drivers/Timers/HRTIM/src\hrtim.c ****                     break;      
 3497              		.loc 1 770 21
 3498 03a2 9EE1     		b	.L175
 3499              	.L170:
 771:C:/StellarStudio-7.0/SDKS/StellarESDK-1.7.0/Modules/Drivers/Timers/HRTIM/src\hrtim.c ****                 case HRTIM_EVENT_5:
 772:C:/StellarStudio-7.0/SDKS/StellarESDK-1.7.0/Modules/Drivers/Timers/HRTIM/src\hrtim.c ****                     hdp->hrtim->sTimerxRegs[i].EEFxR1 &= ~( HRTIM_EEFxR1_EE5LTCH| HRTIM_EEFxR1_EE5F
 3500              		.loc 1 772 24
 3501 03a4 019B     		ldr	r3, [sp, #4]
 3502 03a6 1A68     		ldr	r2, [r3]
 3503              		.loc 1 772 55
 3504 03a8 9DF83730 		ldrb	r3, [sp, #55]	@ zero_extendqisi2
 3505 03ac DB01     		lsls	r3, r3, #7
 3506 03ae 1344     		add	r3, r3, r2
 3507 03b0 CC33     		adds	r3, r3, #204
 3508 03b2 1A68     		ldr	r2, [r3]
 3509              		.loc 1 772 24
 3510 03b4 019B     		ldr	r3, [sp, #4]
 3511 03b6 1968     		ldr	r1, [r3]
 3512              		.loc 1 772 55
 3513 03b8 9DF83730 		ldrb	r3, [sp, #55]	@ zero_extendqisi2
 3514 03bc 22F0F852 		bic	r2, r2, #520093696
 3515 03c0 DB01     		lsls	r3, r3, #7
 3516 03c2 0B44     		add	r3, r3, r1
 3517 03c4 CC33     		adds	r3, r3, #204
 3518 03c6 1A60     		str	r2, [r3]
 773:C:/StellarStudio-7.0/SDKS/StellarESDK-1.7.0/Modules/Drivers/Timers/HRTIM/src\hrtim.c ****                     hdp->hrtim->sTimerxRegs[i].EEFxR1 |= (uint32_t)((hdp->timer_eev_filter[i][eev_i
 3519              		.loc 1 773 24
 3520 03c8 019B     		ldr	r3, [sp, #4]
 3521 03ca 1A68     		ldr	r2, [r3]
 3522              		.loc 1 773 55
 3523 03cc 9DF83730 		ldrb	r3, [sp, #55]	@ zero_extendqisi2
 3524 03d0 DB01     		lsls	r3, r3, #7
 3525 03d2 1344     		add	r3, r3, r2
 3526 03d4 CC33     		adds	r3, r3, #204
 3527 03d6 1868     		ldr	r0, [r3]
 3528              		.loc 1 773 108
 3529 03d8 9DF83720 		ldrb	r2, [sp, #55]	@ zero_extendqisi2
 3530              		.loc 1 773 103
 3531 03dc 9DF83630 		ldrb	r3, [sp, #54]	@ zero_extendqisi2
 3532 03e0 5C1E     		subs	r4, r3, #1
 3533              		.loc 1 773 108
 3534 03e2 0199     		ldr	r1, [sp, #4]
 3535 03e4 1346     		mov	r3, r2
 3536 03e6 9B00     		lsls	r3, r3, #2
 3537 03e8 1344     		add	r3, r3, r2
 3538 03ea 5B00     		lsls	r3, r3, #1
 3539 03ec 2344     		add	r3, r3, r4
 3540 03ee 03F58073 		add	r3, r3, #256
 3541 03f2 DB00     		lsls	r3, r3, #3
 3542 03f4 0B44     		add	r3, r3, r1
 3543 03f6 5968     		ldr	r1, [r3, #4]
 3544              		.loc 1 773 155
 3545 03f8 9DF83720 		ldrb	r2, [sp, #55]	@ zero_extendqisi2
 3546              		.loc 1 773 150
 3547 03fc 9DF83630 		ldrb	r3, [sp, #54]	@ zero_extendqisi2
 3548 0400 5D1E     		subs	r5, r3, #1
 3549              		.loc 1 773 155
 3550 0402 019C     		ldr	r4, [sp, #4]
 3551 0404 1346     		mov	r3, r2
 3552 0406 9B00     		lsls	r3, r3, #2
 3553 0408 1344     		add	r3, r3, r2
 3554 040a 5B00     		lsls	r3, r3, #1
 3555 040c 2B44     		add	r3, r3, r5
 3556 040e 03F58073 		add	r3, r3, #256
 3557 0412 54F83330 		ldr	r3, [r4, r3, lsl #3]
 3558              		.loc 1 773 115
 3559 0416 0B43     		orrs	r3, r3, r1
 3560              		.loc 1 773 164
 3561 0418 1A06     		lsls	r2, r3, #24
 3562              		.loc 1 773 24
 3563 041a 019B     		ldr	r3, [sp, #4]
 3564 041c 1968     		ldr	r1, [r3]
 3565              		.loc 1 773 55
 3566 041e 9DF83730 		ldrb	r3, [sp, #55]	@ zero_extendqisi2
 3567 0422 0243     		orrs	r2, r2, r0
 3568 0424 DB01     		lsls	r3, r3, #7
 3569 0426 0B44     		add	r3, r3, r1
 3570 0428 CC33     		adds	r3, r3, #204
 3571 042a 1A60     		str	r2, [r3]
 774:C:/StellarStudio-7.0/SDKS/StellarESDK-1.7.0/Modules/Drivers/Timers/HRTIM/src\hrtim.c ****                     break;
 3572              		.loc 1 774 21
 3573 042c 59E1     		b	.L175
 3574              	.L169:
 775:C:/StellarStudio-7.0/SDKS/StellarESDK-1.7.0/Modules/Drivers/Timers/HRTIM/src\hrtim.c ****                 case HRTIM_EVENT_6:
 776:C:/StellarStudio-7.0/SDKS/StellarESDK-1.7.0/Modules/Drivers/Timers/HRTIM/src\hrtim.c ****                     hdp->hrtim->sTimerxRegs[i].EEFxR2 &= ~( HRTIM_EEFxR2_EE6LTCH| HRTIM_EEFxR2_EE6F
 3575              		.loc 1 776 24
 3576 042e 019B     		ldr	r3, [sp, #4]
 3577 0430 1A68     		ldr	r2, [r3]
 3578              		.loc 1 776 55
 3579 0432 9DF83730 		ldrb	r3, [sp, #55]	@ zero_extendqisi2
 3580 0436 DB01     		lsls	r3, r3, #7
 3581 0438 1344     		add	r3, r3, r2
 3582 043a D033     		adds	r3, r3, #208
 3583 043c 1A68     		ldr	r2, [r3]
 3584              		.loc 1 776 24
 3585 043e 019B     		ldr	r3, [sp, #4]
 3586 0440 1968     		ldr	r1, [r3]
 3587              		.loc 1 776 55
 3588 0442 9DF83730 		ldrb	r3, [sp, #55]	@ zero_extendqisi2
 3589 0446 22F01F02 		bic	r2, r2, #31
 3590 044a DB01     		lsls	r3, r3, #7
 3591 044c 0B44     		add	r3, r3, r1
 3592 044e D033     		adds	r3, r3, #208
 3593 0450 1A60     		str	r2, [r3]
 777:C:/StellarStudio-7.0/SDKS/StellarESDK-1.7.0/Modules/Drivers/Timers/HRTIM/src\hrtim.c ****                     hdp->hrtim->sTimerxRegs[i].EEFxR2 |= (uint32_t)(hdp->timer_eev_filter[i][eev_id
 3594              		.loc 1 777 24
 3595 0452 019B     		ldr	r3, [sp, #4]
 3596 0454 1A68     		ldr	r2, [r3]
 3597              		.loc 1 777 55
 3598 0456 9DF83730 		ldrb	r3, [sp, #55]	@ zero_extendqisi2
 3599 045a DB01     		lsls	r3, r3, #7
 3600 045c 1344     		add	r3, r3, r2
 3601 045e D033     		adds	r3, r3, #208
 3602 0460 1868     		ldr	r0, [r3]
 3603              		.loc 1 777 107
 3604 0462 9DF83720 		ldrb	r2, [sp, #55]	@ zero_extendqisi2
 3605              		.loc 1 777 102
 3606 0466 9DF83630 		ldrb	r3, [sp, #54]	@ zero_extendqisi2
 3607 046a 5C1E     		subs	r4, r3, #1
 3608              		.loc 1 777 107
 3609 046c 0199     		ldr	r1, [sp, #4]
 3610 046e 1346     		mov	r3, r2
 3611 0470 9B00     		lsls	r3, r3, #2
 3612 0472 1344     		add	r3, r3, r2
 3613 0474 5B00     		lsls	r3, r3, #1
 3614 0476 2344     		add	r3, r3, r4
 3615 0478 03F58073 		add	r3, r3, #256
 3616 047c DB00     		lsls	r3, r3, #3
 3617 047e 0B44     		add	r3, r3, r1
 3618 0480 5968     		ldr	r1, [r3, #4]
 3619              		.loc 1 777 154
 3620 0482 9DF83720 		ldrb	r2, [sp, #55]	@ zero_extendqisi2
 3621              		.loc 1 777 149
 3622 0486 9DF83630 		ldrb	r3, [sp, #54]	@ zero_extendqisi2
 3623 048a 5D1E     		subs	r5, r3, #1
