   1              		.cpu cortex-m7
   2              		.arch armv7e-m
   3              		.fpu fpv5-d16
   4              		.eabi_attribute 28, 1
   5              		.eabi_attribute 20, 1
   6              		.eabi_attribute 21, 1
   7              		.eabi_attribute 23, 3
   8              		.eabi_attribute 24, 1
   9              		.eabi_attribute 25, 1
  10              		.eabi_attribute 26, 1
  11              		.eabi_attribute 30, 6
  12              		.eabi_attribute 34, 1
  13              		.eabi_attribute 18, 4
  14              		.file	"hrtim.c"
  15              		.text
  16              	.Ltext0:
  17              		.cfi_sections	.debug_frame
  18              		.section	.text.hrtim_reset_paramters,"ax",%progbits
  19              		.align	1
  20              		.p2align 4,,15
  21              		.syntax unified
  22              		.thumb
  23              		.thumb_func
  25              	hrtim_reset_paramters:
  26              	.LFB154:
  27              		.file 1 "C:/StellarStudio-7.0/SDKS/StellarESDK-1.7.0/Modules/Drivers/Timers/HRTIM/src/hrtim.c"
   1:C:/StellarStudio-7.0/SDKS/StellarESDK-1.7.0/Modules/Drivers/Timers/HRTIM/src\hrtim.c **** /****************************************************************************
   2:C:/StellarStudio-7.0/SDKS/StellarESDK-1.7.0/Modules/Drivers/Timers/HRTIM/src\hrtim.c ****  *
   3:C:/StellarStudio-7.0/SDKS/StellarESDK-1.7.0/Modules/Drivers/Timers/HRTIM/src\hrtim.c ****  * Copyright (c) 2022 STMicroelectronics - All Rights Reserved
   4:C:/StellarStudio-7.0/SDKS/StellarESDK-1.7.0/Modules/Drivers/Timers/HRTIM/src\hrtim.c ****  *
   5:C:/StellarStudio-7.0/SDKS/StellarESDK-1.7.0/Modules/Drivers/Timers/HRTIM/src\hrtim.c ****  * License terms: STMicroelectronics Proprietary in accordance with licensing
   6:C:/StellarStudio-7.0/SDKS/StellarESDK-1.7.0/Modules/Drivers/Timers/HRTIM/src\hrtim.c ****  * terms SLA0098 at www.st.com.
   7:C:/StellarStudio-7.0/SDKS/StellarESDK-1.7.0/Modules/Drivers/Timers/HRTIM/src\hrtim.c ****  *
   8:C:/StellarStudio-7.0/SDKS/StellarESDK-1.7.0/Modules/Drivers/Timers/HRTIM/src\hrtim.c ****  * THIS SOFTWARE IS DISTRIBUTED "AS IS," AND ALL WARRANTIES ARE DISCLAIMED,
   9:C:/StellarStudio-7.0/SDKS/StellarESDK-1.7.0/Modules/Drivers/Timers/HRTIM/src\hrtim.c ****  * INCLUDING MERCHANTABILITY AND FITNESS FOR A PARTICULAR PURPOSE.
  10:C:/StellarStudio-7.0/SDKS/StellarESDK-1.7.0/Modules/Drivers/Timers/HRTIM/src\hrtim.c ****  *
  11:C:/StellarStudio-7.0/SDKS/StellarESDK-1.7.0/Modules/Drivers/Timers/HRTIM/src\hrtim.c ****  *****************************************************************************/
  12:C:/StellarStudio-7.0/SDKS/StellarESDK-1.7.0/Modules/Drivers/Timers/HRTIM/src\hrtim.c **** /**
  13:C:/StellarStudio-7.0/SDKS/StellarESDK-1.7.0/Modules/Drivers/Timers/HRTIM/src\hrtim.c ****  * @file    hrtim.c
  14:C:/StellarStudio-7.0/SDKS/StellarESDK-1.7.0/Modules/Drivers/Timers/HRTIM/src\hrtim.c ****  * @brief   HRTIM driver source file.
  15:C:/StellarStudio-7.0/SDKS/StellarESDK-1.7.0/Modules/Drivers/Timers/HRTIM/src\hrtim.c ****  *
  16:C:/StellarStudio-7.0/SDKS/StellarESDK-1.7.0/Modules/Drivers/Timers/HRTIM/src\hrtim.c ****  * @addtogroup DRIVERS
  17:C:/StellarStudio-7.0/SDKS/StellarESDK-1.7.0/Modules/Drivers/Timers/HRTIM/src\hrtim.c ****  * @addtogroup TIMERS
  18:C:/StellarStudio-7.0/SDKS/StellarESDK-1.7.0/Modules/Drivers/Timers/HRTIM/src\hrtim.c ****  * @ingroup DRIVERS
  19:C:/StellarStudio-7.0/SDKS/StellarESDK-1.7.0/Modules/Drivers/Timers/HRTIM/src\hrtim.c ****  * @addtogroup HRTIM
  20:C:/StellarStudio-7.0/SDKS/StellarESDK-1.7.0/Modules/Drivers/Timers/HRTIM/src\hrtim.c ****  * @ingroup TIMERS
  21:C:/StellarStudio-7.0/SDKS/StellarESDK-1.7.0/Modules/Drivers/Timers/HRTIM/src\hrtim.c ****  * @{
  22:C:/StellarStudio-7.0/SDKS/StellarESDK-1.7.0/Modules/Drivers/Timers/HRTIM/src\hrtim.c ****  */
  23:C:/StellarStudio-7.0/SDKS/StellarESDK-1.7.0/Modules/Drivers/Timers/HRTIM/src\hrtim.c **** 
  24:C:/StellarStudio-7.0/SDKS/StellarESDK-1.7.0/Modules/Drivers/Timers/HRTIM/src\hrtim.c **** #include <hrtim.h>
  25:C:/StellarStudio-7.0/SDKS/StellarESDK-1.7.0/Modules/Drivers/Timers/HRTIM/src\hrtim.c **** #include <hrtim_private.h>
  26:C:/StellarStudio-7.0/SDKS/StellarESDK-1.7.0/Modules/Drivers/Timers/HRTIM/src\hrtim.c **** 
  27:C:/StellarStudio-7.0/SDKS/StellarESDK-1.7.0/Modules/Drivers/Timers/HRTIM/src\hrtim.c **** /*===========================================================================*/
  28:C:/StellarStudio-7.0/SDKS/StellarESDK-1.7.0/Modules/Drivers/Timers/HRTIM/src\hrtim.c **** /* Module local definitions.                                                 */
  29:C:/StellarStudio-7.0/SDKS/StellarESDK-1.7.0/Modules/Drivers/Timers/HRTIM/src\hrtim.c **** /*===========================================================================*/
  30:C:/StellarStudio-7.0/SDKS/StellarESDK-1.7.0/Modules/Drivers/Timers/HRTIM/src\hrtim.c **** 
  31:C:/StellarStudio-7.0/SDKS/StellarESDK-1.7.0/Modules/Drivers/Timers/HRTIM/src\hrtim.c **** /**
  32:C:/StellarStudio-7.0/SDKS/StellarESDK-1.7.0/Modules/Drivers/Timers/HRTIM/src\hrtim.c ****  * @brief   HRTIM CR1 fixed bits.
  33:C:/StellarStudio-7.0/SDKS/StellarESDK-1.7.0/Modules/Drivers/Timers/HRTIM/src\hrtim.c ****  */
  34:C:/StellarStudio-7.0/SDKS/StellarESDK-1.7.0/Modules/Drivers/Timers/HRTIM/src\hrtim.c **** #define HRTIM_CR1_CFG_FORBIDDEN             (HRTIM_CR1_MUDIS  |             \
  35:C:/StellarStudio-7.0/SDKS/StellarESDK-1.7.0/Modules/Drivers/Timers/HRTIM/src\hrtim.c ****                                              HRTIM_CR1_TAUDIS |             \
  36:C:/StellarStudio-7.0/SDKS/StellarESDK-1.7.0/Modules/Drivers/Timers/HRTIM/src\hrtim.c ****                                              HRTIM_CR1_TBUDIS |             \
  37:C:/StellarStudio-7.0/SDKS/StellarESDK-1.7.0/Modules/Drivers/Timers/HRTIM/src\hrtim.c ****                                              HRTIM_CR1_TCUDIS |             \
  38:C:/StellarStudio-7.0/SDKS/StellarESDK-1.7.0/Modules/Drivers/Timers/HRTIM/src\hrtim.c ****                                              HRTIM_CR1_TDUDIS |             \
  39:C:/StellarStudio-7.0/SDKS/StellarESDK-1.7.0/Modules/Drivers/Timers/HRTIM/src\hrtim.c ****                                              HRTIM_CR1_TEUDIS |             \
  40:C:/StellarStudio-7.0/SDKS/StellarESDK-1.7.0/Modules/Drivers/Timers/HRTIM/src\hrtim.c ****                                              HRTIM_CR1_TFUDIS)
  41:C:/StellarStudio-7.0/SDKS/StellarESDK-1.7.0/Modules/Drivers/Timers/HRTIM/src\hrtim.c **** 
  42:C:/StellarStudio-7.0/SDKS/StellarESDK-1.7.0/Modules/Drivers/Timers/HRTIM/src\hrtim.c **** /**
  43:C:/StellarStudio-7.0/SDKS/StellarESDK-1.7.0/Modules/Drivers/Timers/HRTIM/src\hrtim.c ****  * @brief   HRTIM CR2 fixed bits.
  44:C:/StellarStudio-7.0/SDKS/StellarESDK-1.7.0/Modules/Drivers/Timers/HRTIM/src\hrtim.c ****  */
  45:C:/StellarStudio-7.0/SDKS/StellarESDK-1.7.0/Modules/Drivers/Timers/HRTIM/src\hrtim.c **** #define HRTIM_CR2_CFG_FORBIDDEN             (HRTIM_CR2_MSWU   |             \
  46:C:/StellarStudio-7.0/SDKS/StellarESDK-1.7.0/Modules/Drivers/Timers/HRTIM/src\hrtim.c ****                                              HRTIM_CR2_TASWU  |             \
  47:C:/StellarStudio-7.0/SDKS/StellarESDK-1.7.0/Modules/Drivers/Timers/HRTIM/src\hrtim.c ****                                              HRTIM_CR2_TBSWU  |             \
  48:C:/StellarStudio-7.0/SDKS/StellarESDK-1.7.0/Modules/Drivers/Timers/HRTIM/src\hrtim.c ****                                              HRTIM_CR2_TCSWU  |             \
  49:C:/StellarStudio-7.0/SDKS/StellarESDK-1.7.0/Modules/Drivers/Timers/HRTIM/src\hrtim.c ****                                              HRTIM_CR2_TDSWU  |             \
  50:C:/StellarStudio-7.0/SDKS/StellarESDK-1.7.0/Modules/Drivers/Timers/HRTIM/src\hrtim.c ****                                              HRTIM_CR2_TESWU  |             \
  51:C:/StellarStudio-7.0/SDKS/StellarESDK-1.7.0/Modules/Drivers/Timers/HRTIM/src\hrtim.c ****                                              HRTIM_CR2_TFSWU  |             \
  52:C:/StellarStudio-7.0/SDKS/StellarESDK-1.7.0/Modules/Drivers/Timers/HRTIM/src\hrtim.c ****                                              HRTIM_CR2_MRST   |             \
  53:C:/StellarStudio-7.0/SDKS/StellarESDK-1.7.0/Modules/Drivers/Timers/HRTIM/src\hrtim.c ****                                              HRTIM_CR2_TARST  |             \
  54:C:/StellarStudio-7.0/SDKS/StellarESDK-1.7.0/Modules/Drivers/Timers/HRTIM/src\hrtim.c ****                                              HRTIM_CR2_TBRST  |             \
  55:C:/StellarStudio-7.0/SDKS/StellarESDK-1.7.0/Modules/Drivers/Timers/HRTIM/src\hrtim.c ****                                              HRTIM_CR2_TCRST  |             \
  56:C:/StellarStudio-7.0/SDKS/StellarESDK-1.7.0/Modules/Drivers/Timers/HRTIM/src\hrtim.c ****                                              HRTIM_CR2_TDRST  |             \
  57:C:/StellarStudio-7.0/SDKS/StellarESDK-1.7.0/Modules/Drivers/Timers/HRTIM/src\hrtim.c ****                                              HRTIM_CR2_TERST  |             \
  58:C:/StellarStudio-7.0/SDKS/StellarESDK-1.7.0/Modules/Drivers/Timers/HRTIM/src\hrtim.c ****                                              HRTIM_CR2_TFRST)
  59:C:/StellarStudio-7.0/SDKS/StellarESDK-1.7.0/Modules/Drivers/Timers/HRTIM/src\hrtim.c **** 
  60:C:/StellarStudio-7.0/SDKS/StellarESDK-1.7.0/Modules/Drivers/Timers/HRTIM/src\hrtim.c **** /**
  61:C:/StellarStudio-7.0/SDKS/StellarESDK-1.7.0/Modules/Drivers/Timers/HRTIM/src\hrtim.c ****  * @brief   HRTIM DLLCR fixed bits.
  62:C:/StellarStudio-7.0/SDKS/StellarESDK-1.7.0/Modules/Drivers/Timers/HRTIM/src\hrtim.c ****  */
  63:C:/StellarStudio-7.0/SDKS/StellarESDK-1.7.0/Modules/Drivers/Timers/HRTIM/src\hrtim.c **** #define HRTIM_DLLCR_CFG_FORBIDDEN           (HRTIM_DLLCR_CAL)
  64:C:/StellarStudio-7.0/SDKS/StellarESDK-1.7.0/Modules/Drivers/Timers/HRTIM/src\hrtim.c **** 
  65:C:/StellarStudio-7.0/SDKS/StellarESDK-1.7.0/Modules/Drivers/Timers/HRTIM/src\hrtim.c **** /*===========================================================================*/
  66:C:/StellarStudio-7.0/SDKS/StellarESDK-1.7.0/Modules/Drivers/Timers/HRTIM/src\hrtim.c **** /* Module exported variables.                                                */
  67:C:/StellarStudio-7.0/SDKS/StellarESDK-1.7.0/Modules/Drivers/Timers/HRTIM/src\hrtim.c **** /*===========================================================================*/
  68:C:/StellarStudio-7.0/SDKS/StellarESDK-1.7.0/Modules/Drivers/Timers/HRTIM/src\hrtim.c **** 
  69:C:/StellarStudio-7.0/SDKS/StellarESDK-1.7.0/Modules/Drivers/Timers/HRTIM/src\hrtim.c **** /*===========================================================================*/
  70:C:/StellarStudio-7.0/SDKS/StellarESDK-1.7.0/Modules/Drivers/Timers/HRTIM/src\hrtim.c **** /* Module local types.                                                       */
  71:C:/StellarStudio-7.0/SDKS/StellarESDK-1.7.0/Modules/Drivers/Timers/HRTIM/src\hrtim.c **** /*===========================================================================*/
  72:C:/StellarStudio-7.0/SDKS/StellarESDK-1.7.0/Modules/Drivers/Timers/HRTIM/src\hrtim.c **** 
  73:C:/StellarStudio-7.0/SDKS/StellarESDK-1.7.0/Modules/Drivers/Timers/HRTIM/src\hrtim.c **** /*===========================================================================*/
  74:C:/StellarStudio-7.0/SDKS/StellarESDK-1.7.0/Modules/Drivers/Timers/HRTIM/src\hrtim.c **** /* Module local variables.                                                   */
  75:C:/StellarStudio-7.0/SDKS/StellarESDK-1.7.0/Modules/Drivers/Timers/HRTIM/src\hrtim.c **** /*===========================================================================*/
  76:C:/StellarStudio-7.0/SDKS/StellarESDK-1.7.0/Modules/Drivers/Timers/HRTIM/src\hrtim.c **** 
  77:C:/StellarStudio-7.0/SDKS/StellarESDK-1.7.0/Modules/Drivers/Timers/HRTIM/src\hrtim.c **** /*===========================================================================*/
  78:C:/StellarStudio-7.0/SDKS/StellarESDK-1.7.0/Modules/Drivers/Timers/HRTIM/src\hrtim.c **** /* Module local functions.                                                   */
  79:C:/StellarStudio-7.0/SDKS/StellarESDK-1.7.0/Modules/Drivers/Timers/HRTIM/src\hrtim.c **** /*===========================================================================*/
  80:C:/StellarStudio-7.0/SDKS/StellarESDK-1.7.0/Modules/Drivers/Timers/HRTIM/src\hrtim.c **** 
  81:C:/StellarStudio-7.0/SDKS/StellarESDK-1.7.0/Modules/Drivers/Timers/HRTIM/src\hrtim.c **** /**
  82:C:/StellarStudio-7.0/SDKS/StellarESDK-1.7.0/Modules/Drivers/Timers/HRTIM/src\hrtim.c ****  * @brief   Resets HRTIM parameters.
  83:C:/StellarStudio-7.0/SDKS/StellarESDK-1.7.0/Modules/Drivers/Timers/HRTIM/src\hrtim.c ****  *
  84:C:/StellarStudio-7.0/SDKS/StellarESDK-1.7.0/Modules/Drivers/Timers/HRTIM/src\hrtim.c ****  * @param[out] hdp      pointer to an @p hrtim_driver_t structure to
  85:C:/StellarStudio-7.0/SDKS/StellarESDK-1.7.0/Modules/Drivers/Timers/HRTIM/src\hrtim.c ****  *                      be reset
  86:C:/StellarStudio-7.0/SDKS/StellarESDK-1.7.0/Modules/Drivers/Timers/HRTIM/src\hrtim.c ****  *
  87:C:/StellarStudio-7.0/SDKS/StellarESDK-1.7.0/Modules/Drivers/Timers/HRTIM/src\hrtim.c ****  * @notapi
  88:C:/StellarStudio-7.0/SDKS/StellarESDK-1.7.0/Modules/Drivers/Timers/HRTIM/src\hrtim.c ****  */
  89:C:/StellarStudio-7.0/SDKS/StellarESDK-1.7.0/Modules/Drivers/Timers/HRTIM/src\hrtim.c **** static void hrtim_reset_paramters(hrtim_driver_t *hdp) {
  28              		.loc 1 89 56
  29              		.cfi_startproc
  30              		@ args = 0, pretend = 0, frame = 16
  31              		@ frame_needed = 0, uses_anonymous_args = 0
  32              		@ link register save eliminated.
  33 0000 84B0     		sub	sp, sp, #16
  34              		.cfi_def_cfa_offset 16
  35 0002 0190     		str	r0, [sp, #4]
  90:C:/StellarStudio-7.0/SDKS/StellarESDK-1.7.0/Modules/Drivers/Timers/HRTIM/src\hrtim.c **** 
  91:C:/StellarStudio-7.0/SDKS/StellarESDK-1.7.0/Modules/Drivers/Timers/HRTIM/src\hrtim.c ****     uint8_t timer, comparator, set, output, adctrigger, eev_index, flt_index;
  92:C:/StellarStudio-7.0/SDKS/StellarESDK-1.7.0/Modules/Drivers/Timers/HRTIM/src\hrtim.c **** 
  93:C:/StellarStudio-7.0/SDKS/StellarESDK-1.7.0/Modules/Drivers/Timers/HRTIM/src\hrtim.c ****     /* Set all driver configuration parameters to default values.*/
  94:C:/StellarStudio-7.0/SDKS/StellarESDK-1.7.0/Modules/Drivers/Timers/HRTIM/src\hrtim.c ****     hdp->is_enable = false;
  36              		.loc 1 94 20
  37 0004 019B     		ldr	r3, [sp, #4]
  38 0006 0022     		movs	r2, #0
  39 0008 1A71     		strb	r2, [r3, #4]
  95:C:/StellarStudio-7.0/SDKS/StellarESDK-1.7.0/Modules/Drivers/Timers/HRTIM/src\hrtim.c **** 
  96:C:/StellarStudio-7.0/SDKS/StellarESDK-1.7.0/Modules/Drivers/Timers/HRTIM/src\hrtim.c ****     /* Set DLL calibration periodicity: 1048576 * tHRTIM (3.495 ms for fHRTIM
  97:C:/StellarStudio-7.0/SDKS/StellarESDK-1.7.0/Modules/Drivers/Timers/HRTIM/src\hrtim.c ****        = 300 MHz).*/
  98:C:/StellarStudio-7.0/SDKS/StellarESDK-1.7.0/Modules/Drivers/Timers/HRTIM/src\hrtim.c ****     hdp->cal_period = HRTIM_DLLCR_CALRTE_DIV1048576;
  40              		.loc 1 98 21
  41 000a 019B     		ldr	r3, [sp, #4]
  42 000c 0022     		movs	r2, #0
  43 000e DA60     		str	r2, [r3, #12]
  99:C:/StellarStudio-7.0/SDKS/StellarESDK-1.7.0/Modules/Drivers/Timers/HRTIM/src\hrtim.c **** 
 100:C:/StellarStudio-7.0/SDKS/StellarESDK-1.7.0/Modules/Drivers/Timers/HRTIM/src\hrtim.c ****     hdp->prio = IRQ_MIN_PRIORITY;
  44              		.loc 1 100 15
  45 0010 019B     		ldr	r3, [sp, #4]
  46 0012 0F22     		movs	r2, #15
  47 0014 1A61     		str	r2, [r3, #16]
 101:C:/StellarStudio-7.0/SDKS/StellarESDK-1.7.0/Modules/Drivers/Timers/HRTIM/src\hrtim.c **** 
 102:C:/StellarStudio-7.0/SDKS/StellarESDK-1.7.0/Modules/Drivers/Timers/HRTIM/src\hrtim.c ****     hdp->master_mode = HRTIM_MODE_SINGLE_SHOT_NO_RETRIGGERED;
  48              		.loc 1 102 22
  49 0016 019B     		ldr	r3, [sp, #4]
  50 0018 0022     		movs	r2, #0
  51 001a 1A75     		strb	r2, [r3, #20]
 103:C:/StellarStudio-7.0/SDKS/StellarESDK-1.7.0/Modules/Drivers/Timers/HRTIM/src\hrtim.c ****     hdp->master_prescaler = HRTIM_PRSC_DIV1;
  52              		.loc 1 103 27
  53 001c 019B     		ldr	r3, [sp, #4]
  54 001e 0522     		movs	r2, #5
  55 0020 5A75     		strb	r2, [r3, #21]
 104:C:/StellarStudio-7.0/SDKS/StellarESDK-1.7.0/Modules/Drivers/Timers/HRTIM/src\hrtim.c ****     hdp->master_period = 0U;
  56              		.loc 1 104 24
  57 0022 019B     		ldr	r3, [sp, #4]
  58 0024 0022     		movs	r2, #0
  59 0026 DA82     		strh	r2, [r3, #22]	@ movhi
 105:C:/StellarStudio-7.0/SDKS/StellarESDK-1.7.0/Modules/Drivers/Timers/HRTIM/src\hrtim.c ****     for (comparator = 0U; comparator < (uint8_t)HRTIM_COMP_NUM; comparator++) {
  60              		.loc 1 105 21
  61 0028 0023     		movs	r3, #0
  62 002a 8DF80E30 		strb	r3, [sp, #14]
  63              		.loc 1 105 5
  64 002e 0BE0     		b	.L2
  65              	.L3:
 106:C:/StellarStudio-7.0/SDKS/StellarESDK-1.7.0/Modules/Drivers/Timers/HRTIM/src\hrtim.c ****         hdp->master_cmp[comparator] = 0U;
  66              		.loc 1 106 24 discriminator 3
  67 0030 9DF80E20 		ldrb	r2, [sp, #14]	@ zero_extendqisi2
  68              		.loc 1 106 37 discriminator 3
  69 0034 019B     		ldr	r3, [sp, #4]
  70 0036 0C32     		adds	r2, r2, #12
  71 0038 0021     		movs	r1, #0
  72 003a 23F81210 		strh	r1, [r3, r2, lsl #1]	@ movhi
 105:C:/StellarStudio-7.0/SDKS/StellarESDK-1.7.0/Modules/Drivers/Timers/HRTIM/src\hrtim.c ****     for (comparator = 0U; comparator < (uint8_t)HRTIM_COMP_NUM; comparator++) {
  73              		.loc 1 105 75 discriminator 3
  74 003e 9DF80E30 		ldrb	r3, [sp, #14]	@ zero_extendqisi2
  75 0042 0133     		adds	r3, r3, #1
  76 0044 8DF80E30 		strb	r3, [sp, #14]
  77              	.L2:
 105:C:/StellarStudio-7.0/SDKS/StellarESDK-1.7.0/Modules/Drivers/Timers/HRTIM/src\hrtim.c ****     for (comparator = 0U; comparator < (uint8_t)HRTIM_COMP_NUM; comparator++) {
  78              		.loc 1 105 5 discriminator 1
  79 0048 9DF80E30 		ldrb	r3, [sp, #14]	@ zero_extendqisi2
  80 004c 032B     		cmp	r3, #3
  81 004e EFD9     		bls	.L3
 107:C:/StellarStudio-7.0/SDKS/StellarESDK-1.7.0/Modules/Drivers/Timers/HRTIM/src\hrtim.c ****     }
 108:C:/StellarStudio-7.0/SDKS/StellarESDK-1.7.0/Modules/Drivers/Timers/HRTIM/src\hrtim.c **** 
 109:C:/StellarStudio-7.0/SDKS/StellarESDK-1.7.0/Modules/Drivers/Timers/HRTIM/src\hrtim.c ****     hdp->master_preload.enable = HRTIM_PRELOAD_DISABLED;
  82              		.loc 1 109 32
  83 0050 019B     		ldr	r3, [sp, #4]
  84 0052 0022     		movs	r2, #0
  85 0054 C3F82423 		str	r2, [r3, #804]
 110:C:/StellarStudio-7.0/SDKS/StellarESDK-1.7.0/Modules/Drivers/Timers/HRTIM/src\hrtim.c ****     hdp->master_preload.update_event = HRTIM_TIMUPDATETRIGGER_NONE;
  86              		.loc 1 110 38
  87 0058 019B     		ldr	r3, [sp, #4]
  88 005a 0022     		movs	r2, #0
  89 005c C3F82823 		str	r2, [r3, #808]
 111:C:/StellarStudio-7.0/SDKS/StellarESDK-1.7.0/Modules/Drivers/Timers/HRTIM/src\hrtim.c ****     hdp->master_mode_tpg = HRTIM_MODE_HALF_INTLVD_DISABLED;
  90              		.loc 1 111 26
  91 0060 019B     		ldr	r3, [sp, #4]
  92 0062 0022     		movs	r2, #0
  93 0064 83F82C23 		strb	r2, [r3, #812]
 112:C:/StellarStudio-7.0/SDKS/StellarESDK-1.7.0/Modules/Drivers/Timers/HRTIM/src\hrtim.c **** 
 113:C:/StellarStudio-7.0/SDKS/StellarESDK-1.7.0/Modules/Drivers/Timers/HRTIM/src\hrtim.c ****     for (timer = 0U; timer < (uint8_t)HRTIM_TIMER_NUM; timer++) {
  94              		.loc 1 113 16
  95 0068 0023     		movs	r3, #0
  96 006a 8DF80F30 		strb	r3, [sp, #15]
  97              		.loc 1 113 5
  98 006e 90E1     		b	.L4
  99              	.L9:
 114:C:/StellarStudio-7.0/SDKS/StellarESDK-1.7.0/Modules/Drivers/Timers/HRTIM/src\hrtim.c ****         hdp->timer_cntr_mode[timer] = HRTIM_MODE_SINGLE_SHOT_NO_RETRIGGERED;
 100              		.loc 1 114 29
 101 0070 9DF80F30 		ldrb	r3, [sp, #15]	@ zero_extendqisi2
 102              		.loc 1 114 37
 103 0074 019A     		ldr	r2, [sp, #4]
 104 0076 1344     		add	r3, r3, r2
 105 0078 0022     		movs	r2, #0
 106 007a 83F82020 		strb	r2, [r3, #32]
 115:C:/StellarStudio-7.0/SDKS/StellarESDK-1.7.0/Modules/Drivers/Timers/HRTIM/src\hrtim.c ****         hdp->timer_prescaler[timer] = HRTIM_PRSC_DIV1;
 107              		.loc 1 115 29
 108 007e 9DF80F30 		ldrb	r3, [sp, #15]	@ zero_extendqisi2
 109              		.loc 1 115 37
 110 0082 019A     		ldr	r2, [sp, #4]
 111 0084 1344     		add	r3, r3, r2
 112 0086 0522     		movs	r2, #5
 113 0088 83F82620 		strb	r2, [r3, #38]
 116:C:/StellarStudio-7.0/SDKS/StellarESDK-1.7.0/Modules/Drivers/Timers/HRTIM/src\hrtim.c ****         hdp->timer_period[timer] = 0U;
 114              		.loc 1 116 26
 115 008c 9DF80F30 		ldrb	r3, [sp, #15]	@ zero_extendqisi2
 116              		.loc 1 116 34
 117 0090 019A     		ldr	r2, [sp, #4]
 118 0092 1433     		adds	r3, r3, #20
 119 0094 5B00     		lsls	r3, r3, #1
 120 0096 1344     		add	r3, r3, r2
 121 0098 0022     		movs	r2, #0
 122 009a 9A80     		strh	r2, [r3, #4]	@ movhi
 117:C:/StellarStudio-7.0/SDKS/StellarESDK-1.7.0/Modules/Drivers/Timers/HRTIM/src\hrtim.c **** 
 118:C:/StellarStudio-7.0/SDKS/StellarESDK-1.7.0/Modules/Drivers/Timers/HRTIM/src\hrtim.c ****         for (comparator = 0U; comparator < (uint8_t)HRTIM_COMP_NUM; comparator++) {
 123              		.loc 1 118 25
 124 009c 0023     		movs	r3, #0
 125 009e 8DF80E30 		strb	r3, [sp, #14]
 126              		.loc 1 118 9
 127 00a2 1AE0     		b	.L5
 128              	.L6:
 119:C:/StellarStudio-7.0/SDKS/StellarESDK-1.7.0/Modules/Drivers/Timers/HRTIM/src\hrtim.c ****             hdp->timer_cmp[timer][comparator] = 0U;
 129              		.loc 1 119 34 discriminator 3
 130 00a4 9DF80F10 		ldrb	r1, [sp, #15]	@ zero_extendqisi2
 131 00a8 9DF80E20 		ldrb	r2, [sp, #14]	@ zero_extendqisi2
 132              		.loc 1 119 47 discriminator 3
 133 00ac 019B     		ldr	r3, [sp, #4]
 134 00ae 8900     		lsls	r1, r1, #2
 135 00b0 0A44     		add	r2, r2, r1
 136 00b2 1C32     		adds	r2, r2, #28
 137 00b4 0021     		movs	r1, #0
 138 00b6 23F81210 		strh	r1, [r3, r2, lsl #1]	@ movhi
 120:C:/StellarStudio-7.0/SDKS/StellarESDK-1.7.0/Modules/Drivers/Timers/HRTIM/src\hrtim.c ****             /* Comparator auto-delayed mode is available only for
 121:C:/StellarStudio-7.0/SDKS/StellarESDK-1.7.0/Modules/Drivers/Timers/HRTIM/src\hrtim.c ****                [TimerA:TimerF] and Comparator 2 or Comparator 4).*/
 122:C:/StellarStudio-7.0/SDKS/StellarESDK-1.7.0/Modules/Drivers/Timers/HRTIM/src\hrtim.c ****             hdp->timer_cmp_ad_mode[timer][comparator] = HRTIM_CMP_AD_MODE_STANDARD;
 139              		.loc 1 122 42 discriminator 3
 140 00ba 9DF80F20 		ldrb	r2, [sp, #15]	@ zero_extendqisi2
 141 00be 9DF80E30 		ldrb	r3, [sp, #14]	@ zero_extendqisi2
 142              		.loc 1 122 55 discriminator 3
 143 00c2 0199     		ldr	r1, [sp, #4]
 144 00c4 9200     		lsls	r2, r2, #2
 145 00c6 0A44     		add	r2, r2, r1
 146 00c8 1344     		add	r3, r3, r2
 147 00ca 6833     		adds	r3, r3, #104
 148 00cc 0022     		movs	r2, #0
 149 00ce 1A70     		strb	r2, [r3]
 118:C:/StellarStudio-7.0/SDKS/StellarESDK-1.7.0/Modules/Drivers/Timers/HRTIM/src\hrtim.c ****             hdp->timer_cmp[timer][comparator] = 0U;
 150              		.loc 1 118 79 discriminator 3
 151 00d0 9DF80E30 		ldrb	r3, [sp, #14]	@ zero_extendqisi2
 152 00d4 0133     		adds	r3, r3, #1
 153 00d6 8DF80E30 		strb	r3, [sp, #14]
 154              	.L5:
 118:C:/StellarStudio-7.0/SDKS/StellarESDK-1.7.0/Modules/Drivers/Timers/HRTIM/src\hrtim.c ****             hdp->timer_cmp[timer][comparator] = 0U;
 155              		.loc 1 118 9 discriminator 1
 156 00da 9DF80E30 		ldrb	r3, [sp, #14]	@ zero_extendqisi2
 157 00de 032B     		cmp	r3, #3
 158 00e0 E0D9     		bls	.L6
 123:C:/StellarStudio-7.0/SDKS/StellarESDK-1.7.0/Modules/Drivers/Timers/HRTIM/src\hrtim.c ****         }
 124:C:/StellarStudio-7.0/SDKS/StellarESDK-1.7.0/Modules/Drivers/Timers/HRTIM/src\hrtim.c **** 
 125:C:/StellarStudio-7.0/SDKS/StellarESDK-1.7.0/Modules/Drivers/Timers/HRTIM/src\hrtim.c ****         hdp->deadtime[timer].enable    = false;
 159              		.loc 1 125 29
 160 00e2 9DF80F20 		ldrb	r2, [sp, #15]	@ zero_extendqisi2
 161              		.loc 1 125 40
 162 00e6 0199     		ldr	r1, [sp, #4]
 163 00e8 1346     		mov	r3, r2
 164 00ea 9B00     		lsls	r3, r3, #2
 165 00ec 1344     		add	r3, r3, r2
 166 00ee 5B00     		lsls	r3, r3, #1
 167 00f0 0B44     		add	r3, r3, r1
 168 00f2 8033     		adds	r3, r3, #128
 169 00f4 0022     		movs	r2, #0
 170 00f6 1A70     		strb	r2, [r3]
 126:C:/StellarStudio-7.0/SDKS/StellarESDK-1.7.0/Modules/Drivers/Timers/HRTIM/src\hrtim.c ****         hdp->deadtime[timer].prescaler = HRTIM_DT_PRSC_DIV1;
 171              		.loc 1 126 29
 172 00f8 9DF80F20 		ldrb	r2, [sp, #15]	@ zero_extendqisi2
 173              		.loc 1 126 40
 174 00fc 0199     		ldr	r1, [sp, #4]
 175 00fe 1346     		mov	r3, r2
 176 0100 9B00     		lsls	r3, r3, #2
 177 0102 1344     		add	r3, r3, r2
 178 0104 5B00     		lsls	r3, r3, #1
 179 0106 0B44     		add	r3, r3, r1
 180 0108 8133     		adds	r3, r3, #129
 181 010a 0322     		movs	r2, #3
 182 010c 1A70     		strb	r2, [r3]
 127:C:/StellarStudio-7.0/SDKS/StellarESDK-1.7.0/Modules/Drivers/Timers/HRTIM/src\hrtim.c ****         hdp->deadtime[timer].rvalue    = 0U;
 183              		.loc 1 127 29
 184 010e 9DF80F20 		ldrb	r2, [sp, #15]	@ zero_extendqisi2
 185              		.loc 1 127 40
 186 0112 0199     		ldr	r1, [sp, #4]
 187 0114 1346     		mov	r3, r2
 188 0116 9B00     		lsls	r3, r3, #2
 189 0118 1344     		add	r3, r3, r2
 190 011a 5B00     		lsls	r3, r3, #1
 191 011c 0B44     		add	r3, r3, r1
 192 011e 8233     		adds	r3, r3, #130
 193 0120 0022     		movs	r2, #0
 194 0122 1A80     		strh	r2, [r3]	@ movhi
 128:C:/StellarStudio-7.0/SDKS/StellarESDK-1.7.0/Modules/Drivers/Timers/HRTIM/src\hrtim.c ****         hdp->deadtime[timer].rsign     = HRTIM_DT_SIGN_POSITIVE;
 195              		.loc 1 128 29
 196 0124 9DF80F20 		ldrb	r2, [sp, #15]	@ zero_extendqisi2
 197              		.loc 1 128 40
 198 0128 0199     		ldr	r1, [sp, #4]
 199 012a 1346     		mov	r3, r2
 200 012c 9B00     		lsls	r3, r3, #2
 201 012e 1344     		add	r3, r3, r2
 202 0130 5B00     		lsls	r3, r3, #1
 203 0132 0B44     		add	r3, r3, r1
 204 0134 8433     		adds	r3, r3, #132
 205 0136 0022     		movs	r2, #0
 206 0138 1A70     		strb	r2, [r3]
 129:C:/StellarStudio-7.0/SDKS/StellarESDK-1.7.0/Modules/Drivers/Timers/HRTIM/src\hrtim.c ****         hdp->deadtime[timer].fvalue    = 0U;
 207              		.loc 1 129 29
 208 013a 9DF80F20 		ldrb	r2, [sp, #15]	@ zero_extendqisi2
 209              		.loc 1 129 40
 210 013e 0199     		ldr	r1, [sp, #4]
 211 0140 1346     		mov	r3, r2
 212 0142 9B00     		lsls	r3, r3, #2
 213 0144 1344     		add	r3, r3, r2
 214 0146 5B00     		lsls	r3, r3, #1
 215 0148 0B44     		add	r3, r3, r1
 216 014a 8633     		adds	r3, r3, #134
 217 014c 0022     		movs	r2, #0
 218 014e 1A80     		strh	r2, [r3]	@ movhi
 130:C:/StellarStudio-7.0/SDKS/StellarESDK-1.7.0/Modules/Drivers/Timers/HRTIM/src\hrtim.c ****         hdp->deadtime[timer].fsign     = HRTIM_DT_SIGN_POSITIVE;
 219              		.loc 1 130 29
 220 0150 9DF80F20 		ldrb	r2, [sp, #15]	@ zero_extendqisi2
 221              		.loc 1 130 40
 222 0154 0199     		ldr	r1, [sp, #4]
 223 0156 1346     		mov	r3, r2
 224 0158 9B00     		lsls	r3, r3, #2
 225 015a 1344     		add	r3, r3, r2
 226 015c 5B00     		lsls	r3, r3, #1
 227 015e 0B44     		add	r3, r3, r1
 228 0160 8833     		adds	r3, r3, #136
 229 0162 0022     		movs	r2, #0
 230 0164 1A70     		strb	r2, [r3]
 131:C:/StellarStudio-7.0/SDKS/StellarESDK-1.7.0/Modules/Drivers/Timers/HRTIM/src\hrtim.c **** 
 132:C:/StellarStudio-7.0/SDKS/StellarESDK-1.7.0/Modules/Drivers/Timers/HRTIM/src\hrtim.c ****         hdp->cb[timer] = NULL;
 231              		.loc 1 132 16
 232 0166 9DF80F30 		ldrb	r3, [sp, #15]	@ zero_extendqisi2
 233              		.loc 1 132 24
 234 016a 019A     		ldr	r2, [sp, #4]
 235 016c AE33     		adds	r3, r3, #174
 236 016e 9B00     		lsls	r3, r3, #2
 237 0170 1344     		add	r3, r3, r2
 238 0172 0022     		movs	r2, #0
 239 0174 5A60     		str	r2, [r3, #4]
 133:C:/StellarStudio-7.0/SDKS/StellarESDK-1.7.0/Modules/Drivers/Timers/HRTIM/src\hrtim.c **** 
 134:C:/StellarStudio-7.0/SDKS/StellarESDK-1.7.0/Modules/Drivers/Timers/HRTIM/src\hrtim.c ****         hdp->timer_preload[timer].enable = HRTIM_PRELOAD_DISABLED;
 240              		.loc 1 134 34
 241 0176 9DF80F30 		ldrb	r3, [sp, #15]	@ zero_extendqisi2
 242              		.loc 1 134 42
 243 017a 019A     		ldr	r2, [sp, #4]
 244 017c 5E33     		adds	r3, r3, #94
 245 017e DB00     		lsls	r3, r3, #3
 246 0180 1344     		add	r3, r3, r2
 247 0182 0022     		movs	r2, #0
 248 0184 5A60     		str	r2, [r3, #4]
 135:C:/StellarStudio-7.0/SDKS/StellarESDK-1.7.0/Modules/Drivers/Timers/HRTIM/src\hrtim.c ****         hdp->timer_preload[timer].update_event = HRTIM_TIMUPDATETRIGGER_NONE;
 249              		.loc 1 135 34
 250 0186 9DF80F30 		ldrb	r3, [sp, #15]	@ zero_extendqisi2
 251              		.loc 1 135 48
 252 018a 019A     		ldr	r2, [sp, #4]
 253 018c 5E33     		adds	r3, r3, #94
 254 018e DB00     		lsls	r3, r3, #3
 255 0190 1344     		add	r3, r3, r2
 256 0192 0022     		movs	r2, #0
 257 0194 9A60     		str	r2, [r3, #8]
 136:C:/StellarStudio-7.0/SDKS/StellarESDK-1.7.0/Modules/Drivers/Timers/HRTIM/src\hrtim.c ****         hdp->timer_mode_tpg[timer] = HRTIM_MODE_HALF_INTLVD_DISABLED;
 258              		.loc 1 136 28
 259 0196 9DF80F30 		ldrb	r3, [sp, #15]	@ zero_extendqisi2
 260              		.loc 1 136 36
 261 019a 019A     		ldr	r2, [sp, #4]
 262 019c 1344     		add	r3, r3, r2
 263 019e 0022     		movs	r2, #0
 264 01a0 83F8D023 		strb	r2, [r3, #976]
 137:C:/StellarStudio-7.0/SDKS/StellarESDK-1.7.0/Modules/Drivers/Timers/HRTIM/src\hrtim.c **** 
 138:C:/StellarStudio-7.0/SDKS/StellarESDK-1.7.0/Modules/Drivers/Timers/HRTIM/src\hrtim.c ****         hdp->timer_count_mode[timer].up_down_enable = false;
 265              		.loc 1 138 37
 266 01a4 9DF80F20 		ldrb	r2, [sp, #15]	@ zero_extendqisi2
 267              		.loc 1 138 53
 268 01a8 0199     		ldr	r1, [sp, #4]
 269 01aa 1346     		mov	r3, r2
 270 01ac 9B00     		lsls	r3, r3, #2
 271 01ae 1344     		add	r3, r3, r2
 272 01b0 9B00     		lsls	r3, r3, #2
 273 01b2 0B44     		add	r3, r3, r1
 274 01b4 03F57673 		add	r3, r3, #984
 275 01b8 0022     		movs	r2, #0
 276 01ba 1A70     		strb	r2, [r3]
 139:C:/StellarStudio-7.0/SDKS/StellarESDK-1.7.0/Modules/Drivers/Timers/HRTIM/src\hrtim.c ****         hdp->timer_count_mode[timer].up_down_mode = HRTIM_COUNTING_MODE_UP;
 277              		.loc 1 139 37
 278 01bc 9DF80F20 		ldrb	r2, [sp, #15]	@ zero_extendqisi2
 279              		.loc 1 139 51
 280 01c0 0199     		ldr	r1, [sp, #4]
 281 01c2 1346     		mov	r3, r2
 282 01c4 9B00     		lsls	r3, r3, #2
 283 01c6 1344     		add	r3, r3, r2
 284 01c8 9B00     		lsls	r3, r3, #2
 285 01ca 0B44     		add	r3, r3, r1
 286 01cc 03F57773 		add	r3, r3, #988
 287 01d0 0022     		movs	r2, #0
 288 01d2 1A60     		str	r2, [r3]
 140:C:/StellarStudio-7.0/SDKS/StellarESDK-1.7.0/Modules/Drivers/Timers/HRTIM/src\hrtim.c **** 
 141:C:/StellarStudio-7.0/SDKS/StellarESDK-1.7.0/Modules/Drivers/Timers/HRTIM/src\hrtim.c ****         for (eev_index = 0U; eev_index < (uint8_t)HRTIM_EXEVENT_NUM; eev_index++) {
 289              		.loc 1 141 24
 290 01d4 0023     		movs	r3, #0
 291 01d6 8DF80A30 		strb	r3, [sp, #10]
 292              		.loc 1 141 9
 293 01da 4BE0     		b	.L7
 294              	.L8:
 142:C:/StellarStudio-7.0/SDKS/StellarESDK-1.7.0/Modules/Drivers/Timers/HRTIM/src\hrtim.c ****             hdp->eev_counter[timer][eev_index].reset_mode = 0U;
 295              		.loc 1 142 47 discriminator 3
 296 01dc 9DF80F10 		ldrb	r1, [sp, #15]	@ zero_extendqisi2
 297 01e0 9DF80A30 		ldrb	r3, [sp, #10]	@ zero_extendqisi2
 298              		.loc 1 142 59 discriminator 3
 299 01e4 0198     		ldr	r0, [sp, #4]
 300 01e6 1A46     		mov	r2, r3
 301 01e8 5200     		lsls	r2, r2, #1
 302 01ea 1A44     		add	r2, r2, r3
 303 01ec 9300     		lsls	r3, r2, #2
 304 01ee 1A46     		mov	r2, r3
 305 01f0 0B46     		mov	r3, r1
 306 01f2 1B01     		lsls	r3, r3, #4
 307 01f4 5B1A     		subs	r3, r3, r1
 308 01f6 DB00     		lsls	r3, r3, #3
 309 01f8 1344     		add	r3, r3, r2
 310 01fa 0344     		add	r3, r3, r0
 311 01fc 03F5A663 		add	r3, r3, #1328
 312 0200 0022     		movs	r2, #0
 313 0202 1A60     		str	r2, [r3]
 143:C:/StellarStudio-7.0/SDKS/StellarESDK-1.7.0/Modules/Drivers/Timers/HRTIM/src\hrtim.c ****             hdp->eev_counter[timer][eev_index].source = 0U;
 314              		.loc 1 143 47 discriminator 3
 315 0204 9DF80F10 		ldrb	r1, [sp, #15]	@ zero_extendqisi2
 316 0208 9DF80A30 		ldrb	r3, [sp, #10]	@ zero_extendqisi2
 317              		.loc 1 143 55 discriminator 3
 318 020c 0198     		ldr	r0, [sp, #4]
 319 020e 1A46     		mov	r2, r3
 320 0210 5200     		lsls	r2, r2, #1
 321 0212 1A44     		add	r2, r2, r3
 322 0214 9300     		lsls	r3, r2, #2
 323 0216 1A46     		mov	r2, r3
 324 0218 0B46     		mov	r3, r1
 325 021a 1B01     		lsls	r3, r3, #4
 326 021c 5B1A     		subs	r3, r3, r1
 327 021e DB00     		lsls	r3, r3, #3
 328 0220 1344     		add	r3, r3, r2
 329 0222 0344     		add	r3, r3, r0
 330 0224 03F23453 		addw	r3, r3, #1332
 331 0228 0022     		movs	r2, #0
 332 022a 1A60     		str	r2, [r3]
 144:C:/StellarStudio-7.0/SDKS/StellarESDK-1.7.0/Modules/Drivers/Timers/HRTIM/src\hrtim.c **** 
 145:C:/StellarStudio-7.0/SDKS/StellarESDK-1.7.0/Modules/Drivers/Timers/HRTIM/src\hrtim.c ****             hdp->timer_eev_filter[timer][eev_index].latch = 0U;
 333              		.loc 1 145 52 discriminator 3
 334 022c 9DF80F20 		ldrb	r2, [sp, #15]	@ zero_extendqisi2
 335 0230 9DF80A00 		ldrb	r0, [sp, #10]	@ zero_extendqisi2
 336              		.loc 1 145 59 discriminator 3
 337 0234 0199     		ldr	r1, [sp, #4]
 338 0236 1346     		mov	r3, r2
 339 0238 9B00     		lsls	r3, r3, #2
 340 023a 1344     		add	r3, r3, r2
 341 023c 5B00     		lsls	r3, r3, #1
 342 023e 0344     		add	r3, r3, r0
 343 0240 03F58073 		add	r3, r3, #256
 344 0244 DB00     		lsls	r3, r3, #3
 345 0246 0B44     		add	r3, r3, r1
 346 0248 0022     		movs	r2, #0
 347 024a 5A60     		str	r2, [r3, #4]
 146:C:/StellarStudio-7.0/SDKS/StellarESDK-1.7.0/Modules/Drivers/Timers/HRTIM/src\hrtim.c ****             hdp->timer_eev_filter[timer][eev_index].filter = 0U;
 348              		.loc 1 146 52 discriminator 3
 349 024c 9DF80F20 		ldrb	r2, [sp, #15]	@ zero_extendqisi2
 350 0250 9DF80A00 		ldrb	r0, [sp, #10]	@ zero_extendqisi2
 351              		.loc 1 146 60 discriminator 3
 352 0254 0199     		ldr	r1, [sp, #4]
 353 0256 1346     		mov	r3, r2
 354 0258 9B00     		lsls	r3, r3, #2
 355 025a 1344     		add	r3, r3, r2
 356 025c 5B00     		lsls	r3, r3, #1
 357 025e 0344     		add	r3, r3, r0
 358 0260 03F58073 		add	r3, r3, #256
 359 0264 0022     		movs	r2, #0
 360 0266 41F83320 		str	r2, [r1, r3, lsl #3]
 141:C:/StellarStudio-7.0/SDKS/StellarESDK-1.7.0/Modules/Drivers/Timers/HRTIM/src\hrtim.c ****             hdp->eev_counter[timer][eev_index].reset_mode = 0U;
 361              		.loc 1 141 79 discriminator 3
 362 026a 9DF80A30 		ldrb	r3, [sp, #10]	@ zero_extendqisi2
 363 026e 0133     		adds	r3, r3, #1
 364 0270 8DF80A30 		strb	r3, [sp, #10]
 365              	.L7:
 141:C:/StellarStudio-7.0/SDKS/StellarESDK-1.7.0/Modules/Drivers/Timers/HRTIM/src\hrtim.c ****             hdp->eev_counter[timer][eev_index].reset_mode = 0U;
 366              		.loc 1 141 9 discriminator 1
 367 0274 9DF80A30 		ldrb	r3, [sp, #10]	@ zero_extendqisi2
 368 0278 092B     		cmp	r3, #9
 369 027a AFD9     		bls	.L8
 147:C:/StellarStudio-7.0/SDKS/StellarESDK-1.7.0/Modules/Drivers/Timers/HRTIM/src\hrtim.c ****         }
 148:C:/StellarStudio-7.0/SDKS/StellarESDK-1.7.0/Modules/Drivers/Timers/HRTIM/src\hrtim.c **** 
 149:C:/StellarStudio-7.0/SDKS/StellarESDK-1.7.0/Modules/Drivers/Timers/HRTIM/src\hrtim.c ****         hdp->timer_count_mode[timer].fault_event_rollover = HRTIM_ROLLOVER_MODE_BOTH;
 370              		.loc 1 149 37 discriminator 2
 371 027c 9DF80F20 		ldrb	r2, [sp, #15]	@ zero_extendqisi2
 372              		.loc 1 149 59 discriminator 2
 373 0280 0199     		ldr	r1, [sp, #4]
 374 0282 1346     		mov	r3, r2
 375 0284 9B00     		lsls	r3, r3, #2
 376 0286 1344     		add	r3, r3, r2
 377 0288 9B00     		lsls	r3, r3, #2
 378 028a 0B44     		add	r3, r3, r1
 379 028c 03F57A73 		add	r3, r3, #1000
 380 0290 0022     		movs	r2, #0
 381 0292 1A80     		strh	r2, [r3]	@ movhi
 150:C:/StellarStudio-7.0/SDKS/StellarESDK-1.7.0/Modules/Drivers/Timers/HRTIM/src\hrtim.c ****         hdp->timer_count_mode[timer].rollover = HRTIM_ROLLOVER_MODE_BOTH;
 382              		.loc 1 150 37 discriminator 2
 383 0294 9DF80F20 		ldrb	r2, [sp, #15]	@ zero_extendqisi2
 384              		.loc 1 150 47 discriminator 2
 385 0298 0199     		ldr	r1, [sp, #4]
 386 029a 1346     		mov	r3, r2
 387 029c 9B00     		lsls	r3, r3, #2
 388 029e 1344     		add	r3, r3, r2
 389 02a0 9B00     		lsls	r3, r3, #2
 390 02a2 0B44     		add	r3, r3, r1
 391 02a4 03F57873 		add	r3, r3, #992
 392 02a8 0022     		movs	r2, #0
 393 02aa 1A80     		strh	r2, [r3]	@ movhi
 151:C:/StellarStudio-7.0/SDKS/StellarESDK-1.7.0/Modules/Drivers/Timers/HRTIM/src\hrtim.c ****         hdp->timer_count_mode[timer].out_rollover = HRTIM_ROLLOVER_MODE_BOTH;
 394              		.loc 1 151 37 discriminator 2
 395 02ac 9DF80F20 		ldrb	r2, [sp, #15]	@ zero_extendqisi2
 396              		.loc 1 151 51 discriminator 2
 397 02b0 0199     		ldr	r1, [sp, #4]
 398 02b2 1346     		mov	r3, r2
 399 02b4 9B00     		lsls	r3, r3, #2
 400 02b6 1344     		add	r3, r3, r2
 401 02b8 9B00     		lsls	r3, r3, #2
 402 02ba 0B44     		add	r3, r3, r1
 403 02bc 03F2E233 		addw	r3, r3, #994
 404 02c0 0022     		movs	r2, #0
 405 02c2 1A80     		strh	r2, [r3]	@ movhi
 152:C:/StellarStudio-7.0/SDKS/StellarESDK-1.7.0/Modules/Drivers/Timers/HRTIM/src\hrtim.c ****         hdp->timer_count_mode[timer].adc_rollover = HRTIM_ROLLOVER_MODE_BOTH;
 406              		.loc 1 152 37 discriminator 2
 407 02c4 9DF80F20 		ldrb	r2, [sp, #15]	@ zero_extendqisi2
 408              		.loc 1 152 51 discriminator 2
 409 02c8 0199     		ldr	r1, [sp, #4]
 410 02ca 1346     		mov	r3, r2
 411 02cc 9B00     		lsls	r3, r3, #2
 412 02ce 1344     		add	r3, r3, r2
 413 02d0 9B00     		lsls	r3, r3, #2
 414 02d2 0B44     		add	r3, r3, r1
 415 02d4 03F57973 		add	r3, r3, #996
 416 02d8 0022     		movs	r2, #0
 417 02da 1A80     		strh	r2, [r3]	@ movhi
 153:C:/StellarStudio-7.0/SDKS/StellarESDK-1.7.0/Modules/Drivers/Timers/HRTIM/src\hrtim.c ****         hdp->timer_count_mode[timer].burstmode_rollover = HRTIM_ROLLOVER_MODE_BOTH;
 418              		.loc 1 153 37 discriminator 2
 419 02dc 9DF80F20 		ldrb	r2, [sp, #15]	@ zero_extendqisi2
 420              		.loc 1 153 57 discriminator 2
 421 02e0 0199     		ldr	r1, [sp, #4]
 422 02e2 1346     		mov	r3, r2
 423 02e4 9B00     		lsls	r3, r3, #2
 424 02e6 1344     		add	r3, r3, r2
 425 02e8 9B00     		lsls	r3, r3, #2
 426 02ea 0B44     		add	r3, r3, r1
 427 02ec 03F2E633 		addw	r3, r3, #998
 428 02f0 0022     		movs	r2, #0
 429 02f2 1A80     		strh	r2, [r3]	@ movhi
 154:C:/StellarStudio-7.0/SDKS/StellarESDK-1.7.0/Modules/Drivers/Timers/HRTIM/src\hrtim.c **** 
 155:C:/StellarStudio-7.0/SDKS/StellarESDK-1.7.0/Modules/Drivers/Timers/HRTIM/src\hrtim.c ****         hdp->timer_dualdac_enable[timer] = 0;
 430              		.loc 1 155 34 discriminator 2
 431 02f4 9DF80F30 		ldrb	r3, [sp, #15]	@ zero_extendqisi2
 432              		.loc 1 155 42 discriminator 2
 433 02f8 019A     		ldr	r2, [sp, #4]
 434 02fa 1344     		add	r3, r3, r2
 435 02fc 0022     		movs	r2, #0
 436 02fe 83F8E129 		strb	r2, [r3, #2529]
 156:C:/StellarStudio-7.0/SDKS/StellarESDK-1.7.0/Modules/Drivers/Timers/HRTIM/src\hrtim.c **** 
 157:C:/StellarStudio-7.0/SDKS/StellarESDK-1.7.0/Modules/Drivers/Timers/HRTIM/src\hrtim.c ****         hdp->fault_state[timer][0]  = HRTIM_OUTPUT_FAULTSTATE_NOACTIVE;
 437              		.loc 1 157 32 discriminator 2
 438 0302 9DF80F30 		ldrb	r3, [sp, #15]	@ zero_extendqisi2
 439              		.loc 1 157 37 discriminator 2
 440 0306 019A     		ldr	r2, [sp, #4]
 441 0308 03F5AC63 		add	r3, r3, #1376
 442 030c 5B00     		lsls	r3, r3, #1
 443 030e 1344     		add	r3, r3, r2
 444 0310 0022     		movs	r2, #0
 445 0312 1A71     		strb	r2, [r3, #4]
 158:C:/StellarStudio-7.0/SDKS/StellarESDK-1.7.0/Modules/Drivers/Timers/HRTIM/src\hrtim.c ****         hdp->fault_state[timer][1]  = HRTIM_OUTPUT_FAULTSTATE_NOACTIVE;
 446              		.loc 1 158 32 discriminator 2
 447 0314 9DF80F30 		ldrb	r3, [sp, #15]	@ zero_extendqisi2
 448              		.loc 1 158 37 discriminator 2
 449 0318 019A     		ldr	r2, [sp, #4]
 450 031a 5B00     		lsls	r3, r3, #1
 451 031c 1344     		add	r3, r3, r2
 452 031e 0022     		movs	r2, #0
 453 0320 83F8C52A 		strb	r2, [r3, #2757]
 159:C:/StellarStudio-7.0/SDKS/StellarESDK-1.7.0/Modules/Drivers/Timers/HRTIM/src\hrtim.c ****         hdp->idle_state[timer][0]   = HRTIM_OUTPUT_IDLESTATE_INACTIVE;
 454              		.loc 1 159 31 discriminator 2
 455 0324 9DF80F20 		ldrb	r2, [sp, #15]	@ zero_extendqisi2
 456              		.loc 1 159 37 discriminator 2
 457 0328 019B     		ldr	r3, [sp, #4]
 458 032a 02F5AD62 		add	r2, r2, #1384
 459 032e 0021     		movs	r1, #0
 460 0330 03F81210 		strb	r1, [r3, r2, lsl #1]
 160:C:/StellarStudio-7.0/SDKS/StellarESDK-1.7.0/Modules/Drivers/Timers/HRTIM/src\hrtim.c ****         hdp->idle_state[timer][1]   = HRTIM_OUTPUT_IDLESTATE_INACTIVE;
 461              		.loc 1 160 31 discriminator 2
 462 0334 9DF80F30 		ldrb	r3, [sp, #15]	@ zero_extendqisi2
 463              		.loc 1 160 37 discriminator 2
 464 0338 019A     		ldr	r2, [sp, #4]
 465 033a 5B00     		lsls	r3, r3, #1
 466 033c 1344     		add	r3, r3, r2
 467 033e 0022     		movs	r2, #0
 468 0340 83F8D12A 		strb	r2, [r3, #2769]
 161:C:/StellarStudio-7.0/SDKS/StellarESDK-1.7.0/Modules/Drivers/Timers/HRTIM/src\hrtim.c ****         hdp->out_polarity[timer][0] = HRTIM_OUTPUT_POLARITY_POSITIVE;
 469              		.loc 1 161 33 discriminator 2
 470 0344 9DF80F30 		ldrb	r3, [sp, #15]	@ zero_extendqisi2
 471              		.loc 1 161 37 discriminator 2
 472 0348 019A     		ldr	r2, [sp, #4]
 473 034a 03F26C53 		addw	r3, r3, #1388
 474 034e 5B00     		lsls	r3, r3, #1
 475 0350 1344     		add	r3, r3, r2
 476 0352 0022     		movs	r2, #0
 477 0354 1A71     		strb	r2, [r3, #4]
 162:C:/StellarStudio-7.0/SDKS/StellarESDK-1.7.0/Modules/Drivers/Timers/HRTIM/src\hrtim.c ****         hdp->out_polarity[timer][1] = HRTIM_OUTPUT_POLARITY_POSITIVE;
 478              		.loc 1 162 33 discriminator 2
 479 0356 9DF80F30 		ldrb	r3, [sp, #15]	@ zero_extendqisi2
 480              		.loc 1 162 37 discriminator 2
 481 035a 019A     		ldr	r2, [sp, #4]
 482 035c 5B00     		lsls	r3, r3, #1
 483 035e 1344     		add	r3, r3, r2
 484 0360 0022     		movs	r2, #0
 485 0362 83F8DD2A 		strb	r2, [r3, #2781]
 163:C:/StellarStudio-7.0/SDKS/StellarESDK-1.7.0/Modules/Drivers/Timers/HRTIM/src\hrtim.c **** 
 164:C:/StellarStudio-7.0/SDKS/StellarESDK-1.7.0/Modules/Drivers/Timers/HRTIM/src\hrtim.c ****         hdp->cpt_unit[timer].capture_trg_1 = HRTIM_CAPTURE_TRG_NONE;
 486              		.loc 1 164 29 discriminator 2
 487 0366 9DF80F20 		ldrb	r2, [sp, #15]	@ zero_extendqisi2
 488              		.loc 1 164 44 discriminator 2
 489 036a 019B     		ldr	r3, [sp, #4]
 490 036c 02F25D12 		addw	r2, r2, #349
 491 0370 0021     		movs	r1, #0
 492 0372 43F83210 		str	r1, [r3, r2, lsl #3]
 165:C:/StellarStudio-7.0/SDKS/StellarESDK-1.7.0/Modules/Drivers/Timers/HRTIM/src\hrtim.c ****         hdp->cpt_unit[timer].capture_trg_2 = HRTIM_CAPTURE_TRG_NONE;
 493              		.loc 1 165 29 discriminator 2
 494 0376 9DF80F30 		ldrb	r3, [sp, #15]	@ zero_extendqisi2
 495              		.loc 1 165 44 discriminator 2
 496 037a 019A     		ldr	r2, [sp, #4]
 497 037c 03F25D13 		addw	r3, r3, #349
 498 0380 DB00     		lsls	r3, r3, #3
 499 0382 1344     		add	r3, r3, r2
 500 0384 0022     		movs	r2, #0
 501 0386 5A60     		str	r2, [r3, #4]
 113:C:/StellarStudio-7.0/SDKS/StellarESDK-1.7.0/Modules/Drivers/Timers/HRTIM/src\hrtim.c ****         hdp->timer_cntr_mode[timer] = HRTIM_MODE_SINGLE_SHOT_NO_RETRIGGERED;
 502              		.loc 1 113 61 discriminator 2
 503 0388 9DF80F30 		ldrb	r3, [sp, #15]	@ zero_extendqisi2
 504 038c 0133     		adds	r3, r3, #1
 505 038e 8DF80F30 		strb	r3, [sp, #15]
 506              	.L4:
 113:C:/StellarStudio-7.0/SDKS/StellarESDK-1.7.0/Modules/Drivers/Timers/HRTIM/src\hrtim.c ****         hdp->timer_cntr_mode[timer] = HRTIM_MODE_SINGLE_SHOT_NO_RETRIGGERED;
 507              		.loc 1 113 5 discriminator 1
 508 0392 9DF80F30 		ldrb	r3, [sp, #15]	@ zero_extendqisi2
 509 0396 052B     		cmp	r3, #5
 510 0398 7FF66AAE 		bls	.L9
 166:C:/StellarStudio-7.0/SDKS/StellarESDK-1.7.0/Modules/Drivers/Timers/HRTIM/src\hrtim.c ****     }
 167:C:/StellarStudio-7.0/SDKS/StellarESDK-1.7.0/Modules/Drivers/Timers/HRTIM/src\hrtim.c **** 
 168:C:/StellarStudio-7.0/SDKS/StellarESDK-1.7.0/Modules/Drivers/Timers/HRTIM/src\hrtim.c ****     hdp->cb_mt  = NULL;
 511              		.loc 1 168 17
 512 039c 019B     		ldr	r3, [sp, #4]
 513 039e 0022     		movs	r2, #0
 514 03a0 C3F8D422 		str	r2, [r3, #724]
 169:C:/StellarStudio-7.0/SDKS/StellarESDK-1.7.0/Modules/Drivers/Timers/HRTIM/src\hrtim.c ****     hdp->cb_flt = NULL;
 515              		.loc 1 169 17
 516 03a4 019B     		ldr	r3, [sp, #4]
 517 03a6 0022     		movs	r2, #0
 518 03a8 C3F8D822 		str	r2, [r3, #728]
 170:C:/StellarStudio-7.0/SDKS/StellarESDK-1.7.0/Modules/Drivers/Timers/HRTIM/src\hrtim.c **** 
 171:C:/StellarStudio-7.0/SDKS/StellarESDK-1.7.0/Modules/Drivers/Timers/HRTIM/src\hrtim.c ****     for (set = 0U; set < (uint8_t)HRTIM_EVENT_NUM; set++) {
 519              		.loc 1 171 14
 520 03ac 0023     		movs	r3, #0
 521 03ae 8DF80D30 		strb	r3, [sp, #13]
 522              		.loc 1 171 5
 523 03b2 29E0     		b	.L10
 524              	.L13:
 172:C:/StellarStudio-7.0/SDKS/StellarESDK-1.7.0/Modules/Drivers/Timers/HRTIM/src\hrtim.c ****         for (output = 0U; output < (uint8_t)HRTIM_OUTPUT_NUM; output++) {
 525              		.loc 1 172 21
 526 03b4 0023     		movs	r3, #0
 527 03b6 8DF80C30 		strb	r3, [sp, #12]
 528              		.loc 1 172 9
 529 03ba 1CE0     		b	.L11
 530              	.L12:
 173:C:/StellarStudio-7.0/SDKS/StellarESDK-1.7.0/Modules/Drivers/Timers/HRTIM/src\hrtim.c ****             hdp->set_event[set][output] = HRTIM_OUTPUT_NONE;
 531              		.loc 1 173 32 discriminator 3
 532 03bc 9DF80D10 		ldrb	r1, [sp, #13]	@ zero_extendqisi2
 533 03c0 9DF80C30 		ldrb	r3, [sp, #12]	@ zero_extendqisi2
 534              		.loc 1 173 41 discriminator 3
 535 03c4 019A     		ldr	r2, [sp, #4]
 536 03c6 4900     		lsls	r1, r1, #1
 537 03c8 0B44     		add	r3, r3, r1
 538 03ca 2E33     		adds	r3, r3, #46
 539 03cc 9B00     		lsls	r3, r3, #2
 540 03ce 1344     		add	r3, r3, r2
 541 03d0 0022     		movs	r2, #0
 542 03d2 5A60     		str	r2, [r3, #4]
 174:C:/StellarStudio-7.0/SDKS/StellarESDK-1.7.0/Modules/Drivers/Timers/HRTIM/src\hrtim.c ****             hdp->rst_event[set][output] = HRTIM_OUTPUT_NONE;
 543              		.loc 1 174 32 discriminator 3
 544 03d4 9DF80D10 		ldrb	r1, [sp, #13]	@ zero_extendqisi2
 545 03d8 9DF80C30 		ldrb	r3, [sp, #12]	@ zero_extendqisi2
 546              		.loc 1 174 41 discriminator 3
 547 03dc 019A     		ldr	r2, [sp, #4]
 548 03de 4900     		lsls	r1, r1, #1
 549 03e0 0B44     		add	r3, r3, r1
 550 03e2 6E33     		adds	r3, r3, #110
 551 03e4 9B00     		lsls	r3, r3, #2
 552 03e6 1344     		add	r3, r3, r2
 553 03e8 0022     		movs	r2, #0
 554 03ea 5A60     		str	r2, [r3, #4]
 172:C:/StellarStudio-7.0/SDKS/StellarESDK-1.7.0/Modules/Drivers/Timers/HRTIM/src\hrtim.c ****         for (output = 0U; output < (uint8_t)HRTIM_OUTPUT_NUM; output++) {
 555              		.loc 1 172 69 discriminator 3
 556 03ec 9DF80C30 		ldrb	r3, [sp, #12]	@ zero_extendqisi2
 557 03f0 0133     		adds	r3, r3, #1
 558 03f2 8DF80C30 		strb	r3, [sp, #12]
 559              	.L11:
 172:C:/StellarStudio-7.0/SDKS/StellarESDK-1.7.0/Modules/Drivers/Timers/HRTIM/src\hrtim.c ****         for (output = 0U; output < (uint8_t)HRTIM_OUTPUT_NUM; output++) {
 560              		.loc 1 172 9 discriminator 1
 561 03f6 9DF80C30 		ldrb	r3, [sp, #12]	@ zero_extendqisi2
 562 03fa 012B     		cmp	r3, #1
 563 03fc DED9     		bls	.L12
 171:C:/StellarStudio-7.0/SDKS/StellarESDK-1.7.0/Modules/Drivers/Timers/HRTIM/src\hrtim.c ****         for (output = 0U; output < (uint8_t)HRTIM_OUTPUT_NUM; output++) {
 564              		.loc 1 171 55 discriminator 2
 565 03fe 9DF80D30 		ldrb	r3, [sp, #13]	@ zero_extendqisi2
 566 0402 0133     		adds	r3, r3, #1
 567 0404 8DF80D30 		strb	r3, [sp, #13]
 568              	.L10:
 171:C:/StellarStudio-7.0/SDKS/StellarESDK-1.7.0/Modules/Drivers/Timers/HRTIM/src\hrtim.c ****         for (output = 0U; output < (uint8_t)HRTIM_OUTPUT_NUM; output++) {
 569              		.loc 1 171 5 discriminator 1
 570 0408 9DF80D30 		ldrb	r3, [sp, #13]	@ zero_extendqisi2
 571 040c 1F2B     		cmp	r3, #31
 572 040e D1D9     		bls	.L13
 175:C:/StellarStudio-7.0/SDKS/StellarESDK-1.7.0/Modules/Drivers/Timers/HRTIM/src\hrtim.c ****         }
 176:C:/StellarStudio-7.0/SDKS/StellarESDK-1.7.0/Modules/Drivers/Timers/HRTIM/src\hrtim.c ****     }
 177:C:/StellarStudio-7.0/SDKS/StellarESDK-1.7.0/Modules/Drivers/Timers/HRTIM/src\hrtim.c **** 
 178:C:/StellarStudio-7.0/SDKS/StellarESDK-1.7.0/Modules/Drivers/Timers/HRTIM/src\hrtim.c ****     for (adctrigger = 0U; adctrigger < (uint8_t)HRTIM_ADCTRIG_NUM; adctrigger++) {
 573              		.loc 1 178 21
 574 0410 0023     		movs	r3, #0
 575 0412 8DF80B30 		strb	r3, [sp, #11]
 576              		.loc 1 178 5
 577 0416 27E0     		b	.L14
 578              	.L15:
 179:C:/StellarStudio-7.0/SDKS/StellarESDK-1.7.0/Modules/Drivers/Timers/HRTIM/src\hrtim.c ****        hdp->adc_trg[adctrigger].adc_trigger = HRTIM_NO_ADCTRIGGER;
 579              		.loc 1 179 32 discriminator 3
 580 0418 9DF80B30 		ldrb	r3, [sp, #11]	@ zero_extendqisi2
 581              		.loc 1 179 45 discriminator 3
 582 041c 019A     		ldr	r2, [sp, #4]
 583 041e 3333     		adds	r3, r3, #51
 584 0420 1B01     		lsls	r3, r3, #4
 585 0422 1344     		add	r3, r3, r2
 586 0424 0A22     		movs	r2, #10
 587 0426 1A70     		strb	r2, [r3]
 180:C:/StellarStudio-7.0/SDKS/StellarESDK-1.7.0/Modules/Drivers/Timers/HRTIM/src\hrtim.c ****        hdp->adc_trg[adctrigger].update_src = 0U;
 588              		.loc 1 180 32 discriminator 3
 589 0428 9DF80B30 		ldrb	r3, [sp, #11]	@ zero_extendqisi2
 590              		.loc 1 180 44 discriminator 3
 591 042c 019A     		ldr	r2, [sp, #4]
 592 042e 3333     		adds	r3, r3, #51
 593 0430 1B01     		lsls	r3, r3, #4
 594 0432 1344     		add	r3, r3, r2
 595 0434 0433     		adds	r3, r3, #4
 596 0436 0022     		movs	r2, #0
 597 0438 1A60     		str	r2, [r3]
 181:C:/StellarStudio-7.0/SDKS/StellarESDK-1.7.0/Modules/Drivers/Timers/HRTIM/src\hrtim.c ****        hdp->adc_trg[adctrigger].event_trigger = 0U;
 598              		.loc 1 181 32 discriminator 3
 599 043a 9DF80B30 		ldrb	r3, [sp, #11]	@ zero_extendqisi2
 600              		.loc 1 181 47 discriminator 3
 601 043e 019A     		ldr	r2, [sp, #4]
 602 0440 1B01     		lsls	r3, r3, #4
 603 0442 1344     		add	r3, r3, r2
 604 0444 03F54E73 		add	r3, r3, #824
 605 0448 0022     		movs	r2, #0
 606 044a 1A60     		str	r2, [r3]
 182:C:/StellarStudio-7.0/SDKS/StellarESDK-1.7.0/Modules/Drivers/Timers/HRTIM/src\hrtim.c ****        hdp->adc_trg[adctrigger].post_scaler_rate = 0U;
 607              		.loc 1 182 32 discriminator 3
 608 044c 9DF80B30 		ldrb	r3, [sp, #11]	@ zero_extendqisi2
 609              		.loc 1 182 50 discriminator 3
 610 0450 019A     		ldr	r2, [sp, #4]
 611 0452 1B01     		lsls	r3, r3, #4
 612 0454 1344     		add	r3, r3, r2
 613 0456 03F54F73 		add	r3, r3, #828
 614 045a 0022     		movs	r2, #0
 615 045c 1A60     		str	r2, [r3]
 178:C:/StellarStudio-7.0/SDKS/StellarESDK-1.7.0/Modules/Drivers/Timers/HRTIM/src\hrtim.c ****        hdp->adc_trg[adctrigger].adc_trigger = HRTIM_NO_ADCTRIGGER;
 616              		.loc 1 178 78 discriminator 3
 617 045e 9DF80B30 		ldrb	r3, [sp, #11]	@ zero_extendqisi2
 618 0462 0133     		adds	r3, r3, #1
 619 0464 8DF80B30 		strb	r3, [sp, #11]
 620              	.L14:
 178:C:/StellarStudio-7.0/SDKS/StellarESDK-1.7.0/Modules/Drivers/Timers/HRTIM/src\hrtim.c ****        hdp->adc_trg[adctrigger].adc_trigger = HRTIM_NO_ADCTRIGGER;
 621              		.loc 1 178 5 discriminator 1
 622 0468 9DF80B30 		ldrb	r3, [sp, #11]	@ zero_extendqisi2
 623 046c 092B     		cmp	r3, #9
 624 046e D3D9     		bls	.L15
 183:C:/StellarStudio-7.0/SDKS/StellarESDK-1.7.0/Modules/Drivers/Timers/HRTIM/src\hrtim.c ****     }
 184:C:/StellarStudio-7.0/SDKS/StellarESDK-1.7.0/Modules/Drivers/Timers/HRTIM/src\hrtim.c **** 
 185:C:/StellarStudio-7.0/SDKS/StellarESDK-1.7.0/Modules/Drivers/Timers/HRTIM/src\hrtim.c ****     for (eev_index = 0U; eev_index < (uint8_t)HRTIM_EXEVENT_NUM; eev_index++) {
 625              		.loc 1 185 20
 626 0470 0023     		movs	r3, #0
 627 0472 8DF80A30 		strb	r3, [sp, #10]
 628              		.loc 1 185 5
 629 0476 40E0     		b	.L16
 630              	.L17:
 186:C:/StellarStudio-7.0/SDKS/StellarESDK-1.7.0/Modules/Drivers/Timers/HRTIM/src\hrtim.c ****        hdp->eev[eev_index].source = 0U;
 631              		.loc 1 186 27 discriminator 3
 632 0478 9DF80A20 		ldrb	r2, [sp, #10]	@ zero_extendqisi2
 633              		.loc 1 186 35 discriminator 3
 634 047c 0199     		ldr	r1, [sp, #4]
 635 047e 1346     		mov	r3, r2
 636 0480 9B00     		lsls	r3, r3, #2
 637 0482 1344     		add	r3, r3, r2
 638 0484 9B00     		lsls	r3, r3, #2
 639 0486 0B44     		add	r3, r3, r1
 640 0488 03F58D63 		add	r3, r3, #1128
 641 048c 0022     		movs	r2, #0
 642 048e 1A60     		str	r2, [r3]
 187:C:/StellarStudio-7.0/SDKS/StellarESDK-1.7.0/Modules/Drivers/Timers/HRTIM/src\hrtim.c ****        hdp->eev[eev_index].polarity = 0U;
 643              		.loc 1 187 27 discriminator 3
 644 0490 9DF80A20 		ldrb	r2, [sp, #10]	@ zero_extendqisi2
 645              		.loc 1 187 37 discriminator 3
 646 0494 0199     		ldr	r1, [sp, #4]
 647 0496 1346     		mov	r3, r2
 648 0498 9B00     		lsls	r3, r3, #2
 649 049a 1344     		add	r3, r3, r2
 650 049c 9B00     		lsls	r3, r3, #2
 651 049e 0B44     		add	r3, r3, r1
 652 04a0 03F26C43 		addw	r3, r3, #1132
 653 04a4 0022     		movs	r2, #0
 654 04a6 1A60     		str	r2, [r3]
 188:C:/StellarStudio-7.0/SDKS/StellarESDK-1.7.0/Modules/Drivers/Timers/HRTIM/src\hrtim.c ****        hdp->eev[eev_index].sensitivity = 0U;
 655              		.loc 1 188 27 discriminator 3
 656 04a8 9DF80A20 		ldrb	r2, [sp, #10]	@ zero_extendqisi2
 657              		.loc 1 188 40 discriminator 3
 658 04ac 0199     		ldr	r1, [sp, #4]
 659 04ae 1346     		mov	r3, r2
 660 04b0 9B00     		lsls	r3, r3, #2
 661 04b2 1344     		add	r3, r3, r2
 662 04b4 9B00     		lsls	r3, r3, #2
 663 04b6 0B44     		add	r3, r3, r1
 664 04b8 03F58E63 		add	r3, r3, #1136
 665 04bc 0022     		movs	r2, #0
 666 04be 1A60     		str	r2, [r3]
 189:C:/StellarStudio-7.0/SDKS/StellarESDK-1.7.0/Modules/Drivers/Timers/HRTIM/src\hrtim.c ****        hdp->eev[eev_index].filter = 0U;
 667              		.loc 1 189 27 discriminator 3
 668 04c0 9DF80A20 		ldrb	r2, [sp, #10]	@ zero_extendqisi2
 669              		.loc 1 189 35 discriminator 3
 670 04c4 0199     		ldr	r1, [sp, #4]
 671 04c6 1346     		mov	r3, r2
 672 04c8 9B00     		lsls	r3, r3, #2
 673 04ca 1344     		add	r3, r3, r2
 674 04cc 9B00     		lsls	r3, r3, #2
 675 04ce 0B44     		add	r3, r3, r1
 676 04d0 03F27443 		addw	r3, r3, #1140
 677 04d4 0022     		movs	r2, #0
 678 04d6 1A60     		str	r2, [r3]
 190:C:/StellarStudio-7.0/SDKS/StellarESDK-1.7.0/Modules/Drivers/Timers/HRTIM/src\hrtim.c ****        hdp->eev[eev_index].fast_mode = 0U;
 679              		.loc 1 190 27 discriminator 3
 680 04d8 9DF80A20 		ldrb	r2, [sp, #10]	@ zero_extendqisi2
 681              		.loc 1 190 38 discriminator 3
 682 04dc 0199     		ldr	r1, [sp, #4]
 683 04de 1346     		mov	r3, r2
 684 04e0 9B00     		lsls	r3, r3, #2
 685 04e2 1344     		add	r3, r3, r2
 686 04e4 9B00     		lsls	r3, r3, #2
 687 04e6 0B44     		add	r3, r3, r1
 688 04e8 03F58F63 		add	r3, r3, #1144
 689 04ec 0022     		movs	r2, #0
 690 04ee 1A60     		str	r2, [r3]
 185:C:/StellarStudio-7.0/SDKS/StellarESDK-1.7.0/Modules/Drivers/Timers/HRTIM/src\hrtim.c ****        hdp->eev[eev_index].source = 0U;
 691              		.loc 1 185 75 discriminator 3
 692 04f0 9DF80A30 		ldrb	r3, [sp, #10]	@ zero_extendqisi2
 693 04f4 0133     		adds	r3, r3, #1
 694 04f6 8DF80A30 		strb	r3, [sp, #10]
 695              	.L16:
 185:C:/StellarStudio-7.0/SDKS/StellarESDK-1.7.0/Modules/Drivers/Timers/HRTIM/src\hrtim.c ****        hdp->eev[eev_index].source = 0U;
 696              		.loc 1 185 5 discriminator 1
 697 04fa 9DF80A30 		ldrb	r3, [sp, #10]	@ zero_extendqisi2
 698 04fe 092B     		cmp	r3, #9
 699 0500 BAD9     		bls	.L17
 191:C:/StellarStudio-7.0/SDKS/StellarESDK-1.7.0/Modules/Drivers/Timers/HRTIM/src\hrtim.c ****     }
 192:C:/StellarStudio-7.0/SDKS/StellarESDK-1.7.0/Modules/Drivers/Timers/HRTIM/src\hrtim.c **** 
 193:C:/StellarStudio-7.0/SDKS/StellarESDK-1.7.0/Modules/Drivers/Timers/HRTIM/src\hrtim.c ****     hdp->eev_prescaler = HRTIM_EVENTPRESCALER_DIV1;
 700              		.loc 1 193 24
 701 0502 019B     		ldr	r3, [sp, #4]
 702 0504 0022     		movs	r2, #0
 703 0506 83F8E029 		strb	r2, [r3, #2528]
 194:C:/StellarStudio-7.0/SDKS/StellarESDK-1.7.0/Modules/Drivers/Timers/HRTIM/src\hrtim.c **** 
 195:C:/StellarStudio-7.0/SDKS/StellarESDK-1.7.0/Modules/Drivers/Timers/HRTIM/src\hrtim.c ****     for (flt_index = 0U; flt_index < (uint8_t)HRTIM_FAULT_NUM; flt_index++) {
 704              		.loc 1 195 20
 705 050a 0023     		movs	r3, #0
 706 050c 8DF80930 		strb	r3, [sp, #9]
 707              		.loc 1 195 5
 708 0510 70E0     		b	.L18
 709              	.L19:
 196:C:/StellarStudio-7.0/SDKS/StellarESDK-1.7.0/Modules/Drivers/Timers/HRTIM/src\hrtim.c ****         hdp->fault[flt_index].fault_idx = HRTIM_NO_FAULT;
 710              		.loc 1 196 30 discriminator 3
 711 0512 9DF80920 		ldrb	r2, [sp, #9]	@ zero_extendqisi2
 712              		.loc 1 196 41 discriminator 3
 713 0516 0199     		ldr	r1, [sp, #4]
 714 0518 1346     		mov	r3, r2
 715 051a 9B00     		lsls	r3, r3, #2
 716 051c 1344     		add	r3, r3, r2
 717 051e 9B00     		lsls	r3, r3, #2
 718 0520 0B44     		add	r3, r3, r1
 719 0522 03F6E813 		addw	r3, r3, #2536
 720 0526 0622     		movs	r2, #6
 721 0528 1A70     		strb	r2, [r3]
 197:C:/StellarStudio-7.0/SDKS/StellarESDK-1.7.0/Modules/Drivers/Timers/HRTIM/src\hrtim.c ****         hdp->fault[flt_index].enable = false;
 722              		.loc 1 197 30 discriminator 3
 723 052a 9DF80920 		ldrb	r2, [sp, #9]	@ zero_extendqisi2
 724              		.loc 1 197 38 discriminator 3
 725 052e 0199     		ldr	r1, [sp, #4]
 726 0530 1346     		mov	r3, r2
 727 0532 9B00     		lsls	r3, r3, #2
 728 0534 1344     		add	r3, r3, r2
 729 0536 9B00     		lsls	r3, r3, #2
 730 0538 0B44     		add	r3, r3, r1
 731 053a 03F6E913 		addw	r3, r3, #2537
 732 053e 0022     		movs	r2, #0
 733 0540 1A70     		strb	r2, [r3]
 198:C:/StellarStudio-7.0/SDKS/StellarESDK-1.7.0/Modules/Drivers/Timers/HRTIM/src\hrtim.c ****         hdp->fault[flt_index].source = 0U;
 734              		.loc 1 198 30 discriminator 3
 735 0542 9DF80920 		ldrb	r2, [sp, #9]	@ zero_extendqisi2
 736              		.loc 1 198 38 discriminator 3
 737 0546 0199     		ldr	r1, [sp, #4]
 738 0548 1346     		mov	r3, r2
 739 054a 9B00     		lsls	r3, r3, #2
 740 054c 1344     		add	r3, r3, r2
 741 054e 9B00     		lsls	r3, r3, #2
 742 0550 0B44     		add	r3, r3, r1
 743 0552 03F6EC13 		addw	r3, r3, #2540
 744 0556 0022     		movs	r2, #0
 745 0558 1A60     		str	r2, [r3]
 199:C:/StellarStudio-7.0/SDKS/StellarESDK-1.7.0/Modules/Drivers/Timers/HRTIM/src\hrtim.c ****         hdp->fault[flt_index].polarity = HRTIM_FAULTPOLARITY_LOW;
 746              		.loc 1 199 30 discriminator 3
 747 055a 9DF80920 		ldrb	r2, [sp, #9]	@ zero_extendqisi2
 748              		.loc 1 199 40 discriminator 3
 749 055e 0199     		ldr	r1, [sp, #4]
 750 0560 1346     		mov	r3, r2
 751 0562 9B00     		lsls	r3, r3, #2
 752 0564 1344     		add	r3, r3, r2
 753 0566 9B00     		lsls	r3, r3, #2
 754 0568 0B44     		add	r3, r3, r1
 755 056a 03F51F63 		add	r3, r3, #2544
 756 056e 0022     		movs	r2, #0
 757 0570 1A60     		str	r2, [r3]
 200:C:/StellarStudio-7.0/SDKS/StellarESDK-1.7.0/Modules/Drivers/Timers/HRTIM/src\hrtim.c ****         hdp->fault[flt_index].filter = HRTIM_FAULTFILTER_NONE;
 758              		.loc 1 200 30 discriminator 3
 759 0572 9DF80920 		ldrb	r2, [sp, #9]	@ zero_extendqisi2
 760              		.loc 1 200 38 discriminator 3
 761 0576 0199     		ldr	r1, [sp, #4]
 762 0578 1346     		mov	r3, r2
 763 057a 9B00     		lsls	r3, r3, #2
 764 057c 1344     		add	r3, r3, r2
 765 057e 9B00     		lsls	r3, r3, #2
 766 0580 0B44     		add	r3, r3, r1
 767 0582 03F6F413 		addw	r3, r3, #2548
 768 0586 0022     		movs	r2, #0
 769 0588 1A60     		str	r2, [r3]
 201:C:/StellarStudio-7.0/SDKS/StellarESDK-1.7.0/Modules/Drivers/Timers/HRTIM/src\hrtim.c ****         hdp->fault[flt_index].lock = HRTIM_FAULTLOCK_READWRITE;
 770              		.loc 1 201 30 discriminator 3
 771 058a 9DF80920 		ldrb	r2, [sp, #9]	@ zero_extendqisi2
 772              		.loc 1 201 36 discriminator 3
 773 058e 0199     		ldr	r1, [sp, #4]
 774 0590 1346     		mov	r3, r2
 775 0592 9B00     		lsls	r3, r3, #2
 776 0594 1344     		add	r3, r3, r2
 777 0596 9B00     		lsls	r3, r3, #2
 778 0598 0B44     		add	r3, r3, r1
 779 059a 03F6F813 		addw	r3, r3, #2552
 780 059e 0022     		movs	r2, #0
 781 05a0 1A60     		str	r2, [r3]
 202:C:/StellarStudio-7.0/SDKS/StellarESDK-1.7.0/Modules/Drivers/Timers/HRTIM/src\hrtim.c **** 
 203:C:/StellarStudio-7.0/SDKS/StellarESDK-1.7.0/Modules/Drivers/Timers/HRTIM/src\hrtim.c ****         hdp->fault_blnk[flt_index].threshold = 0U;
 782              		.loc 1 203 35 discriminator 3
 783 05a2 9DF80930 		ldrb	r3, [sp, #9]	@ zero_extendqisi2
 784              		.loc 1 203 46 discriminator 3
 785 05a6 019A     		ldr	r2, [sp, #4]
 786 05a8 A633     		adds	r3, r3, #166
 787 05aa 1B01     		lsls	r3, r3, #4
 788 05ac 1344     		add	r3, r3, r2
 789 05ae 0433     		adds	r3, r3, #4
 790 05b0 0022     		movs	r2, #0
 791 05b2 1A60     		str	r2, [r3]
 204:C:/StellarStudio-7.0/SDKS/StellarESDK-1.7.0/Modules/Drivers/Timers/HRTIM/src\hrtim.c ****         hdp->fault_blnk[flt_index].reset_mode = HRTIM_FAULTCOUNTERRST_UNCONDITIONAL;
 792              		.loc 1 204 35 discriminator 3
 793 05b4 9DF80930 		ldrb	r3, [sp, #9]	@ zero_extendqisi2
 794              		.loc 1 204 47 discriminator 3
 795 05b8 019A     		ldr	r2, [sp, #4]
 796 05ba A633     		adds	r3, r3, #166
 797 05bc 1B01     		lsls	r3, r3, #4
 798 05be 1344     		add	r3, r3, r2
 799 05c0 0833     		adds	r3, r3, #8
 800 05c2 0022     		movs	r2, #0
 801 05c4 1A60     		str	r2, [r3]
 205:C:/StellarStudio-7.0/SDKS/StellarESDK-1.7.0/Modules/Drivers/Timers/HRTIM/src\hrtim.c **** 		hdp->fault_blnk[flt_index].blanking_enable = false;
 802              		.loc 1 205 29 discriminator 3
 803 05c6 9DF80930 		ldrb	r3, [sp, #9]	@ zero_extendqisi2
 804              		.loc 1 205 46 discriminator 3
 805 05ca 019A     		ldr	r2, [sp, #4]
 806 05cc 1B01     		lsls	r3, r3, #4
 807 05ce 1344     		add	r3, r3, r2
 808 05d0 03F66C23 		addw	r3, r3, #2668
 809 05d4 0022     		movs	r2, #0
 810 05d6 1A70     		strb	r2, [r3]
 206:C:/StellarStudio-7.0/SDKS/StellarESDK-1.7.0/Modules/Drivers/Timers/HRTIM/src\hrtim.c ****         hdp->fault_blnk[flt_index].blanking_source = HRTIM_FAULTBLANKINGMODE_RSTALIGNED;
 811              		.loc 1 206 35 discriminator 3
 812 05d8 9DF80930 		ldrb	r3, [sp, #9]	@ zero_extendqisi2
 813              		.loc 1 206 52 discriminator 3
 814 05dc 019A     		ldr	r2, [sp, #4]
 815 05de 1B01     		lsls	r3, r3, #4
 816 05e0 1344     		add	r3, r3, r2
 817 05e2 03F52763 		add	r3, r3, #2672
 818 05e6 0022     		movs	r2, #0
 819 05e8 1A60     		str	r2, [r3]
 195:C:/StellarStudio-7.0/SDKS/StellarESDK-1.7.0/Modules/Drivers/Timers/HRTIM/src\hrtim.c ****         hdp->fault[flt_index].fault_idx = HRTIM_NO_FAULT;
 820              		.loc 1 195 73 discriminator 3
 821 05ea 9DF80930 		ldrb	r3, [sp, #9]	@ zero_extendqisi2
 822 05ee 0133     		adds	r3, r3, #1
 823 05f0 8DF80930 		strb	r3, [sp, #9]
 824              	.L18:
 195:C:/StellarStudio-7.0/SDKS/StellarESDK-1.7.0/Modules/Drivers/Timers/HRTIM/src\hrtim.c ****         hdp->fault[flt_index].fault_idx = HRTIM_NO_FAULT;
 825              		.loc 1 195 5 discriminator 1
 826 05f4 9DF80930 		ldrb	r3, [sp, #9]	@ zero_extendqisi2
 827 05f8 052B     		cmp	r3, #5
 828 05fa 8AD9     		bls	.L19
 207:C:/StellarStudio-7.0/SDKS/StellarESDK-1.7.0/Modules/Drivers/Timers/HRTIM/src\hrtim.c ****     }
 208:C:/StellarStudio-7.0/SDKS/StellarESDK-1.7.0/Modules/Drivers/Timers/HRTIM/src\hrtim.c **** 
 209:C:/StellarStudio-7.0/SDKS/StellarESDK-1.7.0/Modules/Drivers/Timers/HRTIM/src\hrtim.c ****     hdp->fault_prescaler = HRTIM_FAULTPRESCALER_DIV1;
 829              		.loc 1 209 26
 830 05fc 019B     		ldr	r3, [sp, #4]
 831 05fe 0022     		movs	r2, #0
 832 0600 83F8602A 		strb	r2, [r3, #2656]
 210:C:/StellarStudio-7.0/SDKS/StellarESDK-1.7.0/Modules/Drivers/Timers/HRTIM/src\hrtim.c **** 
 211:C:/StellarStudio-7.0/SDKS/StellarESDK-1.7.0/Modules/Drivers/Timers/HRTIM/src\hrtim.c ****     hdp->sync_in  = HRTIM_SYNCIN_NONE;
 833              		.loc 1 211 19
 834 0604 019B     		ldr	r3, [sp, #4]
 835 0606 0022     		movs	r2, #0
 836 0608 83F8182B 		strb	r2, [r3, #2840]
 212:C:/StellarStudio-7.0/SDKS/StellarESDK-1.7.0/Modules/Drivers/Timers/HRTIM/src\hrtim.c ****     hdp->sync_out = HRTIM_SYNCOUT_DISABLED;
 837              		.loc 1 212 19
 838 060c 019B     		ldr	r3, [sp, #4]
 839 060e 0022     		movs	r2, #0
 840 0610 83F8192B 		strb	r2, [r3, #2841]
 213:C:/StellarStudio-7.0/SDKS/StellarESDK-1.7.0/Modules/Drivers/Timers/HRTIM/src\hrtim.c ****     hdp->sync_src = HRTIM_SYNCSRC_MASTER_START;
 841              		.loc 1 213 19
 842 0614 019B     		ldr	r3, [sp, #4]
 843 0616 0022     		movs	r2, #0
 844 0618 83F81A2B 		strb	r2, [r3, #2842]
 214:C:/StellarStudio-7.0/SDKS/StellarESDK-1.7.0/Modules/Drivers/Timers/HRTIM/src\hrtim.c ****     hdp->is_master_sync_start = false;
 845              		.loc 1 214 31
 846 061c 019B     		ldr	r3, [sp, #4]
 847 061e 0022     		movs	r2, #0
 848 0620 83F81B2B 		strb	r2, [r3, #2843]
 215:C:/StellarStudio-7.0/SDKS/StellarESDK-1.7.0/Modules/Drivers/Timers/HRTIM/src\hrtim.c ****     hdp->is_master_sync_reset = false;
 849              		.loc 1 215 31
 850 0624 019B     		ldr	r3, [sp, #4]
 851 0626 0022     		movs	r2, #0
 852 0628 83F81C2B 		strb	r2, [r3, #2844]
 216:C:/StellarStudio-7.0/SDKS/StellarESDK-1.7.0/Modules/Drivers/Timers/HRTIM/src\hrtim.c ****     for (timer = 0U; timer < (uint8_t)HRTIM_TIMER_NUM; timer++) {
 853              		.loc 1 216 16
 854 062c 0023     		movs	r3, #0
 855 062e 8DF80F30 		strb	r3, [sp, #15]
 856              		.loc 1 216 5
 857 0632 12E0     		b	.L20
 858              	.L21:
 217:C:/StellarStudio-7.0/SDKS/StellarESDK-1.7.0/Modules/Drivers/Timers/HRTIM/src\hrtim.c ****         hdp->is_timer_sync_start[timer] = false;
 859              		.loc 1 217 33 discriminator 3
 860 0634 9DF80F30 		ldrb	r3, [sp, #15]	@ zero_extendqisi2
 861              		.loc 1 217 41 discriminator 3
 862 0638 019A     		ldr	r2, [sp, #4]
 863 063a 1344     		add	r3, r3, r2
 864 063c 0022     		movs	r2, #0
 865 063e 83F81D2B 		strb	r2, [r3, #2845]
 218:C:/StellarStudio-7.0/SDKS/StellarESDK-1.7.0/Modules/Drivers/Timers/HRTIM/src\hrtim.c ****         hdp->is_timer_sync_reset[timer] = false;
 866              		.loc 1 218 33 discriminator 3
 867 0642 9DF80F30 		ldrb	r3, [sp, #15]	@ zero_extendqisi2
 868              		.loc 1 218 41 discriminator 3
 869 0646 019A     		ldr	r2, [sp, #4]
 870 0648 1344     		add	r3, r3, r2
 871 064a 0022     		movs	r2, #0
 872 064c 83F8232B 		strb	r2, [r3, #2851]
 216:C:/StellarStudio-7.0/SDKS/StellarESDK-1.7.0/Modules/Drivers/Timers/HRTIM/src\hrtim.c ****     for (timer = 0U; timer < (uint8_t)HRTIM_TIMER_NUM; timer++) {
 873              		.loc 1 216 61 discriminator 3
 874 0650 9DF80F30 		ldrb	r3, [sp, #15]	@ zero_extendqisi2
 875 0654 0133     		adds	r3, r3, #1
 876 0656 8DF80F30 		strb	r3, [sp, #15]
 877              	.L20:
 216:C:/StellarStudio-7.0/SDKS/StellarESDK-1.7.0/Modules/Drivers/Timers/HRTIM/src\hrtim.c ****     for (timer = 0U; timer < (uint8_t)HRTIM_TIMER_NUM; timer++) {
 878              		.loc 1 216 5 discriminator 1
 879 065a 9DF80F30 		ldrb	r3, [sp, #15]	@ zero_extendqisi2
 880 065e 052B     		cmp	r3, #5
 881 0660 E8D9     		bls	.L21
 219:C:/StellarStudio-7.0/SDKS/StellarESDK-1.7.0/Modules/Drivers/Timers/HRTIM/src\hrtim.c ****     }
 220:C:/StellarStudio-7.0/SDKS/StellarESDK-1.7.0/Modules/Drivers/Timers/HRTIM/src\hrtim.c **** }
 882              		.loc 1 220 1
 883 0662 00BF     		nop
 884 0664 00BF     		nop
 885 0666 04B0     		add	sp, sp, #16
 886              		.cfi_def_cfa_offset 0
 887              		@ sp needed
 888 0668 7047     		bx	lr
 889              		.cfi_endproc
 890              	.LFE154:
 892 066a 00BF     		.section	.text.hrtim_init,"ax",%progbits
 893              		.align	1
 894              		.p2align 4,,15
 895              		.global	hrtim_init
 896              		.syntax unified
 897              		.thumb
 898              		.thumb_func
 900              	hrtim_init:
 901              	.LFB155:
 221:C:/StellarStudio-7.0/SDKS/StellarESDK-1.7.0/Modules/Drivers/Timers/HRTIM/src\hrtim.c **** 
 222:C:/StellarStudio-7.0/SDKS/StellarESDK-1.7.0/Modules/Drivers/Timers/HRTIM/src\hrtim.c **** /*===========================================================================*/
 223:C:/StellarStudio-7.0/SDKS/StellarESDK-1.7.0/Modules/Drivers/Timers/HRTIM/src\hrtim.c **** /* Module exported functions.                                                */
 224:C:/StellarStudio-7.0/SDKS/StellarESDK-1.7.0/Modules/Drivers/Timers/HRTIM/src\hrtim.c **** /*===========================================================================*/
 225:C:/StellarStudio-7.0/SDKS/StellarESDK-1.7.0/Modules/Drivers/Timers/HRTIM/src\hrtim.c **** 
 226:C:/StellarStudio-7.0/SDKS/StellarESDK-1.7.0/Modules/Drivers/Timers/HRTIM/src\hrtim.c **** void hrtim_init(hrtim_driver_t *hdp) {
 902              		.loc 1 226 38
 903              		.cfi_startproc
 904              		@ args = 0, pretend = 0, frame = 8
 905              		@ frame_needed = 0, uses_anonymous_args = 0
 906 0000 00B5     		push	{lr}
 907              		.cfi_def_cfa_offset 4
 908              		.cfi_offset 14, -4
 909 0002 83B0     		sub	sp, sp, #12
 910              		.cfi_def_cfa_offset 16
 911 0004 0190     		str	r0, [sp, #4]
 227:C:/StellarStudio-7.0/SDKS/StellarESDK-1.7.0/Modules/Drivers/Timers/HRTIM/src\hrtim.c **** 
 228:C:/StellarStudio-7.0/SDKS/StellarESDK-1.7.0/Modules/Drivers/Timers/HRTIM/src\hrtim.c ****     /* Set pointer to HRTIM register block.*/
 229:C:/StellarStudio-7.0/SDKS/StellarESDK-1.7.0/Modules/Drivers/Timers/HRTIM/src\hrtim.c ****     hdp->hrtim = hrtim_dev_get_reg_ptr(hdp);
 912              		.loc 1 229 18
 913 0006 0198     		ldr	r0, [sp, #4]
 914 0008 FFF7FEFF 		bl	hrtim_dev_get_reg_ptr
 915 000c 0246     		mov	r2, r0
 916              		.loc 1 229 16
 917 000e 019B     		ldr	r3, [sp, #4]
 918 0010 1A60     		str	r2, [r3]
 230:C:/StellarStudio-7.0/SDKS/StellarESDK-1.7.0/Modules/Drivers/Timers/HRTIM/src\hrtim.c **** 
 231:C:/StellarStudio-7.0/SDKS/StellarESDK-1.7.0/Modules/Drivers/Timers/HRTIM/src\hrtim.c ****     /* Set HRTIM clock value based on clocktree configuration.*/
 232:C:/StellarStudio-7.0/SDKS/StellarESDK-1.7.0/Modules/Drivers/Timers/HRTIM/src\hrtim.c ****     hdp->clock = hrtim_dev_get_clock(hdp);
 919              		.loc 1 232 18
 920 0012 0198     		ldr	r0, [sp, #4]
 921 0014 FFF7FEFF 		bl	hrtim_dev_get_clock
 922 0018 0246     		mov	r2, r0
 923              		.loc 1 232 16
 924 001a 019B     		ldr	r3, [sp, #4]
 925 001c 9A60     		str	r2, [r3, #8]
 233:C:/StellarStudio-7.0/SDKS/StellarESDK-1.7.0/Modules/Drivers/Timers/HRTIM/src\hrtim.c **** 
 234:C:/StellarStudio-7.0/SDKS/StellarESDK-1.7.0/Modules/Drivers/Timers/HRTIM/src\hrtim.c ****     /* Reset HRTIM parameters.*/
 235:C:/StellarStudio-7.0/SDKS/StellarESDK-1.7.0/Modules/Drivers/Timers/HRTIM/src\hrtim.c ****     hrtim_reset_paramters(hdp);
 926              		.loc 1 235 5
 927 001e 0198     		ldr	r0, [sp, #4]
 928 0020 FFF7FEFF 		bl	hrtim_reset_paramters
 236:C:/StellarStudio-7.0/SDKS/StellarESDK-1.7.0/Modules/Drivers/Timers/HRTIM/src\hrtim.c **** }
 929              		.loc 1 236 1
 930 0024 00BF     		nop
 931 0026 03B0     		add	sp, sp, #12
 932              		.cfi_def_cfa_offset 4
 933              		@ sp needed
 934 0028 5DF804FB 		ldr	pc, [sp], #4
 935              		.cfi_endproc
 936              	.LFE155:
 938              		.section	.text.hrtim_set_prio,"ax",%progbits
 939              		.align	1
 940              		.p2align 4,,15
 941              		.global	hrtim_set_prio
 942              		.syntax unified
 943              		.thumb
 944              		.thumb_func
 946              	hrtim_set_prio:
 947              	.LFB156:
 237:C:/StellarStudio-7.0/SDKS/StellarESDK-1.7.0/Modules/Drivers/Timers/HRTIM/src\hrtim.c **** 
 238:C:/StellarStudio-7.0/SDKS/StellarESDK-1.7.0/Modules/Drivers/Timers/HRTIM/src\hrtim.c **** uint32_t hrtim_set_prio(hrtim_driver_t *hdp, uint32_t prio) {
 948              		.loc 1 238 61
 949              		.cfi_startproc
 950              		@ args = 0, pretend = 0, frame = 16
 951              		@ frame_needed = 0, uses_anonymous_args = 0
 952              		@ link register save eliminated.
 953 0000 84B0     		sub	sp, sp, #16
 954              		.cfi_def_cfa_offset 16
 955 0002 0190     		str	r0, [sp, #4]
 956 0004 0091     		str	r1, [sp]
 239:C:/StellarStudio-7.0/SDKS/StellarESDK-1.7.0/Modules/Drivers/Timers/HRTIM/src\hrtim.c **** 
 240:C:/StellarStudio-7.0/SDKS/StellarESDK-1.7.0/Modules/Drivers/Timers/HRTIM/src\hrtim.c ****     uint32_t prev_prio;
 241:C:/StellarStudio-7.0/SDKS/StellarESDK-1.7.0/Modules/Drivers/Timers/HRTIM/src\hrtim.c **** 
 242:C:/StellarStudio-7.0/SDKS/StellarESDK-1.7.0/Modules/Drivers/Timers/HRTIM/src\hrtim.c ****     prev_prio = hdp->prio;
 957              		.loc 1 242 15
 958 0006 019B     		ldr	r3, [sp, #4]
 959 0008 1B69     		ldr	r3, [r3, #16]
 960 000a 0393     		str	r3, [sp, #12]
 243:C:/StellarStudio-7.0/SDKS/StellarESDK-1.7.0/Modules/Drivers/Timers/HRTIM/src\hrtim.c ****     hdp->prio = prio;
 961              		.loc 1 243 15
 962 000c 019B     		ldr	r3, [sp, #4]
 963 000e 009A     		ldr	r2, [sp]
 964 0010 1A61     		str	r2, [r3, #16]
 244:C:/StellarStudio-7.0/SDKS/StellarESDK-1.7.0/Modules/Drivers/Timers/HRTIM/src\hrtim.c **** 
 245:C:/StellarStudio-7.0/SDKS/StellarESDK-1.7.0/Modules/Drivers/Timers/HRTIM/src\hrtim.c ****     return prev_prio;
 965              		.loc 1 245 12
 966 0012 039B     		ldr	r3, [sp, #12]
 246:C:/StellarStudio-7.0/SDKS/StellarESDK-1.7.0/Modules/Drivers/Timers/HRTIM/src\hrtim.c **** }
 967              		.loc 1 246 1
 968 0014 1846     		mov	r0, r3
 969 0016 04B0     		add	sp, sp, #16
 970              		.cfi_def_cfa_offset 0
 971              		@ sp needed
 972 0018 7047     		bx	lr
 973              		.cfi_endproc
 974              	.LFE156:
 976 001a 00BF     		.section	.text.hrtim_set_timer_mode,"ax",%progbits
 977              		.align	1
 978              		.p2align 4,,15
 979              		.global	hrtim_set_timer_mode
 980              		.syntax unified
 981              		.thumb
 982              		.thumb_func
 984              	hrtim_set_timer_mode:
 985              	.LFB157:
 247:C:/StellarStudio-7.0/SDKS/StellarESDK-1.7.0/Modules/Drivers/Timers/HRTIM/src\hrtim.c **** 
 248:C:/StellarStudio-7.0/SDKS/StellarESDK-1.7.0/Modules/Drivers/Timers/HRTIM/src\hrtim.c **** hrtim_cntr_mode_t hrtim_set_timer_mode(hrtim_driver_t *hdp, hrtim_timer_t timer,
 249:C:/StellarStudio-7.0/SDKS/StellarESDK-1.7.0/Modules/Drivers/Timers/HRTIM/src\hrtim.c ****                                        hrtim_cntr_mode_t mode) {
 986              		.loc 1 249 64
 987              		.cfi_startproc
 988              		@ args = 0, pretend = 0, frame = 16
 989              		@ frame_needed = 0, uses_anonymous_args = 0
 990              		@ link register save eliminated.
 991 0000 84B0     		sub	sp, sp, #16
 992              		.cfi_def_cfa_offset 16
 993 0002 0190     		str	r0, [sp, #4]
 994 0004 0B46     		mov	r3, r1
 995 0006 8DF80330 		strb	r3, [sp, #3]
 996 000a 1346     		mov	r3, r2
 997 000c 8DF80230 		strb	r3, [sp, #2]
 250:C:/StellarStudio-7.0/SDKS/StellarESDK-1.7.0/Modules/Drivers/Timers/HRTIM/src\hrtim.c ****     hrtim_cntr_mode_t prev_mode;
 251:C:/StellarStudio-7.0/SDKS/StellarESDK-1.7.0/Modules/Drivers/Timers/HRTIM/src\hrtim.c **** 
 252:C:/StellarStudio-7.0/SDKS/StellarESDK-1.7.0/Modules/Drivers/Timers/HRTIM/src\hrtim.c ****     if (timer == HRTIM_TIMER_MASTER) {
 998              		.loc 1 252 8
 999 0010 9DF80330 		ldrb	r3, [sp, #3]	@ zero_extendqisi2
 1000 0014 062B     		cmp	r3, #6
 1001 0016 08D1     		bne	.L26
 253:C:/StellarStudio-7.0/SDKS/StellarESDK-1.7.0/Modules/Drivers/Timers/HRTIM/src\hrtim.c ****         prev_mode = hdp->master_mode;
 1002              		.loc 1 253 19
 1003 0018 019B     		ldr	r3, [sp, #4]
 1004 001a 1B7D     		ldrb	r3, [r3, #20]
 1005 001c 8DF80F30 		strb	r3, [sp, #15]
 254:C:/StellarStudio-7.0/SDKS/StellarESDK-1.7.0/Modules/Drivers/Timers/HRTIM/src\hrtim.c ****         hdp->master_mode = mode;
 1006              		.loc 1 254 26
 1007 0020 019B     		ldr	r3, [sp, #4]
 1008 0022 9DF80220 		ldrb	r2, [sp, #2]
 1009 0026 1A75     		strb	r2, [r3, #20]
 1010 0028 0FE0     		b	.L27
 1011              	.L26:
 255:C:/StellarStudio-7.0/SDKS/StellarESDK-1.7.0/Modules/Drivers/Timers/HRTIM/src\hrtim.c ****     } else {
 256:C:/StellarStudio-7.0/SDKS/StellarESDK-1.7.0/Modules/Drivers/Timers/HRTIM/src\hrtim.c ****         prev_mode = hdp->timer_cntr_mode[timer];
 1012              		.loc 1 256 41
 1013 002a 9DF80330 		ldrb	r3, [sp, #3]	@ zero_extendqisi2
 1014              		.loc 1 256 19
 1015 002e 019A     		ldr	r2, [sp, #4]
 1016 0030 1344     		add	r3, r3, r2
 1017 0032 93F82030 		ldrb	r3, [r3, #32]
 1018 0036 8DF80F30 		strb	r3, [sp, #15]
 257:C:/StellarStudio-7.0/SDKS/StellarESDK-1.7.0/Modules/Drivers/Timers/HRTIM/src\hrtim.c ****         hdp->timer_cntr_mode[timer] = mode;
 1019              		.loc 1 257 29
 1020 003a 9DF80330 		ldrb	r3, [sp, #3]	@ zero_extendqisi2
 1021              		.loc 1 257 37
 1022 003e 019A     		ldr	r2, [sp, #4]
 1023 0040 1344     		add	r3, r3, r2
 1024 0042 9DF80220 		ldrb	r2, [sp, #2]
 1025 0046 83F82020 		strb	r2, [r3, #32]
 1026              	.L27:
 258:C:/StellarStudio-7.0/SDKS/StellarESDK-1.7.0/Modules/Drivers/Timers/HRTIM/src\hrtim.c ****     }
 259:C:/StellarStudio-7.0/SDKS/StellarESDK-1.7.0/Modules/Drivers/Timers/HRTIM/src\hrtim.c **** 
 260:C:/StellarStudio-7.0/SDKS/StellarESDK-1.7.0/Modules/Drivers/Timers/HRTIM/src\hrtim.c ****     return prev_mode;
 1027              		.loc 1 260 12
 1028 004a 9DF80F30 		ldrb	r3, [sp, #15]	@ zero_extendqisi2
 261:C:/StellarStudio-7.0/SDKS/StellarESDK-1.7.0/Modules/Drivers/Timers/HRTIM/src\hrtim.c **** }
 1029              		.loc 1 261 1
 1030 004e 1846     		mov	r0, r3
 1031 0050 04B0     		add	sp, sp, #16
 1032              		.cfi_def_cfa_offset 0
 1033              		@ sp needed
 1034 0052 7047     		bx	lr
 1035              		.cfi_endproc
 1036              	.LFE157:
 1038              		.section	.text.hrtim_timer_set_prescaler,"ax",%progbits
 1039              		.align	1
 1040              		.p2align 4,,15
 1041              		.global	hrtim_timer_set_prescaler
 1042              		.syntax unified
 1043              		.thumb
 1044              		.thumb_func
 1046              	hrtim_timer_set_prescaler:
 1047              	.LFB158:
 262:C:/StellarStudio-7.0/SDKS/StellarESDK-1.7.0/Modules/Drivers/Timers/HRTIM/src\hrtim.c **** 
 263:C:/StellarStudio-7.0/SDKS/StellarESDK-1.7.0/Modules/Drivers/Timers/HRTIM/src\hrtim.c **** hrtim_prsc_t hrtim_timer_set_prescaler(hrtim_driver_t *hdp, hrtim_timer_t timer,
 264:C:/StellarStudio-7.0/SDKS/StellarESDK-1.7.0/Modules/Drivers/Timers/HRTIM/src\hrtim.c ****                                        hrtim_prsc_t prescaler) {
 1048              		.loc 1 264 64
 1049              		.cfi_startproc
 1050              		@ args = 0, pretend = 0, frame = 16
 1051              		@ frame_needed = 0, uses_anonymous_args = 0
 1052              		@ link register save eliminated.
 1053 0000 84B0     		sub	sp, sp, #16
 1054              		.cfi_def_cfa_offset 16
 1055 0002 0190     		str	r0, [sp, #4]
 1056 0004 0B46     		mov	r3, r1
 1057 0006 8DF80330 		strb	r3, [sp, #3]
 1058 000a 1346     		mov	r3, r2
 1059 000c 8DF80230 		strb	r3, [sp, #2]
 265:C:/StellarStudio-7.0/SDKS/StellarESDK-1.7.0/Modules/Drivers/Timers/HRTIM/src\hrtim.c **** 
 266:C:/StellarStudio-7.0/SDKS/StellarESDK-1.7.0/Modules/Drivers/Timers/HRTIM/src\hrtim.c ****     hrtim_prsc_t prev_prescaler;
 267:C:/StellarStudio-7.0/SDKS/StellarESDK-1.7.0/Modules/Drivers/Timers/HRTIM/src\hrtim.c **** 
 268:C:/StellarStudio-7.0/SDKS/StellarESDK-1.7.0/Modules/Drivers/Timers/HRTIM/src\hrtim.c ****     if (timer == HRTIM_TIMER_MASTER) {
 1060              		.loc 1 268 8
 1061 0010 9DF80330 		ldrb	r3, [sp, #3]	@ zero_extendqisi2
 1062 0014 062B     		cmp	r3, #6
 1063 0016 08D1     		bne	.L30
 269:C:/StellarStudio-7.0/SDKS/StellarESDK-1.7.0/Modules/Drivers/Timers/HRTIM/src\hrtim.c ****         prev_prescaler = hdp->master_prescaler;
 1064              		.loc 1 269 24
 1065 0018 019B     		ldr	r3, [sp, #4]
 1066 001a 5B7D     		ldrb	r3, [r3, #21]
 1067 001c 8DF80F30 		strb	r3, [sp, #15]
 270:C:/StellarStudio-7.0/SDKS/StellarESDK-1.7.0/Modules/Drivers/Timers/HRTIM/src\hrtim.c ****         hdp->master_prescaler = prescaler;
 1068              		.loc 1 270 31
 1069 0020 019B     		ldr	r3, [sp, #4]
 1070 0022 9DF80220 		ldrb	r2, [sp, #2]
 1071 0026 5A75     		strb	r2, [r3, #21]
 1072 0028 0FE0     		b	.L31
 1073              	.L30:
 271:C:/StellarStudio-7.0/SDKS/StellarESDK-1.7.0/Modules/Drivers/Timers/HRTIM/src\hrtim.c ****     } else {
 272:C:/StellarStudio-7.0/SDKS/StellarESDK-1.7.0/Modules/Drivers/Timers/HRTIM/src\hrtim.c ****         prev_prescaler = hdp->timer_prescaler[timer];
 1074              		.loc 1 272 46
 1075 002a 9DF80330 		ldrb	r3, [sp, #3]	@ zero_extendqisi2
 1076              		.loc 1 272 24
 1077 002e 019A     		ldr	r2, [sp, #4]
 1078 0030 1344     		add	r3, r3, r2
 1079 0032 93F82630 		ldrb	r3, [r3, #38]
 1080 0036 8DF80F30 		strb	r3, [sp, #15]
 273:C:/StellarStudio-7.0/SDKS/StellarESDK-1.7.0/Modules/Drivers/Timers/HRTIM/src\hrtim.c ****         hdp->timer_prescaler[timer] = prescaler;
 1081              		.loc 1 273 29
 1082 003a 9DF80330 		ldrb	r3, [sp, #3]	@ zero_extendqisi2
 1083              		.loc 1 273 37
 1084 003e 019A     		ldr	r2, [sp, #4]
 1085 0040 1344     		add	r3, r3, r2
 1086 0042 9DF80220 		ldrb	r2, [sp, #2]
 1087 0046 83F82620 		strb	r2, [r3, #38]
 1088              	.L31:
 274:C:/StellarStudio-7.0/SDKS/StellarESDK-1.7.0/Modules/Drivers/Timers/HRTIM/src\hrtim.c ****     }
 275:C:/StellarStudio-7.0/SDKS/StellarESDK-1.7.0/Modules/Drivers/Timers/HRTIM/src\hrtim.c **** 
 276:C:/StellarStudio-7.0/SDKS/StellarESDK-1.7.0/Modules/Drivers/Timers/HRTIM/src\hrtim.c ****     /* Update on-fly.*/
 277:C:/StellarStudio-7.0/SDKS/StellarESDK-1.7.0/Modules/Drivers/Timers/HRTIM/src\hrtim.c ****     if (hdp->is_enable == true) {
 1089              		.loc 1 277 12
 1090 004a 019B     		ldr	r3, [sp, #4]
 1091 004c 1B79     		ldrb	r3, [r3, #4]	@ zero_extendqisi2
 1092              		.loc 1 277 8
 1093 004e 002B     		cmp	r3, #0
 1094 0050 24D0     		beq	.L32
 278:C:/StellarStudio-7.0/SDKS/StellarESDK-1.7.0/Modules/Drivers/Timers/HRTIM/src\hrtim.c ****         if (timer == HRTIM_TIMER_MASTER) {
 1095              		.loc 1 278 12
 1096 0052 9DF80330 		ldrb	r3, [sp, #3]	@ zero_extendqisi2
 1097 0056 062B     		cmp	r3, #6
 1098 0058 0BD1     		bne	.L33
 279:C:/StellarStudio-7.0/SDKS/StellarESDK-1.7.0/Modules/Drivers/Timers/HRTIM/src\hrtim.c ****             hdp->hrtim->sMasterRegs.MCR |= (((uint32_t)prescaler) & HRTIM_MCR_CK_PSC_Msk);
 1099              		.loc 1 279 16
 1100 005a 019B     		ldr	r3, [sp, #4]
 1101 005c 1B68     		ldr	r3, [r3]
 1102              		.loc 1 279 41
 1103 005e 1968     		ldr	r1, [r3]
 1104              		.loc 1 279 67
 1105 0060 9DF80230 		ldrb	r3, [sp, #2]	@ zero_extendqisi2
 1106 0064 03F00702 		and	r2, r3, #7
 1107              		.loc 1 279 16
 1108 0068 019B     		ldr	r3, [sp, #4]
 1109 006a 1B68     		ldr	r3, [r3]
 1110              		.loc 1 279 41
 1111 006c 0A43     		orrs	r2, r2, r1
 1112 006e 1A60     		str	r2, [r3]
 1113 0070 14E0     		b	.L32
 1114              	.L33:
 280:C:/StellarStudio-7.0/SDKS/StellarESDK-1.7.0/Modules/Drivers/Timers/HRTIM/src\hrtim.c ****         } else {
 281:C:/StellarStudio-7.0/SDKS/StellarESDK-1.7.0/Modules/Drivers/Timers/HRTIM/src\hrtim.c ****             hdp->hrtim->sTimerxRegs[timer].TIMxCR |= (((uint32_t)prescaler) & HRTIM_MCR_CK_PSC_Msk)
 1115              		.loc 1 281 16
 1116 0072 019B     		ldr	r3, [sp, #4]
 1117 0074 1A68     		ldr	r2, [r3]
 1118              		.loc 1 281 51
 1119 0076 9DF80330 		ldrb	r3, [sp, #3]	@ zero_extendqisi2
 1120 007a 0133     		adds	r3, r3, #1
 1121 007c DB01     		lsls	r3, r3, #7
 1122 007e 1344     		add	r3, r3, r2
 1123 0080 1868     		ldr	r0, [r3]
 1124              		.loc 1 281 77
 1125 0082 9DF80230 		ldrb	r3, [sp, #2]	@ zero_extendqisi2
 1126 0086 03F00702 		and	r2, r3, #7
 1127              		.loc 1 281 16
 1128 008a 019B     		ldr	r3, [sp, #4]
 1129 008c 1968     		ldr	r1, [r3]
 1130              		.loc 1 281 51
 1131 008e 9DF80330 		ldrb	r3, [sp, #3]	@ zero_extendqisi2
 1132 0092 0243     		orrs	r2, r2, r0
 1133 0094 0133     		adds	r3, r3, #1
 1134 0096 DB01     		lsls	r3, r3, #7
 1135 0098 0B44     		add	r3, r3, r1
 1136 009a 1A60     		str	r2, [r3]
 1137              	.L32:
 282:C:/StellarStudio-7.0/SDKS/StellarESDK-1.7.0/Modules/Drivers/Timers/HRTIM/src\hrtim.c ****         }
 283:C:/StellarStudio-7.0/SDKS/StellarESDK-1.7.0/Modules/Drivers/Timers/HRTIM/src\hrtim.c ****     }
 284:C:/StellarStudio-7.0/SDKS/StellarESDK-1.7.0/Modules/Drivers/Timers/HRTIM/src\hrtim.c **** 
 285:C:/StellarStudio-7.0/SDKS/StellarESDK-1.7.0/Modules/Drivers/Timers/HRTIM/src\hrtim.c ****     return prev_prescaler;
 1138              		.loc 1 285 12
 1139 009c 9DF80F30 		ldrb	r3, [sp, #15]	@ zero_extendqisi2
 286:C:/StellarStudio-7.0/SDKS/StellarESDK-1.7.0/Modules/Drivers/Timers/HRTIM/src\hrtim.c **** }
 1140              		.loc 1 286 1
 1141 00a0 1846     		mov	r0, r3
 1142 00a2 04B0     		add	sp, sp, #16
 1143              		.cfi_def_cfa_offset 0
 1144              		@ sp needed
 1145 00a4 7047     		bx	lr
 1146              		.cfi_endproc
 1147              	.LFE158:
 1149 00a6 00BF     		.section	.text.hrtim_timer_get_prescaler,"ax",%progbits
 1150              		.align	1
 1151              		.p2align 4,,15
 1152              		.global	hrtim_timer_get_prescaler
 1153              		.syntax unified
 1154              		.thumb
 1155              		.thumb_func
 1157              	hrtim_timer_get_prescaler:
 1158              	.LFB159:
 287:C:/StellarStudio-7.0/SDKS/StellarESDK-1.7.0/Modules/Drivers/Timers/HRTIM/src\hrtim.c **** 
 288:C:/StellarStudio-7.0/SDKS/StellarESDK-1.7.0/Modules/Drivers/Timers/HRTIM/src\hrtim.c **** hrtim_prsc_t hrtim_timer_get_prescaler(hrtim_driver_t *hdp, hrtim_timer_t timer) {
 1159              		.loc 1 288 82
 1160              		.cfi_startproc
 1161              		@ args = 0, pretend = 0, frame = 8
 1162              		@ frame_needed = 0, uses_anonymous_args = 0
 1163              		@ link register save eliminated.
 1164 0000 82B0     		sub	sp, sp, #8
 1165              		.cfi_def_cfa_offset 8
 1166 0002 0190     		str	r0, [sp, #4]
 1167 0004 0B46     		mov	r3, r1
 1168 0006 8DF80330 		strb	r3, [sp, #3]
 289:C:/StellarStudio-7.0/SDKS/StellarESDK-1.7.0/Modules/Drivers/Timers/HRTIM/src\hrtim.c **** 
 290:C:/StellarStudio-7.0/SDKS/StellarESDK-1.7.0/Modules/Drivers/Timers/HRTIM/src\hrtim.c ****     if (timer == HRTIM_TIMER_MASTER) {
 1169              		.loc 1 290 8
 1170 000a 9DF80330 		ldrb	r3, [sp, #3]	@ zero_extendqisi2
 1171 000e 062B     		cmp	r3, #6
 1172 0010 02D1     		bne	.L36
 291:C:/StellarStudio-7.0/SDKS/StellarESDK-1.7.0/Modules/Drivers/Timers/HRTIM/src\hrtim.c ****         return hdp->master_prescaler;
 1173              		.loc 1 291 19
 1174 0012 019B     		ldr	r3, [sp, #4]
 1175 0014 5B7D     		ldrb	r3, [r3, #21]	@ zero_extendqisi2
 1176 0016 05E0     		b	.L37
 1177              	.L36:
 292:C:/StellarStudio-7.0/SDKS/StellarESDK-1.7.0/Modules/Drivers/Timers/HRTIM/src\hrtim.c ****     } else {
 293:C:/StellarStudio-7.0/SDKS/StellarESDK-1.7.0/Modules/Drivers/Timers/HRTIM/src\hrtim.c ****         return hdp->timer_prescaler[timer];
 1178              		.loc 1 293 36
 1179 0018 9DF80330 		ldrb	r3, [sp, #3]	@ zero_extendqisi2
 1180 001c 019A     		ldr	r2, [sp, #4]
 1181 001e 1344     		add	r3, r3, r2
 1182 0020 93F82630 		ldrb	r3, [r3, #38]	@ zero_extendqisi2
 1183              	.L37:
 294:C:/StellarStudio-7.0/SDKS/StellarESDK-1.7.0/Modules/Drivers/Timers/HRTIM/src\hrtim.c ****     }
 295:C:/StellarStudio-7.0/SDKS/StellarESDK-1.7.0/Modules/Drivers/Timers/HRTIM/src\hrtim.c **** }
 1184              		.loc 1 295 1
 1185 0024 1846     		mov	r0, r3
 1186 0026 02B0     		add	sp, sp, #8
 1187              		.cfi_def_cfa_offset 0
 1188              		@ sp needed
 1189 0028 7047     		bx	lr
 1190              		.cfi_endproc
 1191              	.LFE159:
 1193 002a 00BF     		.section	.text.hrtim_timer_set_period,"ax",%progbits
 1194              		.align	1
 1195              		.p2align 4,,15
 1196              		.global	hrtim_timer_set_period
 1197              		.syntax unified
 1198              		.thumb
 1199              		.thumb_func
 1201              	hrtim_timer_set_period:
 1202              	.LFB160:
 296:C:/StellarStudio-7.0/SDKS/StellarESDK-1.7.0/Modules/Drivers/Timers/HRTIM/src\hrtim.c **** 
 297:C:/StellarStudio-7.0/SDKS/StellarESDK-1.7.0/Modules/Drivers/Timers/HRTIM/src\hrtim.c **** uint16_t hrtim_timer_set_period(hrtim_driver_t *hdp, hrtim_timer_t timer,
 298:C:/StellarStudio-7.0/SDKS/StellarESDK-1.7.0/Modules/Drivers/Timers/HRTIM/src\hrtim.c ****                                 uint16_t period) {
 1203              		.loc 1 298 50
 1204              		.cfi_startproc
 1205              		@ args = 0, pretend = 0, frame = 16
 1206              		@ frame_needed = 0, uses_anonymous_args = 0
 1207              		@ link register save eliminated.
 1208 0000 84B0     		sub	sp, sp, #16
 1209              		.cfi_def_cfa_offset 16
 1210 0002 0190     		str	r0, [sp, #4]
 1211 0004 0B46     		mov	r3, r1
 1212 0006 8DF80330 		strb	r3, [sp, #3]
 1213 000a 1346     		mov	r3, r2	@ movhi
 1214 000c ADF80030 		strh	r3, [sp]	@ movhi
 299:C:/StellarStudio-7.0/SDKS/StellarESDK-1.7.0/Modules/Drivers/Timers/HRTIM/src\hrtim.c ****     uint16_t prev_period;
 300:C:/StellarStudio-7.0/SDKS/StellarESDK-1.7.0/Modules/Drivers/Timers/HRTIM/src\hrtim.c **** 
 301:C:/StellarStudio-7.0/SDKS/StellarESDK-1.7.0/Modules/Drivers/Timers/HRTIM/src\hrtim.c ****     if (timer == HRTIM_TIMER_MASTER) {
 1215              		.loc 1 301 8
 1216 0010 9DF80330 		ldrb	r3, [sp, #3]	@ zero_extendqisi2
 1217 0014 062B     		cmp	r3, #6
 1218 0016 08D1     		bne	.L39
 302:C:/StellarStudio-7.0/SDKS/StellarESDK-1.7.0/Modules/Drivers/Timers/HRTIM/src\hrtim.c ****         prev_period = hdp->master_period;
 1219              		.loc 1 302 21
 1220 0018 019B     		ldr	r3, [sp, #4]
 1221 001a DB8A     		ldrh	r3, [r3, #22]	@ movhi
 1222 001c ADF80E30 		strh	r3, [sp, #14]	@ movhi
 303:C:/StellarStudio-7.0/SDKS/StellarESDK-1.7.0/Modules/Drivers/Timers/HRTIM/src\hrtim.c ****         hdp->master_period = period;
 1223              		.loc 1 303 28
 1224 0020 019B     		ldr	r3, [sp, #4]
 1225 0022 BDF80020 		ldrh	r2, [sp]	@ movhi
 1226 0026 DA82     		strh	r2, [r3, #22]	@ movhi
 1227 0028 11E0     		b	.L40
 1228              	.L39:
 304:C:/StellarStudio-7.0/SDKS/StellarESDK-1.7.0/Modules/Drivers/Timers/HRTIM/src\hrtim.c ****     } else {
 305:C:/StellarStudio-7.0/SDKS/StellarESDK-1.7.0/Modules/Drivers/Timers/HRTIM/src\hrtim.c ****         prev_period = hdp->timer_period[timer];
 1229              		.loc 1 305 40
 1230 002a 9DF80330 		ldrb	r3, [sp, #3]	@ zero_extendqisi2
 1231              		.loc 1 305 21
 1232 002e 019A     		ldr	r2, [sp, #4]
 1233 0030 1433     		adds	r3, r3, #20
 1234 0032 5B00     		lsls	r3, r3, #1
 1235 0034 1344     		add	r3, r3, r2
 1236 0036 9B88     		ldrh	r3, [r3, #4]	@ movhi
 1237 0038 ADF80E30 		strh	r3, [sp, #14]	@ movhi
 306:C:/StellarStudio-7.0/SDKS/StellarESDK-1.7.0/Modules/Drivers/Timers/HRTIM/src\hrtim.c ****         hdp->timer_period[timer] = period;
 1238              		.loc 1 306 26
 1239 003c 9DF80330 		ldrb	r3, [sp, #3]	@ zero_extendqisi2
 1240              		.loc 1 306 34
 1241 0040 019A     		ldr	r2, [sp, #4]
 1242 0042 1433     		adds	r3, r3, #20
 1243 0044 5B00     		lsls	r3, r3, #1
 1244 0046 1344     		add	r3, r3, r2
 1245 0048 BDF80020 		ldrh	r2, [sp]	@ movhi
 1246 004c 9A80     		strh	r2, [r3, #4]	@ movhi
 1247              	.L40:
 307:C:/StellarStudio-7.0/SDKS/StellarESDK-1.7.0/Modules/Drivers/Timers/HRTIM/src\hrtim.c ****     }
 308:C:/StellarStudio-7.0/SDKS/StellarESDK-1.7.0/Modules/Drivers/Timers/HRTIM/src\hrtim.c **** 
 309:C:/StellarStudio-7.0/SDKS/StellarESDK-1.7.0/Modules/Drivers/Timers/HRTIM/src\hrtim.c ****     /* Update on-fly.*/
 310:C:/StellarStudio-7.0/SDKS/StellarESDK-1.7.0/Modules/Drivers/Timers/HRTIM/src\hrtim.c ****     if (hdp->is_enable == true) {
 1248              		.loc 1 310 12
 1249 004e 019B     		ldr	r3, [sp, #4]
 1250 0050 1B79     		ldrb	r3, [r3, #4]	@ zero_extendqisi2
 1251              		.loc 1 310 8
 1252 0052 002B     		cmp	r3, #0
 1253 0054 13D0     		beq	.L41
 311:C:/StellarStudio-7.0/SDKS/StellarESDK-1.7.0/Modules/Drivers/Timers/HRTIM/src\hrtim.c ****         if (timer == HRTIM_TIMER_MASTER) {
 1254              		.loc 1 311 12
 1255 0056 9DF80330 		ldrb	r3, [sp, #3]	@ zero_extendqisi2
 1256 005a 062B     		cmp	r3, #6
 1257 005c 05D1     		bne	.L42
 312:C:/StellarStudio-7.0/SDKS/StellarESDK-1.7.0/Modules/Drivers/Timers/HRTIM/src\hrtim.c ****             hdp->hrtim->sMasterRegs.MPER = (uint32_t)period;
 1258              		.loc 1 312 16
 1259 005e 019B     		ldr	r3, [sp, #4]
 1260 0060 1B68     		ldr	r3, [r3]
 1261              		.loc 1 312 44
 1262 0062 BDF80020 		ldrh	r2, [sp]
 1263              		.loc 1 312 42
 1264 0066 5A61     		str	r2, [r3, #20]
 1265 0068 09E0     		b	.L41
 1266              	.L42:
 313:C:/StellarStudio-7.0/SDKS/StellarESDK-1.7.0/Modules/Drivers/Timers/HRTIM/src\hrtim.c ****         } else {
 314:C:/StellarStudio-7.0/SDKS/StellarESDK-1.7.0/Modules/Drivers/Timers/HRTIM/src\hrtim.c ****             hdp->hrtim->sTimerxRegs[timer].PERxR = (uint32_t)period;
 1267              		.loc 1 314 16
 1268 006a 019B     		ldr	r3, [sp, #4]
 1269 006c 1968     		ldr	r1, [r3]
 1270              		.loc 1 314 43
 1271 006e 9DF80330 		ldrb	r3, [sp, #3]	@ zero_extendqisi2
 1272              		.loc 1 314 52
 1273 0072 BDF80020 		ldrh	r2, [sp]
 1274              		.loc 1 314 50
 1275 0076 DB01     		lsls	r3, r3, #7
 1276 0078 0B44     		add	r3, r3, r1
 1277 007a 9433     		adds	r3, r3, #148
 1278 007c 1A60     		str	r2, [r3]
 1279              	.L41:
 315:C:/StellarStudio-7.0/SDKS/StellarESDK-1.7.0/Modules/Drivers/Timers/HRTIM/src\hrtim.c ****         }
 316:C:/StellarStudio-7.0/SDKS/StellarESDK-1.7.0/Modules/Drivers/Timers/HRTIM/src\hrtim.c ****     }
 317:C:/StellarStudio-7.0/SDKS/StellarESDK-1.7.0/Modules/Drivers/Timers/HRTIM/src\hrtim.c **** 
 318:C:/StellarStudio-7.0/SDKS/StellarESDK-1.7.0/Modules/Drivers/Timers/HRTIM/src\hrtim.c ****     return prev_period;
 1280              		.loc 1 318 12
 1281 007e BDF80E30 		ldrh	r3, [sp, #14]
 319:C:/StellarStudio-7.0/SDKS/StellarESDK-1.7.0/Modules/Drivers/Timers/HRTIM/src\hrtim.c **** }
 1282              		.loc 1 319 1
 1283 0082 1846     		mov	r0, r3
 1284 0084 04B0     		add	sp, sp, #16
 1285              		.cfi_def_cfa_offset 0
 1286              		@ sp needed
 1287 0086 7047     		bx	lr
 1288              		.cfi_endproc
 1289              	.LFE160:
 1291              		.section	.text.hrtim_timer_get_period,"ax",%progbits
 1292              		.align	1
 1293              		.p2align 4,,15
 1294              		.global	hrtim_timer_get_period
 1295              		.syntax unified
 1296              		.thumb
 1297              		.thumb_func
 1299              	hrtim_timer_get_period:
 1300              	.LFB161:
 320:C:/StellarStudio-7.0/SDKS/StellarESDK-1.7.0/Modules/Drivers/Timers/HRTIM/src\hrtim.c **** 
 321:C:/StellarStudio-7.0/SDKS/StellarESDK-1.7.0/Modules/Drivers/Timers/HRTIM/src\hrtim.c **** uint16_t hrtim_timer_get_period(hrtim_driver_t *hdp, hrtim_timer_t timer) {
 1301              		.loc 1 321 75
 1302              		.cfi_startproc
 1303              		@ args = 0, pretend = 0, frame = 8
 1304              		@ frame_needed = 0, uses_anonymous_args = 0
 1305              		@ link register save eliminated.
 1306 0000 82B0     		sub	sp, sp, #8
 1307              		.cfi_def_cfa_offset 8
 1308 0002 0190     		str	r0, [sp, #4]
 1309 0004 0B46     		mov	r3, r1
 1310 0006 8DF80330 		strb	r3, [sp, #3]
 322:C:/StellarStudio-7.0/SDKS/StellarESDK-1.7.0/Modules/Drivers/Timers/HRTIM/src\hrtim.c **** 
 323:C:/StellarStudio-7.0/SDKS/StellarESDK-1.7.0/Modules/Drivers/Timers/HRTIM/src\hrtim.c ****     if (timer == HRTIM_TIMER_MASTER) {
 1311              		.loc 1 323 8
 1312 000a 9DF80330 		ldrb	r3, [sp, #3]	@ zero_extendqisi2
 1313 000e 062B     		cmp	r3, #6
 1314 0010 02D1     		bne	.L45
 324:C:/StellarStudio-7.0/SDKS/StellarESDK-1.7.0/Modules/Drivers/Timers/HRTIM/src\hrtim.c ****         return hdp->master_period;
 1315              		.loc 1 324 19
 1316 0012 019B     		ldr	r3, [sp, #4]
 1317 0014 DB8A     		ldrh	r3, [r3, #22]
 1318 0016 06E0     		b	.L46
 1319              	.L45:
 325:C:/StellarStudio-7.0/SDKS/StellarESDK-1.7.0/Modules/Drivers/Timers/HRTIM/src\hrtim.c ****     } else {
 326:C:/StellarStudio-7.0/SDKS/StellarESDK-1.7.0/Modules/Drivers/Timers/HRTIM/src\hrtim.c ****         return hdp->timer_period[timer];
 1320              		.loc 1 326 33
 1321 0018 9DF80330 		ldrb	r3, [sp, #3]	@ zero_extendqisi2
 1322 001c 019A     		ldr	r2, [sp, #4]
 1323 001e 1433     		adds	r3, r3, #20
 1324 0020 5B00     		lsls	r3, r3, #1
 1325 0022 1344     		add	r3, r3, r2
 1326 0024 9B88     		ldrh	r3, [r3, #4]
 1327              	.L46:
 327:C:/StellarStudio-7.0/SDKS/StellarESDK-1.7.0/Modules/Drivers/Timers/HRTIM/src\hrtim.c ****     }
 328:C:/StellarStudio-7.0/SDKS/StellarESDK-1.7.0/Modules/Drivers/Timers/HRTIM/src\hrtim.c **** }
 1328              		.loc 1 328 1
 1329 0026 1846     		mov	r0, r3
 1330 0028 02B0     		add	sp, sp, #8
 1331              		.cfi_def_cfa_offset 0
 1332              		@ sp needed
 1333 002a 7047     		bx	lr
 1334              		.cfi_endproc
 1335              	.LFE161:
 1337              		.section	.text.hrtim_timer_set_cmp,"ax",%progbits
 1338              		.align	1
 1339              		.p2align 4,,15
 1340              		.global	hrtim_timer_set_cmp
 1341              		.syntax unified
 1342              		.thumb
 1343              		.thumb_func
 1345              	hrtim_timer_set_cmp:
 1346              	.LFB162:
 329:C:/StellarStudio-7.0/SDKS/StellarESDK-1.7.0/Modules/Drivers/Timers/HRTIM/src\hrtim.c **** 
 330:C:/StellarStudio-7.0/SDKS/StellarESDK-1.7.0/Modules/Drivers/Timers/HRTIM/src\hrtim.c **** uint16_t hrtim_timer_set_cmp(hrtim_driver_t *hdp, hrtim_timer_t timer,
 331:C:/StellarStudio-7.0/SDKS/StellarESDK-1.7.0/Modules/Drivers/Timers/HRTIM/src\hrtim.c ****                              hrtim_cmp_t comparator, uint16_t value) {
 1347              		.loc 1 331 70
 1348              		.cfi_startproc
 1349              		@ args = 0, pretend = 0, frame = 16
 1350              		@ frame_needed = 0, uses_anonymous_args = 0
 1351              		@ link register save eliminated.
 1352 0000 84B0     		sub	sp, sp, #16
 1353              		.cfi_def_cfa_offset 16
 1354 0002 0190     		str	r0, [sp, #4]
 1355 0004 0846     		mov	r0, r1
 1356 0006 1146     		mov	r1, r2
 1357 0008 1A46     		mov	r2, r3
 1358 000a 0346     		mov	r3, r0
 1359 000c 8DF80330 		strb	r3, [sp, #3]
 1360 0010 0B46     		mov	r3, r1
 1361 0012 8DF80230 		strb	r3, [sp, #2]
 1362 0016 1346     		mov	r3, r2	@ movhi
 1363 0018 ADF80030 		strh	r3, [sp]	@ movhi
 332:C:/StellarStudio-7.0/SDKS/StellarESDK-1.7.0/Modules/Drivers/Timers/HRTIM/src\hrtim.c **** 
 333:C:/StellarStudio-7.0/SDKS/StellarESDK-1.7.0/Modules/Drivers/Timers/HRTIM/src\hrtim.c ****     uint16_t prev_value = 0U;
 1364              		.loc 1 333 14
 1365 001c 0023     		movs	r3, #0
 1366 001e ADF80E30 		strh	r3, [sp, #14]	@ movhi
 334:C:/StellarStudio-7.0/SDKS/StellarESDK-1.7.0/Modules/Drivers/Timers/HRTIM/src\hrtim.c **** 
 335:C:/StellarStudio-7.0/SDKS/StellarESDK-1.7.0/Modules/Drivers/Timers/HRTIM/src\hrtim.c ****     if (timer == HRTIM_TIMER_MASTER) {
 1367              		.loc 1 335 8
 1368 0022 9DF80330 		ldrb	r3, [sp, #3]	@ zero_extendqisi2
 1369 0026 062B     		cmp	r3, #6
 1370 0028 34D1     		bne	.L48
 336:C:/StellarStudio-7.0/SDKS/StellarESDK-1.7.0/Modules/Drivers/Timers/HRTIM/src\hrtim.c ****         switch (comparator) {
 1371              		.loc 1 336 9
 1372 002a 9DF80230 		ldrb	r3, [sp, #2]	@ zero_extendqisi2
 1373 002e 032B     		cmp	r3, #3
 1374 0030 00F28480 		bhi	.L79
 1375 0034 01A2     		adr	r2, .L51
 1376 0036 52F823F0 		ldr	pc, [r2, r3, lsl #2]
 1377 003a 00BF     		.p2align 2
 1378              	.L51:
 1379 003c 4D000000 		.word	.L54+1
 1380 0040 5F000000 		.word	.L53+1
 1381 0044 71000000 		.word	.L52+1
 1382 0048 83000000 		.word	.L50+1
 1383              		.p2align 1
 1384              	.L54:
 337:C:/StellarStudio-7.0/SDKS/StellarESDK-1.7.0/Modules/Drivers/Timers/HRTIM/src\hrtim.c ****             case HRTIM_CMP1:
 338:C:/StellarStudio-7.0/SDKS/StellarESDK-1.7.0/Modules/Drivers/Timers/HRTIM/src\hrtim.c ****                 prev_value = hdp->master_cmp[HRTIM_CMP1];
 1385              		.loc 1 338 28
 1386 004c 019B     		ldr	r3, [sp, #4]
 1387 004e 1B8B     		ldrh	r3, [r3, #24]	@ movhi
 1388 0050 ADF80E30 		strh	r3, [sp, #14]	@ movhi
 339:C:/StellarStudio-7.0/SDKS/StellarESDK-1.7.0/Modules/Drivers/Timers/HRTIM/src\hrtim.c ****                 hdp->master_cmp[HRTIM_CMP1] = value;
 1389              		.loc 1 339 45
 1390 0054 019B     		ldr	r3, [sp, #4]
 1391 0056 BDF80020 		ldrh	r2, [sp]	@ movhi
 1392 005a 1A83     		strh	r2, [r3, #24]	@ movhi
 340:C:/StellarStudio-7.0/SDKS/StellarESDK-1.7.0/Modules/Drivers/Timers/HRTIM/src\hrtim.c ****                 break;
 1393              		.loc 1 340 17
 1394 005c 71E0     		b	.L56
 1395              	.L53:
 341:C:/StellarStudio-7.0/SDKS/StellarESDK-1.7.0/Modules/Drivers/Timers/HRTIM/src\hrtim.c ****             case HRTIM_CMP2:
 342:C:/StellarStudio-7.0/SDKS/StellarESDK-1.7.0/Modules/Drivers/Timers/HRTIM/src\hrtim.c ****                 prev_value = hdp->master_cmp[HRTIM_CMP2];
 1396              		.loc 1 342 28
 1397 005e 019B     		ldr	r3, [sp, #4]
 1398 0060 5B8B     		ldrh	r3, [r3, #26]	@ movhi
 1399 0062 ADF80E30 		strh	r3, [sp, #14]	@ movhi
 343:C:/StellarStudio-7.0/SDKS/StellarESDK-1.7.0/Modules/Drivers/Timers/HRTIM/src\hrtim.c ****                 hdp->master_cmp[HRTIM_CMP2] = value;
 1400              		.loc 1 343 45
 1401 0066 019B     		ldr	r3, [sp, #4]
 1402 0068 BDF80020 		ldrh	r2, [sp]	@ movhi
 1403 006c 5A83     		strh	r2, [r3, #26]	@ movhi
 344:C:/StellarStudio-7.0/SDKS/StellarESDK-1.7.0/Modules/Drivers/Timers/HRTIM/src\hrtim.c ****                 break;
 1404              		.loc 1 344 17
 1405 006e 68E0     		b	.L56
 1406              	.L52:
 345:C:/StellarStudio-7.0/SDKS/StellarESDK-1.7.0/Modules/Drivers/Timers/HRTIM/src\hrtim.c ****             case HRTIM_CMP3:
 346:C:/StellarStudio-7.0/SDKS/StellarESDK-1.7.0/Modules/Drivers/Timers/HRTIM/src\hrtim.c ****                 prev_value = hdp->master_cmp[HRTIM_CMP3];
 1407              		.loc 1 346 28
 1408 0070 019B     		ldr	r3, [sp, #4]
 1409 0072 9B8B     		ldrh	r3, [r3, #28]	@ movhi
 1410 0074 ADF80E30 		strh	r3, [sp, #14]	@ movhi
 347:C:/StellarStudio-7.0/SDKS/StellarESDK-1.7.0/Modules/Drivers/Timers/HRTIM/src\hrtim.c ****                 hdp->master_cmp[HRTIM_CMP3] = value;
 1411              		.loc 1 347 45
 1412 0078 019B     		ldr	r3, [sp, #4]
 1413 007a BDF80020 		ldrh	r2, [sp]	@ movhi
 1414 007e 9A83     		strh	r2, [r3, #28]	@ movhi
 348:C:/StellarStudio-7.0/SDKS/StellarESDK-1.7.0/Modules/Drivers/Timers/HRTIM/src\hrtim.c ****                 break;
 1415              		.loc 1 348 17
 1416 0080 5FE0     		b	.L56
 1417              	.L50:
 349:C:/StellarStudio-7.0/SDKS/StellarESDK-1.7.0/Modules/Drivers/Timers/HRTIM/src\hrtim.c ****             case HRTIM_CMP4:
 350:C:/StellarStudio-7.0/SDKS/StellarESDK-1.7.0/Modules/Drivers/Timers/HRTIM/src\hrtim.c ****                 prev_value = hdp->master_cmp[HRTIM_CMP4];
 1418              		.loc 1 350 28
 1419 0082 019B     		ldr	r3, [sp, #4]
 1420 0084 DB8B     		ldrh	r3, [r3, #30]	@ movhi
 1421 0086 ADF80E30 		strh	r3, [sp, #14]	@ movhi
 351:C:/StellarStudio-7.0/SDKS/StellarESDK-1.7.0/Modules/Drivers/Timers/HRTIM/src\hrtim.c ****                 hdp->master_cmp[HRTIM_CMP4] = value;
 1422              		.loc 1 351 45
 1423 008a 019B     		ldr	r3, [sp, #4]
 1424 008c BDF80020 		ldrh	r2, [sp]	@ movhi
 1425 0090 DA83     		strh	r2, [r3, #30]	@ movhi
 352:C:/StellarStudio-7.0/SDKS/StellarESDK-1.7.0/Modules/Drivers/Timers/HRTIM/src\hrtim.c ****                 break;
 1426              		.loc 1 352 17
 1427 0092 56E0     		b	.L56
 1428              	.L48:
 353:C:/StellarStudio-7.0/SDKS/StellarESDK-1.7.0/Modules/Drivers/Timers/HRTIM/src\hrtim.c ****             default:
 354:C:/StellarStudio-7.0/SDKS/StellarESDK-1.7.0/Modules/Drivers/Timers/HRTIM/src\hrtim.c ****                 /* for MISRA compliance */
 355:C:/StellarStudio-7.0/SDKS/StellarESDK-1.7.0/Modules/Drivers/Timers/HRTIM/src\hrtim.c ****                 break;
 356:C:/StellarStudio-7.0/SDKS/StellarESDK-1.7.0/Modules/Drivers/Timers/HRTIM/src\hrtim.c ****         }
 357:C:/StellarStudio-7.0/SDKS/StellarESDK-1.7.0/Modules/Drivers/Timers/HRTIM/src\hrtim.c ****     } else {
 358:C:/StellarStudio-7.0/SDKS/StellarESDK-1.7.0/Modules/Drivers/Timers/HRTIM/src\hrtim.c ****         switch (comparator) {
 1429              		.loc 1 358 9
 1430 0094 9DF80230 		ldrb	r3, [sp, #2]	@ zero_extendqisi2
 1431 0098 032B     		cmp	r3, #3
 1432 009a 51D8     		bhi	.L80
 1433 009c 01A2     		adr	r2, .L59
 1434 009e 52F823F0 		ldr	pc, [r2, r3, lsl #2]
 1435 00a2 00BF     		.p2align 2
 1436              	.L59:
 1437 00a4 B5000000 		.word	.L62+1
 1438 00a8 D7000000 		.word	.L61+1
 1439 00ac F9000000 		.word	.L60+1
 1440 00b0 1B010000 		.word	.L58+1
 1441              		.p2align 1
 1442              	.L62:
 359:C:/StellarStudio-7.0/SDKS/StellarESDK-1.7.0/Modules/Drivers/Timers/HRTIM/src\hrtim.c ****             case HRTIM_CMP1:
 360:C:/StellarStudio-7.0/SDKS/StellarESDK-1.7.0/Modules/Drivers/Timers/HRTIM/src\hrtim.c ****                 prev_value = hdp->timer_cmp[timer][HRTIM_CMP1];
 1443              		.loc 1 360 51
 1444 00b4 9DF80320 		ldrb	r2, [sp, #3]	@ zero_extendqisi2
 1445              		.loc 1 360 28
 1446 00b8 019B     		ldr	r3, [sp, #4]
 1447 00ba 0732     		adds	r2, r2, #7
 1448 00bc 33F83230 		ldrh	r3, [r3, r2, lsl #3]	@ movhi
 1449 00c0 ADF80E30 		strh	r3, [sp, #14]	@ movhi
 361:C:/StellarStudio-7.0/SDKS/StellarESDK-1.7.0/Modules/Drivers/Timers/HRTIM/src\hrtim.c ****                 hdp->timer_cmp[timer][HRTIM_CMP1] = value;
 1450              		.loc 1 361 38
 1451 00c4 9DF80320 		ldrb	r2, [sp, #3]	@ zero_extendqisi2
 1452              		.loc 1 361 51
 1453 00c8 019B     		ldr	r3, [sp, #4]
 1454 00ca 0732     		adds	r2, r2, #7
 1455 00cc BDF80010 		ldrh	r1, [sp]	@ movhi
 1456 00d0 23F83210 		strh	r1, [r3, r2, lsl #3]	@ movhi
 362:C:/StellarStudio-7.0/SDKS/StellarESDK-1.7.0/Modules/Drivers/Timers/HRTIM/src\hrtim.c ****                 break;
 1457              		.loc 1 362 17
 1458 00d4 35E0     		b	.L56
 1459              	.L61:
 363:C:/StellarStudio-7.0/SDKS/StellarESDK-1.7.0/Modules/Drivers/Timers/HRTIM/src\hrtim.c ****             case HRTIM_CMP2:
 364:C:/StellarStudio-7.0/SDKS/StellarESDK-1.7.0/Modules/Drivers/Timers/HRTIM/src\hrtim.c ****                 prev_value = hdp->timer_cmp[timer][HRTIM_CMP2];
 1460              		.loc 1 364 51
 1461 00d6 9DF80330 		ldrb	r3, [sp, #3]	@ zero_extendqisi2
 1462              		.loc 1 364 28
 1463 00da 019A     		ldr	r2, [sp, #4]
 1464 00dc DB00     		lsls	r3, r3, #3
 1465 00de 1344     		add	r3, r3, r2
 1466 00e0 5B8F     		ldrh	r3, [r3, #58]	@ movhi
 1467 00e2 ADF80E30 		strh	r3, [sp, #14]	@ movhi
 365:C:/StellarStudio-7.0/SDKS/StellarESDK-1.7.0/Modules/Drivers/Timers/HRTIM/src\hrtim.c ****                 hdp->timer_cmp[timer][HRTIM_CMP2] = value;
 1468              		.loc 1 365 38
 1469 00e6 9DF80330 		ldrb	r3, [sp, #3]	@ zero_extendqisi2
 1470              		.loc 1 365 51
 1471 00ea 019A     		ldr	r2, [sp, #4]
 1472 00ec DB00     		lsls	r3, r3, #3
 1473 00ee 1344     		add	r3, r3, r2
 1474 00f0 BDF80020 		ldrh	r2, [sp]	@ movhi
 1475 00f4 5A87     		strh	r2, [r3, #58]	@ movhi
 366:C:/StellarStudio-7.0/SDKS/StellarESDK-1.7.0/Modules/Drivers/Timers/HRTIM/src\hrtim.c ****                 break;
 1476              		.loc 1 366 17
 1477 00f6 24E0     		b	.L56
 1478              	.L60:
 367:C:/StellarStudio-7.0/SDKS/StellarESDK-1.7.0/Modules/Drivers/Timers/HRTIM/src\hrtim.c ****             case HRTIM_CMP3:
 368:C:/StellarStudio-7.0/SDKS/StellarESDK-1.7.0/Modules/Drivers/Timers/HRTIM/src\hrtim.c ****                 prev_value = hdp->timer_cmp[timer][HRTIM_CMP3];
 1479              		.loc 1 368 51
 1480 00f8 9DF80330 		ldrb	r3, [sp, #3]	@ zero_extendqisi2
 1481              		.loc 1 368 28
 1482 00fc 019A     		ldr	r2, [sp, #4]
 1483 00fe DB00     		lsls	r3, r3, #3
 1484 0100 1344     		add	r3, r3, r2
 1485 0102 9B8F     		ldrh	r3, [r3, #60]	@ movhi
 1486 0104 ADF80E30 		strh	r3, [sp, #14]	@ movhi
 369:C:/StellarStudio-7.0/SDKS/StellarESDK-1.7.0/Modules/Drivers/Timers/HRTIM/src\hrtim.c ****                 hdp->timer_cmp[timer][HRTIM_CMP3] = value;
 1487              		.loc 1 369 38
 1488 0108 9DF80330 		ldrb	r3, [sp, #3]	@ zero_extendqisi2
 1489              		.loc 1 369 51
 1490 010c 019A     		ldr	r2, [sp, #4]
 1491 010e DB00     		lsls	r3, r3, #3
 1492 0110 1344     		add	r3, r3, r2
 1493 0112 BDF80020 		ldrh	r2, [sp]	@ movhi
 1494 0116 9A87     		strh	r2, [r3, #60]	@ movhi
 370:C:/StellarStudio-7.0/SDKS/StellarESDK-1.7.0/Modules/Drivers/Timers/HRTIM/src\hrtim.c ****                 break;
 1495              		.loc 1 370 17
 1496 0118 13E0     		b	.L56
 1497              	.L58:
 371:C:/StellarStudio-7.0/SDKS/StellarESDK-1.7.0/Modules/Drivers/Timers/HRTIM/src\hrtim.c ****             case HRTIM_CMP4:
 372:C:/StellarStudio-7.0/SDKS/StellarESDK-1.7.0/Modules/Drivers/Timers/HRTIM/src\hrtim.c ****                 prev_value = hdp->timer_cmp[timer][HRTIM_CMP4];
 1498              		.loc 1 372 51
 1499 011a 9DF80330 		ldrb	r3, [sp, #3]	@ zero_extendqisi2
 1500              		.loc 1 372 28
 1501 011e 019A     		ldr	r2, [sp, #4]
 1502 0120 DB00     		lsls	r3, r3, #3
 1503 0122 1344     		add	r3, r3, r2
 1504 0124 DB8F     		ldrh	r3, [r3, #62]	@ movhi
 1505 0126 ADF80E30 		strh	r3, [sp, #14]	@ movhi
 373:C:/StellarStudio-7.0/SDKS/StellarESDK-1.7.0/Modules/Drivers/Timers/HRTIM/src\hrtim.c ****                 hdp->timer_cmp[timer][HRTIM_CMP4] = value;
 1506              		.loc 1 373 38
 1507 012a 9DF80330 		ldrb	r3, [sp, #3]	@ zero_extendqisi2
 1508              		.loc 1 373 51
 1509 012e 019A     		ldr	r2, [sp, #4]
 1510 0130 DB00     		lsls	r3, r3, #3
 1511 0132 1344     		add	r3, r3, r2
 1512 0134 BDF80020 		ldrh	r2, [sp]	@ movhi
 1513 0138 DA87     		strh	r2, [r3, #62]	@ movhi
 374:C:/StellarStudio-7.0/SDKS/StellarESDK-1.7.0/Modules/Drivers/Timers/HRTIM/src\hrtim.c ****                 break;
 1514              		.loc 1 374 17
 1515 013a 02E0     		b	.L56
 1516              	.L79:
 355:C:/StellarStudio-7.0/SDKS/StellarESDK-1.7.0/Modules/Drivers/Timers/HRTIM/src\hrtim.c ****         }
 1517              		.loc 1 355 17
 1518 013c 00BF     		nop
 1519 013e 00E0     		b	.L56
 1520              	.L80:
 375:C:/StellarStudio-7.0/SDKS/StellarESDK-1.7.0/Modules/Drivers/Timers/HRTIM/src\hrtim.c ****             default:
 376:C:/StellarStudio-7.0/SDKS/StellarESDK-1.7.0/Modules/Drivers/Timers/HRTIM/src\hrtim.c ****                 /* for MISRA compliance */
 377:C:/StellarStudio-7.0/SDKS/StellarESDK-1.7.0/Modules/Drivers/Timers/HRTIM/src\hrtim.c ****                 break;
 1521              		.loc 1 377 17
 1522 0140 00BF     		nop
 1523              	.L56:
 378:C:/StellarStudio-7.0/SDKS/StellarESDK-1.7.0/Modules/Drivers/Timers/HRTIM/src\hrtim.c ****         }
 379:C:/StellarStudio-7.0/SDKS/StellarESDK-1.7.0/Modules/Drivers/Timers/HRTIM/src\hrtim.c ****     }
 380:C:/StellarStudio-7.0/SDKS/StellarESDK-1.7.0/Modules/Drivers/Timers/HRTIM/src\hrtim.c **** 
 381:C:/StellarStudio-7.0/SDKS/StellarESDK-1.7.0/Modules/Drivers/Timers/HRTIM/src\hrtim.c ****     /* Update on-fly.*/
 382:C:/StellarStudio-7.0/SDKS/StellarESDK-1.7.0/Modules/Drivers/Timers/HRTIM/src\hrtim.c ****     if (hdp->is_enable == true) {
 1524              		.loc 1 382 12
 1525 0142 019B     		ldr	r3, [sp, #4]
 1526 0144 1B79     		ldrb	r3, [r3, #4]	@ zero_extendqisi2
 1527              		.loc 1 382 8
 1528 0146 002B     		cmp	r3, #0
 1529 0148 66D0     		beq	.L81
 383:C:/StellarStudio-7.0/SDKS/StellarESDK-1.7.0/Modules/Drivers/Timers/HRTIM/src\hrtim.c ****         if (timer == HRTIM_TIMER_MASTER) {
 1530              		.loc 1 383 12
 1531 014a 9DF80330 		ldrb	r3, [sp, #3]	@ zero_extendqisi2
 1532 014e 062B     		cmp	r3, #6
 1533 0150 26D1     		bne	.L64
 384:C:/StellarStudio-7.0/SDKS/StellarESDK-1.7.0/Modules/Drivers/Timers/HRTIM/src\hrtim.c ****             switch (comparator) {
 1534              		.loc 1 384 13
 1535 0152 9DF80230 		ldrb	r3, [sp, #2]	@ zero_extendqisi2
 1536 0156 032B     		cmp	r3, #3
 1537 0158 60D8     		bhi	.L82
 1538 015a 01A2     		adr	r2, .L67
 1539 015c 52F823F0 		ldr	pc, [r2, r3, lsl #2]
 1540              		.p2align 2
 1541              	.L67:
 1542 0160 71010000 		.word	.L70+1
 1543 0164 7D010000 		.word	.L69+1
 1544 0168 89010000 		.word	.L68+1
 1545 016c 95010000 		.word	.L66+1
 1546              		.p2align 1
 1547              	.L70:
 385:C:/StellarStudio-7.0/SDKS/StellarESDK-1.7.0/Modules/Drivers/Timers/HRTIM/src\hrtim.c ****                 case HRTIM_CMP1:
 386:C:/StellarStudio-7.0/SDKS/StellarESDK-1.7.0/Modules/Drivers/Timers/HRTIM/src\hrtim.c ****                     hdp->hrtim->sMasterRegs.MCMP1R = (uint32_t)value;
 1548              		.loc 1 386 24
 1549 0170 019B     		ldr	r3, [sp, #4]
 1550 0172 1B68     		ldr	r3, [r3]
 1551              		.loc 1 386 54
 1552 0174 BDF80020 		ldrh	r2, [sp]
 1553              		.loc 1 386 52
 1554 0178 DA61     		str	r2, [r3, #28]
 387:C:/StellarStudio-7.0/SDKS/StellarESDK-1.7.0/Modules/Drivers/Timers/HRTIM/src\hrtim.c ****                     break;
 1555              		.loc 1 387 21
 1556 017a 52E0     		b	.L63
 1557              	.L69:
 388:C:/StellarStudio-7.0/SDKS/StellarESDK-1.7.0/Modules/Drivers/Timers/HRTIM/src\hrtim.c ****                 case HRTIM_CMP2:
 389:C:/StellarStudio-7.0/SDKS/StellarESDK-1.7.0/Modules/Drivers/Timers/HRTIM/src\hrtim.c ****                     hdp->hrtim->sMasterRegs.MCMP2R = (uint32_t)value;
 1558              		.loc 1 389 24
 1559 017c 019B     		ldr	r3, [sp, #4]
 1560 017e 1B68     		ldr	r3, [r3]
 1561              		.loc 1 389 54
 1562 0180 BDF80020 		ldrh	r2, [sp]
 1563              		.loc 1 389 52
 1564 0184 5A62     		str	r2, [r3, #36]
 390:C:/StellarStudio-7.0/SDKS/StellarESDK-1.7.0/Modules/Drivers/Timers/HRTIM/src\hrtim.c ****                     break;
 1565              		.loc 1 390 21
 1566 0186 4CE0     		b	.L63
 1567              	.L68:
 391:C:/StellarStudio-7.0/SDKS/StellarESDK-1.7.0/Modules/Drivers/Timers/HRTIM/src\hrtim.c ****                 case HRTIM_CMP3:
 392:C:/StellarStudio-7.0/SDKS/StellarESDK-1.7.0/Modules/Drivers/Timers/HRTIM/src\hrtim.c ****                     hdp->hrtim->sMasterRegs.MCMP3R = (uint32_t)value;
 1568              		.loc 1 392 24
 1569 0188 019B     		ldr	r3, [sp, #4]
 1570 018a 1B68     		ldr	r3, [r3]
 1571              		.loc 1 392 54
 1572 018c BDF80020 		ldrh	r2, [sp]
 1573              		.loc 1 392 52
 1574 0190 9A62     		str	r2, [r3, #40]
 393:C:/StellarStudio-7.0/SDKS/StellarESDK-1.7.0/Modules/Drivers/Timers/HRTIM/src\hrtim.c ****                     break;
 1575              		.loc 1 393 21
 1576 0192 46E0     		b	.L63
 1577              	.L66:
 394:C:/StellarStudio-7.0/SDKS/StellarESDK-1.7.0/Modules/Drivers/Timers/HRTIM/src\hrtim.c ****                 case HRTIM_CMP4:
 395:C:/StellarStudio-7.0/SDKS/StellarESDK-1.7.0/Modules/Drivers/Timers/HRTIM/src\hrtim.c ****                     hdp->hrtim->sMasterRegs.MCMP4R = (uint32_t)value;
 1578              		.loc 1 395 24
 1579 0194 019B     		ldr	r3, [sp, #4]
 1580 0196 1B68     		ldr	r3, [r3]
 1581              		.loc 1 395 54
 1582 0198 BDF80020 		ldrh	r2, [sp]
 1583              		.loc 1 395 52
 1584 019c DA62     		str	r2, [r3, #44]
 396:C:/StellarStudio-7.0/SDKS/StellarESDK-1.7.0/Modules/Drivers/Timers/HRTIM/src\hrtim.c ****                     break;
 1585              		.loc 1 396 21
 1586 019e 40E0     		b	.L63
 1587              	.L64:
 397:C:/StellarStudio-7.0/SDKS/StellarESDK-1.7.0/Modules/Drivers/Timers/HRTIM/src\hrtim.c ****                 default:
 398:C:/StellarStudio-7.0/SDKS/StellarESDK-1.7.0/Modules/Drivers/Timers/HRTIM/src\hrtim.c ****                     /* for MISRA compliance */
 399:C:/StellarStudio-7.0/SDKS/StellarESDK-1.7.0/Modules/Drivers/Timers/HRTIM/src\hrtim.c ****                     break;
 400:C:/StellarStudio-7.0/SDKS/StellarESDK-1.7.0/Modules/Drivers/Timers/HRTIM/src\hrtim.c ****             }
 401:C:/StellarStudio-7.0/SDKS/StellarESDK-1.7.0/Modules/Drivers/Timers/HRTIM/src\hrtim.c ****         } else {
 402:C:/StellarStudio-7.0/SDKS/StellarESDK-1.7.0/Modules/Drivers/Timers/HRTIM/src\hrtim.c ****             switch (comparator) {
 1588              		.loc 1 402 13
 1589 01a0 9DF80230 		ldrb	r3, [sp, #2]	@ zero_extendqisi2
 1590 01a4 032B     		cmp	r3, #3
 1591 01a6 3BD8     		bhi	.L83
 1592 01a8 01A2     		adr	r2, .L74
 1593 01aa 52F823F0 		ldr	pc, [r2, r3, lsl #2]
 1594 01ae 00BF     		.p2align 2
 1595              	.L74:
 1596 01b0 C1010000 		.word	.L77+1
 1597 01b4 D7010000 		.word	.L76+1
 1598 01b8 ED010000 		.word	.L75+1
 1599 01bc 03020000 		.word	.L73+1
 1600              		.p2align 1
 1601              	.L77:
 403:C:/StellarStudio-7.0/SDKS/StellarESDK-1.7.0/Modules/Drivers/Timers/HRTIM/src\hrtim.c ****                 case HRTIM_CMP1: 
 404:C:/StellarStudio-7.0/SDKS/StellarESDK-1.7.0/Modules/Drivers/Timers/HRTIM/src\hrtim.c ****                     hdp->hrtim->sTimerxRegs[timer].CMP1xR = (uint32_t)value;
 1602              		.loc 1 404 24
 1603 01c0 019B     		ldr	r3, [sp, #4]
 1604 01c2 1968     		ldr	r1, [r3]
 1605              		.loc 1 404 51
 1606 01c4 9DF80330 		ldrb	r3, [sp, #3]	@ zero_extendqisi2
 1607              		.loc 1 404 61
 1608 01c8 BDF80020 		ldrh	r2, [sp]
 1609              		.loc 1 404 59
 1610 01cc DB01     		lsls	r3, r3, #7
 1611 01ce 0B44     		add	r3, r3, r1
 1612 01d0 9C33     		adds	r3, r3, #156
 1613 01d2 1A60     		str	r2, [r3]
 405:C:/StellarStudio-7.0/SDKS/StellarESDK-1.7.0/Modules/Drivers/Timers/HRTIM/src\hrtim.c ****                     break;
 1614              		.loc 1 405 21
 1615 01d4 25E0     		b	.L63
 1616              	.L76:
 406:C:/StellarStudio-7.0/SDKS/StellarESDK-1.7.0/Modules/Drivers/Timers/HRTIM/src\hrtim.c ****                 case HRTIM_CMP2:
 407:C:/StellarStudio-7.0/SDKS/StellarESDK-1.7.0/Modules/Drivers/Timers/HRTIM/src\hrtim.c ****                     hdp->hrtim->sTimerxRegs[timer].CMP2xR = (uint32_t)value;
 1617              		.loc 1 407 24
 1618 01d6 019B     		ldr	r3, [sp, #4]
 1619 01d8 1968     		ldr	r1, [r3]
 1620              		.loc 1 407 51
 1621 01da 9DF80330 		ldrb	r3, [sp, #3]	@ zero_extendqisi2
 1622              		.loc 1 407 61
 1623 01de BDF80020 		ldrh	r2, [sp]
 1624              		.loc 1 407 59
 1625 01e2 DB01     		lsls	r3, r3, #7
 1626 01e4 0B44     		add	r3, r3, r1
 1627 01e6 A433     		adds	r3, r3, #164
 1628 01e8 1A60     		str	r2, [r3]
 408:C:/StellarStudio-7.0/SDKS/StellarESDK-1.7.0/Modules/Drivers/Timers/HRTIM/src\hrtim.c ****                     break;
 1629              		.loc 1 408 21
 1630 01ea 1AE0     		b	.L63
 1631              	.L75:
 409:C:/StellarStudio-7.0/SDKS/StellarESDK-1.7.0/Modules/Drivers/Timers/HRTIM/src\hrtim.c ****                 case HRTIM_CMP3:
 410:C:/StellarStudio-7.0/SDKS/StellarESDK-1.7.0/Modules/Drivers/Timers/HRTIM/src\hrtim.c ****                     hdp->hrtim->sTimerxRegs[timer].CMP3xR = (uint32_t)value;
 1632              		.loc 1 410 24
 1633 01ec 019B     		ldr	r3, [sp, #4]
 1634 01ee 1968     		ldr	r1, [r3]
 1635              		.loc 1 410 51
 1636 01f0 9DF80330 		ldrb	r3, [sp, #3]	@ zero_extendqisi2
 1637              		.loc 1 410 61
 1638 01f4 BDF80020 		ldrh	r2, [sp]
 1639              		.loc 1 410 59
 1640 01f8 DB01     		lsls	r3, r3, #7
 1641 01fa 0B44     		add	r3, r3, r1
 1642 01fc A833     		adds	r3, r3, #168
 1643 01fe 1A60     		str	r2, [r3]
 411:C:/StellarStudio-7.0/SDKS/StellarESDK-1.7.0/Modules/Drivers/Timers/HRTIM/src\hrtim.c ****                     break;
 1644              		.loc 1 411 21
 1645 0200 0FE0     		b	.L63
 1646              	.L73:
 412:C:/StellarStudio-7.0/SDKS/StellarESDK-1.7.0/Modules/Drivers/Timers/HRTIM/src\hrtim.c ****                 case HRTIM_CMP4:
 413:C:/StellarStudio-7.0/SDKS/StellarESDK-1.7.0/Modules/Drivers/Timers/HRTIM/src\hrtim.c ****                     hdp->hrtim->sTimerxRegs[timer].CMP4xR = (uint32_t)value;
 1647              		.loc 1 413 24
 1648 0202 019B     		ldr	r3, [sp, #4]
 1649 0204 1968     		ldr	r1, [r3]
 1650              		.loc 1 413 51
 1651 0206 9DF80330 		ldrb	r3, [sp, #3]	@ zero_extendqisi2
 1652              		.loc 1 413 61
 1653 020a BDF80020 		ldrh	r2, [sp]
 1654              		.loc 1 413 59
 1655 020e DB01     		lsls	r3, r3, #7
 1656 0210 0B44     		add	r3, r3, r1
 1657 0212 AC33     		adds	r3, r3, #172
 1658 0214 1A60     		str	r2, [r3]
 414:C:/StellarStudio-7.0/SDKS/StellarESDK-1.7.0/Modules/Drivers/Timers/HRTIM/src\hrtim.c ****                     break;
 1659              		.loc 1 414 21
 1660 0216 04E0     		b	.L63
 1661              	.L81:
 415:C:/StellarStudio-7.0/SDKS/StellarESDK-1.7.0/Modules/Drivers/Timers/HRTIM/src\hrtim.c ****                 default:
 416:C:/StellarStudio-7.0/SDKS/StellarESDK-1.7.0/Modules/Drivers/Timers/HRTIM/src\hrtim.c ****                     /* for MISRA compliance */
 417:C:/StellarStudio-7.0/SDKS/StellarESDK-1.7.0/Modules/Drivers/Timers/HRTIM/src\hrtim.c ****                     break;
 418:C:/StellarStudio-7.0/SDKS/StellarESDK-1.7.0/Modules/Drivers/Timers/HRTIM/src\hrtim.c ****             }
 419:C:/StellarStudio-7.0/SDKS/StellarESDK-1.7.0/Modules/Drivers/Timers/HRTIM/src\hrtim.c ****         }
 1662              		.loc 1 419 9
 1663 0218 00BF     		nop
 1664 021a 02E0     		b	.L63
 1665              	.L82:
 399:C:/StellarStudio-7.0/SDKS/StellarESDK-1.7.0/Modules/Drivers/Timers/HRTIM/src\hrtim.c ****             }
 1666              		.loc 1 399 21
 1667 021c 00BF     		nop
 1668 021e 00E0     		b	.L63
 1669              	.L83:
 417:C:/StellarStudio-7.0/SDKS/StellarESDK-1.7.0/Modules/Drivers/Timers/HRTIM/src\hrtim.c ****             }
 1670              		.loc 1 417 21
 1671 0220 00BF     		nop
 1672              	.L63:
 420:C:/StellarStudio-7.0/SDKS/StellarESDK-1.7.0/Modules/Drivers/Timers/HRTIM/src\hrtim.c ****     }
 421:C:/StellarStudio-7.0/SDKS/StellarESDK-1.7.0/Modules/Drivers/Timers/HRTIM/src\hrtim.c **** 
 422:C:/StellarStudio-7.0/SDKS/StellarESDK-1.7.0/Modules/Drivers/Timers/HRTIM/src\hrtim.c ****     return prev_value;
 1673              		.loc 1 422 12
 1674 0222 BDF80E30 		ldrh	r3, [sp, #14]
 423:C:/StellarStudio-7.0/SDKS/StellarESDK-1.7.0/Modules/Drivers/Timers/HRTIM/src\hrtim.c **** }
 1675              		.loc 1 423 1
 1676 0226 1846     		mov	r0, r3
 1677 0228 04B0     		add	sp, sp, #16
 1678              		.cfi_def_cfa_offset 0
 1679              		@ sp needed
 1680 022a 7047     		bx	lr
 1681              		.cfi_endproc
 1682              	.LFE162:
 1684              		.section	.text.hrtim_timer_get_cmp,"ax",%progbits
 1685              		.align	1
 1686              		.p2align 4,,15
 1687              		.global	hrtim_timer_get_cmp
 1688              		.syntax unified
 1689              		.thumb
 1690              		.thumb_func
 1692              	hrtim_timer_get_cmp:
 1693              	.LFB163:
 424:C:/StellarStudio-7.0/SDKS/StellarESDK-1.7.0/Modules/Drivers/Timers/HRTIM/src\hrtim.c **** 
 425:C:/StellarStudio-7.0/SDKS/StellarESDK-1.7.0/Modules/Drivers/Timers/HRTIM/src\hrtim.c **** uint16_t hrtim_timer_get_cmp(hrtim_driver_t *hdp, hrtim_timer_t timer,
 426:C:/StellarStudio-7.0/SDKS/StellarESDK-1.7.0/Modules/Drivers/Timers/HRTIM/src\hrtim.c ****                              hrtim_cmp_t comparator){
 1694              		.loc 1 426 53
 1695              		.cfi_startproc
 1696              		@ args = 0, pretend = 0, frame = 8
 1697              		@ frame_needed = 0, uses_anonymous_args = 0
 1698              		@ link register save eliminated.
 1699 0000 82B0     		sub	sp, sp, #8
 1700              		.cfi_def_cfa_offset 8
 1701 0002 0190     		str	r0, [sp, #4]
 1702 0004 0B46     		mov	r3, r1
 1703 0006 8DF80330 		strb	r3, [sp, #3]
 1704 000a 1346     		mov	r3, r2
 1705 000c 8DF80230 		strb	r3, [sp, #2]
 427:C:/StellarStudio-7.0/SDKS/StellarESDK-1.7.0/Modules/Drivers/Timers/HRTIM/src\hrtim.c **** 
 428:C:/StellarStudio-7.0/SDKS/StellarESDK-1.7.0/Modules/Drivers/Timers/HRTIM/src\hrtim.c ****     if (timer == HRTIM_TIMER_MASTER) {
 1706              		.loc 1 428 8
 1707 0010 9DF80330 		ldrb	r3, [sp, #3]	@ zero_extendqisi2
 1708 0014 062B     		cmp	r3, #6
 1709 0016 1DD1     		bne	.L85
 429:C:/StellarStudio-7.0/SDKS/StellarESDK-1.7.0/Modules/Drivers/Timers/HRTIM/src\hrtim.c ****         switch (comparator) {
 1710              		.loc 1 429 9
 1711 0018 9DF80230 		ldrb	r3, [sp, #2]	@ zero_extendqisi2
 1712 001c 032B     		cmp	r3, #3
 1713 001e 17D8     		bhi	.L86
 1714 0020 01A2     		adr	r2, .L88
 1715 0022 52F823F0 		ldr	pc, [r2, r3, lsl #2]
 1716 0026 00BF     		.p2align 2
 1717              	.L88:
 1718 0028 39000000 		.word	.L91+1
 1719 002c 3F000000 		.word	.L90+1
 1720 0030 45000000 		.word	.L89+1
 1721 0034 4B000000 		.word	.L87+1
 1722              		.p2align 1
 1723              	.L91:
 430:C:/StellarStudio-7.0/SDKS/StellarESDK-1.7.0/Modules/Drivers/Timers/HRTIM/src\hrtim.c ****             case HRTIM_CMP1:
 431:C:/StellarStudio-7.0/SDKS/StellarESDK-1.7.0/Modules/Drivers/Timers/HRTIM/src\hrtim.c ****                 return hdp->master_cmp[HRTIM_CMP1];
 1724              		.loc 1 431 39
 1725 0038 019B     		ldr	r3, [sp, #4]
 1726 003a 1B8B     		ldrh	r3, [r3, #24]
 1727 003c 37E0     		b	.L92
 1728              	.L90:
 432:C:/StellarStudio-7.0/SDKS/StellarESDK-1.7.0/Modules/Drivers/Timers/HRTIM/src\hrtim.c ****             case HRTIM_CMP2:
 433:C:/StellarStudio-7.0/SDKS/StellarESDK-1.7.0/Modules/Drivers/Timers/HRTIM/src\hrtim.c ****                 return hdp->master_cmp[HRTIM_CMP2];
 1729              		.loc 1 433 39
 1730 003e 019B     		ldr	r3, [sp, #4]
 1731 0040 5B8B     		ldrh	r3, [r3, #26]
 1732 0042 34E0     		b	.L92
 1733              	.L89:
 434:C:/StellarStudio-7.0/SDKS/StellarESDK-1.7.0/Modules/Drivers/Timers/HRTIM/src\hrtim.c ****             case HRTIM_CMP3:
 435:C:/StellarStudio-7.0/SDKS/StellarESDK-1.7.0/Modules/Drivers/Timers/HRTIM/src\hrtim.c ****                 return hdp->master_cmp[HRTIM_CMP3];
 1734              		.loc 1 435 39
 1735 0044 019B     		ldr	r3, [sp, #4]
 1736 0046 9B8B     		ldrh	r3, [r3, #28]
 1737 0048 31E0     		b	.L92
 1738              	.L87:
 436:C:/StellarStudio-7.0/SDKS/StellarESDK-1.7.0/Modules/Drivers/Timers/HRTIM/src\hrtim.c ****             case HRTIM_CMP4:
 437:C:/StellarStudio-7.0/SDKS/StellarESDK-1.7.0/Modules/Drivers/Timers/HRTIM/src\hrtim.c ****                 return hdp->master_cmp[HRTIM_CMP4];
 1739              		.loc 1 437 39
 1740 004a 019B     		ldr	r3, [sp, #4]
 1741 004c DB8B     		ldrh	r3, [r3, #30]
 1742 004e 2EE0     		b	.L92
 1743              	.L86:
 438:C:/StellarStudio-7.0/SDKS/StellarESDK-1.7.0/Modules/Drivers/Timers/HRTIM/src\hrtim.c ****             default:
 439:C:/StellarStudio-7.0/SDKS/StellarESDK-1.7.0/Modules/Drivers/Timers/HRTIM/src\hrtim.c ****                 /* for MISRA compliance */
 440:C:/StellarStudio-7.0/SDKS/StellarESDK-1.7.0/Modules/Drivers/Timers/HRTIM/src\hrtim.c ****                 return 0U;
 1744              		.loc 1 440 24
 1745 0050 0023     		movs	r3, #0
 1746 0052 2CE0     		b	.L92
 1747              	.L85:
 441:C:/StellarStudio-7.0/SDKS/StellarESDK-1.7.0/Modules/Drivers/Timers/HRTIM/src\hrtim.c ****         }
 442:C:/StellarStudio-7.0/SDKS/StellarESDK-1.7.0/Modules/Drivers/Timers/HRTIM/src\hrtim.c ****     } else {
 443:C:/StellarStudio-7.0/SDKS/StellarESDK-1.7.0/Modules/Drivers/Timers/HRTIM/src\hrtim.c ****         switch (comparator) {
 1748              		.loc 1 443 9
 1749 0054 9DF80230 		ldrb	r3, [sp, #2]	@ zero_extendqisi2
 1750 0058 032B     		cmp	r3, #3
 1751 005a 27D8     		bhi	.L93
 1752 005c 01A2     		adr	r2, .L95
 1753 005e 52F823F0 		ldr	pc, [r2, r3, lsl #2]
 1754 0062 00BF     		.p2align 2
 1755              	.L95:
 1756 0064 75000000 		.word	.L98+1
 1757 0068 83000000 		.word	.L97+1
 1758 006c 91000000 		.word	.L96+1
 1759 0070 9F000000 		.word	.L94+1
 1760              		.p2align 1
 1761              	.L98:
 444:C:/StellarStudio-7.0/SDKS/StellarESDK-1.7.0/Modules/Drivers/Timers/HRTIM/src\hrtim.c ****             case HRTIM_CMP1:
 445:C:/StellarStudio-7.0/SDKS/StellarESDK-1.7.0/Modules/Drivers/Timers/HRTIM/src\hrtim.c ****                 return hdp->timer_cmp[timer][HRTIM_CMP1];
 1762              		.loc 1 445 45
 1763 0074 9DF80320 		ldrb	r2, [sp, #3]	@ zero_extendqisi2
 1764 0078 019B     		ldr	r3, [sp, #4]
 1765 007a 0732     		adds	r2, r2, #7
 1766 007c 33F83230 		ldrh	r3, [r3, r2, lsl #3]
 1767 0080 15E0     		b	.L92
 1768              	.L97:
 446:C:/StellarStudio-7.0/SDKS/StellarESDK-1.7.0/Modules/Drivers/Timers/HRTIM/src\hrtim.c ****             case HRTIM_CMP2:
 447:C:/StellarStudio-7.0/SDKS/StellarESDK-1.7.0/Modules/Drivers/Timers/HRTIM/src\hrtim.c ****                 return hdp->timer_cmp[timer][HRTIM_CMP2];
 1769              		.loc 1 447 45
 1770 0082 9DF80330 		ldrb	r3, [sp, #3]	@ zero_extendqisi2
 1771 0086 019A     		ldr	r2, [sp, #4]
 1772 0088 DB00     		lsls	r3, r3, #3
 1773 008a 1344     		add	r3, r3, r2
 1774 008c 5B8F     		ldrh	r3, [r3, #58]
 1775 008e 0EE0     		b	.L92
 1776              	.L96:
 448:C:/StellarStudio-7.0/SDKS/StellarESDK-1.7.0/Modules/Drivers/Timers/HRTIM/src\hrtim.c ****             case HRTIM_CMP3:
 449:C:/StellarStudio-7.0/SDKS/StellarESDK-1.7.0/Modules/Drivers/Timers/HRTIM/src\hrtim.c ****                 return hdp->timer_cmp[timer][HRTIM_CMP3];
 1777              		.loc 1 449 45
 1778 0090 9DF80330 		ldrb	r3, [sp, #3]	@ zero_extendqisi2
 1779 0094 019A     		ldr	r2, [sp, #4]
 1780 0096 DB00     		lsls	r3, r3, #3
 1781 0098 1344     		add	r3, r3, r2
 1782 009a 9B8F     		ldrh	r3, [r3, #60]
 1783 009c 07E0     		b	.L92
 1784              	.L94:
 450:C:/StellarStudio-7.0/SDKS/StellarESDK-1.7.0/Modules/Drivers/Timers/HRTIM/src\hrtim.c ****             case HRTIM_CMP4:
 451:C:/StellarStudio-7.0/SDKS/StellarESDK-1.7.0/Modules/Drivers/Timers/HRTIM/src\hrtim.c ****                 return hdp->timer_cmp[timer][HRTIM_CMP4];
 1785              		.loc 1 451 45
 1786 009e 9DF80330 		ldrb	r3, [sp, #3]	@ zero_extendqisi2
 1787 00a2 019A     		ldr	r2, [sp, #4]
 1788 00a4 DB00     		lsls	r3, r3, #3
 1789 00a6 1344     		add	r3, r3, r2
 1790 00a8 DB8F     		ldrh	r3, [r3, #62]
 1791 00aa 00E0     		b	.L92
 1792              	.L93:
 452:C:/StellarStudio-7.0/SDKS/StellarESDK-1.7.0/Modules/Drivers/Timers/HRTIM/src\hrtim.c ****             default:
 453:C:/StellarStudio-7.0/SDKS/StellarESDK-1.7.0/Modules/Drivers/Timers/HRTIM/src\hrtim.c ****                 /* for MISRA compliance */
 454:C:/StellarStudio-7.0/SDKS/StellarESDK-1.7.0/Modules/Drivers/Timers/HRTIM/src\hrtim.c ****                 return 0U;
 1793              		.loc 1 454 24
 1794 00ac 0023     		movs	r3, #0
 1795              	.L92:
 455:C:/StellarStudio-7.0/SDKS/StellarESDK-1.7.0/Modules/Drivers/Timers/HRTIM/src\hrtim.c ****         }
 456:C:/StellarStudio-7.0/SDKS/StellarESDK-1.7.0/Modules/Drivers/Timers/HRTIM/src\hrtim.c ****     }
 457:C:/StellarStudio-7.0/SDKS/StellarESDK-1.7.0/Modules/Drivers/Timers/HRTIM/src\hrtim.c **** }
 1796              		.loc 1 457 1
 1797 00ae 1846     		mov	r0, r3
 1798 00b0 02B0     		add	sp, sp, #8
 1799              		.cfi_def_cfa_offset 0
 1800              		@ sp needed
 1801 00b2 7047     		bx	lr
 1802              		.cfi_endproc
 1803              	.LFE163:
 1805              		.section	.text.hrtim_timer_set_autodelay,"ax",%progbits
 1806              		.align	1
 1807              		.p2align 4,,15
 1808              		.global	hrtim_timer_set_autodelay
 1809              		.syntax unified
 1810              		.thumb
 1811              		.thumb_func
 1813              	hrtim_timer_set_autodelay:
 1814              	.LFB164:
 458:C:/StellarStudio-7.0/SDKS/StellarESDK-1.7.0/Modules/Drivers/Timers/HRTIM/src\hrtim.c **** 
 459:C:/StellarStudio-7.0/SDKS/StellarESDK-1.7.0/Modules/Drivers/Timers/HRTIM/src\hrtim.c **** void hrtim_timer_set_autodelay(hrtim_driver_t *hdp,
 460:C:/StellarStudio-7.0/SDKS/StellarESDK-1.7.0/Modules/Drivers/Timers/HRTIM/src\hrtim.c ****                                hrtim_timer_t timer,
 461:C:/StellarStudio-7.0/SDKS/StellarESDK-1.7.0/Modules/Drivers/Timers/HRTIM/src\hrtim.c ****                                hrtim_cmp_t comparator,
 462:C:/StellarStudio-7.0/SDKS/StellarESDK-1.7.0/Modules/Drivers/Timers/HRTIM/src\hrtim.c ****                                hrtim_cmp_ad_mode_t mode) { 
 1815              		.loc 1 462 58
 1816              		.cfi_startproc
 1817              		@ args = 0, pretend = 0, frame = 8
 1818              		@ frame_needed = 0, uses_anonymous_args = 0
 1819              		@ link register save eliminated.
 1820 0000 82B0     		sub	sp, sp, #8
 1821              		.cfi_def_cfa_offset 8
 1822 0002 0190     		str	r0, [sp, #4]
 1823 0004 0846     		mov	r0, r1
 1824 0006 1146     		mov	r1, r2
 1825 0008 1A46     		mov	r2, r3
 1826 000a 0346     		mov	r3, r0
 1827 000c 8DF80330 		strb	r3, [sp, #3]
 1828 0010 0B46     		mov	r3, r1
 1829 0012 8DF80230 		strb	r3, [sp, #2]
 1830 0016 1346     		mov	r3, r2
 1831 0018 8DF80130 		strb	r3, [sp, #1]
 463:C:/StellarStudio-7.0/SDKS/StellarESDK-1.7.0/Modules/Drivers/Timers/HRTIM/src\hrtim.c **** 
 464:C:/StellarStudio-7.0/SDKS/StellarESDK-1.7.0/Modules/Drivers/Timers/HRTIM/src\hrtim.c ****     if (timer != HRTIM_TIMER_MASTER) {
 1832              		.loc 1 464 8
 1833 001c 9DF80330 		ldrb	r3, [sp, #3]	@ zero_extendqisi2
 1834 0020 062B     		cmp	r3, #6
 1835 0022 3DD0     		beq	.L108
 465:C:/StellarStudio-7.0/SDKS/StellarESDK-1.7.0/Modules/Drivers/Timers/HRTIM/src\hrtim.c ****         switch (comparator) {
 1836              		.loc 1 465 9
 1837 0024 9DF80230 		ldrb	r3, [sp, #2]	@ zero_extendqisi2
 1838 0028 012B     		cmp	r3, #1
 1839 002a 02D0     		beq	.L101
 1840 002c 032B     		cmp	r3, #3
 1841 002e 0AD0     		beq	.L102
 466:C:/StellarStudio-7.0/SDKS/StellarESDK-1.7.0/Modules/Drivers/Timers/HRTIM/src\hrtim.c ****             case HRTIM_CMP2:
 467:C:/StellarStudio-7.0/SDKS/StellarESDK-1.7.0/Modules/Drivers/Timers/HRTIM/src\hrtim.c ****                 hdp->timer_cmp_ad_mode[timer][HRTIM_CMP2] = mode;
 468:C:/StellarStudio-7.0/SDKS/StellarESDK-1.7.0/Modules/Drivers/Timers/HRTIM/src\hrtim.c ****                 break;
 469:C:/StellarStudio-7.0/SDKS/StellarESDK-1.7.0/Modules/Drivers/Timers/HRTIM/src\hrtim.c ****             case HRTIM_CMP4:
 470:C:/StellarStudio-7.0/SDKS/StellarESDK-1.7.0/Modules/Drivers/Timers/HRTIM/src\hrtim.c ****                 hdp->timer_cmp_ad_mode[timer][HRTIM_CMP4] = mode;
 471:C:/StellarStudio-7.0/SDKS/StellarESDK-1.7.0/Modules/Drivers/Timers/HRTIM/src\hrtim.c ****                 break;
 472:C:/StellarStudio-7.0/SDKS/StellarESDK-1.7.0/Modules/Drivers/Timers/HRTIM/src\hrtim.c ****             case HRTIM_CMP1:
 473:C:/StellarStudio-7.0/SDKS/StellarESDK-1.7.0/Modules/Drivers/Timers/HRTIM/src\hrtim.c ****             case HRTIM_CMP3:
 474:C:/StellarStudio-7.0/SDKS/StellarESDK-1.7.0/Modules/Drivers/Timers/HRTIM/src\hrtim.c ****             default:
 475:C:/StellarStudio-7.0/SDKS/StellarESDK-1.7.0/Modules/Drivers/Timers/HRTIM/src\hrtim.c ****                 /* for MISRA compliance */
 476:C:/StellarStudio-7.0/SDKS/StellarESDK-1.7.0/Modules/Drivers/Timers/HRTIM/src\hrtim.c ****                 break;
 1842              		.loc 1 476 17
 1843 0030 13E0     		b	.L104
 1844              	.L101:
 467:C:/StellarStudio-7.0/SDKS/StellarESDK-1.7.0/Modules/Drivers/Timers/HRTIM/src\hrtim.c ****                 break;
 1845              		.loc 1 467 46
 1846 0032 9DF80330 		ldrb	r3, [sp, #3]	@ zero_extendqisi2
 467:C:/StellarStudio-7.0/SDKS/StellarESDK-1.7.0/Modules/Drivers/Timers/HRTIM/src\hrtim.c ****                 break;
 1847              		.loc 1 467 59
 1848 0036 019A     		ldr	r2, [sp, #4]
 1849 0038 9B00     		lsls	r3, r3, #2
 1850 003a 1344     		add	r3, r3, r2
 1851 003c 9DF80120 		ldrb	r2, [sp, #1]
 1852 0040 83F86920 		strb	r2, [r3, #105]
 468:C:/StellarStudio-7.0/SDKS/StellarESDK-1.7.0/Modules/Drivers/Timers/HRTIM/src\hrtim.c ****             case HRTIM_CMP4:
 1853              		.loc 1 468 17
 1854 0044 09E0     		b	.L104
 1855              	.L102:
 470:C:/StellarStudio-7.0/SDKS/StellarESDK-1.7.0/Modules/Drivers/Timers/HRTIM/src\hrtim.c ****                 break;
 1856              		.loc 1 470 46
 1857 0046 9DF80330 		ldrb	r3, [sp, #3]	@ zero_extendqisi2
 470:C:/StellarStudio-7.0/SDKS/StellarESDK-1.7.0/Modules/Drivers/Timers/HRTIM/src\hrtim.c ****                 break;
 1858              		.loc 1 470 59
 1859 004a 019A     		ldr	r2, [sp, #4]
 1860 004c 9B00     		lsls	r3, r3, #2
 1861 004e 1344     		add	r3, r3, r2
 1862 0050 9DF80120 		ldrb	r2, [sp, #1]
 1863 0054 83F86B20 		strb	r2, [r3, #107]
 471:C:/StellarStudio-7.0/SDKS/StellarESDK-1.7.0/Modules/Drivers/Timers/HRTIM/src\hrtim.c ****             case HRTIM_CMP1:
 1864              		.loc 1 471 17
 1865 0058 00BF     		nop
 1866              	.L104:
 477:C:/StellarStudio-7.0/SDKS/StellarESDK-1.7.0/Modules/Drivers/Timers/HRTIM/src\hrtim.c ****         }
 478:C:/StellarStudio-7.0/SDKS/StellarESDK-1.7.0/Modules/Drivers/Timers/HRTIM/src\hrtim.c **** 
 479:C:/StellarStudio-7.0/SDKS/StellarESDK-1.7.0/Modules/Drivers/Timers/HRTIM/src\hrtim.c ****         /* Update on-fly.*/
 480:C:/StellarStudio-7.0/SDKS/StellarESDK-1.7.0/Modules/Drivers/Timers/HRTIM/src\hrtim.c ****         if (hdp->is_enable == true) {
 1867              		.loc 1 480 16
 1868 005a 019B     		ldr	r3, [sp, #4]
 1869 005c 1B79     		ldrb	r3, [r3, #4]	@ zero_extendqisi2
 1870              		.loc 1 480 12
 1871 005e 002B     		cmp	r3, #0
 1872 0060 1ED0     		beq	.L108
 481:C:/StellarStudio-7.0/SDKS/StellarESDK-1.7.0/Modules/Drivers/Timers/HRTIM/src\hrtim.c ****             switch (comparator) {
 1873              		.loc 1 481 13
 1874 0062 9DF80230 		ldrb	r3, [sp, #2]	@ zero_extendqisi2
 1875 0066 012B     		cmp	r3, #1
 1876 0068 02D0     		beq	.L105
 1877 006a 032B     		cmp	r3, #3
 1878 006c 0CD0     		beq	.L106
 482:C:/StellarStudio-7.0/SDKS/StellarESDK-1.7.0/Modules/Drivers/Timers/HRTIM/src\hrtim.c ****                 case HRTIM_CMP2:
 483:C:/StellarStudio-7.0/SDKS/StellarESDK-1.7.0/Modules/Drivers/Timers/HRTIM/src\hrtim.c ****                     hdp->hrtim->sTimerxRegs[timer].TIMxCR = ((uint32_t)mode) << HRTIM_TIMxCR_DELCMP
 484:C:/StellarStudio-7.0/SDKS/StellarESDK-1.7.0/Modules/Drivers/Timers/HRTIM/src\hrtim.c ****                     break;
 485:C:/StellarStudio-7.0/SDKS/StellarESDK-1.7.0/Modules/Drivers/Timers/HRTIM/src\hrtim.c ****                 case HRTIM_CMP4:
 486:C:/StellarStudio-7.0/SDKS/StellarESDK-1.7.0/Modules/Drivers/Timers/HRTIM/src\hrtim.c ****                     hdp->hrtim->sTimerxRegs[timer].TIMxCR = ((uint32_t)mode) << HRTIM_TIMxCR_DELCMP
 487:C:/StellarStudio-7.0/SDKS/StellarESDK-1.7.0/Modules/Drivers/Timers/HRTIM/src\hrtim.c ****                     break;
 488:C:/StellarStudio-7.0/SDKS/StellarESDK-1.7.0/Modules/Drivers/Timers/HRTIM/src\hrtim.c ****                 case HRTIM_CMP1:
 489:C:/StellarStudio-7.0/SDKS/StellarESDK-1.7.0/Modules/Drivers/Timers/HRTIM/src\hrtim.c ****                 case HRTIM_CMP3:
 490:C:/StellarStudio-7.0/SDKS/StellarESDK-1.7.0/Modules/Drivers/Timers/HRTIM/src\hrtim.c ****                 default:
 491:C:/StellarStudio-7.0/SDKS/StellarESDK-1.7.0/Modules/Drivers/Timers/HRTIM/src\hrtim.c ****                     /* for MISRA compliance */
 492:C:/StellarStudio-7.0/SDKS/StellarESDK-1.7.0/Modules/Drivers/Timers/HRTIM/src\hrtim.c ****                     break;
 1879              		.loc 1 492 21
 1880 006e 18E0     		b	.L100
 1881              	.L105:
 483:C:/StellarStudio-7.0/SDKS/StellarESDK-1.7.0/Modules/Drivers/Timers/HRTIM/src\hrtim.c ****                     break;
 1882              		.loc 1 483 62
 1883 0070 9DF80120 		ldrb	r2, [sp, #1]	@ zero_extendqisi2
 483:C:/StellarStudio-7.0/SDKS/StellarESDK-1.7.0/Modules/Drivers/Timers/HRTIM/src\hrtim.c ****                     break;
 1884              		.loc 1 483 24
 1885 0074 019B     		ldr	r3, [sp, #4]
 1886 0076 1968     		ldr	r1, [r3]
 483:C:/StellarStudio-7.0/SDKS/StellarESDK-1.7.0/Modules/Drivers/Timers/HRTIM/src\hrtim.c ****                     break;
 1887              		.loc 1 483 51
 1888 0078 9DF80330 		ldrb	r3, [sp, #3]	@ zero_extendqisi2
 483:C:/StellarStudio-7.0/SDKS/StellarESDK-1.7.0/Modules/Drivers/Timers/HRTIM/src\hrtim.c ****                     break;
 1889              		.loc 1 483 78
 1890 007c 1203     		lsls	r2, r2, #12
 483:C:/StellarStudio-7.0/SDKS/StellarESDK-1.7.0/Modules/Drivers/Timers/HRTIM/src\hrtim.c ****                     break;
 1891              		.loc 1 483 59
 1892 007e 0133     		adds	r3, r3, #1
 1893 0080 DB01     		lsls	r3, r3, #7
 1894 0082 0B44     		add	r3, r3, r1
 1895 0084 1A60     		str	r2, [r3]
 484:C:/StellarStudio-7.0/SDKS/StellarESDK-1.7.0/Modules/Drivers/Timers/HRTIM/src\hrtim.c ****                 case HRTIM_CMP4:
 1896              		.loc 1 484 21
 1897 0086 0CE0     		b	.L100
 1898              	.L106:
 486:C:/StellarStudio-7.0/SDKS/StellarESDK-1.7.0/Modules/Drivers/Timers/HRTIM/src\hrtim.c ****                     break;
 1899              		.loc 1 486 62
 1900 0088 9DF80120 		ldrb	r2, [sp, #1]	@ zero_extendqisi2
 486:C:/StellarStudio-7.0/SDKS/StellarESDK-1.7.0/Modules/Drivers/Timers/HRTIM/src\hrtim.c ****                     break;
 1901              		.loc 1 486 24
 1902 008c 019B     		ldr	r3, [sp, #4]
 1903 008e 1968     		ldr	r1, [r3]
 486:C:/StellarStudio-7.0/SDKS/StellarESDK-1.7.0/Modules/Drivers/Timers/HRTIM/src\hrtim.c ****                     break;
 1904              		.loc 1 486 51
 1905 0090 9DF80330 		ldrb	r3, [sp, #3]	@ zero_extendqisi2
 486:C:/StellarStudio-7.0/SDKS/StellarESDK-1.7.0/Modules/Drivers/Timers/HRTIM/src\hrtim.c ****                     break;
 1906              		.loc 1 486 78
 1907 0094 9203     		lsls	r2, r2, #14
 486:C:/StellarStudio-7.0/SDKS/StellarESDK-1.7.0/Modules/Drivers/Timers/HRTIM/src\hrtim.c ****                     break;
 1908              		.loc 1 486 59
 1909 0096 0133     		adds	r3, r3, #1
 1910 0098 DB01     		lsls	r3, r3, #7
 1911 009a 0B44     		add	r3, r3, r1
 1912 009c 1A60     		str	r2, [r3]
 487:C:/StellarStudio-7.0/SDKS/StellarESDK-1.7.0/Modules/Drivers/Timers/HRTIM/src\hrtim.c ****                 case HRTIM_CMP1:
 1913              		.loc 1 487 21
 1914 009e 00E0     		b	.L100
 1915              	.L108:
 493:C:/StellarStudio-7.0/SDKS/StellarESDK-1.7.0/Modules/Drivers/Timers/HRTIM/src\hrtim.c ****             }
 494:C:/StellarStudio-7.0/SDKS/StellarESDK-1.7.0/Modules/Drivers/Timers/HRTIM/src\hrtim.c ****         }
 1916              		.loc 1 494 9
 1917 00a0 00BF     		nop
 1918              	.L100:
 495:C:/StellarStudio-7.0/SDKS/StellarESDK-1.7.0/Modules/Drivers/Timers/HRTIM/src\hrtim.c ****     }
 496:C:/StellarStudio-7.0/SDKS/StellarESDK-1.7.0/Modules/Drivers/Timers/HRTIM/src\hrtim.c **** }
 1919              		.loc 1 496 1
 1920 00a2 00BF     		nop
 1921 00a4 02B0     		add	sp, sp, #8
 1922              		.cfi_def_cfa_offset 0
 1923              		@ sp needed
 1924 00a6 7047     		bx	lr
 1925              		.cfi_endproc
 1926              	.LFE164:
 1928              		.section	.text.hrtim_timer_set_deadtime,"ax",%progbits
 1929              		.align	1
 1930              		.p2align 4,,15
 1931              		.global	hrtim_timer_set_deadtime
 1932              		.syntax unified
 1933              		.thumb
 1934              		.thumb_func
 1936              	hrtim_timer_set_deadtime:
 1937              	.LFB165:
 497:C:/StellarStudio-7.0/SDKS/StellarESDK-1.7.0/Modules/Drivers/Timers/HRTIM/src\hrtim.c **** 
 498:C:/StellarStudio-7.0/SDKS/StellarESDK-1.7.0/Modules/Drivers/Timers/HRTIM/src\hrtim.c **** void hrtim_timer_set_deadtime(hrtim_driver_t *hdp, hrtim_timer_t timer,
 499:C:/StellarStudio-7.0/SDKS/StellarESDK-1.7.0/Modules/Drivers/Timers/HRTIM/src\hrtim.c ****                               hrtim_dt_prsc_t prescaler,
 500:C:/StellarStudio-7.0/SDKS/StellarESDK-1.7.0/Modules/Drivers/Timers/HRTIM/src\hrtim.c ****                               uint16_t rvalue, hrtim_dt_sign_t rsign,
 501:C:/StellarStudio-7.0/SDKS/StellarESDK-1.7.0/Modules/Drivers/Timers/HRTIM/src\hrtim.c ****                               uint16_t fvalue, hrtim_dt_sign_t fsign) {
 1938              		.loc 1 501 71
 1939              		.cfi_startproc
 1940              		@ args = 12, pretend = 0, frame = 8
 1941              		@ frame_needed = 0, uses_anonymous_args = 0
 1942              		@ link register save eliminated.
 1943 0000 82B0     		sub	sp, sp, #8
 1944              		.cfi_def_cfa_offset 8
 1945 0002 0190     		str	r0, [sp, #4]
 1946 0004 0846     		mov	r0, r1
 1947 0006 1146     		mov	r1, r2
 1948 0008 1A46     		mov	r2, r3
 1949 000a 0346     		mov	r3, r0
 1950 000c 8DF80330 		strb	r3, [sp, #3]
 1951 0010 0B46     		mov	r3, r1
 1952 0012 8DF80230 		strb	r3, [sp, #2]
 1953 0016 1346     		mov	r3, r2	@ movhi
 1954 0018 ADF80030 		strh	r3, [sp]	@ movhi
 502:C:/StellarStudio-7.0/SDKS/StellarESDK-1.7.0/Modules/Drivers/Timers/HRTIM/src\hrtim.c **** 
 503:C:/StellarStudio-7.0/SDKS/StellarESDK-1.7.0/Modules/Drivers/Timers/HRTIM/src\hrtim.c ****     hdp->deadtime[timer].prescaler = prescaler;
 1955              		.loc 1 503 25
 1956 001c 9DF80320 		ldrb	r2, [sp, #3]	@ zero_extendqisi2
 1957              		.loc 1 503 36
 1958 0020 0199     		ldr	r1, [sp, #4]
 1959 0022 1346     		mov	r3, r2
 1960 0024 9B00     		lsls	r3, r3, #2
 1961 0026 1344     		add	r3, r3, r2
 1962 0028 5B00     		lsls	r3, r3, #1
 1963 002a 0B44     		add	r3, r3, r1
 1964 002c 8133     		adds	r3, r3, #129
 1965 002e 9DF80220 		ldrb	r2, [sp, #2]
 1966 0032 1A70     		strb	r2, [r3]
 504:C:/StellarStudio-7.0/SDKS/StellarESDK-1.7.0/Modules/Drivers/Timers/HRTIM/src\hrtim.c ****     hdp->deadtime[timer].rvalue    = rvalue;
 1967              		.loc 1 504 25
 1968 0034 9DF80320 		ldrb	r2, [sp, #3]	@ zero_extendqisi2
 1969              		.loc 1 504 36
 1970 0038 0199     		ldr	r1, [sp, #4]
 1971 003a 1346     		mov	r3, r2
 1972 003c 9B00     		lsls	r3, r3, #2
 1973 003e 1344     		add	r3, r3, r2
 1974 0040 5B00     		lsls	r3, r3, #1
 1975 0042 0B44     		add	r3, r3, r1
 1976 0044 8233     		adds	r3, r3, #130
 1977 0046 BDF80020 		ldrh	r2, [sp]	@ movhi
 1978 004a 1A80     		strh	r2, [r3]	@ movhi
 505:C:/StellarStudio-7.0/SDKS/StellarESDK-1.7.0/Modules/Drivers/Timers/HRTIM/src\hrtim.c ****     hdp->deadtime[timer].rsign     = rsign;
 1979              		.loc 1 505 25
 1980 004c 9DF80320 		ldrb	r2, [sp, #3]	@ zero_extendqisi2
 1981              		.loc 1 505 36
 1982 0050 0199     		ldr	r1, [sp, #4]
 1983 0052 1346     		mov	r3, r2
 1984 0054 9B00     		lsls	r3, r3, #2
 1985 0056 1344     		add	r3, r3, r2
 1986 0058 5B00     		lsls	r3, r3, #1
 1987 005a 0B44     		add	r3, r3, r1
 1988 005c 8433     		adds	r3, r3, #132
 1989 005e 9DF80820 		ldrb	r2, [sp, #8]
 1990 0062 1A70     		strb	r2, [r3]
 506:C:/StellarStudio-7.0/SDKS/StellarESDK-1.7.0/Modules/Drivers/Timers/HRTIM/src\hrtim.c ****     hdp->deadtime[timer].fvalue    = fvalue;
 1991              		.loc 1 506 25
 1992 0064 9DF80320 		ldrb	r2, [sp, #3]	@ zero_extendqisi2
 1993              		.loc 1 506 36
 1994 0068 0199     		ldr	r1, [sp, #4]
 1995 006a 1346     		mov	r3, r2
 1996 006c 9B00     		lsls	r3, r3, #2
 1997 006e 1344     		add	r3, r3, r2
 1998 0070 5B00     		lsls	r3, r3, #1
 1999 0072 0B44     		add	r3, r3, r1
 2000 0074 8633     		adds	r3, r3, #134
 2001 0076 BDF80C20 		ldrh	r2, [sp, #12]	@ movhi
 2002 007a 1A80     		strh	r2, [r3]	@ movhi
 507:C:/StellarStudio-7.0/SDKS/StellarESDK-1.7.0/Modules/Drivers/Timers/HRTIM/src\hrtim.c ****     hdp->deadtime[timer].fsign     = fsign;
 2003              		.loc 1 507 25
 2004 007c 9DF80320 		ldrb	r2, [sp, #3]	@ zero_extendqisi2
 2005              		.loc 1 507 36
 2006 0080 0199     		ldr	r1, [sp, #4]
 2007 0082 1346     		mov	r3, r2
 2008 0084 9B00     		lsls	r3, r3, #2
 2009 0086 1344     		add	r3, r3, r2
 2010 0088 5B00     		lsls	r3, r3, #1
 2011 008a 0B44     		add	r3, r3, r1
 2012 008c 8833     		adds	r3, r3, #136
 2013 008e 9DF81020 		ldrb	r2, [sp, #16]
 2014 0092 1A70     		strb	r2, [r3]
 508:C:/StellarStudio-7.0/SDKS/StellarESDK-1.7.0/Modules/Drivers/Timers/HRTIM/src\hrtim.c **** 
 509:C:/StellarStudio-7.0/SDKS/StellarESDK-1.7.0/Modules/Drivers/Timers/HRTIM/src\hrtim.c ****     /* Update on-fly.*/
 510:C:/StellarStudio-7.0/SDKS/StellarESDK-1.7.0/Modules/Drivers/Timers/HRTIM/src\hrtim.c ****     if (hdp->is_enable == true) {
 2015              		.loc 1 510 12
 2016 0094 019B     		ldr	r3, [sp, #4]
 2017 0096 1B79     		ldrb	r3, [r3, #4]	@ zero_extendqisi2
 2018              		.loc 1 510 8
 2019 0098 002B     		cmp	r3, #0
 2020 009a 23D0     		beq	.L111
 511:C:/StellarStudio-7.0/SDKS/StellarESDK-1.7.0/Modules/Drivers/Timers/HRTIM/src\hrtim.c ****         hdp->hrtim->sTimerxRegs[timer].DTxR = 0U;
 2021              		.loc 1 511 12
 2022 009c 019B     		ldr	r3, [sp, #4]
 2023 009e 1A68     		ldr	r2, [r3]
 2024              		.loc 1 511 39
 2025 00a0 9DF80330 		ldrb	r3, [sp, #3]	@ zero_extendqisi2
 2026              		.loc 1 511 45
 2027 00a4 DB01     		lsls	r3, r3, #7
 2028 00a6 1344     		add	r3, r3, r2
 2029 00a8 B833     		adds	r3, r3, #184
 2030 00aa 0022     		movs	r2, #0
 2031 00ac 1A60     		str	r2, [r3]
 512:C:/StellarStudio-7.0/SDKS/StellarESDK-1.7.0/Modules/Drivers/Timers/HRTIM/src\hrtim.c ****         hdp->hrtim->sTimerxRegs[timer].DTxR = (((uint32_t)rvalue)    << HRTIM_DTxR_DTRx_Pos)   |
 2032              		.loc 1 512 70
 2033 00ae BDF80020 		ldrh	r2, [sp]
 513:C:/StellarStudio-7.0/SDKS/StellarESDK-1.7.0/Modules/Drivers/Timers/HRTIM/src\hrtim.c ****                                               (((uint32_t)rsign)     << HRTIM_DTxR_SDTRx_Pos)  |
 2034              		.loc 1 513 49
 2035 00b2 9DF80830 		ldrb	r3, [sp, #8]	@ zero_extendqisi2
 2036              		.loc 1 513 70
 2037 00b6 5B02     		lsls	r3, r3, #9
 512:C:/StellarStudio-7.0/SDKS/StellarESDK-1.7.0/Modules/Drivers/Timers/HRTIM/src\hrtim.c ****         hdp->hrtim->sTimerxRegs[timer].DTxR = (((uint32_t)rvalue)    << HRTIM_DTxR_DTRx_Pos)   |
 2038              		.loc 1 512 96
 2039 00b8 1A43     		orrs	r2, r2, r3
 514:C:/StellarStudio-7.0/SDKS/StellarESDK-1.7.0/Modules/Drivers/Timers/HRTIM/src\hrtim.c ****                                               (((uint32_t)prescaler) << HRTIM_DTxR_DTPRSC_Pos) | 
 2040              		.loc 1 514 49
 2041 00ba 9DF80230 		ldrb	r3, [sp, #2]	@ zero_extendqisi2
 2042              		.loc 1 514 70
 2043 00be 9B02     		lsls	r3, r3, #10
 513:C:/StellarStudio-7.0/SDKS/StellarESDK-1.7.0/Modules/Drivers/Timers/HRTIM/src\hrtim.c ****                                               (((uint32_t)rsign)     << HRTIM_DTxR_SDTRx_Pos)  |
 2044              		.loc 1 513 96
 2045 00c0 1A43     		orrs	r2, r2, r3
 515:C:/StellarStudio-7.0/SDKS/StellarESDK-1.7.0/Modules/Drivers/Timers/HRTIM/src\hrtim.c ****                                               (((uint32_t)fvalue)    << HRTIM_DTxR_DTFx_Pos)   |
 2046              		.loc 1 515 49
 2047 00c2 BDF80C30 		ldrh	r3, [sp, #12]
 2048              		.loc 1 515 70
 2049 00c6 1B04     		lsls	r3, r3, #16
 514:C:/StellarStudio-7.0/SDKS/StellarESDK-1.7.0/Modules/Drivers/Timers/HRTIM/src\hrtim.c ****                                               (((uint32_t)prescaler) << HRTIM_DTxR_DTPRSC_Pos) | 
 2050              		.loc 1 514 96
 2051 00c8 42EA0300 		orr	r0, r2, r3
 516:C:/StellarStudio-7.0/SDKS/StellarESDK-1.7.0/Modules/Drivers/Timers/HRTIM/src\hrtim.c ****                                               (((uint32_t)fsign)     << HRTIM_DTxR_SDTFx_Pos);
 2052              		.loc 1 516 49
 2053 00cc 9DF81030 		ldrb	r3, [sp, #16]	@ zero_extendqisi2
 2054              		.loc 1 516 70
 2055 00d0 5A06     		lsls	r2, r3, #25
 512:C:/StellarStudio-7.0/SDKS/StellarESDK-1.7.0/Modules/Drivers/Timers/HRTIM/src\hrtim.c ****                                               (((uint32_t)rsign)     << HRTIM_DTxR_SDTRx_Pos)  |
 2056              		.loc 1 512 12
 2057 00d2 019B     		ldr	r3, [sp, #4]
 2058 00d4 1968     		ldr	r1, [r3]
 512:C:/StellarStudio-7.0/SDKS/StellarESDK-1.7.0/Modules/Drivers/Timers/HRTIM/src\hrtim.c ****                                               (((uint32_t)rsign)     << HRTIM_DTxR_SDTRx_Pos)  |
 2059              		.loc 1 512 39
 2060 00d6 9DF80330 		ldrb	r3, [sp, #3]	@ zero_extendqisi2
 515:C:/StellarStudio-7.0/SDKS/StellarESDK-1.7.0/Modules/Drivers/Timers/HRTIM/src\hrtim.c ****                                               (((uint32_t)fvalue)    << HRTIM_DTxR_DTFx_Pos)   |
 2061              		.loc 1 515 96
 2062 00da 0243     		orrs	r2, r2, r0
 512:C:/StellarStudio-7.0/SDKS/StellarESDK-1.7.0/Modules/Drivers/Timers/HRTIM/src\hrtim.c ****                                               (((uint32_t)rsign)     << HRTIM_DTxR_SDTRx_Pos)  |
 2063              		.loc 1 512 45
 2064 00dc DB01     		lsls	r3, r3, #7
 2065 00de 0B44     		add	r3, r3, r1
 2066 00e0 B833     		adds	r3, r3, #184
 2067 00e2 1A60     		str	r2, [r3]
 2068              	.L111:
 517:C:/StellarStudio-7.0/SDKS/StellarESDK-1.7.0/Modules/Drivers/Timers/HRTIM/src\hrtim.c ****     }
 518:C:/StellarStudio-7.0/SDKS/StellarESDK-1.7.0/Modules/Drivers/Timers/HRTIM/src\hrtim.c **** }
 2069              		.loc 1 518 1
 2070 00e4 00BF     		nop
 2071 00e6 02B0     		add	sp, sp, #8
 2072              		.cfi_def_cfa_offset 0
 2073              		@ sp needed
 2074 00e8 7047     		bx	lr
 2075              		.cfi_endproc
 2076              	.LFE165:
 2078 00ea 00BF     		.section	.text.hrtim_timer_enable_deadtime,"ax",%progbits
 2079              		.align	1
 2080              		.p2align 4,,15
 2081              		.global	hrtim_timer_enable_deadtime
 2082              		.syntax unified
 2083              		.thumb
 2084              		.thumb_func
 2086              	hrtim_timer_enable_deadtime:
 2087              	.LFB166:
 519:C:/StellarStudio-7.0/SDKS/StellarESDK-1.7.0/Modules/Drivers/Timers/HRTIM/src\hrtim.c **** 
 520:C:/StellarStudio-7.0/SDKS/StellarESDK-1.7.0/Modules/Drivers/Timers/HRTIM/src\hrtim.c **** void hrtim_timer_enable_deadtime(hrtim_driver_t *hdp, hrtim_timer_t timer) {
 2088              		.loc 1 520 76
 2089              		.cfi_startproc
 2090              		@ args = 0, pretend = 0, frame = 8
 2091              		@ frame_needed = 0, uses_anonymous_args = 0
 2092              		@ link register save eliminated.
 2093 0000 82B0     		sub	sp, sp, #8
 2094              		.cfi_def_cfa_offset 8
 2095 0002 0190     		str	r0, [sp, #4]
 2096 0004 0B46     		mov	r3, r1
 2097 0006 8DF80330 		strb	r3, [sp, #3]
 521:C:/StellarStudio-7.0/SDKS/StellarESDK-1.7.0/Modules/Drivers/Timers/HRTIM/src\hrtim.c **** 
 522:C:/StellarStudio-7.0/SDKS/StellarESDK-1.7.0/Modules/Drivers/Timers/HRTIM/src\hrtim.c ****     hdp->deadtime[timer].enable = true;
 2098              		.loc 1 522 25
 2099 000a 9DF80320 		ldrb	r2, [sp, #3]	@ zero_extendqisi2
 2100              		.loc 1 522 33
 2101 000e 0199     		ldr	r1, [sp, #4]
 2102 0010 1346     		mov	r3, r2
 2103 0012 9B00     		lsls	r3, r3, #2
 2104 0014 1344     		add	r3, r3, r2
 2105 0016 5B00     		lsls	r3, r3, #1
 2106 0018 0B44     		add	r3, r3, r1
 2107 001a 8033     		adds	r3, r3, #128
 2108 001c 0122     		movs	r2, #1
 2109 001e 1A70     		strb	r2, [r3]
 523:C:/StellarStudio-7.0/SDKS/StellarESDK-1.7.0/Modules/Drivers/Timers/HRTIM/src\hrtim.c ****     if (hdp->is_enable == true) {
 2110              		.loc 1 523 12
 2111 0020 019B     		ldr	r3, [sp, #4]
 2112 0022 1B79     		ldrb	r3, [r3, #4]	@ zero_extendqisi2
 2113              		.loc 1 523 8
 2114 0024 002B     		cmp	r3, #0
 2115 0026 09D0     		beq	.L114
 524:C:/StellarStudio-7.0/SDKS/StellarESDK-1.7.0/Modules/Drivers/Timers/HRTIM/src\hrtim.c ****         hdp->hrtim->sTimerxRegs[timer].OUTxR = (1UL << HRTIM_OUTxR_DTEN_Pos);
 2116              		.loc 1 524 12
 2117 0028 019B     		ldr	r3, [sp, #4]
 2118 002a 1A68     		ldr	r2, [r3]
 2119              		.loc 1 524 39
 2120 002c 9DF80330 		ldrb	r3, [sp, #3]	@ zero_extendqisi2
 2121              		.loc 1 524 46
 2122 0030 DB01     		lsls	r3, r3, #7
 2123 0032 1344     		add	r3, r3, r2
 2124 0034 E433     		adds	r3, r3, #228
 2125 0036 4FF48072 		mov	r2, #256
 2126 003a 1A60     		str	r2, [r3]
 2127              	.L114:
 525:C:/StellarStudio-7.0/SDKS/StellarESDK-1.7.0/Modules/Drivers/Timers/HRTIM/src\hrtim.c ****     }
 526:C:/StellarStudio-7.0/SDKS/StellarESDK-1.7.0/Modules/Drivers/Timers/HRTIM/src\hrtim.c **** }
 2128              		.loc 1 526 1
 2129 003c 00BF     		nop
 2130 003e 02B0     		add	sp, sp, #8
 2131              		.cfi_def_cfa_offset 0
 2132              		@ sp needed
 2133 0040 7047     		bx	lr
 2134              		.cfi_endproc
 2135              	.LFE166:
 2137 0042 00BF     		.section	.text.hrtim_timer_disable_deadtime,"ax",%progbits
 2138              		.align	1
 2139              		.p2align 4,,15
 2140              		.global	hrtim_timer_disable_deadtime
 2141              		.syntax unified
 2142              		.thumb
 2143              		.thumb_func
 2145              	hrtim_timer_disable_deadtime:
 2146              	.LFB167:
 527:C:/StellarStudio-7.0/SDKS/StellarESDK-1.7.0/Modules/Drivers/Timers/HRTIM/src\hrtim.c **** 
 528:C:/StellarStudio-7.0/SDKS/StellarESDK-1.7.0/Modules/Drivers/Timers/HRTIM/src\hrtim.c **** void hrtim_timer_disable_deadtime(hrtim_driver_t *hdp, hrtim_timer_t timer) {
 2147              		.loc 1 528 77
 2148              		.cfi_startproc
 2149              		@ args = 0, pretend = 0, frame = 8
 2150              		@ frame_needed = 0, uses_anonymous_args = 0
 2151              		@ link register save eliminated.
 2152 0000 82B0     		sub	sp, sp, #8
 2153              		.cfi_def_cfa_offset 8
 2154 0002 0190     		str	r0, [sp, #4]
 2155 0004 0B46     		mov	r3, r1
 2156 0006 8DF80330 		strb	r3, [sp, #3]
 529:C:/StellarStudio-7.0/SDKS/StellarESDK-1.7.0/Modules/Drivers/Timers/HRTIM/src\hrtim.c **** 
 530:C:/StellarStudio-7.0/SDKS/StellarESDK-1.7.0/Modules/Drivers/Timers/HRTIM/src\hrtim.c ****     hdp->deadtime[timer].enable = false;
 2157              		.loc 1 530 25
 2158 000a 9DF80320 		ldrb	r2, [sp, #3]	@ zero_extendqisi2
 2159              		.loc 1 530 33
 2160 000e 0199     		ldr	r1, [sp, #4]
 2161 0010 1346     		mov	r3, r2
 2162 0012 9B00     		lsls	r3, r3, #2
 2163 0014 1344     		add	r3, r3, r2
 2164 0016 5B00     		lsls	r3, r3, #1
 2165 0018 0B44     		add	r3, r3, r1
 2166 001a 8033     		adds	r3, r3, #128
 2167 001c 0022     		movs	r2, #0
 2168 001e 1A70     		strb	r2, [r3]
 531:C:/StellarStudio-7.0/SDKS/StellarESDK-1.7.0/Modules/Drivers/Timers/HRTIM/src\hrtim.c ****     if (hdp->is_enable == true) {
 2169              		.loc 1 531 12
 2170 0020 019B     		ldr	r3, [sp, #4]
 2171 0022 1B79     		ldrb	r3, [r3, #4]	@ zero_extendqisi2
 2172              		.loc 1 531 8
 2173 0024 002B     		cmp	r3, #0
 2174 0026 08D0     		beq	.L117
 532:C:/StellarStudio-7.0/SDKS/StellarESDK-1.7.0/Modules/Drivers/Timers/HRTIM/src\hrtim.c ****         hdp->hrtim->sTimerxRegs[timer].OUTxR = 0U;
 2175              		.loc 1 532 12
 2176 0028 019B     		ldr	r3, [sp, #4]
 2177 002a 1A68     		ldr	r2, [r3]
 2178              		.loc 1 532 39
 2179 002c 9DF80330 		ldrb	r3, [sp, #3]	@ zero_extendqisi2
 2180              		.loc 1 532 46
 2181 0030 DB01     		lsls	r3, r3, #7
 2182 0032 1344     		add	r3, r3, r2
 2183 0034 E433     		adds	r3, r3, #228
 2184 0036 0022     		movs	r2, #0
 2185 0038 1A60     		str	r2, [r3]
 2186              	.L117:
 533:C:/StellarStudio-7.0/SDKS/StellarESDK-1.7.0/Modules/Drivers/Timers/HRTIM/src\hrtim.c ****     }
 534:C:/StellarStudio-7.0/SDKS/StellarESDK-1.7.0/Modules/Drivers/Timers/HRTIM/src\hrtim.c **** }
 2187              		.loc 1 534 1
 2188 003a 00BF     		nop
 2189 003c 02B0     		add	sp, sp, #8
 2190              		.cfi_def_cfa_offset 0
 2191              		@ sp needed
 2192 003e 7047     		bx	lr
 2193              		.cfi_endproc
 2194              	.LFE167:
 2196              		.section	.text.hrtim_timer_set_outputset,"ax",%progbits
 2197              		.align	1
 2198              		.p2align 4,,15
 2199              		.global	hrtim_timer_set_outputset
 2200              		.syntax unified
 2201              		.thumb
 2202              		.thumb_func
 2204              	hrtim_timer_set_outputset:
 2205              	.LFB168:
 535:C:/StellarStudio-7.0/SDKS/StellarESDK-1.7.0/Modules/Drivers/Timers/HRTIM/src\hrtim.c **** 
 536:C:/StellarStudio-7.0/SDKS/StellarESDK-1.7.0/Modules/Drivers/Timers/HRTIM/src\hrtim.c **** uint32_t hrtim_timer_set_outputset(hrtim_driver_t *hdp,
 537:C:/StellarStudio-7.0/SDKS/StellarESDK-1.7.0/Modules/Drivers/Timers/HRTIM/src\hrtim.c ****                                    hrtim_timer_t timer,
 538:C:/StellarStudio-7.0/SDKS/StellarESDK-1.7.0/Modules/Drivers/Timers/HRTIM/src\hrtim.c ****                                    hrtim_out_t output,
 539:C:/StellarStudio-7.0/SDKS/StellarESDK-1.7.0/Modules/Drivers/Timers/HRTIM/src\hrtim.c ****                                    uint32_t event) {
 2206              		.loc 1 539 52
 2207              		.cfi_startproc
 2208              		@ args = 0, pretend = 0, frame = 24
 2209              		@ frame_needed = 0, uses_anonymous_args = 0
 2210              		@ link register save eliminated.
 2211 0000 86B0     		sub	sp, sp, #24
 2212              		.cfi_def_cfa_offset 24
 2213 0002 0390     		str	r0, [sp, #12]
 2214 0004 0193     		str	r3, [sp, #4]
 2215 0006 0B46     		mov	r3, r1
 2216 0008 8DF80B30 		strb	r3, [sp, #11]
 2217 000c 1346     		mov	r3, r2
 2218 000e 8DF80A30 		strb	r3, [sp, #10]
 540:C:/StellarStudio-7.0/SDKS/StellarESDK-1.7.0/Modules/Drivers/Timers/HRTIM/src\hrtim.c **** 
 541:C:/StellarStudio-7.0/SDKS/StellarESDK-1.7.0/Modules/Drivers/Timers/HRTIM/src\hrtim.c ****     uint32_t prev_event = hdp->set_event[timer][output];
 2219              		.loc 1 541 48
 2220 0012 9DF80B10 		ldrb	r1, [sp, #11]	@ zero_extendqisi2
 2221 0016 9DF80A30 		ldrb	r3, [sp, #10]	@ zero_extendqisi2
 2222              		.loc 1 541 14
 2223 001a 039A     		ldr	r2, [sp, #12]
 2224 001c 4900     		lsls	r1, r1, #1
 2225 001e 0B44     		add	r3, r3, r1
 2226 0020 2E33     		adds	r3, r3, #46
 2227 0022 9B00     		lsls	r3, r3, #2
 2228 0024 1344     		add	r3, r3, r2
 2229 0026 5B68     		ldr	r3, [r3, #4]
 2230 0028 0593     		str	r3, [sp, #20]
 542:C:/StellarStudio-7.0/SDKS/StellarESDK-1.7.0/Modules/Drivers/Timers/HRTIM/src\hrtim.c **** 
 543:C:/StellarStudio-7.0/SDKS/StellarESDK-1.7.0/Modules/Drivers/Timers/HRTIM/src\hrtim.c ****     if (output == HRTIM_TIMER_OUTPUT_1) {
 2231              		.loc 1 543 8
 2232 002a 9DF80A30 		ldrb	r3, [sp, #10]	@ zero_extendqisi2
 2233 002e 002B     		cmp	r3, #0
 2234 0030 0BD1     		bne	.L119
 544:C:/StellarStudio-7.0/SDKS/StellarESDK-1.7.0/Modules/Drivers/Timers/HRTIM/src\hrtim.c ****         hdp->set_event[timer][output] = event;
 2235              		.loc 1 544 30
 2236 0032 9DF80B10 		ldrb	r1, [sp, #11]	@ zero_extendqisi2
 2237 0036 9DF80A30 		ldrb	r3, [sp, #10]	@ zero_extendqisi2
 2238              		.loc 1 544 39
 2239 003a 039A     		ldr	r2, [sp, #12]
 2240 003c 4900     		lsls	r1, r1, #1
 2241 003e 0B44     		add	r3, r3, r1
 2242 0040 2E33     		adds	r3, r3, #46
 2243 0042 9B00     		lsls	r3, r3, #2
 2244 0044 1344     		add	r3, r3, r2
 2245 0046 019A     		ldr	r2, [sp, #4]
 2246 0048 5A60     		str	r2, [r3, #4]
 2247              	.L119:
 545:C:/StellarStudio-7.0/SDKS/StellarESDK-1.7.0/Modules/Drivers/Timers/HRTIM/src\hrtim.c ****     }
 546:C:/StellarStudio-7.0/SDKS/StellarESDK-1.7.0/Modules/Drivers/Timers/HRTIM/src\hrtim.c **** 
 547:C:/StellarStudio-7.0/SDKS/StellarESDK-1.7.0/Modules/Drivers/Timers/HRTIM/src\hrtim.c ****     if (output == HRTIM_TIMER_OUTPUT_2 && hdp->deadtime[timer].enable == false) {
 2248              		.loc 1 547 8
 2249 004a 9DF80A30 		ldrb	r3, [sp, #10]	@ zero_extendqisi2
 2250 004e 012B     		cmp	r3, #1
 2251 0050 1AD1     		bne	.L120
 2252              		.loc 1 547 63 discriminator 1
 2253 0052 9DF80B20 		ldrb	r2, [sp, #11]	@ zero_extendqisi2
 2254 0056 0399     		ldr	r1, [sp, #12]
 2255 0058 1346     		mov	r3, r2
 2256 005a 9B00     		lsls	r3, r3, #2
 2257 005c 1344     		add	r3, r3, r2
 2258 005e 5B00     		lsls	r3, r3, #1
 2259 0060 0B44     		add	r3, r3, r1
 2260 0062 8033     		adds	r3, r3, #128
 2261 0064 1B78     		ldrb	r3, [r3]	@ zero_extendqisi2
 2262              		.loc 1 547 71 discriminator 1
 2263 0066 83F00103 		eor	r3, r3, #1
 2264 006a DBB2     		uxtb	r3, r3
 2265              		.loc 1 547 40 discriminator 1
 2266 006c 002B     		cmp	r3, #0
 2267 006e 0BD0     		beq	.L120
 548:C:/StellarStudio-7.0/SDKS/StellarESDK-1.7.0/Modules/Drivers/Timers/HRTIM/src\hrtim.c ****         hdp->set_event[timer][output] = event;
 2268              		.loc 1 548 30
 2269 0070 9DF80B10 		ldrb	r1, [sp, #11]	@ zero_extendqisi2
 2270 0074 9DF80A30 		ldrb	r3, [sp, #10]	@ zero_extendqisi2
 2271              		.loc 1 548 39
 2272 0078 039A     		ldr	r2, [sp, #12]
 2273 007a 4900     		lsls	r1, r1, #1
 2274 007c 0B44     		add	r3, r3, r1
 2275 007e 2E33     		adds	r3, r3, #46
 2276 0080 9B00     		lsls	r3, r3, #2
 2277 0082 1344     		add	r3, r3, r2
 2278 0084 019A     		ldr	r2, [sp, #4]
 2279 0086 5A60     		str	r2, [r3, #4]
 2280              	.L120:
 549:C:/StellarStudio-7.0/SDKS/StellarESDK-1.7.0/Modules/Drivers/Timers/HRTIM/src\hrtim.c ****     }
 550:C:/StellarStudio-7.0/SDKS/StellarESDK-1.7.0/Modules/Drivers/Timers/HRTIM/src\hrtim.c **** 
 551:C:/StellarStudio-7.0/SDKS/StellarESDK-1.7.0/Modules/Drivers/Timers/HRTIM/src\hrtim.c ****     /* Update on-fly.*/
 552:C:/StellarStudio-7.0/SDKS/StellarESDK-1.7.0/Modules/Drivers/Timers/HRTIM/src\hrtim.c ****     if (hdp->is_enable == true) {
 2281              		.loc 1 552 12
 2282 0088 039B     		ldr	r3, [sp, #12]
 2283 008a 1B79     		ldrb	r3, [r3, #4]	@ zero_extendqisi2
 2284              		.loc 1 552 8
 2285 008c 002B     		cmp	r3, #0
 2286 008e 28D0     		beq	.L121
 553:C:/StellarStudio-7.0/SDKS/StellarESDK-1.7.0/Modules/Drivers/Timers/HRTIM/src\hrtim.c ****         if (output == HRTIM_TIMER_OUTPUT_1) {
 2287              		.loc 1 553 12
 2288 0090 9DF80A30 		ldrb	r3, [sp, #10]	@ zero_extendqisi2
 2289 0094 002B     		cmp	r3, #0
 2290 0096 08D1     		bne	.L122
 554:C:/StellarStudio-7.0/SDKS/StellarESDK-1.7.0/Modules/Drivers/Timers/HRTIM/src\hrtim.c ****             hdp->hrtim->sTimerxRegs[timer].SETx1R = event;
 2291              		.loc 1 554 16
 2292 0098 039B     		ldr	r3, [sp, #12]
 2293 009a 1A68     		ldr	r2, [r3]
 2294              		.loc 1 554 43
 2295 009c 9DF80B30 		ldrb	r3, [sp, #11]	@ zero_extendqisi2
 2296              		.loc 1 554 51
 2297 00a0 DB01     		lsls	r3, r3, #7
 2298 00a2 1344     		add	r3, r3, r2
 2299 00a4 BC33     		adds	r3, r3, #188
 2300 00a6 019A     		ldr	r2, [sp, #4]
 2301 00a8 1A60     		str	r2, [r3]
 2302              	.L122:
 555:C:/StellarStudio-7.0/SDKS/StellarESDK-1.7.0/Modules/Drivers/Timers/HRTIM/src\hrtim.c ****         }
 556:C:/StellarStudio-7.0/SDKS/StellarESDK-1.7.0/Modules/Drivers/Timers/HRTIM/src\hrtim.c **** 
 557:C:/StellarStudio-7.0/SDKS/StellarESDK-1.7.0/Modules/Drivers/Timers/HRTIM/src\hrtim.c ****         if (output == HRTIM_TIMER_OUTPUT_2 && hdp->deadtime[timer].enable == false) {
 2303              		.loc 1 557 12
 2304 00aa 9DF80A30 		ldrb	r3, [sp, #10]	@ zero_extendqisi2
 2305 00ae 012B     		cmp	r3, #1
 2306 00b0 17D1     		bne	.L121
 2307              		.loc 1 557 67 discriminator 1
 2308 00b2 9DF80B20 		ldrb	r2, [sp, #11]	@ zero_extendqisi2
 2309 00b6 0399     		ldr	r1, [sp, #12]
 2310 00b8 1346     		mov	r3, r2
 2311 00ba 9B00     		lsls	r3, r3, #2
 2312 00bc 1344     		add	r3, r3, r2
 2313 00be 5B00     		lsls	r3, r3, #1
 2314 00c0 0B44     		add	r3, r3, r1
 2315 00c2 8033     		adds	r3, r3, #128
 2316 00c4 1B78     		ldrb	r3, [r3]	@ zero_extendqisi2
 2317              		.loc 1 557 75 discriminator 1
 2318 00c6 83F00103 		eor	r3, r3, #1
 2319 00ca DBB2     		uxtb	r3, r3
 2320              		.loc 1 557 44 discriminator 1
 2321 00cc 002B     		cmp	r3, #0
 2322 00ce 08D0     		beq	.L121
 558:C:/StellarStudio-7.0/SDKS/StellarESDK-1.7.0/Modules/Drivers/Timers/HRTIM/src\hrtim.c ****             hdp->hrtim->sTimerxRegs[timer].SETx2R = event;
 2323              		.loc 1 558 16
 2324 00d0 039B     		ldr	r3, [sp, #12]
 2325 00d2 1A68     		ldr	r2, [r3]
 2326              		.loc 1 558 43
 2327 00d4 9DF80B30 		ldrb	r3, [sp, #11]	@ zero_extendqisi2
 2328              		.loc 1 558 51
 2329 00d8 DB01     		lsls	r3, r3, #7
 2330 00da 1344     		add	r3, r3, r2
 2331 00dc C433     		adds	r3, r3, #196
 2332 00de 019A     		ldr	r2, [sp, #4]
 2333 00e0 1A60     		str	r2, [r3]
 2334              	.L121:
 559:C:/StellarStudio-7.0/SDKS/StellarESDK-1.7.0/Modules/Drivers/Timers/HRTIM/src\hrtim.c ****         }
 560:C:/StellarStudio-7.0/SDKS/StellarESDK-1.7.0/Modules/Drivers/Timers/HRTIM/src\hrtim.c ****     }
 561:C:/StellarStudio-7.0/SDKS/StellarESDK-1.7.0/Modules/Drivers/Timers/HRTIM/src\hrtim.c ****  
 562:C:/StellarStudio-7.0/SDKS/StellarESDK-1.7.0/Modules/Drivers/Timers/HRTIM/src\hrtim.c ****     return prev_event;
 2335              		.loc 1 562 12
 2336 00e2 059B     		ldr	r3, [sp, #20]
 563:C:/StellarStudio-7.0/SDKS/StellarESDK-1.7.0/Modules/Drivers/Timers/HRTIM/src\hrtim.c **** } 
 2337              		.loc 1 563 1
 2338 00e4 1846     		mov	r0, r3
 2339 00e6 06B0     		add	sp, sp, #24
 2340              		.cfi_def_cfa_offset 0
 2341              		@ sp needed
 2342 00e8 7047     		bx	lr
 2343              		.cfi_endproc
 2344              	.LFE168:
 2346              		.section	.text.hrtim_timer_set_outputrst,"ax",%progbits
 2347              		.align	1
 2348              		.p2align 4,,15
 2349              		.global	hrtim_timer_set_outputrst
 2350              		.syntax unified
 2351              		.thumb
 2352              		.thumb_func
 2354              	hrtim_timer_set_outputrst:
 2355              	.LFB169:
 564:C:/StellarStudio-7.0/SDKS/StellarESDK-1.7.0/Modules/Drivers/Timers/HRTIM/src\hrtim.c **** 
 565:C:/StellarStudio-7.0/SDKS/StellarESDK-1.7.0/Modules/Drivers/Timers/HRTIM/src\hrtim.c **** uint32_t hrtim_timer_set_outputrst(hrtim_driver_t *hdp,
 566:C:/StellarStudio-7.0/SDKS/StellarESDK-1.7.0/Modules/Drivers/Timers/HRTIM/src\hrtim.c ****                                    hrtim_timer_t timer,
 567:C:/StellarStudio-7.0/SDKS/StellarESDK-1.7.0/Modules/Drivers/Timers/HRTIM/src\hrtim.c ****                                    hrtim_out_t output,
 568:C:/StellarStudio-7.0/SDKS/StellarESDK-1.7.0/Modules/Drivers/Timers/HRTIM/src\hrtim.c ****                                    uint32_t event) {
 2356              		.loc 1 568 52
 2357              		.cfi_startproc
 2358              		@ args = 0, pretend = 0, frame = 24
 2359              		@ frame_needed = 0, uses_anonymous_args = 0
 2360              		@ link register save eliminated.
 2361 0000 86B0     		sub	sp, sp, #24
 2362              		.cfi_def_cfa_offset 24
 2363 0002 0390     		str	r0, [sp, #12]
 2364 0004 0193     		str	r3, [sp, #4]
 2365 0006 0B46     		mov	r3, r1
 2366 0008 8DF80B30 		strb	r3, [sp, #11]
 2367 000c 1346     		mov	r3, r2
 2368 000e 8DF80A30 		strb	r3, [sp, #10]
 569:C:/StellarStudio-7.0/SDKS/StellarESDK-1.7.0/Modules/Drivers/Timers/HRTIM/src\hrtim.c **** 
 570:C:/StellarStudio-7.0/SDKS/StellarESDK-1.7.0/Modules/Drivers/Timers/HRTIM/src\hrtim.c ****     uint32_t prev_event = hdp->rst_event[timer][output];
 2369              		.loc 1 570 48
 2370 0012 9DF80B10 		ldrb	r1, [sp, #11]	@ zero_extendqisi2
 2371 0016 9DF80A30 		ldrb	r3, [sp, #10]	@ zero_extendqisi2
 2372              		.loc 1 570 14
 2373 001a 039A     		ldr	r2, [sp, #12]
 2374 001c 4900     		lsls	r1, r1, #1
 2375 001e 0B44     		add	r3, r3, r1
 2376 0020 6E33     		adds	r3, r3, #110
 2377 0022 9B00     		lsls	r3, r3, #2
 2378 0024 1344     		add	r3, r3, r2
 2379 0026 5B68     		ldr	r3, [r3, #4]
 2380 0028 0593     		str	r3, [sp, #20]
 571:C:/StellarStudio-7.0/SDKS/StellarESDK-1.7.0/Modules/Drivers/Timers/HRTIM/src\hrtim.c **** 
 572:C:/StellarStudio-7.0/SDKS/StellarESDK-1.7.0/Modules/Drivers/Timers/HRTIM/src\hrtim.c ****     if(output == HRTIM_TIMER_OUTPUT_1) {
 2381              		.loc 1 572 7
 2382 002a 9DF80A30 		ldrb	r3, [sp, #10]	@ zero_extendqisi2
 2383 002e 002B     		cmp	r3, #0
 2384 0030 0BD1     		bne	.L125
 573:C:/StellarStudio-7.0/SDKS/StellarESDK-1.7.0/Modules/Drivers/Timers/HRTIM/src\hrtim.c ****         hdp->rst_event[timer][output] = event;
 2385              		.loc 1 573 30
 2386 0032 9DF80B10 		ldrb	r1, [sp, #11]	@ zero_extendqisi2
 2387 0036 9DF80A30 		ldrb	r3, [sp, #10]	@ zero_extendqisi2
 2388              		.loc 1 573 39
 2389 003a 039A     		ldr	r2, [sp, #12]
 2390 003c 4900     		lsls	r1, r1, #1
 2391 003e 0B44     		add	r3, r3, r1
 2392 0040 6E33     		adds	r3, r3, #110
 2393 0042 9B00     		lsls	r3, r3, #2
 2394 0044 1344     		add	r3, r3, r2
 2395 0046 019A     		ldr	r2, [sp, #4]
 2396 0048 5A60     		str	r2, [r3, #4]
 2397              	.L125:
 574:C:/StellarStudio-7.0/SDKS/StellarESDK-1.7.0/Modules/Drivers/Timers/HRTIM/src\hrtim.c ****     }
 575:C:/StellarStudio-7.0/SDKS/StellarESDK-1.7.0/Modules/Drivers/Timers/HRTIM/src\hrtim.c **** 
 576:C:/StellarStudio-7.0/SDKS/StellarESDK-1.7.0/Modules/Drivers/Timers/HRTIM/src\hrtim.c ****     if (output == HRTIM_TIMER_OUTPUT_2 && hdp->deadtime[timer].enable == false) {
 2398              		.loc 1 576 8
 2399 004a 9DF80A30 		ldrb	r3, [sp, #10]	@ zero_extendqisi2
 2400 004e 012B     		cmp	r3, #1
 2401 0050 1AD1     		bne	.L126
 2402              		.loc 1 576 63 discriminator 1
 2403 0052 9DF80B20 		ldrb	r2, [sp, #11]	@ zero_extendqisi2
 2404 0056 0399     		ldr	r1, [sp, #12]
 2405 0058 1346     		mov	r3, r2
 2406 005a 9B00     		lsls	r3, r3, #2
 2407 005c 1344     		add	r3, r3, r2
 2408 005e 5B00     		lsls	r3, r3, #1
 2409 0060 0B44     		add	r3, r3, r1
 2410 0062 8033     		adds	r3, r3, #128
 2411 0064 1B78     		ldrb	r3, [r3]	@ zero_extendqisi2
 2412              		.loc 1 576 71 discriminator 1
 2413 0066 83F00103 		eor	r3, r3, #1
 2414 006a DBB2     		uxtb	r3, r3
 2415              		.loc 1 576 40 discriminator 1
 2416 006c 002B     		cmp	r3, #0
 2417 006e 0BD0     		beq	.L126
 577:C:/StellarStudio-7.0/SDKS/StellarESDK-1.7.0/Modules/Drivers/Timers/HRTIM/src\hrtim.c ****         hdp->rst_event[timer][output] = event;
 2418              		.loc 1 577 30
 2419 0070 9DF80B10 		ldrb	r1, [sp, #11]	@ zero_extendqisi2
 2420 0074 9DF80A30 		ldrb	r3, [sp, #10]	@ zero_extendqisi2
 2421              		.loc 1 577 39
 2422 0078 039A     		ldr	r2, [sp, #12]
 2423 007a 4900     		lsls	r1, r1, #1
 2424 007c 0B44     		add	r3, r3, r1
 2425 007e 6E33     		adds	r3, r3, #110
 2426 0080 9B00     		lsls	r3, r3, #2
 2427 0082 1344     		add	r3, r3, r2
 2428 0084 019A     		ldr	r2, [sp, #4]
 2429 0086 5A60     		str	r2, [r3, #4]
 2430              	.L126:
 578:C:/StellarStudio-7.0/SDKS/StellarESDK-1.7.0/Modules/Drivers/Timers/HRTIM/src\hrtim.c ****     }
 579:C:/StellarStudio-7.0/SDKS/StellarESDK-1.7.0/Modules/Drivers/Timers/HRTIM/src\hrtim.c **** 
 580:C:/StellarStudio-7.0/SDKS/StellarESDK-1.7.0/Modules/Drivers/Timers/HRTIM/src\hrtim.c ****     /* Update on-fly.*/
 581:C:/StellarStudio-7.0/SDKS/StellarESDK-1.7.0/Modules/Drivers/Timers/HRTIM/src\hrtim.c ****     if (hdp->is_enable == true) {
 2431              		.loc 1 581 12
 2432 0088 039B     		ldr	r3, [sp, #12]
 2433 008a 1B79     		ldrb	r3, [r3, #4]	@ zero_extendqisi2
 2434              		.loc 1 581 8
 2435 008c 002B     		cmp	r3, #0
 2436 008e 28D0     		beq	.L127
 582:C:/StellarStudio-7.0/SDKS/StellarESDK-1.7.0/Modules/Drivers/Timers/HRTIM/src\hrtim.c ****         if (output == HRTIM_TIMER_OUTPUT_1) {
 2437              		.loc 1 582 12
 2438 0090 9DF80A30 		ldrb	r3, [sp, #10]	@ zero_extendqisi2
 2439 0094 002B     		cmp	r3, #0
 2440 0096 08D1     		bne	.L128
 583:C:/StellarStudio-7.0/SDKS/StellarESDK-1.7.0/Modules/Drivers/Timers/HRTIM/src\hrtim.c ****             hdp->hrtim->sTimerxRegs[timer].RSTx1R = event;
 2441              		.loc 1 583 16
 2442 0098 039B     		ldr	r3, [sp, #12]
 2443 009a 1A68     		ldr	r2, [r3]
 2444              		.loc 1 583 43
 2445 009c 9DF80B30 		ldrb	r3, [sp, #11]	@ zero_extendqisi2
 2446              		.loc 1 583 51
 2447 00a0 DB01     		lsls	r3, r3, #7
 2448 00a2 1344     		add	r3, r3, r2
 2449 00a4 C033     		adds	r3, r3, #192
 2450 00a6 019A     		ldr	r2, [sp, #4]
 2451 00a8 1A60     		str	r2, [r3]
 2452              	.L128:
 584:C:/StellarStudio-7.0/SDKS/StellarESDK-1.7.0/Modules/Drivers/Timers/HRTIM/src\hrtim.c ****         }
 585:C:/StellarStudio-7.0/SDKS/StellarESDK-1.7.0/Modules/Drivers/Timers/HRTIM/src\hrtim.c **** 
 586:C:/StellarStudio-7.0/SDKS/StellarESDK-1.7.0/Modules/Drivers/Timers/HRTIM/src\hrtim.c ****         if (output == HRTIM_TIMER_OUTPUT_2 && hdp->deadtime[timer].enable == false) {
 2453              		.loc 1 586 12
 2454 00aa 9DF80A30 		ldrb	r3, [sp, #10]	@ zero_extendqisi2
 2455 00ae 012B     		cmp	r3, #1
 2456 00b0 17D1     		bne	.L127
 2457              		.loc 1 586 67 discriminator 1
 2458 00b2 9DF80B20 		ldrb	r2, [sp, #11]	@ zero_extendqisi2
 2459 00b6 0399     		ldr	r1, [sp, #12]
 2460 00b8 1346     		mov	r3, r2
 2461 00ba 9B00     		lsls	r3, r3, #2
 2462 00bc 1344     		add	r3, r3, r2
 2463 00be 5B00     		lsls	r3, r3, #1
 2464 00c0 0B44     		add	r3, r3, r1
 2465 00c2 8033     		adds	r3, r3, #128
 2466 00c4 1B78     		ldrb	r3, [r3]	@ zero_extendqisi2
 2467              		.loc 1 586 75 discriminator 1
 2468 00c6 83F00103 		eor	r3, r3, #1
 2469 00ca DBB2     		uxtb	r3, r3
 2470              		.loc 1 586 44 discriminator 1
 2471 00cc 002B     		cmp	r3, #0
 2472 00ce 08D0     		beq	.L127
 587:C:/StellarStudio-7.0/SDKS/StellarESDK-1.7.0/Modules/Drivers/Timers/HRTIM/src\hrtim.c ****             hdp->hrtim->sTimerxRegs[timer].RSTx2R = event;
 2473              		.loc 1 587 16
 2474 00d0 039B     		ldr	r3, [sp, #12]
 2475 00d2 1A68     		ldr	r2, [r3]
 2476              		.loc 1 587 43
 2477 00d4 9DF80B30 		ldrb	r3, [sp, #11]	@ zero_extendqisi2
 2478              		.loc 1 587 51
 2479 00d8 DB01     		lsls	r3, r3, #7
 2480 00da 1344     		add	r3, r3, r2
 2481 00dc C833     		adds	r3, r3, #200
 2482 00de 019A     		ldr	r2, [sp, #4]
 2483 00e0 1A60     		str	r2, [r3]
 2484              	.L127:
 588:C:/StellarStudio-7.0/SDKS/StellarESDK-1.7.0/Modules/Drivers/Timers/HRTIM/src\hrtim.c ****         }
 589:C:/StellarStudio-7.0/SDKS/StellarESDK-1.7.0/Modules/Drivers/Timers/HRTIM/src\hrtim.c ****     }
 590:C:/StellarStudio-7.0/SDKS/StellarESDK-1.7.0/Modules/Drivers/Timers/HRTIM/src\hrtim.c ****     
 591:C:/StellarStudio-7.0/SDKS/StellarESDK-1.7.0/Modules/Drivers/Timers/HRTIM/src\hrtim.c ****     return prev_event;
 2485              		.loc 1 591 12
 2486 00e2 059B     		ldr	r3, [sp, #20]
 592:C:/StellarStudio-7.0/SDKS/StellarESDK-1.7.0/Modules/Drivers/Timers/HRTIM/src\hrtim.c **** }
 2487              		.loc 1 592 1
 2488 00e4 1846     		mov	r0, r3
 2489 00e6 06B0     		add	sp, sp, #24
 2490              		.cfi_def_cfa_offset 0
 2491              		@ sp needed
 2492 00e8 7047     		bx	lr
 2493              		.cfi_endproc
 2494              	.LFE169:
 2496              		.section	.text.hrtim_timer_clear_outputset,"ax",%progbits
 2497              		.align	1
 2498              		.p2align 4,,15
 2499              		.global	hrtim_timer_clear_outputset
 2500              		.syntax unified
 2501              		.thumb
 2502              		.thumb_func
 2504              	hrtim_timer_clear_outputset:
 2505              	.LFB170:
 593:C:/StellarStudio-7.0/SDKS/StellarESDK-1.7.0/Modules/Drivers/Timers/HRTIM/src\hrtim.c **** 
 594:C:/StellarStudio-7.0/SDKS/StellarESDK-1.7.0/Modules/Drivers/Timers/HRTIM/src\hrtim.c **** uint32_t hrtim_timer_clear_outputset(hrtim_driver_t *hdp,
 595:C:/StellarStudio-7.0/SDKS/StellarESDK-1.7.0/Modules/Drivers/Timers/HRTIM/src\hrtim.c ****                                      hrtim_timer_t timer,
 596:C:/StellarStudio-7.0/SDKS/StellarESDK-1.7.0/Modules/Drivers/Timers/HRTIM/src\hrtim.c ****                                      hrtim_out_t output,
 597:C:/StellarStudio-7.0/SDKS/StellarESDK-1.7.0/Modules/Drivers/Timers/HRTIM/src\hrtim.c ****                                      uint32_t event) {
 2506              		.loc 1 597 54
 2507              		.cfi_startproc
 2508              		@ args = 0, pretend = 0, frame = 24
 2509              		@ frame_needed = 0, uses_anonymous_args = 0
 2510              		@ link register save eliminated.
 2511 0000 86B0     		sub	sp, sp, #24
 2512              		.cfi_def_cfa_offset 24
 2513 0002 0390     		str	r0, [sp, #12]
 2514 0004 0193     		str	r3, [sp, #4]
 2515 0006 0B46     		mov	r3, r1
 2516 0008 8DF80B30 		strb	r3, [sp, #11]
 2517 000c 1346     		mov	r3, r2
 2518 000e 8DF80A30 		strb	r3, [sp, #10]
 598:C:/StellarStudio-7.0/SDKS/StellarESDK-1.7.0/Modules/Drivers/Timers/HRTIM/src\hrtim.c **** 
 599:C:/StellarStudio-7.0/SDKS/StellarESDK-1.7.0/Modules/Drivers/Timers/HRTIM/src\hrtim.c ****     uint32_t prev_event = hdp->set_event[timer][output];
 2519              		.loc 1 599 48
 2520 0012 9DF80B10 		ldrb	r1, [sp, #11]	@ zero_extendqisi2
 2521 0016 9DF80A30 		ldrb	r3, [sp, #10]	@ zero_extendqisi2
 2522              		.loc 1 599 14
 2523 001a 039A     		ldr	r2, [sp, #12]
 2524 001c 4900     		lsls	r1, r1, #1
 2525 001e 0B44     		add	r3, r3, r1
 2526 0020 2E33     		adds	r3, r3, #46
 2527 0022 9B00     		lsls	r3, r3, #2
 2528 0024 1344     		add	r3, r3, r2
 2529 0026 5B68     		ldr	r3, [r3, #4]
 2530 0028 0593     		str	r3, [sp, #20]
 600:C:/StellarStudio-7.0/SDKS/StellarESDK-1.7.0/Modules/Drivers/Timers/HRTIM/src\hrtim.c **** 
 601:C:/StellarStudio-7.0/SDKS/StellarESDK-1.7.0/Modules/Drivers/Timers/HRTIM/src\hrtim.c ****     if (output == HRTIM_TIMER_OUTPUT_1) {
 2531              		.loc 1 601 8
 2532 002a 9DF80A30 		ldrb	r3, [sp, #10]	@ zero_extendqisi2
 2533 002e 002B     		cmp	r3, #0
 2534 0030 18D1     		bne	.L131
 602:C:/StellarStudio-7.0/SDKS/StellarESDK-1.7.0/Modules/Drivers/Timers/HRTIM/src\hrtim.c ****         hdp->set_event[timer][output] &= ~(event);
 2535              		.loc 1 602 39
 2536 0032 9DF80B10 		ldrb	r1, [sp, #11]	@ zero_extendqisi2
 2537 0036 9DF80A30 		ldrb	r3, [sp, #10]	@ zero_extendqisi2
 2538 003a 039A     		ldr	r2, [sp, #12]
 2539 003c 4900     		lsls	r1, r1, #1
 2540 003e 0B44     		add	r3, r3, r1
 2541 0040 2E33     		adds	r3, r3, #46
 2542 0042 9B00     		lsls	r3, r3, #2
 2543 0044 1344     		add	r3, r3, r2
 2544 0046 5968     		ldr	r1, [r3, #4]
 2545              		.loc 1 602 42
 2546 0048 019B     		ldr	r3, [sp, #4]
 2547 004a DA43     		mvns	r2, r3
 2548              		.loc 1 602 39
 2549 004c 9DF80B00 		ldrb	r0, [sp, #11]	@ zero_extendqisi2
 2550 0050 9DF80A30 		ldrb	r3, [sp, #10]	@ zero_extendqisi2
 2551 0054 0A40     		ands	r2, r2, r1
 2552 0056 0399     		ldr	r1, [sp, #12]
 2553 0058 4000     		lsls	r0, r0, #1
 2554 005a 0344     		add	r3, r3, r0
 2555 005c 2E33     		adds	r3, r3, #46
 2556 005e 9B00     		lsls	r3, r3, #2
 2557 0060 0B44     		add	r3, r3, r1
 2558 0062 5A60     		str	r2, [r3, #4]
 2559              	.L131:
 603:C:/StellarStudio-7.0/SDKS/StellarESDK-1.7.0/Modules/Drivers/Timers/HRTIM/src\hrtim.c ****     }
 604:C:/StellarStudio-7.0/SDKS/StellarESDK-1.7.0/Modules/Drivers/Timers/HRTIM/src\hrtim.c **** 
 605:C:/StellarStudio-7.0/SDKS/StellarESDK-1.7.0/Modules/Drivers/Timers/HRTIM/src\hrtim.c ****     if (output == HRTIM_TIMER_OUTPUT_2 && hdp->deadtime[timer].enable == false) {
 2560              		.loc 1 605 8
 2561 0064 9DF80A30 		ldrb	r3, [sp, #10]	@ zero_extendqisi2
 2562 0068 012B     		cmp	r3, #1
 2563 006a 27D1     		bne	.L132
 2564              		.loc 1 605 63 discriminator 1
 2565 006c 9DF80B20 		ldrb	r2, [sp, #11]	@ zero_extendqisi2
 2566 0070 0399     		ldr	r1, [sp, #12]
 2567 0072 1346     		mov	r3, r2
 2568 0074 9B00     		lsls	r3, r3, #2
 2569 0076 1344     		add	r3, r3, r2
 2570 0078 5B00     		lsls	r3, r3, #1
 2571 007a 0B44     		add	r3, r3, r1
 2572 007c 8033     		adds	r3, r3, #128
 2573 007e 1B78     		ldrb	r3, [r3]	@ zero_extendqisi2
 2574              		.loc 1 605 71 discriminator 1
 2575 0080 83F00103 		eor	r3, r3, #1
 2576 0084 DBB2     		uxtb	r3, r3
 2577              		.loc 1 605 40 discriminator 1
 2578 0086 002B     		cmp	r3, #0
 2579 0088 18D0     		beq	.L132
 606:C:/StellarStudio-7.0/SDKS/StellarESDK-1.7.0/Modules/Drivers/Timers/HRTIM/src\hrtim.c ****         hdp->set_event[timer][output] &= ~(event);
 2580              		.loc 1 606 39
 2581 008a 9DF80B10 		ldrb	r1, [sp, #11]	@ zero_extendqisi2
 2582 008e 9DF80A30 		ldrb	r3, [sp, #10]	@ zero_extendqisi2
 2583 0092 039A     		ldr	r2, [sp, #12]
 2584 0094 4900     		lsls	r1, r1, #1
 2585 0096 0B44     		add	r3, r3, r1
 2586 0098 2E33     		adds	r3, r3, #46
 2587 009a 9B00     		lsls	r3, r3, #2
 2588 009c 1344     		add	r3, r3, r2
 2589 009e 5968     		ldr	r1, [r3, #4]
 2590              		.loc 1 606 42
 2591 00a0 019B     		ldr	r3, [sp, #4]
 2592 00a2 DA43     		mvns	r2, r3
 2593              		.loc 1 606 39
 2594 00a4 9DF80B00 		ldrb	r0, [sp, #11]	@ zero_extendqisi2
 2595 00a8 9DF80A30 		ldrb	r3, [sp, #10]	@ zero_extendqisi2
 2596 00ac 0A40     		ands	r2, r2, r1
 2597 00ae 0399     		ldr	r1, [sp, #12]
 2598 00b0 4000     		lsls	r0, r0, #1
 2599 00b2 0344     		add	r3, r3, r0
 2600 00b4 2E33     		adds	r3, r3, #46
 2601 00b6 9B00     		lsls	r3, r3, #2
 2602 00b8 0B44     		add	r3, r3, r1
 2603 00ba 5A60     		str	r2, [r3, #4]
 2604              	.L132:
 607:C:/StellarStudio-7.0/SDKS/StellarESDK-1.7.0/Modules/Drivers/Timers/HRTIM/src\hrtim.c ****     }
 608:C:/StellarStudio-7.0/SDKS/StellarESDK-1.7.0/Modules/Drivers/Timers/HRTIM/src\hrtim.c **** 
 609:C:/StellarStudio-7.0/SDKS/StellarESDK-1.7.0/Modules/Drivers/Timers/HRTIM/src\hrtim.c ****     /* Update on-fly.*/
 610:C:/StellarStudio-7.0/SDKS/StellarESDK-1.7.0/Modules/Drivers/Timers/HRTIM/src\hrtim.c ****     if (hdp->is_enable == true) {
 2605              		.loc 1 610 12
 2606 00bc 039B     		ldr	r3, [sp, #12]
 2607 00be 1B79     		ldrb	r3, [r3, #4]	@ zero_extendqisi2
 2608              		.loc 1 610 8
 2609 00c0 002B     		cmp	r3, #0
 2610 00c2 3CD0     		beq	.L133
 611:C:/StellarStudio-7.0/SDKS/StellarESDK-1.7.0/Modules/Drivers/Timers/HRTIM/src\hrtim.c ****         if (output == HRTIM_TIMER_OUTPUT_1) {
 2611              		.loc 1 611 12
 2612 00c4 9DF80A30 		ldrb	r3, [sp, #10]	@ zero_extendqisi2
 2613 00c8 002B     		cmp	r3, #0
 2614 00ca 12D1     		bne	.L134
 612:C:/StellarStudio-7.0/SDKS/StellarESDK-1.7.0/Modules/Drivers/Timers/HRTIM/src\hrtim.c ****             hdp->hrtim->sTimerxRegs[timer].SETx1R &= ~(event);
 2615              		.loc 1 612 16
 2616 00cc 039B     		ldr	r3, [sp, #12]
 2617 00ce 1A68     		ldr	r2, [r3]
 2618              		.loc 1 612 51
 2619 00d0 9DF80B30 		ldrb	r3, [sp, #11]	@ zero_extendqisi2
 2620 00d4 DB01     		lsls	r3, r3, #7
 2621 00d6 1344     		add	r3, r3, r2
 2622 00d8 BC33     		adds	r3, r3, #188
 2623 00da 1868     		ldr	r0, [r3]
 2624              		.loc 1 612 54
 2625 00dc 019B     		ldr	r3, [sp, #4]
 2626 00de DA43     		mvns	r2, r3
 2627              		.loc 1 612 16
 2628 00e0 039B     		ldr	r3, [sp, #12]
 2629 00e2 1968     		ldr	r1, [r3]
 2630              		.loc 1 612 51
 2631 00e4 9DF80B30 		ldrb	r3, [sp, #11]	@ zero_extendqisi2
 2632 00e8 0240     		ands	r2, r2, r0
 2633 00ea DB01     		lsls	r3, r3, #7
 2634 00ec 0B44     		add	r3, r3, r1
 2635 00ee BC33     		adds	r3, r3, #188
 2636 00f0 1A60     		str	r2, [r3]
 2637              	.L134:
 613:C:/StellarStudio-7.0/SDKS/StellarESDK-1.7.0/Modules/Drivers/Timers/HRTIM/src\hrtim.c ****         }
 614:C:/StellarStudio-7.0/SDKS/StellarESDK-1.7.0/Modules/Drivers/Timers/HRTIM/src\hrtim.c **** 
 615:C:/StellarStudio-7.0/SDKS/StellarESDK-1.7.0/Modules/Drivers/Timers/HRTIM/src\hrtim.c ****         if (output == HRTIM_TIMER_OUTPUT_2 && hdp->deadtime[timer].enable == false) {
 2638              		.loc 1 615 12
 2639 00f2 9DF80A30 		ldrb	r3, [sp, #10]	@ zero_extendqisi2
 2640 00f6 012B     		cmp	r3, #1
 2641 00f8 21D1     		bne	.L133
 2642              		.loc 1 615 67 discriminator 1
 2643 00fa 9DF80B20 		ldrb	r2, [sp, #11]	@ zero_extendqisi2
 2644 00fe 0399     		ldr	r1, [sp, #12]
 2645 0100 1346     		mov	r3, r2
 2646 0102 9B00     		lsls	r3, r3, #2
 2647 0104 1344     		add	r3, r3, r2
 2648 0106 5B00     		lsls	r3, r3, #1
 2649 0108 0B44     		add	r3, r3, r1
 2650 010a 8033     		adds	r3, r3, #128
 2651 010c 1B78     		ldrb	r3, [r3]	@ zero_extendqisi2
 2652              		.loc 1 615 75 discriminator 1
 2653 010e 83F00103 		eor	r3, r3, #1
 2654 0112 DBB2     		uxtb	r3, r3
 2655              		.loc 1 615 44 discriminator 1
 2656 0114 002B     		cmp	r3, #0
 2657 0116 12D0     		beq	.L133
 616:C:/StellarStudio-7.0/SDKS/StellarESDK-1.7.0/Modules/Drivers/Timers/HRTIM/src\hrtim.c ****             hdp->hrtim->sTimerxRegs[timer].SETx2R &= ~(event);
 2658              		.loc 1 616 16
 2659 0118 039B     		ldr	r3, [sp, #12]
 2660 011a 1A68     		ldr	r2, [r3]
 2661              		.loc 1 616 51
 2662 011c 9DF80B30 		ldrb	r3, [sp, #11]	@ zero_extendqisi2
 2663 0120 DB01     		lsls	r3, r3, #7
 2664 0122 1344     		add	r3, r3, r2
 2665 0124 C433     		adds	r3, r3, #196
 2666 0126 1868     		ldr	r0, [r3]
 2667              		.loc 1 616 54
 2668 0128 019B     		ldr	r3, [sp, #4]
 2669 012a DA43     		mvns	r2, r3
 2670              		.loc 1 616 16
 2671 012c 039B     		ldr	r3, [sp, #12]
 2672 012e 1968     		ldr	r1, [r3]
 2673              		.loc 1 616 51
 2674 0130 9DF80B30 		ldrb	r3, [sp, #11]	@ zero_extendqisi2
 2675 0134 0240     		ands	r2, r2, r0
 2676 0136 DB01     		lsls	r3, r3, #7
 2677 0138 0B44     		add	r3, r3, r1
 2678 013a C433     		adds	r3, r3, #196
 2679 013c 1A60     		str	r2, [r3]
 2680              	.L133:
 617:C:/StellarStudio-7.0/SDKS/StellarESDK-1.7.0/Modules/Drivers/Timers/HRTIM/src\hrtim.c ****         }
 618:C:/StellarStudio-7.0/SDKS/StellarESDK-1.7.0/Modules/Drivers/Timers/HRTIM/src\hrtim.c ****     }
 619:C:/StellarStudio-7.0/SDKS/StellarESDK-1.7.0/Modules/Drivers/Timers/HRTIM/src\hrtim.c **** 
 620:C:/StellarStudio-7.0/SDKS/StellarESDK-1.7.0/Modules/Drivers/Timers/HRTIM/src\hrtim.c ****     return prev_event;
 2681              		.loc 1 620 12
 2682 013e 059B     		ldr	r3, [sp, #20]
 621:C:/StellarStudio-7.0/SDKS/StellarESDK-1.7.0/Modules/Drivers/Timers/HRTIM/src\hrtim.c **** } 
 2683              		.loc 1 621 1
 2684 0140 1846     		mov	r0, r3
 2685 0142 06B0     		add	sp, sp, #24
 2686              		.cfi_def_cfa_offset 0
 2687              		@ sp needed
 2688 0144 7047     		bx	lr
 2689              		.cfi_endproc
 2690              	.LFE170:
 2692 0146 00BF     		.section	.text.hrtim_timer_clear_outputrst,"ax",%progbits
 2693              		.align	1
 2694              		.p2align 4,,15
 2695              		.global	hrtim_timer_clear_outputrst
 2696              		.syntax unified
 2697              		.thumb
 2698              		.thumb_func
 2700              	hrtim_timer_clear_outputrst:
 2701              	.LFB171:
 622:C:/StellarStudio-7.0/SDKS/StellarESDK-1.7.0/Modules/Drivers/Timers/HRTIM/src\hrtim.c **** 
 623:C:/StellarStudio-7.0/SDKS/StellarESDK-1.7.0/Modules/Drivers/Timers/HRTIM/src\hrtim.c **** uint32_t hrtim_timer_clear_outputrst(hrtim_driver_t *hdp,
 624:C:/StellarStudio-7.0/SDKS/StellarESDK-1.7.0/Modules/Drivers/Timers/HRTIM/src\hrtim.c ****                                      hrtim_timer_t timer,
 625:C:/StellarStudio-7.0/SDKS/StellarESDK-1.7.0/Modules/Drivers/Timers/HRTIM/src\hrtim.c ****                                      hrtim_out_t output,
 626:C:/StellarStudio-7.0/SDKS/StellarESDK-1.7.0/Modules/Drivers/Timers/HRTIM/src\hrtim.c ****                                      uint32_t event) {
 2702              		.loc 1 626 54
 2703              		.cfi_startproc
 2704              		@ args = 0, pretend = 0, frame = 24
 2705              		@ frame_needed = 0, uses_anonymous_args = 0
 2706              		@ link register save eliminated.
 2707 0000 86B0     		sub	sp, sp, #24
 2708              		.cfi_def_cfa_offset 24
 2709 0002 0390     		str	r0, [sp, #12]
 2710 0004 0193     		str	r3, [sp, #4]
 2711 0006 0B46     		mov	r3, r1
 2712 0008 8DF80B30 		strb	r3, [sp, #11]
 2713 000c 1346     		mov	r3, r2
 2714 000e 8DF80A30 		strb	r3, [sp, #10]
 627:C:/StellarStudio-7.0/SDKS/StellarESDK-1.7.0/Modules/Drivers/Timers/HRTIM/src\hrtim.c **** 
 628:C:/StellarStudio-7.0/SDKS/StellarESDK-1.7.0/Modules/Drivers/Timers/HRTIM/src\hrtim.c ****     uint32_t prev_event = hdp->rst_event[timer][output];
 2715              		.loc 1 628 48
 2716 0012 9DF80B10 		ldrb	r1, [sp, #11]	@ zero_extendqisi2
 2717 0016 9DF80A30 		ldrb	r3, [sp, #10]	@ zero_extendqisi2
 2718              		.loc 1 628 14
 2719 001a 039A     		ldr	r2, [sp, #12]
 2720 001c 4900     		lsls	r1, r1, #1
 2721 001e 0B44     		add	r3, r3, r1
 2722 0020 6E33     		adds	r3, r3, #110
 2723 0022 9B00     		lsls	r3, r3, #2
 2724 0024 1344     		add	r3, r3, r2
 2725 0026 5B68     		ldr	r3, [r3, #4]
 2726 0028 0593     		str	r3, [sp, #20]
 629:C:/StellarStudio-7.0/SDKS/StellarESDK-1.7.0/Modules/Drivers/Timers/HRTIM/src\hrtim.c **** 
 630:C:/StellarStudio-7.0/SDKS/StellarESDK-1.7.0/Modules/Drivers/Timers/HRTIM/src\hrtim.c ****     if(output == HRTIM_TIMER_OUTPUT_1) {
 2727              		.loc 1 630 7
 2728 002a 9DF80A30 		ldrb	r3, [sp, #10]	@ zero_extendqisi2
 2729 002e 002B     		cmp	r3, #0
 2730 0030 18D1     		bne	.L137
 631:C:/StellarStudio-7.0/SDKS/StellarESDK-1.7.0/Modules/Drivers/Timers/HRTIM/src\hrtim.c ****         hdp->rst_event[timer][output] &= ~(event);
 2731              		.loc 1 631 39
 2732 0032 9DF80B10 		ldrb	r1, [sp, #11]	@ zero_extendqisi2
 2733 0036 9DF80A30 		ldrb	r3, [sp, #10]	@ zero_extendqisi2
 2734 003a 039A     		ldr	r2, [sp, #12]
 2735 003c 4900     		lsls	r1, r1, #1
 2736 003e 0B44     		add	r3, r3, r1
 2737 0040 6E33     		adds	r3, r3, #110
 2738 0042 9B00     		lsls	r3, r3, #2
 2739 0044 1344     		add	r3, r3, r2
 2740 0046 5968     		ldr	r1, [r3, #4]
 2741              		.loc 1 631 42
 2742 0048 019B     		ldr	r3, [sp, #4]
 2743 004a DA43     		mvns	r2, r3
 2744              		.loc 1 631 39
 2745 004c 9DF80B00 		ldrb	r0, [sp, #11]	@ zero_extendqisi2
 2746 0050 9DF80A30 		ldrb	r3, [sp, #10]	@ zero_extendqisi2
 2747 0054 0A40     		ands	r2, r2, r1
 2748 0056 0399     		ldr	r1, [sp, #12]
 2749 0058 4000     		lsls	r0, r0, #1
 2750 005a 0344     		add	r3, r3, r0
 2751 005c 6E33     		adds	r3, r3, #110
 2752 005e 9B00     		lsls	r3, r3, #2
 2753 0060 0B44     		add	r3, r3, r1
 2754 0062 5A60     		str	r2, [r3, #4]
 2755              	.L137:
 632:C:/StellarStudio-7.0/SDKS/StellarESDK-1.7.0/Modules/Drivers/Timers/HRTIM/src\hrtim.c ****     }
 633:C:/StellarStudio-7.0/SDKS/StellarESDK-1.7.0/Modules/Drivers/Timers/HRTIM/src\hrtim.c **** 
 634:C:/StellarStudio-7.0/SDKS/StellarESDK-1.7.0/Modules/Drivers/Timers/HRTIM/src\hrtim.c ****     if (output == HRTIM_TIMER_OUTPUT_2 && hdp->deadtime[timer].enable == false) {
 2756              		.loc 1 634 8
 2757 0064 9DF80A30 		ldrb	r3, [sp, #10]	@ zero_extendqisi2
 2758 0068 012B     		cmp	r3, #1
 2759 006a 27D1     		bne	.L138
 2760              		.loc 1 634 63 discriminator 1
 2761 006c 9DF80B20 		ldrb	r2, [sp, #11]	@ zero_extendqisi2
 2762 0070 0399     		ldr	r1, [sp, #12]
 2763 0072 1346     		mov	r3, r2
 2764 0074 9B00     		lsls	r3, r3, #2
 2765 0076 1344     		add	r3, r3, r2
 2766 0078 5B00     		lsls	r3, r3, #1
 2767 007a 0B44     		add	r3, r3, r1
 2768 007c 8033     		adds	r3, r3, #128
 2769 007e 1B78     		ldrb	r3, [r3]	@ zero_extendqisi2
 2770              		.loc 1 634 71 discriminator 1
 2771 0080 83F00103 		eor	r3, r3, #1
 2772 0084 DBB2     		uxtb	r3, r3
 2773              		.loc 1 634 40 discriminator 1
 2774 0086 002B     		cmp	r3, #0
 2775 0088 18D0     		beq	.L138
 635:C:/StellarStudio-7.0/SDKS/StellarESDK-1.7.0/Modules/Drivers/Timers/HRTIM/src\hrtim.c ****         hdp->rst_event[timer][output] &= ~(event);
 2776              		.loc 1 635 39
 2777 008a 9DF80B10 		ldrb	r1, [sp, #11]	@ zero_extendqisi2
 2778 008e 9DF80A30 		ldrb	r3, [sp, #10]	@ zero_extendqisi2
 2779 0092 039A     		ldr	r2, [sp, #12]
 2780 0094 4900     		lsls	r1, r1, #1
 2781 0096 0B44     		add	r3, r3, r1
 2782 0098 6E33     		adds	r3, r3, #110
 2783 009a 9B00     		lsls	r3, r3, #2
 2784 009c 1344     		add	r3, r3, r2
 2785 009e 5968     		ldr	r1, [r3, #4]
 2786              		.loc 1 635 42
 2787 00a0 019B     		ldr	r3, [sp, #4]
 2788 00a2 DA43     		mvns	r2, r3
 2789              		.loc 1 635 39
 2790 00a4 9DF80B00 		ldrb	r0, [sp, #11]	@ zero_extendqisi2
 2791 00a8 9DF80A30 		ldrb	r3, [sp, #10]	@ zero_extendqisi2
 2792 00ac 0A40     		ands	r2, r2, r1
 2793 00ae 0399     		ldr	r1, [sp, #12]
 2794 00b0 4000     		lsls	r0, r0, #1
 2795 00b2 0344     		add	r3, r3, r0
 2796 00b4 6E33     		adds	r3, r3, #110
 2797 00b6 9B00     		lsls	r3, r3, #2
 2798 00b8 0B44     		add	r3, r3, r1
 2799 00ba 5A60     		str	r2, [r3, #4]
 2800              	.L138:
 636:C:/StellarStudio-7.0/SDKS/StellarESDK-1.7.0/Modules/Drivers/Timers/HRTIM/src\hrtim.c ****     }
 637:C:/StellarStudio-7.0/SDKS/StellarESDK-1.7.0/Modules/Drivers/Timers/HRTIM/src\hrtim.c **** 
 638:C:/StellarStudio-7.0/SDKS/StellarESDK-1.7.0/Modules/Drivers/Timers/HRTIM/src\hrtim.c ****     /* Update on-fly.*/
 639:C:/StellarStudio-7.0/SDKS/StellarESDK-1.7.0/Modules/Drivers/Timers/HRTIM/src\hrtim.c ****     if (hdp->is_enable == true) {
 2801              		.loc 1 639 12
 2802 00bc 039B     		ldr	r3, [sp, #12]
 2803 00be 1B79     		ldrb	r3, [r3, #4]	@ zero_extendqisi2
 2804              		.loc 1 639 8
 2805 00c0 002B     		cmp	r3, #0
 2806 00c2 3CD0     		beq	.L139
 640:C:/StellarStudio-7.0/SDKS/StellarESDK-1.7.0/Modules/Drivers/Timers/HRTIM/src\hrtim.c ****         if (output == HRTIM_TIMER_OUTPUT_1) {
 2807              		.loc 1 640 12
 2808 00c4 9DF80A30 		ldrb	r3, [sp, #10]	@ zero_extendqisi2
 2809 00c8 002B     		cmp	r3, #0
 2810 00ca 12D1     		bne	.L140
 641:C:/StellarStudio-7.0/SDKS/StellarESDK-1.7.0/Modules/Drivers/Timers/HRTIM/src\hrtim.c ****             hdp->hrtim->sTimerxRegs[timer].RSTx1R &= ~(event);
 2811              		.loc 1 641 16
 2812 00cc 039B     		ldr	r3, [sp, #12]
 2813 00ce 1A68     		ldr	r2, [r3]
 2814              		.loc 1 641 51
 2815 00d0 9DF80B30 		ldrb	r3, [sp, #11]	@ zero_extendqisi2
 2816 00d4 DB01     		lsls	r3, r3, #7
 2817 00d6 1344     		add	r3, r3, r2
 2818 00d8 C033     		adds	r3, r3, #192
 2819 00da 1868     		ldr	r0, [r3]
 2820              		.loc 1 641 54
 2821 00dc 019B     		ldr	r3, [sp, #4]
 2822 00de DA43     		mvns	r2, r3
 2823              		.loc 1 641 16
 2824 00e0 039B     		ldr	r3, [sp, #12]
 2825 00e2 1968     		ldr	r1, [r3]
 2826              		.loc 1 641 51
 2827 00e4 9DF80B30 		ldrb	r3, [sp, #11]	@ zero_extendqisi2
 2828 00e8 0240     		ands	r2, r2, r0
 2829 00ea DB01     		lsls	r3, r3, #7
 2830 00ec 0B44     		add	r3, r3, r1
 2831 00ee C033     		adds	r3, r3, #192
 2832 00f0 1A60     		str	r2, [r3]
 2833              	.L140:
 642:C:/StellarStudio-7.0/SDKS/StellarESDK-1.7.0/Modules/Drivers/Timers/HRTIM/src\hrtim.c ****         }
 643:C:/StellarStudio-7.0/SDKS/StellarESDK-1.7.0/Modules/Drivers/Timers/HRTIM/src\hrtim.c **** 
 644:C:/StellarStudio-7.0/SDKS/StellarESDK-1.7.0/Modules/Drivers/Timers/HRTIM/src\hrtim.c ****         if (output == HRTIM_TIMER_OUTPUT_2 && hdp->deadtime[timer].enable == false) {
 2834              		.loc 1 644 12
 2835 00f2 9DF80A30 		ldrb	r3, [sp, #10]	@ zero_extendqisi2
 2836 00f6 012B     		cmp	r3, #1
 2837 00f8 21D1     		bne	.L139
 2838              		.loc 1 644 67 discriminator 1
 2839 00fa 9DF80B20 		ldrb	r2, [sp, #11]	@ zero_extendqisi2
 2840 00fe 0399     		ldr	r1, [sp, #12]
 2841 0100 1346     		mov	r3, r2
 2842 0102 9B00     		lsls	r3, r3, #2
 2843 0104 1344     		add	r3, r3, r2
 2844 0106 5B00     		lsls	r3, r3, #1
 2845 0108 0B44     		add	r3, r3, r1
 2846 010a 8033     		adds	r3, r3, #128
 2847 010c 1B78     		ldrb	r3, [r3]	@ zero_extendqisi2
 2848              		.loc 1 644 75 discriminator 1
 2849 010e 83F00103 		eor	r3, r3, #1
 2850 0112 DBB2     		uxtb	r3, r3
 2851              		.loc 1 644 44 discriminator 1
 2852 0114 002B     		cmp	r3, #0
 2853 0116 12D0     		beq	.L139
 645:C:/StellarStudio-7.0/SDKS/StellarESDK-1.7.0/Modules/Drivers/Timers/HRTIM/src\hrtim.c ****             hdp->hrtim->sTimerxRegs[timer].RSTx2R &= ~(event);
 2854              		.loc 1 645 16
 2855 0118 039B     		ldr	r3, [sp, #12]
 2856 011a 1A68     		ldr	r2, [r3]
 2857              		.loc 1 645 51
 2858 011c 9DF80B30 		ldrb	r3, [sp, #11]	@ zero_extendqisi2
 2859 0120 DB01     		lsls	r3, r3, #7
 2860 0122 1344     		add	r3, r3, r2
 2861 0124 C833     		adds	r3, r3, #200
 2862 0126 1868     		ldr	r0, [r3]
 2863              		.loc 1 645 54
 2864 0128 019B     		ldr	r3, [sp, #4]
 2865 012a DA43     		mvns	r2, r3
 2866              		.loc 1 645 16
 2867 012c 039B     		ldr	r3, [sp, #12]
 2868 012e 1968     		ldr	r1, [r3]
 2869              		.loc 1 645 51
 2870 0130 9DF80B30 		ldrb	r3, [sp, #11]	@ zero_extendqisi2
 2871 0134 0240     		ands	r2, r2, r0
 2872 0136 DB01     		lsls	r3, r3, #7
 2873 0138 0B44     		add	r3, r3, r1
 2874 013a C833     		adds	r3, r3, #200
 2875 013c 1A60     		str	r2, [r3]
 2876              	.L139:
 646:C:/StellarStudio-7.0/SDKS/StellarESDK-1.7.0/Modules/Drivers/Timers/HRTIM/src\hrtim.c ****         }
 647:C:/StellarStudio-7.0/SDKS/StellarESDK-1.7.0/Modules/Drivers/Timers/HRTIM/src\hrtim.c ****     }
 648:C:/StellarStudio-7.0/SDKS/StellarESDK-1.7.0/Modules/Drivers/Timers/HRTIM/src\hrtim.c **** 
 649:C:/StellarStudio-7.0/SDKS/StellarESDK-1.7.0/Modules/Drivers/Timers/HRTIM/src\hrtim.c ****     return prev_event;
 2877              		.loc 1 649 12
 2878 013e 059B     		ldr	r3, [sp, #20]
 650:C:/StellarStudio-7.0/SDKS/StellarESDK-1.7.0/Modules/Drivers/Timers/HRTIM/src\hrtim.c **** }
 2879              		.loc 1 650 1
 2880 0140 1846     		mov	r0, r3
 2881 0142 06B0     		add	sp, sp, #24
 2882              		.cfi_def_cfa_offset 0
 2883              		@ sp needed
 2884 0144 7047     		bx	lr
 2885              		.cfi_endproc
 2886              	.LFE171:
 2888 0146 00BF     		.section	.text.hrtim_set_cb,"ax",%progbits
 2889              		.align	1
 2890              		.p2align 4,,15
 2891              		.global	hrtim_set_cb
 2892              		.syntax unified
 2893              		.thumb
 2894              		.thumb_func
 2896              	hrtim_set_cb:
 2897              	.LFB172:
 651:C:/StellarStudio-7.0/SDKS/StellarESDK-1.7.0/Modules/Drivers/Timers/HRTIM/src\hrtim.c **** 
 652:C:/StellarStudio-7.0/SDKS/StellarESDK-1.7.0/Modules/Drivers/Timers/HRTIM/src\hrtim.c **** hrtim_cb_t hrtim_set_cb(hrtim_driver_t *hdp, hrtim_cb_ops_t cb_op, 
 653:C:/StellarStudio-7.0/SDKS/StellarESDK-1.7.0/Modules/Drivers/Timers/HRTIM/src\hrtim.c ****                         hrtim_cb_t cb) {
 2898              		.loc 1 653 40
 2899              		.cfi_startproc
 2900              		@ args = 0, pretend = 0, frame = 24
 2901              		@ frame_needed = 0, uses_anonymous_args = 0
 2902              		@ link register save eliminated.
 2903 0000 86B0     		sub	sp, sp, #24
 2904              		.cfi_def_cfa_offset 24
 2905 0002 0390     		str	r0, [sp, #12]
 2906 0004 0B46     		mov	r3, r1
 2907 0006 0192     		str	r2, [sp, #4]
 2908 0008 8DF80B30 		strb	r3, [sp, #11]
 654:C:/StellarStudio-7.0/SDKS/StellarESDK-1.7.0/Modules/Drivers/Timers/HRTIM/src\hrtim.c **** 
 655:C:/StellarStudio-7.0/SDKS/StellarESDK-1.7.0/Modules/Drivers/Timers/HRTIM/src\hrtim.c ****     hrtim_cb_t prev_cb;
 656:C:/StellarStudio-7.0/SDKS/StellarESDK-1.7.0/Modules/Drivers/Timers/HRTIM/src\hrtim.c **** 
 657:C:/StellarStudio-7.0/SDKS/StellarESDK-1.7.0/Modules/Drivers/Timers/HRTIM/src\hrtim.c ****     if (cb_op == HRTIM_CB_MASTER) {
 2909              		.loc 1 657 8
 2910 000c 9DF80B30 		ldrb	r3, [sp, #11]	@ zero_extendqisi2
 2911 0010 062B     		cmp	r3, #6
 2912 0012 08D1     		bne	.L143
 658:C:/StellarStudio-7.0/SDKS/StellarESDK-1.7.0/Modules/Drivers/Timers/HRTIM/src\hrtim.c ****         prev_cb = hdp->cb_mt;
 2913              		.loc 1 658 17
 2914 0014 039B     		ldr	r3, [sp, #12]
 2915 0016 D3F8D432 		ldr	r3, [r3, #724]
 2916 001a 0593     		str	r3, [sp, #20]
 659:C:/StellarStudio-7.0/SDKS/StellarESDK-1.7.0/Modules/Drivers/Timers/HRTIM/src\hrtim.c ****         hdp->cb_mt = cb;
 2917              		.loc 1 659 20
 2918 001c 039B     		ldr	r3, [sp, #12]
 2919 001e 019A     		ldr	r2, [sp, #4]
 2920 0020 C3F8D422 		str	r2, [r3, #724]
 2921 0024 1CE0     		b	.L144
 2922              	.L143:
 660:C:/StellarStudio-7.0/SDKS/StellarESDK-1.7.0/Modules/Drivers/Timers/HRTIM/src\hrtim.c ****     } else if (cb_op == HRTIM_CB_FAULT) {
 2923              		.loc 1 660 15
 2924 0026 9DF80B30 		ldrb	r3, [sp, #11]	@ zero_extendqisi2
 2925 002a 072B     		cmp	r3, #7
 2926 002c 08D1     		bne	.L145
 661:C:/StellarStudio-7.0/SDKS/StellarESDK-1.7.0/Modules/Drivers/Timers/HRTIM/src\hrtim.c ****         prev_cb = hdp->cb_flt;
 2927              		.loc 1 661 17
 2928 002e 039B     		ldr	r3, [sp, #12]
 2929 0030 D3F8D832 		ldr	r3, [r3, #728]
 2930 0034 0593     		str	r3, [sp, #20]
 662:C:/StellarStudio-7.0/SDKS/StellarESDK-1.7.0/Modules/Drivers/Timers/HRTIM/src\hrtim.c ****         hdp->cb_flt = cb;
 2931              		.loc 1 662 21
 2932 0036 039B     		ldr	r3, [sp, #12]
 2933 0038 019A     		ldr	r2, [sp, #4]
 2934 003a C3F8D822 		str	r2, [r3, #728]
 2935 003e 0FE0     		b	.L144
 2936              	.L145:
 663:C:/StellarStudio-7.0/SDKS/StellarESDK-1.7.0/Modules/Drivers/Timers/HRTIM/src\hrtim.c ****     } else {
 664:C:/StellarStudio-7.0/SDKS/StellarESDK-1.7.0/Modules/Drivers/Timers/HRTIM/src\hrtim.c ****         prev_cb = hdp->cb[cb_op];
 2937              		.loc 1 664 26
 2938 0040 9DF80B30 		ldrb	r3, [sp, #11]	@ zero_extendqisi2
 2939              		.loc 1 664 17
 2940 0044 039A     		ldr	r2, [sp, #12]
 2941 0046 AE33     		adds	r3, r3, #174
 2942 0048 9B00     		lsls	r3, r3, #2
 2943 004a 1344     		add	r3, r3, r2
 2944 004c 5B68     		ldr	r3, [r3, #4]
 2945 004e 0593     		str	r3, [sp, #20]
 665:C:/StellarStudio-7.0/SDKS/StellarESDK-1.7.0/Modules/Drivers/Timers/HRTIM/src\hrtim.c ****         hdp->cb[cb_op] = cb;
 2946              		.loc 1 665 16
 2947 0050 9DF80B30 		ldrb	r3, [sp, #11]	@ zero_extendqisi2
 2948              		.loc 1 665 24
 2949 0054 039A     		ldr	r2, [sp, #12]
 2950 0056 AE33     		adds	r3, r3, #174
 2951 0058 9B00     		lsls	r3, r3, #2
 2952 005a 1344     		add	r3, r3, r2
 2953 005c 019A     		ldr	r2, [sp, #4]
 2954 005e 5A60     		str	r2, [r3, #4]
 2955              	.L144:
 666:C:/StellarStudio-7.0/SDKS/StellarESDK-1.7.0/Modules/Drivers/Timers/HRTIM/src\hrtim.c ****     }
 667:C:/StellarStudio-7.0/SDKS/StellarESDK-1.7.0/Modules/Drivers/Timers/HRTIM/src\hrtim.c **** 
 668:C:/StellarStudio-7.0/SDKS/StellarESDK-1.7.0/Modules/Drivers/Timers/HRTIM/src\hrtim.c ****     return prev_cb;
 2956              		.loc 1 668 12
 2957 0060 059B     		ldr	r3, [sp, #20]
 669:C:/StellarStudio-7.0/SDKS/StellarESDK-1.7.0/Modules/Drivers/Timers/HRTIM/src\hrtim.c **** }
 2958              		.loc 1 669 1
 2959 0062 1846     		mov	r0, r3
 2960 0064 06B0     		add	sp, sp, #24
 2961              		.cfi_def_cfa_offset 0
 2962              		@ sp needed
 2963 0066 7047     		bx	lr
 2964              		.cfi_endproc
 2965              	.LFE172:
 2967              		.section	.text.hrtim_start,"ax",%progbits
 2968              		.align	1
 2969              		.p2align 4,,15
 2970              		.global	hrtim_start
 2971              		.syntax unified
 2972              		.thumb
 2973              		.thumb_func
 2975              	hrtim_start:
 2976              	.LFB173:
 670:C:/StellarStudio-7.0/SDKS/StellarESDK-1.7.0/Modules/Drivers/Timers/HRTIM/src\hrtim.c **** 
 671:C:/StellarStudio-7.0/SDKS/StellarESDK-1.7.0/Modules/Drivers/Timers/HRTIM/src\hrtim.c **** void hrtim_start(hrtim_driver_t *hdp) {
 2977              		.loc 1 671 39
 2978              		.cfi_startproc
 2979              		@ args = 0, pretend = 0, frame = 64
 2980              		@ frame_needed = 0, uses_anonymous_args = 0
 2981 0000 30B5     		push	{r4, r5, lr}
 2982              		.cfi_def_cfa_offset 12
 2983              		.cfi_offset 4, -12
 2984              		.cfi_offset 5, -8
 2985              		.cfi_offset 14, -4
 2986 0002 91B0     		sub	sp, sp, #68
 2987              		.cfi_def_cfa_offset 80
 2988 0004 0190     		str	r0, [sp, #4]
 672:C:/StellarStudio-7.0/SDKS/StellarESDK-1.7.0/Modules/Drivers/Timers/HRTIM/src\hrtim.c **** 
 673:C:/StellarStudio-7.0/SDKS/StellarESDK-1.7.0/Modules/Drivers/Timers/HRTIM/src\hrtim.c ****     uint32_t cr, mstr_cr; 
 674:C:/StellarStudio-7.0/SDKS/StellarESDK-1.7.0/Modules/Drivers/Timers/HRTIM/src\hrtim.c ****     uint8_t i;
 675:C:/StellarStudio-7.0/SDKS/StellarESDK-1.7.0/Modules/Drivers/Timers/HRTIM/src\hrtim.c ****     uint8_t  eev_idx;
 676:C:/StellarStudio-7.0/SDKS/StellarESDK-1.7.0/Modules/Drivers/Timers/HRTIM/src\hrtim.c ****     uint32_t hrtim_cr1;
 677:C:/StellarStudio-7.0/SDKS/StellarESDK-1.7.0/Modules/Drivers/Timers/HRTIM/src\hrtim.c ****     uint32_t hrtim_adcur;
 678:C:/StellarStudio-7.0/SDKS/StellarESDK-1.7.0/Modules/Drivers/Timers/HRTIM/src\hrtim.c ****     uint32_t hrtim_eecr1;
 679:C:/StellarStudio-7.0/SDKS/StellarESDK-1.7.0/Modules/Drivers/Timers/HRTIM/src\hrtim.c ****     uint32_t hrtim_eecr2;
 680:C:/StellarStudio-7.0/SDKS/StellarESDK-1.7.0/Modules/Drivers/Timers/HRTIM/src\hrtim.c ****     uint32_t hrtim_eecr3;
 681:C:/StellarStudio-7.0/SDKS/StellarESDK-1.7.0/Modules/Drivers/Timers/HRTIM/src\hrtim.c ****     uint32_t hrtim_eefr3;
 682:C:/StellarStudio-7.0/SDKS/StellarESDK-1.7.0/Modules/Drivers/Timers/HRTIM/src\hrtim.c ****     uint32_t hrtim_fltinr1;
 683:C:/StellarStudio-7.0/SDKS/StellarESDK-1.7.0/Modules/Drivers/Timers/HRTIM/src\hrtim.c ****     uint32_t hrtim_fltinr2;
 684:C:/StellarStudio-7.0/SDKS/StellarESDK-1.7.0/Modules/Drivers/Timers/HRTIM/src\hrtim.c ****     uint32_t source0,source1;
 685:C:/StellarStudio-7.0/SDKS/StellarESDK-1.7.0/Modules/Drivers/Timers/HRTIM/src\hrtim.c ****     uint32_t idx;
 686:C:/StellarStudio-7.0/SDKS/StellarESDK-1.7.0/Modules/Drivers/Timers/HRTIM/src\hrtim.c **** 
 687:C:/StellarStudio-7.0/SDKS/StellarESDK-1.7.0/Modules/Drivers/Timers/HRTIM/src\hrtim.c ****     /* Enable clock.*/
 688:C:/StellarStudio-7.0/SDKS/StellarESDK-1.7.0/Modules/Drivers/Timers/HRTIM/src\hrtim.c ****     hrtim_dev_clock_enable(hdp);
 2989              		.loc 1 688 5
 2990 0006 0198     		ldr	r0, [sp, #4]
 2991 0008 FFF7FEFF 		bl	hrtim_dev_clock_enable
 689:C:/StellarStudio-7.0/SDKS/StellarESDK-1.7.0/Modules/Drivers/Timers/HRTIM/src\hrtim.c **** 
 690:C:/StellarStudio-7.0/SDKS/StellarESDK-1.7.0/Modules/Drivers/Timers/HRTIM/src\hrtim.c ****     /* Update enable status.*/
 691:C:/StellarStudio-7.0/SDKS/StellarESDK-1.7.0/Modules/Drivers/Timers/HRTIM/src\hrtim.c ****     hdp->is_enable = true;
 2992              		.loc 1 691 20
 2993 000c 019B     		ldr	r3, [sp, #4]
 2994 000e 0122     		movs	r2, #1
 2995 0010 1A71     		strb	r2, [r3, #4]
 692:C:/StellarStudio-7.0/SDKS/StellarESDK-1.7.0/Modules/Drivers/Timers/HRTIM/src\hrtim.c **** 
 693:C:/StellarStudio-7.0/SDKS/StellarESDK-1.7.0/Modules/Drivers/Timers/HRTIM/src\hrtim.c ****     /* Configure and enable interrupts.*/
 694:C:/StellarStudio-7.0/SDKS/StellarESDK-1.7.0/Modules/Drivers/Timers/HRTIM/src\hrtim.c ****     hrtim_dev_enable_irq(hdp, hdp->prio);
 2996              		.loc 1 694 5
 2997 0012 019B     		ldr	r3, [sp, #4]
 2998 0014 1B69     		ldr	r3, [r3, #16]
 2999 0016 1946     		mov	r1, r3
 3000 0018 0198     		ldr	r0, [sp, #4]
 3001 001a FFF7FEFF 		bl	hrtim_dev_enable_irq
 695:C:/StellarStudio-7.0/SDKS/StellarESDK-1.7.0/Modules/Drivers/Timers/HRTIM/src\hrtim.c **** 
 696:C:/StellarStudio-7.0/SDKS/StellarESDK-1.7.0/Modules/Drivers/Timers/HRTIM/src\hrtim.c ****     /* Setup calibration procedure and DLLC.*/
 697:C:/StellarStudio-7.0/SDKS/StellarESDK-1.7.0/Modules/Drivers/Timers/HRTIM/src\hrtim.c ****     hrtim_dev_calib_procedure(hdp);
 3002              		.loc 1 697 5
 3003 001e 0198     		ldr	r0, [sp, #4]
 3004 0020 FFF7FEFF 		bl	hrtim_dev_calib_procedure
 698:C:/StellarStudio-7.0/SDKS/StellarESDK-1.7.0/Modules/Drivers/Timers/HRTIM/src\hrtim.c **** 
 699:C:/StellarStudio-7.0/SDKS/StellarESDK-1.7.0/Modules/Drivers/Timers/HRTIM/src\hrtim.c ****     /* Timer settings.*/
 700:C:/StellarStudio-7.0/SDKS/StellarESDK-1.7.0/Modules/Drivers/Timers/HRTIM/src\hrtim.c ****     mstr_cr  = 0U;
 3005              		.loc 1 700 14
 3006 0024 0023     		movs	r3, #0
 3007 0026 0E93     		str	r3, [sp, #56]
 701:C:/StellarStudio-7.0/SDKS/StellarESDK-1.7.0/Modules/Drivers/Timers/HRTIM/src\hrtim.c **** 
 702:C:/StellarStudio-7.0/SDKS/StellarESDK-1.7.0/Modules/Drivers/Timers/HRTIM/src\hrtim.c ****     /* Mode-specific initializations.*/
 703:C:/StellarStudio-7.0/SDKS/StellarESDK-1.7.0/Modules/Drivers/Timers/HRTIM/src\hrtim.c ****     for (i = 0U; i < HRTIM_TIMER_NUM; i++) {
 3008              		.loc 1 703 12
 3009 0028 0023     		movs	r3, #0
 3010 002a 8DF83730 		strb	r3, [sp, #55]
 3011              		.loc 1 703 5
 3012 002e 00F00FBE 		b	.L148
 3013              	.L182:
 704:C:/StellarStudio-7.0/SDKS/StellarESDK-1.7.0/Modules/Drivers/Timers/HRTIM/src\hrtim.c ****         cr = 0U;
 3014              		.loc 1 704 12
 3015 0032 0023     		movs	r3, #0
 3016 0034 0F93     		str	r3, [sp, #60]
 705:C:/StellarStudio-7.0/SDKS/StellarESDK-1.7.0/Modules/Drivers/Timers/HRTIM/src\hrtim.c **** 
 706:C:/StellarStudio-7.0/SDKS/StellarESDK-1.7.0/Modules/Drivers/Timers/HRTIM/src\hrtim.c ****         switch (hdp->timer_cntr_mode[i]) {
 3017              		.loc 1 706 37
 3018 0036 9DF83730 		ldrb	r3, [sp, #55]	@ zero_extendqisi2
 3019 003a 019A     		ldr	r2, [sp, #4]
 3020 003c 1344     		add	r3, r3, r2
 3021 003e 93F82030 		ldrb	r3, [r3, #32]	@ zero_extendqisi2
 3022              		.loc 1 706 9
 3023 0042 022B     		cmp	r3, #2
 3024 0044 0BD0     		beq	.L149
 3025 0046 022B     		cmp	r3, #2
 3026 0048 0EDC     		bgt	.L259
 3027 004a 002B     		cmp	r3, #0
 3028 004c 0ED0     		beq	.L260
 3029 004e 012B     		cmp	r3, #1
 3030 0050 00D0     		beq	.L152
 707:C:/StellarStudio-7.0/SDKS/StellarESDK-1.7.0/Modules/Drivers/Timers/HRTIM/src\hrtim.c ****             case HRTIM_MODE_SINGLE_SHOT_NO_RETRIGGERED:
 708:C:/StellarStudio-7.0/SDKS/StellarESDK-1.7.0/Modules/Drivers/Timers/HRTIM/src\hrtim.c ****                 break;
 709:C:/StellarStudio-7.0/SDKS/StellarESDK-1.7.0/Modules/Drivers/Timers/HRTIM/src\hrtim.c ****             case HRTIM_MODE_SINGLE_SHOT_RETRIGGERED:
 710:C:/StellarStudio-7.0/SDKS/StellarESDK-1.7.0/Modules/Drivers/Timers/HRTIM/src\hrtim.c ****                 cr |= HRTIM_TIMxCR_RETRIG;
 711:C:/StellarStudio-7.0/SDKS/StellarESDK-1.7.0/Modules/Drivers/Timers/HRTIM/src\hrtim.c ****                 break;
 712:C:/StellarStudio-7.0/SDKS/StellarESDK-1.7.0/Modules/Drivers/Timers/HRTIM/src\hrtim.c ****             case HRTIM_MODE_CONTINUOS:
 713:C:/StellarStudio-7.0/SDKS/StellarESDK-1.7.0/Modules/Drivers/Timers/HRTIM/src\hrtim.c ****                 cr |= HRTIM_TIMxCR_CONT;
 714:C:/StellarStudio-7.0/SDKS/StellarESDK-1.7.0/Modules/Drivers/Timers/HRTIM/src\hrtim.c ****                 break;
 715:C:/StellarStudio-7.0/SDKS/StellarESDK-1.7.0/Modules/Drivers/Timers/HRTIM/src\hrtim.c ****             default:
 716:C:/StellarStudio-7.0/SDKS/StellarESDK-1.7.0/Modules/Drivers/Timers/HRTIM/src\hrtim.c ****                 /* for MISRA compliance */
 717:C:/StellarStudio-7.0/SDKS/StellarESDK-1.7.0/Modules/Drivers/Timers/HRTIM/src\hrtim.c ****                 break;
 3031              		.loc 1 717 17
 3032 0052 09E0     		b	.L259
 3033              	.L152:
 710:C:/StellarStudio-7.0/SDKS/StellarESDK-1.7.0/Modules/Drivers/Timers/HRTIM/src\hrtim.c ****                 break;
 3034              		.loc 1 710 20
 3035 0054 0F9B     		ldr	r3, [sp, #60]
 3036 0056 43F01003 		orr	r3, r3, #16
 3037 005a 0F93     		str	r3, [sp, #60]
 711:C:/StellarStudio-7.0/SDKS/StellarESDK-1.7.0/Modules/Drivers/Timers/HRTIM/src\hrtim.c ****             case HRTIM_MODE_CONTINUOS:
 3038              		.loc 1 711 17
 3039 005c 07E0     		b	.L153
 3040              	.L149:
 713:C:/StellarStudio-7.0/SDKS/StellarESDK-1.7.0/Modules/Drivers/Timers/HRTIM/src\hrtim.c ****                 break;
 3041              		.loc 1 713 20
 3042 005e 0F9B     		ldr	r3, [sp, #60]
 3043 0060 43F00803 		orr	r3, r3, #8
 3044 0064 0F93     		str	r3, [sp, #60]
 714:C:/StellarStudio-7.0/SDKS/StellarESDK-1.7.0/Modules/Drivers/Timers/HRTIM/src\hrtim.c ****             default:
 3045              		.loc 1 714 17
 3046 0066 02E0     		b	.L153
 3047              	.L259:
 3048              		.loc 1 717 17
 3049 0068 00BF     		nop
 3050 006a 00E0     		b	.L153
 3051              	.L260:
 708:C:/StellarStudio-7.0/SDKS/StellarESDK-1.7.0/Modules/Drivers/Timers/HRTIM/src\hrtim.c ****             case HRTIM_MODE_SINGLE_SHOT_RETRIGGERED:
 3052              		.loc 1 708 17
 3053 006c 00BF     		nop
 3054              	.L153:
 718:C:/StellarStudio-7.0/SDKS/StellarESDK-1.7.0/Modules/Drivers/Timers/HRTIM/src\hrtim.c ****         }
 719:C:/StellarStudio-7.0/SDKS/StellarESDK-1.7.0/Modules/Drivers/Timers/HRTIM/src\hrtim.c **** 
 720:C:/StellarStudio-7.0/SDKS/StellarESDK-1.7.0/Modules/Drivers/Timers/HRTIM/src\hrtim.c ****         switch (hdp->timer_mode_tpg[i]) {
 3055              		.loc 1 720 36
 3056 006e 9DF83730 		ldrb	r3, [sp, #55]	@ zero_extendqisi2
 3057 0072 019A     		ldr	r2, [sp, #4]
 3058 0074 1344     		add	r3, r3, r2
 3059 0076 93F8D033 		ldrb	r3, [r3, #976]	@ zero_extendqisi2
 3060              		.loc 1 720 9
 3061 007a 042B     		cmp	r3, #4
 3062 007c 2DD8     		bhi	.L261
 3063 007e 01A2     		adr	r2, .L156
 3064 0080 52F823F0 		ldr	pc, [r2, r3, lsl #2]
 3065              		.p2align 2
 3066              	.L156:
 3067 0084 99000000 		.word	.L160+1
 3068 0088 A3000000 		.word	.L159+1
 3069 008c B5000000 		.word	.L158+1
 3070 0090 C7000000 		.word	.L157+1
 3071 0094 D1000000 		.word	.L155+1
 3072              		.p2align 1
 3073              	.L160:
 721:C:/StellarStudio-7.0/SDKS/StellarESDK-1.7.0/Modules/Drivers/Timers/HRTIM/src\hrtim.c ****             case HRTIM_MODE_HALF_INTLVD_DISABLED:
 722:C:/StellarStudio-7.0/SDKS/StellarESDK-1.7.0/Modules/Drivers/Timers/HRTIM/src\hrtim.c ****                 cr &= ~(HRTIM_TIMxCR_HALF     |
 3074              		.loc 1 722 20
 3075 0098 0F9B     		ldr	r3, [sp, #60]
 3076 009a 23F4D073 		bic	r3, r3, #416
 3077 009e 0F93     		str	r3, [sp, #60]
 723:C:/StellarStudio-7.0/SDKS/StellarESDK-1.7.0/Modules/Drivers/Timers/HRTIM/src\hrtim.c ****                         HRTIM_TIMxCR_INTLVD_0 |
 724:C:/StellarStudio-7.0/SDKS/StellarESDK-1.7.0/Modules/Drivers/Timers/HRTIM/src\hrtim.c ****                         HRTIM_TIMxCR_INTLVD_1);
 725:C:/StellarStudio-7.0/SDKS/StellarESDK-1.7.0/Modules/Drivers/Timers/HRTIM/src\hrtim.c ****                 break;
 3078              		.loc 1 725 17
 3079 00a0 1CE0     		b	.L161
 3080              	.L159:
 726:C:/StellarStudio-7.0/SDKS/StellarESDK-1.7.0/Modules/Drivers/Timers/HRTIM/src\hrtim.c ****             case HRTIM_MODE_TRIPLE_INTERVALLED:
 727:C:/StellarStudio-7.0/SDKS/StellarESDK-1.7.0/Modules/Drivers/Timers/HRTIM/src\hrtim.c ****                 cr &= ~(HRTIM_TIMxCR_HALF);
 3081              		.loc 1 727 20
 3082 00a2 0F9B     		ldr	r3, [sp, #60]
 3083 00a4 23F02003 		bic	r3, r3, #32
 3084 00a8 0F93     		str	r3, [sp, #60]
 728:C:/StellarStudio-7.0/SDKS/StellarESDK-1.7.0/Modules/Drivers/Timers/HRTIM/src\hrtim.c ****                 cr |= HRTIM_TIMxCR_INTLVD_0;
 3085              		.loc 1 728 20
 3086 00aa 0F9B     		ldr	r3, [sp, #60]
 3087 00ac 43F08003 		orr	r3, r3, #128
 3088 00b0 0F93     		str	r3, [sp, #60]
 729:C:/StellarStudio-7.0/SDKS/StellarESDK-1.7.0/Modules/Drivers/Timers/HRTIM/src\hrtim.c ****                 break;
 3089              		.loc 1 729 17
 3090 00b2 13E0     		b	.L161
 3091              	.L158:
 730:C:/StellarStudio-7.0/SDKS/StellarESDK-1.7.0/Modules/Drivers/Timers/HRTIM/src\hrtim.c ****             case HRTIM_MODE_QUAD_INTERVALLED:
 731:C:/StellarStudio-7.0/SDKS/StellarESDK-1.7.0/Modules/Drivers/Timers/HRTIM/src\hrtim.c ****                 cr &= ~(HRTIM_TIMxCR_HALF);
 3092              		.loc 1 731 20
 3093 00b4 0F9B     		ldr	r3, [sp, #60]
 3094 00b6 23F02003 		bic	r3, r3, #32
 3095 00ba 0F93     		str	r3, [sp, #60]
 732:C:/StellarStudio-7.0/SDKS/StellarESDK-1.7.0/Modules/Drivers/Timers/HRTIM/src\hrtim.c ****                 cr |= HRTIM_TIMxCR_INTLVD_1;
 3096              		.loc 1 732 20
 3097 00bc 0F9B     		ldr	r3, [sp, #60]
 3098 00be 43F48073 		orr	r3, r3, #256
 3099 00c2 0F93     		str	r3, [sp, #60]
 733:C:/StellarStudio-7.0/SDKS/StellarESDK-1.7.0/Modules/Drivers/Timers/HRTIM/src\hrtim.c ****                 break;
 3100              		.loc 1 733 17
 3101 00c4 0AE0     		b	.L161
 3102              	.L157:
 734:C:/StellarStudio-7.0/SDKS/StellarESDK-1.7.0/Modules/Drivers/Timers/HRTIM/src\hrtim.c ****             case HRTIM_MODE_DUAL_INTERVALLED:
 735:C:/StellarStudio-7.0/SDKS/StellarESDK-1.7.0/Modules/Drivers/Timers/HRTIM/src\hrtim.c ****                 cr |= HRTIM_TIMxCR_HALF;
 3103              		.loc 1 735 20
 3104 00c6 0F9B     		ldr	r3, [sp, #60]
 3105 00c8 43F02003 		orr	r3, r3, #32
 3106 00cc 0F93     		str	r3, [sp, #60]
 736:C:/StellarStudio-7.0/SDKS/StellarESDK-1.7.0/Modules/Drivers/Timers/HRTIM/src\hrtim.c ****                 break;
 3107              		.loc 1 736 17
 3108 00ce 05E0     		b	.L161
 3109              	.L155:
 737:C:/StellarStudio-7.0/SDKS/StellarESDK-1.7.0/Modules/Drivers/Timers/HRTIM/src\hrtim.c ****             case HRTIM_MODE_HALF:
 738:C:/StellarStudio-7.0/SDKS/StellarESDK-1.7.0/Modules/Drivers/Timers/HRTIM/src\hrtim.c ****                 cr |= HRTIM_TIMxCR_HALF;
 3110              		.loc 1 738 20
 3111 00d0 0F9B     		ldr	r3, [sp, #60]
 3112 00d2 43F02003 		orr	r3, r3, #32
 3113 00d6 0F93     		str	r3, [sp, #60]
 739:C:/StellarStudio-7.0/SDKS/StellarESDK-1.7.0/Modules/Drivers/Timers/HRTIM/src\hrtim.c ****                 break;
 3114              		.loc 1 739 17
 3115 00d8 00E0     		b	.L161
 3116              	.L261:
 740:C:/StellarStudio-7.0/SDKS/StellarESDK-1.7.0/Modules/Drivers/Timers/HRTIM/src\hrtim.c ****             default:
 741:C:/StellarStudio-7.0/SDKS/StellarESDK-1.7.0/Modules/Drivers/Timers/HRTIM/src\hrtim.c ****                 /* for MISRA compliance */
 742:C:/StellarStudio-7.0/SDKS/StellarESDK-1.7.0/Modules/Drivers/Timers/HRTIM/src\hrtim.c ****                 break;
 3117              		.loc 1 742 17
 3118 00da 00BF     		nop
 3119              	.L161:
 743:C:/StellarStudio-7.0/SDKS/StellarESDK-1.7.0/Modules/Drivers/Timers/HRTIM/src\hrtim.c ****         }
 744:C:/StellarStudio-7.0/SDKS/StellarESDK-1.7.0/Modules/Drivers/Timers/HRTIM/src\hrtim.c **** 
 745:C:/StellarStudio-7.0/SDKS/StellarESDK-1.7.0/Modules/Drivers/Timers/HRTIM/src\hrtim.c ****         /* Configure comparator auto-delayes modes.*/
 746:C:/StellarStudio-7.0/SDKS/StellarESDK-1.7.0/Modules/Drivers/Timers/HRTIM/src\hrtim.c ****         cr |= ((uint32_t)hdp->timer_cmp_ad_mode[i][HRTIM_CMP2]) << HRTIM_TIMxCR_DELCMP2_Pos |
 3120              		.loc 1 746 51
 3121 00dc 9DF83730 		ldrb	r3, [sp, #55]	@ zero_extendqisi2
 3122 00e0 019A     		ldr	r2, [sp, #4]
 3123 00e2 9B00     		lsls	r3, r3, #2
 3124 00e4 1344     		add	r3, r3, r2
 3125 00e6 93F86930 		ldrb	r3, [r3, #105]	@ zero_extendqisi2
 3126              		.loc 1 746 65
 3127 00ea 1A03     		lsls	r2, r3, #12
 747:C:/StellarStudio-7.0/SDKS/StellarESDK-1.7.0/Modules/Drivers/Timers/HRTIM/src\hrtim.c ****               ((uint32_t)hdp->timer_cmp_ad_mode[i][HRTIM_CMP4]) << HRTIM_TIMxCR_DELCMP4_Pos;
 3128              		.loc 1 747 51
 3129 00ec 9DF83730 		ldrb	r3, [sp, #55]	@ zero_extendqisi2
 3130 00f0 0199     		ldr	r1, [sp, #4]
 3131 00f2 9B00     		lsls	r3, r3, #2
 3132 00f4 0B44     		add	r3, r3, r1
 3133 00f6 93F86B30 		ldrb	r3, [r3, #107]	@ zero_extendqisi2
 3134              		.loc 1 747 65
 3135 00fa 9B03     		lsls	r3, r3, #14
 746:C:/StellarStudio-7.0/SDKS/StellarESDK-1.7.0/Modules/Drivers/Timers/HRTIM/src\hrtim.c ****               ((uint32_t)hdp->timer_cmp_ad_mode[i][HRTIM_CMP4]) << HRTIM_TIMxCR_DELCMP4_Pos;
 3136              		.loc 1 746 93
 3137 00fc 1343     		orrs	r3, r3, r2
 746:C:/StellarStudio-7.0/SDKS/StellarESDK-1.7.0/Modules/Drivers/Timers/HRTIM/src\hrtim.c ****               ((uint32_t)hdp->timer_cmp_ad_mode[i][HRTIM_CMP4]) << HRTIM_TIMxCR_DELCMP4_Pos;
 3138              		.loc 1 746 12
 3139 00fe 0F9A     		ldr	r2, [sp, #60]
 3140 0100 1343     		orrs	r3, r3, r2
 3141 0102 0F93     		str	r3, [sp, #60]
 748:C:/StellarStudio-7.0/SDKS/StellarESDK-1.7.0/Modules/Drivers/Timers/HRTIM/src\hrtim.c **** 
 749:C:/StellarStudio-7.0/SDKS/StellarESDK-1.7.0/Modules/Drivers/Timers/HRTIM/src\hrtim.c ****         hdp->hrtim->sTimerxRegs[i].EEFxR1 = 0U;
 3142              		.loc 1 749 12
 3143 0104 019B     		ldr	r3, [sp, #4]
 3144 0106 1A68     		ldr	r2, [r3]
 3145              		.loc 1 749 35
 3146 0108 9DF83730 		ldrb	r3, [sp, #55]	@ zero_extendqisi2
 3147              		.loc 1 749 43
 3148 010c DB01     		lsls	r3, r3, #7
 3149 010e 1344     		add	r3, r3, r2
 3150 0110 CC33     		adds	r3, r3, #204
 3151 0112 0022     		movs	r2, #0
 3152 0114 1A60     		str	r2, [r3]
 750:C:/StellarStudio-7.0/SDKS/StellarESDK-1.7.0/Modules/Drivers/Timers/HRTIM/src\hrtim.c ****         hdp->hrtim->sTimerxRegs[i].EEFxR2 = 0U;
 3153              		.loc 1 750 12
 3154 0116 019B     		ldr	r3, [sp, #4]
 3155 0118 1A68     		ldr	r2, [r3]
 3156              		.loc 1 750 35
 3157 011a 9DF83730 		ldrb	r3, [sp, #55]	@ zero_extendqisi2
 3158              		.loc 1 750 43
 3159 011e DB01     		lsls	r3, r3, #7
 3160 0120 1344     		add	r3, r3, r2
 3161 0122 D033     		adds	r3, r3, #208
 3162 0124 0022     		movs	r2, #0
 3163 0126 1A60     		str	r2, [r3]
 751:C:/StellarStudio-7.0/SDKS/StellarESDK-1.7.0/Modules/Drivers/Timers/HRTIM/src\hrtim.c ****         hdp->hrtim->sTimerxRegs[i].EEFxR3 = 0U;
 3164              		.loc 1 751 12
 3165 0128 019B     		ldr	r3, [sp, #4]
 3166 012a 1A68     		ldr	r2, [r3]
 3167              		.loc 1 751 35
 3168 012c 9DF83730 		ldrb	r3, [sp, #55]	@ zero_extendqisi2
 3169              		.loc 1 751 43
 3170 0130 DB01     		lsls	r3, r3, #7
 3171 0132 1344     		add	r3, r3, r2
 3172 0134 F033     		adds	r3, r3, #240
 3173 0136 0022     		movs	r2, #0
 3174 0138 1A60     		str	r2, [r3]
 752:C:/StellarStudio-7.0/SDKS/StellarESDK-1.7.0/Modules/Drivers/Timers/HRTIM/src\hrtim.c ****         for (eev_idx = 1U; eev_idx <= HRTIM_EXEVENT_NUM; eev_idx++) {
 3175              		.loc 1 752 22
 3176 013a 0123     		movs	r3, #1
 3177 013c 8DF83630 		strb	r3, [sp, #54]
 3178              		.loc 1 752 9
 3179 0140 55E3     		b	.L162
 3180              	.L177:
 753:C:/StellarStudio-7.0/SDKS/StellarESDK-1.7.0/Modules/Drivers/Timers/HRTIM/src\hrtim.c ****             /* Configure timer event filtering capabilities */
 754:C:/StellarStudio-7.0/SDKS/StellarESDK-1.7.0/Modules/Drivers/Timers/HRTIM/src\hrtim.c ****             switch (eev_idx) {
 3181              		.loc 1 754 13
 3182 0142 9DF83630 		ldrb	r3, [sp, #54]	@ zero_extendqisi2
 3183 0146 013B     		subs	r3, r3, #1
 3184 0148 092B     		cmp	r3, #9
 3185 014a 00F2C982 		bhi	.L262
 3186 014e 01A2     		adr	r2, .L165
 3187 0150 52F823F0 		ldr	pc, [r2, r3, lsl #2]
 3188              		.p2align 2
 3189              	.L165:
 3190 0154 7D010000 		.word	.L174+1
 3191 0158 07020000 		.word	.L173+1
 3192 015c 91020000 		.word	.L172+1
 3193 0160 1B030000 		.word	.L171+1
 3194 0164 A5030000 		.word	.L170+1
 3195 0168 2F040000 		.word	.L169+1
 3196 016c B9040000 		.word	.L168+1
 3197 0170 43050000 		.word	.L167+1
 3198 0174 CD050000 		.word	.L166+1
 3199 0178 57060000 		.word	.L164+1
 3200              		.p2align 1
 3201              	.L174:
 755:C:/StellarStudio-7.0/SDKS/StellarESDK-1.7.0/Modules/Drivers/Timers/HRTIM/src\hrtim.c ****                 case HRTIM_EVENT_1:
 756:C:/StellarStudio-7.0/SDKS/StellarESDK-1.7.0/Modules/Drivers/Timers/HRTIM/src\hrtim.c ****                     hdp->hrtim->sTimerxRegs[i].EEFxR1 &= ~( HRTIM_EEFxR1_EE1LTCH| HRTIM_EEFxR1_EE1F
 3202              		.loc 1 756 24
 3203 017c 019B     		ldr	r3, [sp, #4]
 3204 017e 1A68     		ldr	r2, [r3]
 3205              		.loc 1 756 55
 3206 0180 9DF83730 		ldrb	r3, [sp, #55]	@ zero_extendqisi2
 3207 0184 DB01     		lsls	r3, r3, #7
 3208 0186 1344     		add	r3, r3, r2
 3209 0188 CC33     		adds	r3, r3, #204
 3210 018a 1A68     		ldr	r2, [r3]
 3211              		.loc 1 756 24
 3212 018c 019B     		ldr	r3, [sp, #4]
 3213 018e 1968     		ldr	r1, [r3]
 3214              		.loc 1 756 55
 3215 0190 9DF83730 		ldrb	r3, [sp, #55]	@ zero_extendqisi2
 3216 0194 22F01F02 		bic	r2, r2, #31
 3217 0198 DB01     		lsls	r3, r3, #7
 3218 019a 0B44     		add	r3, r3, r1
 3219 019c CC33     		adds	r3, r3, #204
 3220 019e 1A60     		str	r2, [r3]
 757:C:/StellarStudio-7.0/SDKS/StellarESDK-1.7.0/Modules/Drivers/Timers/HRTIM/src\hrtim.c ****                     hdp->hrtim->sTimerxRegs[i].EEFxR1 |= (uint32_t)(hdp->timer_eev_filter[i][eev_id
 3221              		.loc 1 757 24
 3222 01a0 019B     		ldr	r3, [sp, #4]
 3223 01a2 1A68     		ldr	r2, [r3]
 3224              		.loc 1 757 55
 3225 01a4 9DF83730 		ldrb	r3, [sp, #55]	@ zero_extendqisi2
 3226 01a8 DB01     		lsls	r3, r3, #7
 3227 01aa 1344     		add	r3, r3, r2
 3228 01ac CC33     		adds	r3, r3, #204
 3229 01ae 1868     		ldr	r0, [r3]
 3230              		.loc 1 757 107
 3231 01b0 9DF83720 		ldrb	r2, [sp, #55]	@ zero_extendqisi2
 3232              		.loc 1 757 102
 3233 01b4 9DF83630 		ldrb	r3, [sp, #54]	@ zero_extendqisi2
 3234 01b8 5C1E     		subs	r4, r3, #1
 3235              		.loc 1 757 107
 3236 01ba 0199     		ldr	r1, [sp, #4]
 3237 01bc 1346     		mov	r3, r2
 3238 01be 9B00     		lsls	r3, r3, #2
 3239 01c0 1344     		add	r3, r3, r2
 3240 01c2 5B00     		lsls	r3, r3, #1
 3241 01c4 2344     		add	r3, r3, r4
 3242 01c6 03F58073 		add	r3, r3, #256
 3243 01ca DB00     		lsls	r3, r3, #3
 3244 01cc 0B44     		add	r3, r3, r1
 3245 01ce 5968     		ldr	r1, [r3, #4]
 3246              		.loc 1 757 154
 3247 01d0 9DF83720 		ldrb	r2, [sp, #55]	@ zero_extendqisi2
 3248              		.loc 1 757 149
 3249 01d4 9DF83630 		ldrb	r3, [sp, #54]	@ zero_extendqisi2
 3250 01d8 5D1E     		subs	r5, r3, #1
 3251              		.loc 1 757 154
 3252 01da 019C     		ldr	r4, [sp, #4]
 3253 01dc 1346     		mov	r3, r2
 3254 01de 9B00     		lsls	r3, r3, #2
 3255 01e0 1344     		add	r3, r3, r2
 3256 01e2 5B00     		lsls	r3, r3, #1
 3257 01e4 2B44     		add	r3, r3, r5
 3258 01e6 03F58073 		add	r3, r3, #256
 3259 01ea 54F83330 		ldr	r3, [r4, r3, lsl #3]
 3260              		.loc 1 757 114
 3261 01ee 41EA0302 		orr	r2, r1, r3
 3262              		.loc 1 757 24
 3263 01f2 019B     		ldr	r3, [sp, #4]
 3264 01f4 1968     		ldr	r1, [r3]
 3265              		.loc 1 757 55
 3266 01f6 9DF83730 		ldrb	r3, [sp, #55]	@ zero_extendqisi2
 3267 01fa 0243     		orrs	r2, r2, r0
 3268 01fc DB01     		lsls	r3, r3, #7
 3269 01fe 0B44     		add	r3, r3, r1
 3270 0200 CC33     		adds	r3, r3, #204
 3271 0202 1A60     		str	r2, [r3]
 758:C:/StellarStudio-7.0/SDKS/StellarESDK-1.7.0/Modules/Drivers/Timers/HRTIM/src\hrtim.c ****                     break;
 3272              		.loc 1 758 21
 3273 0204 6DE2     		b	.L175
 3274              	.L173:
 759:C:/StellarStudio-7.0/SDKS/StellarESDK-1.7.0/Modules/Drivers/Timers/HRTIM/src\hrtim.c ****                 case HRTIM_EVENT_2:
 760:C:/StellarStudio-7.0/SDKS/StellarESDK-1.7.0/Modules/Drivers/Timers/HRTIM/src\hrtim.c ****                     hdp->hrtim->sTimerxRegs[i].EEFxR1 &= ~( HRTIM_EEFxR1_EE2LTCH| HRTIM_EEFxR1_EE2F
 3275              		.loc 1 760 24
 3276 0206 019B     		ldr	r3, [sp, #4]
 3277 0208 1A68     		ldr	r2, [r3]
 3278              		.loc 1 760 55
 3279 020a 9DF83730 		ldrb	r3, [sp, #55]	@ zero_extendqisi2
 3280 020e DB01     		lsls	r3, r3, #7
 3281 0210 1344     		add	r3, r3, r2
 3282 0212 CC33     		adds	r3, r3, #204
 3283 0214 1A68     		ldr	r2, [r3]
 3284              		.loc 1 760 24
 3285 0216 019B     		ldr	r3, [sp, #4]
 3286 0218 1968     		ldr	r1, [r3]
 3287              		.loc 1 760 55
 3288 021a 9DF83730 		ldrb	r3, [sp, #55]	@ zero_extendqisi2
 3289 021e 22F4F862 		bic	r2, r2, #1984
 3290 0222 DB01     		lsls	r3, r3, #7
 3291 0224 0B44     		add	r3, r3, r1
 3292 0226 CC33     		adds	r3, r3, #204
 3293 0228 1A60     		str	r2, [r3]
 761:C:/StellarStudio-7.0/SDKS/StellarESDK-1.7.0/Modules/Drivers/Timers/HRTIM/src\hrtim.c ****                     hdp->hrtim->sTimerxRegs[i].EEFxR1 |= (uint32_t)((hdp->timer_eev_filter[i][eev_i
 3294              		.loc 1 761 24
 3295 022a 019B     		ldr	r3, [sp, #4]
 3296 022c 1A68     		ldr	r2, [r3]
 3297              		.loc 1 761 55
 3298 022e 9DF83730 		ldrb	r3, [sp, #55]	@ zero_extendqisi2
 3299 0232 DB01     		lsls	r3, r3, #7
 3300 0234 1344     		add	r3, r3, r2
 3301 0236 CC33     		adds	r3, r3, #204
 3302 0238 1868     		ldr	r0, [r3]
 3303              		.loc 1 761 108
 3304 023a 9DF83720 		ldrb	r2, [sp, #55]	@ zero_extendqisi2
 3305              		.loc 1 761 103
 3306 023e 9DF83630 		ldrb	r3, [sp, #54]	@ zero_extendqisi2
 3307 0242 5C1E     		subs	r4, r3, #1
 3308              		.loc 1 761 108
 3309 0244 0199     		ldr	r1, [sp, #4]
 3310 0246 1346     		mov	r3, r2
 3311 0248 9B00     		lsls	r3, r3, #2
 3312 024a 1344     		add	r3, r3, r2
 3313 024c 5B00     		lsls	r3, r3, #1
 3314 024e 2344     		add	r3, r3, r4
 3315 0250 03F58073 		add	r3, r3, #256
 3316 0254 DB00     		lsls	r3, r3, #3
 3317 0256 0B44     		add	r3, r3, r1
 3318 0258 5968     		ldr	r1, [r3, #4]
 3319              		.loc 1 761 155
 3320 025a 9DF83720 		ldrb	r2, [sp, #55]	@ zero_extendqisi2
 3321              		.loc 1 761 150
 3322 025e 9DF83630 		ldrb	r3, [sp, #54]	@ zero_extendqisi2
 3323 0262 5D1E     		subs	r5, r3, #1
 3324              		.loc 1 761 155
 3325 0264 019C     		ldr	r4, [sp, #4]
 3326 0266 1346     		mov	r3, r2
 3327 0268 9B00     		lsls	r3, r3, #2
 3328 026a 1344     		add	r3, r3, r2
 3329 026c 5B00     		lsls	r3, r3, #1
 3330 026e 2B44     		add	r3, r3, r5
 3331 0270 03F58073 		add	r3, r3, #256
 3332 0274 54F83330 		ldr	r3, [r4, r3, lsl #3]
 3333              		.loc 1 761 115
 3334 0278 0B43     		orrs	r3, r3, r1
 3335              		.loc 1 761 164
 3336 027a 9A01     		lsls	r2, r3, #6
 3337              		.loc 1 761 24
 3338 027c 019B     		ldr	r3, [sp, #4]
 3339 027e 1968     		ldr	r1, [r3]
 3340              		.loc 1 761 55
 3341 0280 9DF83730 		ldrb	r3, [sp, #55]	@ zero_extendqisi2
 3342 0284 0243     		orrs	r2, r2, r0
 3343 0286 DB01     		lsls	r3, r3, #7
 3344 0288 0B44     		add	r3, r3, r1
 3345 028a CC33     		adds	r3, r3, #204
 3346 028c 1A60     		str	r2, [r3]
 762:C:/StellarStudio-7.0/SDKS/StellarESDK-1.7.0/Modules/Drivers/Timers/HRTIM/src\hrtim.c ****                     break;
 3347              		.loc 1 762 21
 3348 028e 28E2     		b	.L175
 3349              	.L172:
 763:C:/StellarStudio-7.0/SDKS/StellarESDK-1.7.0/Modules/Drivers/Timers/HRTIM/src\hrtim.c ****                 case HRTIM_EVENT_3:
 764:C:/StellarStudio-7.0/SDKS/StellarESDK-1.7.0/Modules/Drivers/Timers/HRTIM/src\hrtim.c ****                     hdp->hrtim->sTimerxRegs[i].EEFxR1 &= ~( HRTIM_EEFxR1_EE3LTCH| HRTIM_EEFxR1_EE3F
 3350              		.loc 1 764 24
 3351 0290 019B     		ldr	r3, [sp, #4]
 3352 0292 1A68     		ldr	r2, [r3]
 3353              		.loc 1 764 55
 3354 0294 9DF83730 		ldrb	r3, [sp, #55]	@ zero_extendqisi2
 3355 0298 DB01     		lsls	r3, r3, #7
 3356 029a 1344     		add	r3, r3, r2
 3357 029c CC33     		adds	r3, r3, #204
 3358 029e 1A68     		ldr	r2, [r3]
 3359              		.loc 1 764 24
 3360 02a0 019B     		ldr	r3, [sp, #4]
 3361 02a2 1968     		ldr	r1, [r3]
 3362              		.loc 1 764 55
 3363 02a4 9DF83730 		ldrb	r3, [sp, #55]	@ zero_extendqisi2
 3364 02a8 22F4F832 		bic	r2, r2, #126976
 3365 02ac DB01     		lsls	r3, r3, #7
 3366 02ae 0B44     		add	r3, r3, r1
 3367 02b0 CC33     		adds	r3, r3, #204
 3368 02b2 1A60     		str	r2, [r3]
 765:C:/StellarStudio-7.0/SDKS/StellarESDK-1.7.0/Modules/Drivers/Timers/HRTIM/src\hrtim.c ****                     hdp->hrtim->sTimerxRegs[i].EEFxR1 |= (uint32_t)((hdp->timer_eev_filter[i][eev_i
 3369              		.loc 1 765 24
 3370 02b4 019B     		ldr	r3, [sp, #4]
 3371 02b6 1A68     		ldr	r2, [r3]
 3372              		.loc 1 765 55
 3373 02b8 9DF83730 		ldrb	r3, [sp, #55]	@ zero_extendqisi2
 3374 02bc DB01     		lsls	r3, r3, #7
 3375 02be 1344     		add	r3, r3, r2
 3376 02c0 CC33     		adds	r3, r3, #204
 3377 02c2 1868     		ldr	r0, [r3]
 3378              		.loc 1 765 108
 3379 02c4 9DF83720 		ldrb	r2, [sp, #55]	@ zero_extendqisi2
 3380              		.loc 1 765 103
 3381 02c8 9DF83630 		ldrb	r3, [sp, #54]	@ zero_extendqisi2
 3382 02cc 5C1E     		subs	r4, r3, #1
 3383              		.loc 1 765 108
 3384 02ce 0199     		ldr	r1, [sp, #4]
 3385 02d0 1346     		mov	r3, r2
 3386 02d2 9B00     		lsls	r3, r3, #2
 3387 02d4 1344     		add	r3, r3, r2
 3388 02d6 5B00     		lsls	r3, r3, #1
 3389 02d8 2344     		add	r3, r3, r4
 3390 02da 03F58073 		add	r3, r3, #256
 3391 02de DB00     		lsls	r3, r3, #3
 3392 02e0 0B44     		add	r3, r3, r1
 3393 02e2 5968     		ldr	r1, [r3, #4]
 3394              		.loc 1 765 155
 3395 02e4 9DF83720 		ldrb	r2, [sp, #55]	@ zero_extendqisi2
 3396              		.loc 1 765 150
 3397 02e8 9DF83630 		ldrb	r3, [sp, #54]	@ zero_extendqisi2
 3398 02ec 5D1E     		subs	r5, r3, #1
 3399              		.loc 1 765 155
 3400 02ee 019C     		ldr	r4, [sp, #4]
 3401 02f0 1346     		mov	r3, r2
 3402 02f2 9B00     		lsls	r3, r3, #2
 3403 02f4 1344     		add	r3, r3, r2
 3404 02f6 5B00     		lsls	r3, r3, #1
 3405 02f8 2B44     		add	r3, r3, r5
 3406 02fa 03F58073 		add	r3, r3, #256
 3407 02fe 54F83330 		ldr	r3, [r4, r3, lsl #3]
 3408              		.loc 1 765 115
 3409 0302 0B43     		orrs	r3, r3, r1
 3410              		.loc 1 765 164
 3411 0304 1A03     		lsls	r2, r3, #12
 3412              		.loc 1 765 24
 3413 0306 019B     		ldr	r3, [sp, #4]
 3414 0308 1968     		ldr	r1, [r3]
 3415              		.loc 1 765 55
 3416 030a 9DF83730 		ldrb	r3, [sp, #55]	@ zero_extendqisi2
 3417 030e 0243     		orrs	r2, r2, r0
 3418 0310 DB01     		lsls	r3, r3, #7
 3419 0312 0B44     		add	r3, r3, r1
 3420 0314 CC33     		adds	r3, r3, #204
 3421 0316 1A60     		str	r2, [r3]
 766:C:/StellarStudio-7.0/SDKS/StellarESDK-1.7.0/Modules/Drivers/Timers/HRTIM/src\hrtim.c ****                     break;
 3422              		.loc 1 766 21
 3423 0318 E3E1     		b	.L175
 3424              	.L171:
 767:C:/StellarStudio-7.0/SDKS/StellarESDK-1.7.0/Modules/Drivers/Timers/HRTIM/src\hrtim.c ****                 case HRTIM_EVENT_4:
 768:C:/StellarStudio-7.0/SDKS/StellarESDK-1.7.0/Modules/Drivers/Timers/HRTIM/src\hrtim.c ****                     hdp->hrtim->sTimerxRegs[i].EEFxR1 &= ~( HRTIM_EEFxR1_EE4LTCH| HRTIM_EEFxR1_EE4F
 3425              		.loc 1 768 24
 3426 031a 019B     		ldr	r3, [sp, #4]
 3427 031c 1A68     		ldr	r2, [r3]
 3428              		.loc 1 768 55
 3429 031e 9DF83730 		ldrb	r3, [sp, #55]	@ zero_extendqisi2
 3430 0322 DB01     		lsls	r3, r3, #7
 3431 0324 1344     		add	r3, r3, r2
 3432 0326 CC33     		adds	r3, r3, #204
 3433 0328 1A68     		ldr	r2, [r3]
 3434              		.loc 1 768 24
 3435 032a 019B     		ldr	r3, [sp, #4]
 3436 032c 1968     		ldr	r1, [r3]
 3437              		.loc 1 768 55
 3438 032e 9DF83730 		ldrb	r3, [sp, #55]	@ zero_extendqisi2
 3439 0332 22F4F802 		bic	r2, r2, #8126464
 3440 0336 DB01     		lsls	r3, r3, #7
 3441 0338 0B44     		add	r3, r3, r1
 3442 033a CC33     		adds	r3, r3, #204
 3443 033c 1A60     		str	r2, [r3]
 769:C:/StellarStudio-7.0/SDKS/StellarESDK-1.7.0/Modules/Drivers/Timers/HRTIM/src\hrtim.c ****                     hdp->hrtim->sTimerxRegs[i].EEFxR1 |= (uint32_t)((hdp->timer_eev_filter[i][eev_i
 3444              		.loc 1 769 24
 3445 033e 019B     		ldr	r3, [sp, #4]
 3446 0340 1A68     		ldr	r2, [r3]
 3447              		.loc 1 769 55
 3448 0342 9DF83730 		ldrb	r3, [sp, #55]	@ zero_extendqisi2
 3449 0346 DB01     		lsls	r3, r3, #7
 3450 0348 1344     		add	r3, r3, r2
 3451 034a CC33     		adds	r3, r3, #204
 3452 034c 1868     		ldr	r0, [r3]
 3453              		.loc 1 769 108
 3454 034e 9DF83720 		ldrb	r2, [sp, #55]	@ zero_extendqisi2
 3455              		.loc 1 769 103
 3456 0352 9DF83630 		ldrb	r3, [sp, #54]	@ zero_extendqisi2
 3457 0356 5C1E     		subs	r4, r3, #1
 3458              		.loc 1 769 108
 3459 0358 0199     		ldr	r1, [sp, #4]
 3460 035a 1346     		mov	r3, r2
 3461 035c 9B00     		lsls	r3, r3, #2
 3462 035e 1344     		add	r3, r3, r2
 3463 0360 5B00     		lsls	r3, r3, #1
 3464 0362 2344     		add	r3, r3, r4
 3465 0364 03F58073 		add	r3, r3, #256
 3466 0368 DB00     		lsls	r3, r3, #3
 3467 036a 0B44     		add	r3, r3, r1
 3468 036c 5968     		ldr	r1, [r3, #4]
 3469              		.loc 1 769 155
 3470 036e 9DF83720 		ldrb	r2, [sp, #55]	@ zero_extendqisi2
 3471              		.loc 1 769 150
 3472 0372 9DF83630 		ldrb	r3, [sp, #54]	@ zero_extendqisi2
 3473 0376 5D1E     		subs	r5, r3, #1
 3474              		.loc 1 769 155
 3475 0378 019C     		ldr	r4, [sp, #4]
 3476 037a 1346     		mov	r3, r2
 3477 037c 9B00     		lsls	r3, r3, #2
 3478 037e 1344     		add	r3, r3, r2
 3479 0380 5B00     		lsls	r3, r3, #1
 3480 0382 2B44     		add	r3, r3, r5
 3481 0384 03F58073 		add	r3, r3, #256
 3482 0388 54F83330 		ldr	r3, [r4, r3, lsl #3]
 3483              		.loc 1 769 115
 3484 038c 0B43     		orrs	r3, r3, r1
 3485              		.loc 1 769 164
 3486 038e 9A04     		lsls	r2, r3, #18
 3487              		.loc 1 769 24
 3488 0390 019B     		ldr	r3, [sp, #4]
 3489 0392 1968     		ldr	r1, [r3]
 3490              		.loc 1 769 55
 3491 0394 9DF83730 		ldrb	r3, [sp, #55]	@ zero_extendqisi2
 3492 0398 0243     		orrs	r2, r2, r0
 3493 039a DB01     		lsls	r3, r3, #7
 3494 039c 0B44     		add	r3, r3, r1
 3495 039e CC33     		adds	r3, r3, #204
 3496 03a0 1A60     		str	r2, [r3]
 770:C:/StellarStudio-7.0/SDKS/StellarESDK-1.7.0/Modules/Drivers/Timers/HRTIM/src\hrtim.c ****                     break;      
 3497              		.loc 1 770 21
 3498 03a2 9EE1     		b	.L175
 3499              	.L170:
 771:C:/StellarStudio-7.0/SDKS/StellarESDK-1.7.0/Modules/Drivers/Timers/HRTIM/src\hrtim.c ****                 case HRTIM_EVENT_5:
 772:C:/StellarStudio-7.0/SDKS/StellarESDK-1.7.0/Modules/Drivers/Timers/HRTIM/src\hrtim.c ****                     hdp->hrtim->sTimerxRegs[i].EEFxR1 &= ~( HRTIM_EEFxR1_EE5LTCH| HRTIM_EEFxR1_EE5F
 3500              		.loc 1 772 24
 3501 03a4 019B     		ldr	r3, [sp, #4]
 3502 03a6 1A68     		ldr	r2, [r3]
 3503              		.loc 1 772 55
 3504 03a8 9DF83730 		ldrb	r3, [sp, #55]	@ zero_extendqisi2
 3505 03ac DB01     		lsls	r3, r3, #7
 3506 03ae 1344     		add	r3, r3, r2
 3507 03b0 CC33     		adds	r3, r3, #204
 3508 03b2 1A68     		ldr	r2, [r3]
 3509              		.loc 1 772 24
 3510 03b4 019B     		ldr	r3, [sp, #4]
 3511 03b6 1968     		ldr	r1, [r3]
 3512              		.loc 1 772 55
 3513 03b8 9DF83730 		ldrb	r3, [sp, #55]	@ zero_extendqisi2
 3514 03bc 22F0F852 		bic	r2, r2, #520093696
 3515 03c0 DB01     		lsls	r3, r3, #7
 3516 03c2 0B44     		add	r3, r3, r1
 3517 03c4 CC33     		adds	r3, r3, #204
 3518 03c6 1A60     		str	r2, [r3]
 773:C:/StellarStudio-7.0/SDKS/StellarESDK-1.7.0/Modules/Drivers/Timers/HRTIM/src\hrtim.c ****                     hdp->hrtim->sTimerxRegs[i].EEFxR1 |= (uint32_t)((hdp->timer_eev_filter[i][eev_i
 3519              		.loc 1 773 24
 3520 03c8 019B     		ldr	r3, [sp, #4]
 3521 03ca 1A68     		ldr	r2, [r3]
 3522              		.loc 1 773 55
 3523 03cc 9DF83730 		ldrb	r3, [sp, #55]	@ zero_extendqisi2
 3524 03d0 DB01     		lsls	r3, r3, #7
 3525 03d2 1344     		add	r3, r3, r2
 3526 03d4 CC33     		adds	r3, r3, #204
 3527 03d6 1868     		ldr	r0, [r3]
 3528              		.loc 1 773 108
 3529 03d8 9DF83720 		ldrb	r2, [sp, #55]	@ zero_extendqisi2
 3530              		.loc 1 773 103
 3531 03dc 9DF83630 		ldrb	r3, [sp, #54]	@ zero_extendqisi2
 3532 03e0 5C1E     		subs	r4, r3, #1
 3533              		.loc 1 773 108
 3534 03e2 0199     		ldr	r1, [sp, #4]
 3535 03e4 1346     		mov	r3, r2
 3536 03e6 9B00     		lsls	r3, r3, #2
 3537 03e8 1344     		add	r3, r3, r2
 3538 03ea 5B00     		lsls	r3, r3, #1
 3539 03ec 2344     		add	r3, r3, r4
 3540 03ee 03F58073 		add	r3, r3, #256
 3541 03f2 DB00     		lsls	r3, r3, #3
 3542 03f4 0B44     		add	r3, r3, r1
 3543 03f6 5968     		ldr	r1, [r3, #4]
 3544              		.loc 1 773 155
 3545 03f8 9DF83720 		ldrb	r2, [sp, #55]	@ zero_extendqisi2
 3546              		.loc 1 773 150
 3547 03fc 9DF83630 		ldrb	r3, [sp, #54]	@ zero_extendqisi2
 3548 0400 5D1E     		subs	r5, r3, #1
 3549              		.loc 1 773 155
 3550 0402 019C     		ldr	r4, [sp, #4]
 3551 0404 1346     		mov	r3, r2
 3552 0406 9B00     		lsls	r3, r3, #2
 3553 0408 1344     		add	r3, r3, r2
 3554 040a 5B00     		lsls	r3, r3, #1
 3555 040c 2B44     		add	r3, r3, r5
 3556 040e 03F58073 		add	r3, r3, #256
 3557 0412 54F83330 		ldr	r3, [r4, r3, lsl #3]
 3558              		.loc 1 773 115
 3559 0416 0B43     		orrs	r3, r3, r1
 3560              		.loc 1 773 164
 3561 0418 1A06     		lsls	r2, r3, #24
 3562              		.loc 1 773 24
 3563 041a 019B     		ldr	r3, [sp, #4]
 3564 041c 1968     		ldr	r1, [r3]
 3565              		.loc 1 773 55
 3566 041e 9DF83730 		ldrb	r3, [sp, #55]	@ zero_extendqisi2
 3567 0422 0243     		orrs	r2, r2, r0
 3568 0424 DB01     		lsls	r3, r3, #7
 3569 0426 0B44     		add	r3, r3, r1
 3570 0428 CC33     		adds	r3, r3, #204
 3571 042a 1A60     		str	r2, [r3]
 774:C:/StellarStudio-7.0/SDKS/StellarESDK-1.7.0/Modules/Drivers/Timers/HRTIM/src\hrtim.c ****                     break;
 3572              		.loc 1 774 21
 3573 042c 59E1     		b	.L175
 3574              	.L169:
 775:C:/StellarStudio-7.0/SDKS/StellarESDK-1.7.0/Modules/Drivers/Timers/HRTIM/src\hrtim.c ****                 case HRTIM_EVENT_6:
 776:C:/StellarStudio-7.0/SDKS/StellarESDK-1.7.0/Modules/Drivers/Timers/HRTIM/src\hrtim.c ****                     hdp->hrtim->sTimerxRegs[i].EEFxR2 &= ~( HRTIM_EEFxR2_EE6LTCH| HRTIM_EEFxR2_EE6F
 3575              		.loc 1 776 24
 3576 042e 019B     		ldr	r3, [sp, #4]
 3577 0430 1A68     		ldr	r2, [r3]
 3578              		.loc 1 776 55
 3579 0432 9DF83730 		ldrb	r3, [sp, #55]	@ zero_extendqisi2
 3580 0436 DB01     		lsls	r3, r3, #7
 3581 0438 1344     		add	r3, r3, r2
 3582 043a D033     		adds	r3, r3, #208
 3583 043c 1A68     		ldr	r2, [r3]
 3584              		.loc 1 776 24
 3585 043e 019B     		ldr	r3, [sp, #4]
 3586 0440 1968     		ldr	r1, [r3]
 3587              		.loc 1 776 55
 3588 0442 9DF83730 		ldrb	r3, [sp, #55]	@ zero_extendqisi2
 3589 0446 22F01F02 		bic	r2, r2, #31
 3590 044a DB01     		lsls	r3, r3, #7
 3591 044c 0B44     		add	r3, r3, r1
 3592 044e D033     		adds	r3, r3, #208
 3593 0450 1A60     		str	r2, [r3]
 777:C:/StellarStudio-7.0/SDKS/StellarESDK-1.7.0/Modules/Drivers/Timers/HRTIM/src\hrtim.c ****                     hdp->hrtim->sTimerxRegs[i].EEFxR2 |= (uint32_t)(hdp->timer_eev_filter[i][eev_id
 3594              		.loc 1 777 24
 3595 0452 019B     		ldr	r3, [sp, #4]
 3596 0454 1A68     		ldr	r2, [r3]
 3597              		.loc 1 777 55
 3598 0456 9DF83730 		ldrb	r3, [sp, #55]	@ zero_extendqisi2
 3599 045a DB01     		lsls	r3, r3, #7
 3600 045c 1344     		add	r3, r3, r2
 3601 045e D033     		adds	r3, r3, #208
 3602 0460 1868     		ldr	r0, [r3]
 3603              		.loc 1 777 107
 3604 0462 9DF83720 		ldrb	r2, [sp, #55]	@ zero_extendqisi2
 3605              		.loc 1 777 102
 3606 0466 9DF83630 		ldrb	r3, [sp, #54]	@ zero_extendqisi2
 3607 046a 5C1E     		subs	r4, r3, #1
 3608              		.loc 1 777 107
 3609 046c 0199     		ldr	r1, [sp, #4]
 3610 046e 1346     		mov	r3, r2
 3611 0470 9B00     		lsls	r3, r3, #2
 3612 0472 1344     		add	r3, r3, r2
 3613 0474 5B00     		lsls	r3, r3, #1
 3614 0476 2344     		add	r3, r3, r4
 3615 0478 03F58073 		add	r3, r3, #256
 3616 047c DB00     		lsls	r3, r3, #3
 3617 047e 0B44     		add	r3, r3, r1
 3618 0480 5968     		ldr	r1, [r3, #4]
 3619              		.loc 1 777 154
 3620 0482 9DF83720 		ldrb	r2, [sp, #55]	@ zero_extendqisi2
 3621              		.loc 1 777 149
 3622 0486 9DF83630 		ldrb	r3, [sp, #54]	@ zero_extendqisi2
 3623 048a 5D1E     		subs	r5, r3, #1
 3624              		.loc 1 777 154
 3625 048c 019C     		ldr	r4, [sp, #4]
 3626 048e 1346     		mov	r3, r2
 3627 0490 9B00     		lsls	r3, r3, #2
 3628 0492 1344     		add	r3, r3, r2
 3629 0494 5B00     		lsls	r3, r3, #1
 3630 0496 2B44     		add	r3, r3, r5
 3631 0498 03F58073 		add	r3, r3, #256
 3632 049c 54F83330 		ldr	r3, [r4, r3, lsl #3]
 3633              		.loc 1 777 114
 3634 04a0 41EA0302 		orr	r2, r1, r3
 3635              		.loc 1 777 24
 3636 04a4 019B     		ldr	r3, [sp, #4]
 3637 04a6 1968     		ldr	r1, [r3]
 3638              		.loc 1 777 55
 3639 04a8 9DF83730 		ldrb	r3, [sp, #55]	@ zero_extendqisi2
 3640 04ac 0243     		orrs	r2, r2, r0
 3641 04ae DB01     		lsls	r3, r3, #7
 3642 04b0 0B44     		add	r3, r3, r1
 3643 04b2 D033     		adds	r3, r3, #208
 3644 04b4 1A60     		str	r2, [r3]
 778:C:/StellarStudio-7.0/SDKS/StellarESDK-1.7.0/Modules/Drivers/Timers/HRTIM/src\hrtim.c ****                     break;
 3645              		.loc 1 778 21
 3646 04b6 14E1     		b	.L175
 3647              	.L168:
 779:C:/StellarStudio-7.0/SDKS/StellarESDK-1.7.0/Modules/Drivers/Timers/HRTIM/src\hrtim.c ****                 case HRTIM_EVENT_7:
 780:C:/StellarStudio-7.0/SDKS/StellarESDK-1.7.0/Modules/Drivers/Timers/HRTIM/src\hrtim.c ****                     hdp->hrtim->sTimerxRegs[i].EEFxR2 &= ~( HRTIM_EEFxR2_EE7LTCH| HRTIM_EEFxR2_EE7F
 3648              		.loc 1 780 24
 3649 04b8 019B     		ldr	r3, [sp, #4]
 3650 04ba 1A68     		ldr	r2, [r3]
 3651              		.loc 1 780 55
 3652 04bc 9DF83730 		ldrb	r3, [sp, #55]	@ zero_extendqisi2
 3653 04c0 DB01     		lsls	r3, r3, #7
 3654 04c2 1344     		add	r3, r3, r2
 3655 04c4 D033     		adds	r3, r3, #208
 3656 04c6 1A68     		ldr	r2, [r3]
 3657              		.loc 1 780 24
 3658 04c8 019B     		ldr	r3, [sp, #4]
 3659 04ca 1968     		ldr	r1, [r3]
 3660              		.loc 1 780 55
 3661 04cc 9DF83730 		ldrb	r3, [sp, #55]	@ zero_extendqisi2
 3662 04d0 22F4F862 		bic	r2, r2, #1984
 3663 04d4 DB01     		lsls	r3, r3, #7
 3664 04d6 0B44     		add	r3, r3, r1
 3665 04d8 D033     		adds	r3, r3, #208
 3666 04da 1A60     		str	r2, [r3]
 781:C:/StellarStudio-7.0/SDKS/StellarESDK-1.7.0/Modules/Drivers/Timers/HRTIM/src\hrtim.c ****                     hdp->hrtim->sTimerxRegs[i].EEFxR2 |= (uint32_t)((hdp->timer_eev_filter[i][eev_i
 3667              		.loc 1 781 24
 3668 04dc 019B     		ldr	r3, [sp, #4]
 3669 04de 1A68     		ldr	r2, [r3]
 3670              		.loc 1 781 55
 3671 04e0 9DF83730 		ldrb	r3, [sp, #55]	@ zero_extendqisi2
 3672 04e4 DB01     		lsls	r3, r3, #7
 3673 04e6 1344     		add	r3, r3, r2
 3674 04e8 D033     		adds	r3, r3, #208
 3675 04ea 1868     		ldr	r0, [r3]
 3676              		.loc 1 781 108
 3677 04ec 9DF83720 		ldrb	r2, [sp, #55]	@ zero_extendqisi2
 3678              		.loc 1 781 103
 3679 04f0 9DF83630 		ldrb	r3, [sp, #54]	@ zero_extendqisi2
 3680 04f4 5C1E     		subs	r4, r3, #1
 3681              		.loc 1 781 108
 3682 04f6 0199     		ldr	r1, [sp, #4]
 3683 04f8 1346     		mov	r3, r2
 3684 04fa 9B00     		lsls	r3, r3, #2
 3685 04fc 1344     		add	r3, r3, r2
 3686 04fe 5B00     		lsls	r3, r3, #1
 3687 0500 2344     		add	r3, r3, r4
 3688 0502 03F58073 		add	r3, r3, #256
 3689 0506 DB00     		lsls	r3, r3, #3
 3690 0508 0B44     		add	r3, r3, r1
 3691 050a 5968     		ldr	r1, [r3, #4]
 3692              		.loc 1 781 155
 3693 050c 9DF83720 		ldrb	r2, [sp, #55]	@ zero_extendqisi2
 3694              		.loc 1 781 150
 3695 0510 9DF83630 		ldrb	r3, [sp, #54]	@ zero_extendqisi2
 3696 0514 5D1E     		subs	r5, r3, #1
 3697              		.loc 1 781 155
 3698 0516 019C     		ldr	r4, [sp, #4]
 3699 0518 1346     		mov	r3, r2
 3700 051a 9B00     		lsls	r3, r3, #2
 3701 051c 1344     		add	r3, r3, r2
 3702 051e 5B00     		lsls	r3, r3, #1
 3703 0520 2B44     		add	r3, r3, r5
 3704 0522 03F58073 		add	r3, r3, #256
 3705 0526 54F83330 		ldr	r3, [r4, r3, lsl #3]
 3706              		.loc 1 781 115
 3707 052a 0B43     		orrs	r3, r3, r1
 3708              		.loc 1 781 164
 3709 052c 9A01     		lsls	r2, r3, #6
 3710              		.loc 1 781 24
 3711 052e 019B     		ldr	r3, [sp, #4]
 3712 0530 1968     		ldr	r1, [r3]
 3713              		.loc 1 781 55
 3714 0532 9DF83730 		ldrb	r3, [sp, #55]	@ zero_extendqisi2
 3715 0536 0243     		orrs	r2, r2, r0
 3716 0538 DB01     		lsls	r3, r3, #7
 3717 053a 0B44     		add	r3, r3, r1
 3718 053c D033     		adds	r3, r3, #208
 3719 053e 1A60     		str	r2, [r3]
 782:C:/StellarStudio-7.0/SDKS/StellarESDK-1.7.0/Modules/Drivers/Timers/HRTIM/src\hrtim.c ****                     break;
 3720              		.loc 1 782 21
 3721 0540 CFE0     		b	.L175
 3722              	.L167:
 783:C:/StellarStudio-7.0/SDKS/StellarESDK-1.7.0/Modules/Drivers/Timers/HRTIM/src\hrtim.c ****                 case HRTIM_EVENT_8:
 784:C:/StellarStudio-7.0/SDKS/StellarESDK-1.7.0/Modules/Drivers/Timers/HRTIM/src\hrtim.c ****                     hdp->hrtim->sTimerxRegs[i].EEFxR2 &= ~( HRTIM_EEFxR2_EE8LTCH| HRTIM_EEFxR2_EE8F
 3723              		.loc 1 784 24
 3724 0542 019B     		ldr	r3, [sp, #4]
 3725 0544 1A68     		ldr	r2, [r3]
 3726              		.loc 1 784 55
 3727 0546 9DF83730 		ldrb	r3, [sp, #55]	@ zero_extendqisi2
 3728 054a DB01     		lsls	r3, r3, #7
 3729 054c 1344     		add	r3, r3, r2
 3730 054e D033     		adds	r3, r3, #208
 3731 0550 1A68     		ldr	r2, [r3]
 3732              		.loc 1 784 24
 3733 0552 019B     		ldr	r3, [sp, #4]
 3734 0554 1968     		ldr	r1, [r3]
 3735              		.loc 1 784 55
 3736 0556 9DF83730 		ldrb	r3, [sp, #55]	@ zero_extendqisi2
 3737 055a 22F4F832 		bic	r2, r2, #126976
 3738 055e DB01     		lsls	r3, r3, #7
 3739 0560 0B44     		add	r3, r3, r1
 3740 0562 D033     		adds	r3, r3, #208
 3741 0564 1A60     		str	r2, [r3]
 785:C:/StellarStudio-7.0/SDKS/StellarESDK-1.7.0/Modules/Drivers/Timers/HRTIM/src\hrtim.c ****                     hdp->hrtim->sTimerxRegs[i].EEFxR2 |= (uint32_t)((hdp->timer_eev_filter[i][eev_i
 3742              		.loc 1 785 24
 3743 0566 019B     		ldr	r3, [sp, #4]
 3744 0568 1A68     		ldr	r2, [r3]
 3745              		.loc 1 785 55
 3746 056a 9DF83730 		ldrb	r3, [sp, #55]	@ zero_extendqisi2
 3747 056e DB01     		lsls	r3, r3, #7
 3748 0570 1344     		add	r3, r3, r2
 3749 0572 D033     		adds	r3, r3, #208
 3750 0574 1868     		ldr	r0, [r3]
 3751              		.loc 1 785 108
 3752 0576 9DF83720 		ldrb	r2, [sp, #55]	@ zero_extendqisi2
 3753              		.loc 1 785 103
 3754 057a 9DF83630 		ldrb	r3, [sp, #54]	@ zero_extendqisi2
 3755 057e 5C1E     		subs	r4, r3, #1
 3756              		.loc 1 785 108
 3757 0580 0199     		ldr	r1, [sp, #4]
 3758 0582 1346     		mov	r3, r2
 3759 0584 9B00     		lsls	r3, r3, #2
 3760 0586 1344     		add	r3, r3, r2
 3761 0588 5B00     		lsls	r3, r3, #1
 3762 058a 2344     		add	r3, r3, r4
 3763 058c 03F58073 		add	r3, r3, #256
 3764 0590 DB00     		lsls	r3, r3, #3
 3765 0592 0B44     		add	r3, r3, r1
 3766 0594 5968     		ldr	r1, [r3, #4]
 3767              		.loc 1 785 155
 3768 0596 9DF83720 		ldrb	r2, [sp, #55]	@ zero_extendqisi2
 3769              		.loc 1 785 150
 3770 059a 9DF83630 		ldrb	r3, [sp, #54]	@ zero_extendqisi2
 3771 059e 5D1E     		subs	r5, r3, #1
 3772              		.loc 1 785 155
 3773 05a0 019C     		ldr	r4, [sp, #4]
 3774 05a2 1346     		mov	r3, r2
 3775 05a4 9B00     		lsls	r3, r3, #2
 3776 05a6 1344     		add	r3, r3, r2
 3777 05a8 5B00     		lsls	r3, r3, #1
 3778 05aa 2B44     		add	r3, r3, r5
 3779 05ac 03F58073 		add	r3, r3, #256
 3780 05b0 54F83330 		ldr	r3, [r4, r3, lsl #3]
 3781              		.loc 1 785 115
 3782 05b4 0B43     		orrs	r3, r3, r1
 3783              		.loc 1 785 164
 3784 05b6 1A03     		lsls	r2, r3, #12
 3785              		.loc 1 785 24
 3786 05b8 019B     		ldr	r3, [sp, #4]
 3787 05ba 1968     		ldr	r1, [r3]
 3788              		.loc 1 785 55
 3789 05bc 9DF83730 		ldrb	r3, [sp, #55]	@ zero_extendqisi2
 3790 05c0 0243     		orrs	r2, r2, r0
 3791 05c2 DB01     		lsls	r3, r3, #7
 3792 05c4 0B44     		add	r3, r3, r1
 3793 05c6 D033     		adds	r3, r3, #208
 3794 05c8 1A60     		str	r2, [r3]
 786:C:/StellarStudio-7.0/SDKS/StellarESDK-1.7.0/Modules/Drivers/Timers/HRTIM/src\hrtim.c ****                     break;
 3795              		.loc 1 786 21
 3796 05ca 8AE0     		b	.L175
 3797              	.L166:
 787:C:/StellarStudio-7.0/SDKS/StellarESDK-1.7.0/Modules/Drivers/Timers/HRTIM/src\hrtim.c ****                 case HRTIM_EVENT_9:
 788:C:/StellarStudio-7.0/SDKS/StellarESDK-1.7.0/Modules/Drivers/Timers/HRTIM/src\hrtim.c ****                     hdp->hrtim->sTimerxRegs[i].EEFxR2 &= ~( HRTIM_EEFxR2_EE9LTCH| HRTIM_EEFxR2_EE9F
 3798              		.loc 1 788 24
 3799 05cc 019B     		ldr	r3, [sp, #4]
 3800 05ce 1A68     		ldr	r2, [r3]
 3801              		.loc 1 788 55
 3802 05d0 9DF83730 		ldrb	r3, [sp, #55]	@ zero_extendqisi2
 3803 05d4 DB01     		lsls	r3, r3, #7
 3804 05d6 1344     		add	r3, r3, r2
 3805 05d8 D033     		adds	r3, r3, #208
 3806 05da 1A68     		ldr	r2, [r3]
 3807              		.loc 1 788 24
 3808 05dc 019B     		ldr	r3, [sp, #4]
 3809 05de 1968     		ldr	r1, [r3]
 3810              		.loc 1 788 55
 3811 05e0 9DF83730 		ldrb	r3, [sp, #55]	@ zero_extendqisi2
 3812 05e4 22F4F802 		bic	r2, r2, #8126464
 3813 05e8 DB01     		lsls	r3, r3, #7
 3814 05ea 0B44     		add	r3, r3, r1
 3815 05ec D033     		adds	r3, r3, #208
 3816 05ee 1A60     		str	r2, [r3]
 789:C:/StellarStudio-7.0/SDKS/StellarESDK-1.7.0/Modules/Drivers/Timers/HRTIM/src\hrtim.c ****                     hdp->hrtim->sTimerxRegs[i].EEFxR2 |= (uint32_t)((hdp->timer_eev_filter[i][eev_i
 3817              		.loc 1 789 24
 3818 05f0 019B     		ldr	r3, [sp, #4]
 3819 05f2 1A68     		ldr	r2, [r3]
 3820              		.loc 1 789 55
 3821 05f4 9DF83730 		ldrb	r3, [sp, #55]	@ zero_extendqisi2
 3822 05f8 DB01     		lsls	r3, r3, #7
 3823 05fa 1344     		add	r3, r3, r2
 3824 05fc D033     		adds	r3, r3, #208
 3825 05fe 1868     		ldr	r0, [r3]
 3826              		.loc 1 789 108
 3827 0600 9DF83720 		ldrb	r2, [sp, #55]	@ zero_extendqisi2
 3828              		.loc 1 789 103
 3829 0604 9DF83630 		ldrb	r3, [sp, #54]	@ zero_extendqisi2
 3830 0608 5C1E     		subs	r4, r3, #1
 3831              		.loc 1 789 108
 3832 060a 0199     		ldr	r1, [sp, #4]
 3833 060c 1346     		mov	r3, r2
 3834 060e 9B00     		lsls	r3, r3, #2
 3835 0610 1344     		add	r3, r3, r2
 3836 0612 5B00     		lsls	r3, r3, #1
 3837 0614 2344     		add	r3, r3, r4
 3838 0616 03F58073 		add	r3, r3, #256
 3839 061a DB00     		lsls	r3, r3, #3
 3840 061c 0B44     		add	r3, r3, r1
 3841 061e 5968     		ldr	r1, [r3, #4]
 3842              		.loc 1 789 155
 3843 0620 9DF83720 		ldrb	r2, [sp, #55]	@ zero_extendqisi2
 3844              		.loc 1 789 150
 3845 0624 9DF83630 		ldrb	r3, [sp, #54]	@ zero_extendqisi2
 3846 0628 5D1E     		subs	r5, r3, #1
 3847              		.loc 1 789 155
 3848 062a 019C     		ldr	r4, [sp, #4]
 3849 062c 1346     		mov	r3, r2
 3850 062e 9B00     		lsls	r3, r3, #2
 3851 0630 1344     		add	r3, r3, r2
 3852 0632 5B00     		lsls	r3, r3, #1
 3853 0634 2B44     		add	r3, r3, r5
 3854 0636 03F58073 		add	r3, r3, #256
 3855 063a 54F83330 		ldr	r3, [r4, r3, lsl #3]
 3856              		.loc 1 789 115
 3857 063e 0B43     		orrs	r3, r3, r1
 3858              		.loc 1 789 164
 3859 0640 9A04     		lsls	r2, r3, #18
 3860              		.loc 1 789 24
 3861 0642 019B     		ldr	r3, [sp, #4]
 3862 0644 1968     		ldr	r1, [r3]
 3863              		.loc 1 789 55
 3864 0646 9DF83730 		ldrb	r3, [sp, #55]	@ zero_extendqisi2
 3865 064a 0243     		orrs	r2, r2, r0
 3866 064c DB01     		lsls	r3, r3, #7
 3867 064e 0B44     		add	r3, r3, r1
 3868 0650 D033     		adds	r3, r3, #208
 3869 0652 1A60     		str	r2, [r3]
 790:C:/StellarStudio-7.0/SDKS/StellarESDK-1.7.0/Modules/Drivers/Timers/HRTIM/src\hrtim.c ****                     break;
 3870              		.loc 1 790 21
 3871 0654 45E0     		b	.L175
 3872              	.L164:
 791:C:/StellarStudio-7.0/SDKS/StellarESDK-1.7.0/Modules/Drivers/Timers/HRTIM/src\hrtim.c ****                 case HRTIM_EVENT_10:
 792:C:/StellarStudio-7.0/SDKS/StellarESDK-1.7.0/Modules/Drivers/Timers/HRTIM/src\hrtim.c ****                     hdp->hrtim->sTimerxRegs[i].EEFxR2 &= ~( HRTIM_EEFxR2_EE10LTCH| HRTIM_EEFxR2_EE1
 3873              		.loc 1 792 24
 3874 0656 019B     		ldr	r3, [sp, #4]
 3875 0658 1A68     		ldr	r2, [r3]
 3876              		.loc 1 792 55
 3877 065a 9DF83730 		ldrb	r3, [sp, #55]	@ zero_extendqisi2
 3878 065e DB01     		lsls	r3, r3, #7
 3879 0660 1344     		add	r3, r3, r2
 3880 0662 D033     		adds	r3, r3, #208
 3881 0664 1A68     		ldr	r2, [r3]
 3882              		.loc 1 792 24
 3883 0666 019B     		ldr	r3, [sp, #4]
 3884 0668 1968     		ldr	r1, [r3]
 3885              		.loc 1 792 55
 3886 066a 9DF83730 		ldrb	r3, [sp, #55]	@ zero_extendqisi2
 3887 066e 22F0F852 		bic	r2, r2, #520093696
 3888 0672 DB01     		lsls	r3, r3, #7
 3889 0674 0B44     		add	r3, r3, r1
 3890 0676 D033     		adds	r3, r3, #208
 3891 0678 1A60     		str	r2, [r3]
 793:C:/StellarStudio-7.0/SDKS/StellarESDK-1.7.0/Modules/Drivers/Timers/HRTIM/src\hrtim.c ****                     hdp->hrtim->sTimerxRegs[i].EEFxR2 |= (uint32_t)((hdp->timer_eev_filter[i][eev_i
 3892              		.loc 1 793 24
 3893 067a 019B     		ldr	r3, [sp, #4]
 3894 067c 1A68     		ldr	r2, [r3]
 3895              		.loc 1 793 55
 3896 067e 9DF83730 		ldrb	r3, [sp, #55]	@ zero_extendqisi2
 3897 0682 DB01     		lsls	r3, r3, #7
 3898 0684 1344     		add	r3, r3, r2
 3899 0686 D033     		adds	r3, r3, #208
 3900 0688 1868     		ldr	r0, [r3]
 3901              		.loc 1 793 108
 3902 068a 9DF83720 		ldrb	r2, [sp, #55]	@ zero_extendqisi2
 3903              		.loc 1 793 103
 3904 068e 9DF83630 		ldrb	r3, [sp, #54]	@ zero_extendqisi2
 3905 0692 5C1E     		subs	r4, r3, #1
 3906              		.loc 1 793 108
 3907 0694 0199     		ldr	r1, [sp, #4]
 3908 0696 1346     		mov	r3, r2
 3909 0698 9B00     		lsls	r3, r3, #2
 3910 069a 1344     		add	r3, r3, r2
 3911 069c 5B00     		lsls	r3, r3, #1
 3912 069e 2344     		add	r3, r3, r4
 3913 06a0 03F58073 		add	r3, r3, #256
 3914 06a4 DB00     		lsls	r3, r3, #3
 3915 06a6 0B44     		add	r3, r3, r1
 3916 06a8 5968     		ldr	r1, [r3, #4]
 3917              		.loc 1 793 155
 3918 06aa 9DF83720 		ldrb	r2, [sp, #55]	@ zero_extendqisi2
 3919              		.loc 1 793 150
 3920 06ae 9DF83630 		ldrb	r3, [sp, #54]	@ zero_extendqisi2
 3921 06b2 5D1E     		subs	r5, r3, #1
 3922              		.loc 1 793 155
 3923 06b4 019C     		ldr	r4, [sp, #4]
 3924 06b6 1346     		mov	r3, r2
 3925 06b8 9B00     		lsls	r3, r3, #2
 3926 06ba 1344     		add	r3, r3, r2
 3927 06bc 5B00     		lsls	r3, r3, #1
 3928 06be 2B44     		add	r3, r3, r5
 3929 06c0 03F58073 		add	r3, r3, #256
 3930 06c4 54F83330 		ldr	r3, [r4, r3, lsl #3]
 3931              		.loc 1 793 115
 3932 06c8 0B43     		orrs	r3, r3, r1
 3933              		.loc 1 793 164
 3934 06ca 1A06     		lsls	r2, r3, #24
 3935              		.loc 1 793 24
 3936 06cc 019B     		ldr	r3, [sp, #4]
 3937 06ce 1968     		ldr	r1, [r3]
 3938              		.loc 1 793 55
 3939 06d0 9DF83730 		ldrb	r3, [sp, #55]	@ zero_extendqisi2
 3940 06d4 0243     		orrs	r2, r2, r0
 3941 06d6 DB01     		lsls	r3, r3, #7
 3942 06d8 0B44     		add	r3, r3, r1
 3943 06da D033     		adds	r3, r3, #208
 3944 06dc 1A60     		str	r2, [r3]
 794:C:/StellarStudio-7.0/SDKS/StellarESDK-1.7.0/Modules/Drivers/Timers/HRTIM/src\hrtim.c ****                     break;
 3945              		.loc 1 794 21
 3946 06de 00E0     		b	.L175
 3947              	.L262:
 795:C:/StellarStudio-7.0/SDKS/StellarESDK-1.7.0/Modules/Drivers/Timers/HRTIM/src\hrtim.c ****                 default:
 796:C:/StellarStudio-7.0/SDKS/StellarESDK-1.7.0/Modules/Drivers/Timers/HRTIM/src\hrtim.c ****                     /* for MISRA compliance.*/
 797:C:/StellarStudio-7.0/SDKS/StellarESDK-1.7.0/Modules/Drivers/Timers/HRTIM/src\hrtim.c ****                     break;
 3948              		.loc 1 797 21
 3949 06e0 00BF     		nop
 3950              	.L175:
 798:C:/StellarStudio-7.0/SDKS/StellarESDK-1.7.0/Modules/Drivers/Timers/HRTIM/src\hrtim.c ****             }
 799:C:/StellarStudio-7.0/SDKS/StellarESDK-1.7.0/Modules/Drivers/Timers/HRTIM/src\hrtim.c **** 
 800:C:/StellarStudio-7.0/SDKS/StellarESDK-1.7.0/Modules/Drivers/Timers/HRTIM/src\hrtim.c ****             /* Configure the external Event Counter A of a timer (source,
 801:C:/StellarStudio-7.0/SDKS/StellarESDK-1.7.0/Modules/Drivers/Timers/HRTIM/src\hrtim.c ****                threshold, reset mode).*/
 802:C:/StellarStudio-7.0/SDKS/StellarESDK-1.7.0/Modules/Drivers/Timers/HRTIM/src\hrtim.c ****             if (hdp->eev_counter[i][eev_idx - 1U].source != HRTIM_EVENT_NONE) {
 3951              		.loc 1 802 50
 3952 06e2 9DF83710 		ldrb	r1, [sp, #55]	@ zero_extendqisi2
 3953              		.loc 1 802 45
 3954 06e6 9DF83630 		ldrb	r3, [sp, #54]	@ zero_extendqisi2
 3955 06ea 013B     		subs	r3, r3, #1
 3956              		.loc 1 802 50
 3957 06ec 0198     		ldr	r0, [sp, #4]
 3958 06ee 1A46     		mov	r2, r3
 3959 06f0 5200     		lsls	r2, r2, #1
 3960 06f2 1A44     		add	r2, r2, r3
 3961 06f4 9300     		lsls	r3, r2, #2
 3962 06f6 1A46     		mov	r2, r3
 3963 06f8 0B46     		mov	r3, r1
 3964 06fa 1B01     		lsls	r3, r3, #4
 3965 06fc 5B1A     		subs	r3, r3, r1
 3966 06fe DB00     		lsls	r3, r3, #3
 3967 0700 1344     		add	r3, r3, r2
 3968 0702 0344     		add	r3, r3, r0
 3969 0704 03F23453 		addw	r3, r3, #1332
 3970 0708 1B68     		ldr	r3, [r3]
 3971              		.loc 1 802 16
 3972 070a 002B     		cmp	r3, #0
 3973 070c 6AD0     		beq	.L176
 803:C:/StellarStudio-7.0/SDKS/StellarESDK-1.7.0/Modules/Drivers/Timers/HRTIM/src\hrtim.c ****                 /* Set timer External EventCounter A configuration.*/
 804:C:/StellarStudio-7.0/SDKS/StellarESDK-1.7.0/Modules/Drivers/Timers/HRTIM/src\hrtim.c ****                 hrtim_eefr3  =  (hdp->eev_counter[i][eev_idx - 1U].reset_mode) << HRTIM_EEFxR3_EEVA
 3974              		.loc 1 804 67
 3975 070e 9DF83710 		ldrb	r1, [sp, #55]	@ zero_extendqisi2
 3976              		.loc 1 804 62
 3977 0712 9DF83630 		ldrb	r3, [sp, #54]	@ zero_extendqisi2
 3978 0716 013B     		subs	r3, r3, #1
 3979              		.loc 1 804 67
 3980 0718 0198     		ldr	r0, [sp, #4]
 3981 071a 1A46     		mov	r2, r3
 3982 071c 5200     		lsls	r2, r2, #1
 3983 071e 1A44     		add	r2, r2, r3
 3984 0720 9300     		lsls	r3, r2, #2
 3985 0722 1A46     		mov	r2, r3
 3986 0724 0B46     		mov	r3, r1
 3987 0726 1B01     		lsls	r3, r3, #4
 3988 0728 5B1A     		subs	r3, r3, r1
 3989 072a DB00     		lsls	r3, r3, #3
 3990 072c 1344     		add	r3, r3, r2
 3991 072e 0344     		add	r3, r3, r0
 3992 0730 03F5A663 		add	r3, r3, #1328
 3993 0734 1B68     		ldr	r3, [r3]
 3994              		.loc 1 804 30
 3995 0736 9B00     		lsls	r3, r3, #2
 3996 0738 0293     		str	r3, [sp, #8]
 805:C:/StellarStudio-7.0/SDKS/StellarESDK-1.7.0/Modules/Drivers/Timers/HRTIM/src\hrtim.c ****                 hrtim_eefr3 |= ((hdp->eev_counter[i][eev_idx - 1U].source - 1U)) << HRTIM_EEFxR3_EE
 3997              		.loc 1 805 67
 3998 073a 9DF83710 		ldrb	r1, [sp, #55]	@ zero_extendqisi2
 3999              		.loc 1 805 62
 4000 073e 9DF83630 		ldrb	r3, [sp, #54]	@ zero_extendqisi2
 4001 0742 013B     		subs	r3, r3, #1
 4002              		.loc 1 805 67
 4003 0744 0198     		ldr	r0, [sp, #4]
 4004 0746 1A46     		mov	r2, r3
 4005 0748 5200     		lsls	r2, r2, #1
 4006 074a 1A44     		add	r2, r2, r3
 4007 074c 9300     		lsls	r3, r2, #2
 4008 074e 1A46     		mov	r2, r3
 4009 0750 0B46     		mov	r3, r1
 4010 0752 1B01     		lsls	r3, r3, #4
 4011 0754 5B1A     		subs	r3, r3, r1
 4012 0756 DB00     		lsls	r3, r3, #3
 4013 0758 1344     		add	r3, r3, r2
 4014 075a 0344     		add	r3, r3, r0
 4015 075c 03F23453 		addw	r3, r3, #1332
 4016 0760 1B68     		ldr	r3, [r3]
 4017              		.loc 1 805 75
 4018 0762 013B     		subs	r3, r3, #1
 4019              		.loc 1 805 82
 4020 0764 1B01     		lsls	r3, r3, #4
 4021              		.loc 1 805 29
 4022 0766 029A     		ldr	r2, [sp, #8]
 4023 0768 1343     		orrs	r3, r3, r2
 4024 076a 0293     		str	r3, [sp, #8]
 806:C:/StellarStudio-7.0/SDKS/StellarESDK-1.7.0/Modules/Drivers/Timers/HRTIM/src\hrtim.c ****                 hrtim_eefr3 |=  (hdp->eev_counter[i][eev_idx - 1U].counter) << HRTIM_EEFxR3_EEVACNT
 4025              		.loc 1 806 67
 4026 076c 9DF83710 		ldrb	r1, [sp, #55]	@ zero_extendqisi2
 4027              		.loc 1 806 62
 4028 0770 9DF83630 		ldrb	r3, [sp, #54]	@ zero_extendqisi2
 4029 0774 013B     		subs	r3, r3, #1
 4030              		.loc 1 806 67
 4031 0776 0198     		ldr	r0, [sp, #4]
 4032 0778 1A46     		mov	r2, r3
 4033 077a 5200     		lsls	r2, r2, #1
 4034 077c 1A44     		add	r2, r2, r3
 4035 077e 9300     		lsls	r3, r2, #2
 4036 0780 1A46     		mov	r2, r3
 4037 0782 0B46     		mov	r3, r1
 4038 0784 1B01     		lsls	r3, r3, #4
 4039 0786 5B1A     		subs	r3, r3, r1
 4040 0788 DB00     		lsls	r3, r3, #3
 4041 078a 1344     		add	r3, r3, r2
 4042 078c 0344     		add	r3, r3, r0
 4043 078e 03F5A763 		add	r3, r3, #1336
 4044 0792 1B68     		ldr	r3, [r3]
 4045              		.loc 1 806 77
 4046 0794 1B02     		lsls	r3, r3, #8
 4047              		.loc 1 806 29
 4048 0796 029A     		ldr	r2, [sp, #8]
 4049 0798 1343     		orrs	r3, r3, r2
 4050 079a 0293     		str	r3, [sp, #8]
 807:C:/StellarStudio-7.0/SDKS/StellarESDK-1.7.0/Modules/Drivers/Timers/HRTIM/src\hrtim.c **** 
 808:C:/StellarStudio-7.0/SDKS/StellarESDK-1.7.0/Modules/Drivers/Timers/HRTIM/src\hrtim.c ****                 hdp->hrtim->sTimerxRegs[i].EEFxR3 &= ~(HRTIM_EEFxR3_EEVARSTM | HRTIM_EEFxR3_EEVASEL
 4051              		.loc 1 808 20
 4052 079c 019B     		ldr	r3, [sp, #4]
 4053 079e 1A68     		ldr	r2, [r3]
 4054              		.loc 1 808 51
 4055 07a0 9DF83730 		ldrb	r3, [sp, #55]	@ zero_extendqisi2
 4056 07a4 DB01     		lsls	r3, r3, #7
 4057 07a6 1344     		add	r3, r3, r2
 4058 07a8 F033     		adds	r3, r3, #240
 4059 07aa 1868     		ldr	r0, [r3]
 4060              		.loc 1 808 20
 4061 07ac 019B     		ldr	r3, [sp, #4]
 4062 07ae 1968     		ldr	r1, [r3]
 4063              		.loc 1 808 51
 4064 07b0 9DF83720 		ldrb	r2, [sp, #55]	@ zero_extendqisi2
 4065 07b4 C14B     		ldr	r3, .L269
 4066 07b6 0340     		ands	r3, r3, r0
 4067 07b8 D201     		lsls	r2, r2, #7
 4068 07ba 0A44     		add	r2, r2, r1
 4069 07bc F032     		adds	r2, r2, #240
 4070 07be 1360     		str	r3, [r2]
 809:C:/StellarStudio-7.0/SDKS/StellarESDK-1.7.0/Modules/Drivers/Timers/HRTIM/src\hrtim.c ****                 hdp->hrtim->sTimerxRegs[i].EEFxR3 |= (uint32_t)hrtim_eefr3;
 4071              		.loc 1 809 20
 4072 07c0 019B     		ldr	r3, [sp, #4]
 4073 07c2 1A68     		ldr	r2, [r3]
 4074              		.loc 1 809 51
 4075 07c4 9DF83730 		ldrb	r3, [sp, #55]	@ zero_extendqisi2
 4076 07c8 DB01     		lsls	r3, r3, #7
 4077 07ca 1344     		add	r3, r3, r2
 4078 07cc F033     		adds	r3, r3, #240
 4079 07ce 1868     		ldr	r0, [r3]
 4080              		.loc 1 809 20
 4081 07d0 019B     		ldr	r3, [sp, #4]
 4082 07d2 1968     		ldr	r1, [r3]
 4083              		.loc 1 809 51
 4084 07d4 9DF83730 		ldrb	r3, [sp, #55]	@ zero_extendqisi2
 4085 07d8 029A     		ldr	r2, [sp, #8]
 4086 07da 0243     		orrs	r2, r2, r0
 4087 07dc DB01     		lsls	r3, r3, #7
 4088 07de 0B44     		add	r3, r3, r1
 4089 07e0 F033     		adds	r3, r3, #240
 4090 07e2 1A60     		str	r2, [r3]
 4091              	.L176:
 752:C:/StellarStudio-7.0/SDKS/StellarESDK-1.7.0/Modules/Drivers/Timers/HRTIM/src\hrtim.c ****             /* Configure timer event filtering capabilities */
 4092              		.loc 1 752 65 discriminator 2
 4093 07e4 9DF83630 		ldrb	r3, [sp, #54]	@ zero_extendqisi2
 4094 07e8 0133     		adds	r3, r3, #1
 4095 07ea 8DF83630 		strb	r3, [sp, #54]
 4096              	.L162:
 752:C:/StellarStudio-7.0/SDKS/StellarESDK-1.7.0/Modules/Drivers/Timers/HRTIM/src\hrtim.c ****             /* Configure timer event filtering capabilities */
 4097              		.loc 1 752 9 discriminator 1
 4098 07ee 9DF83630 		ldrb	r3, [sp, #54]	@ zero_extendqisi2
 4099 07f2 0A2B     		cmp	r3, #10
 4100 07f4 7FF6A5AC 		bls	.L177
 810:C:/StellarStudio-7.0/SDKS/StellarESDK-1.7.0/Modules/Drivers/Timers/HRTIM/src\hrtim.c ****             }
 811:C:/StellarStudio-7.0/SDKS/StellarESDK-1.7.0/Modules/Drivers/Timers/HRTIM/src\hrtim.c ****         }
 812:C:/StellarStudio-7.0/SDKS/StellarESDK-1.7.0/Modules/Drivers/Timers/HRTIM/src\hrtim.c **** 
 813:C:/StellarStudio-7.0/SDKS/StellarESDK-1.7.0/Modules/Drivers/Timers/HRTIM/src\hrtim.c ****         if (hdp->is_timer_sync_start[i] == true) {
 4101              		.loc 1 813 37
 4102 07f8 9DF83730 		ldrb	r3, [sp, #55]	@ zero_extendqisi2
 4103 07fc 019A     		ldr	r2, [sp, #4]
 4104 07fe 1344     		add	r3, r3, r2
 4105 0800 93F81D3B 		ldrb	r3, [r3, #2845]	@ zero_extendqisi2
 4106              		.loc 1 813 12
 4107 0804 002B     		cmp	r3, #0
 4108 0806 03D0     		beq	.L178
 814:C:/StellarStudio-7.0/SDKS/StellarESDK-1.7.0/Modules/Drivers/Timers/HRTIM/src\hrtim.c ****             cr |= HRTIM_TIMxCR_SYNCSTRTx;
 4109              		.loc 1 814 16
 4110 0808 0F9B     		ldr	r3, [sp, #60]
 4111 080a 43F40063 		orr	r3, r3, #2048
 4112 080e 0F93     		str	r3, [sp, #60]
 4113              	.L178:
 815:C:/StellarStudio-7.0/SDKS/StellarESDK-1.7.0/Modules/Drivers/Timers/HRTIM/src\hrtim.c ****         }
 816:C:/StellarStudio-7.0/SDKS/StellarESDK-1.7.0/Modules/Drivers/Timers/HRTIM/src\hrtim.c **** 
 817:C:/StellarStudio-7.0/SDKS/StellarESDK-1.7.0/Modules/Drivers/Timers/HRTIM/src\hrtim.c ****         if (hdp->is_timer_sync_reset[i] == true) {
 4114              		.loc 1 817 37
 4115 0810 9DF83730 		ldrb	r3, [sp, #55]	@ zero_extendqisi2
 4116 0814 019A     		ldr	r2, [sp, #4]
 4117 0816 1344     		add	r3, r3, r2
 4118 0818 93F8233B 		ldrb	r3, [r3, #2851]	@ zero_extendqisi2
 4119              		.loc 1 817 12
 4120 081c 002B     		cmp	r3, #0
 4121 081e 03D0     		beq	.L179
 818:C:/StellarStudio-7.0/SDKS/StellarESDK-1.7.0/Modules/Drivers/Timers/HRTIM/src\hrtim.c ****             cr |= HRTIM_TIMxCR_SYNCRSTx;
 4122              		.loc 1 818 16
 4123 0820 0F9B     		ldr	r3, [sp, #60]
 4124 0822 43F48063 		orr	r3, r3, #1024
 4125 0826 0F93     		str	r3, [sp, #60]
 4126              	.L179:
 819:C:/StellarStudio-7.0/SDKS/StellarESDK-1.7.0/Modules/Drivers/Timers/HRTIM/src\hrtim.c ****         }
 820:C:/StellarStudio-7.0/SDKS/StellarESDK-1.7.0/Modules/Drivers/Timers/HRTIM/src\hrtim.c **** 
 821:C:/StellarStudio-7.0/SDKS/StellarESDK-1.7.0/Modules/Drivers/Timers/HRTIM/src\hrtim.c ****         /* Timer registers configuration setup.*/
 822:C:/StellarStudio-7.0/SDKS/StellarESDK-1.7.0/Modules/Drivers/Timers/HRTIM/src\hrtim.c ****         hdp->hrtim->sTimerxRegs[i].TIMxCR    = cr | (uint32_t)(hdp->timer_prescaler[i])      |
 4127              		.loc 1 822 84
 4128 0828 9DF83730 		ldrb	r3, [sp, #55]	@ zero_extendqisi2
 4129 082c 019A     		ldr	r2, [sp, #4]
 4130 082e 1344     		add	r3, r3, r2
 4131 0830 93F82630 		ldrb	r3, [r3, #38]	@ zero_extendqisi2
 4132              		.loc 1 822 53
 4133 0834 1A46     		mov	r2, r3
 4134              		.loc 1 822 51
 4135 0836 0F9B     		ldr	r3, [sp, #60]
 4136 0838 1A43     		orrs	r2, r2, r3
 823:C:/StellarStudio-7.0/SDKS/StellarESDK-1.7.0/Modules/Drivers/Timers/HRTIM/src\hrtim.c ****                                                     (uint32_t)(hdp->timer_preload[i].enable) |
 4137              		.loc 1 823 53
 4138 083a 9DF83730 		ldrb	r3, [sp, #55]	@ zero_extendqisi2
 4139              		.loc 1 823 85
 4140 083e 0199     		ldr	r1, [sp, #4]
 4141 0840 5E33     		adds	r3, r3, #94
 4142 0842 DB00     		lsls	r3, r3, #3
 4143 0844 0B44     		add	r3, r3, r1
 4144 0846 5B68     		ldr	r3, [r3, #4]
 822:C:/StellarStudio-7.0/SDKS/StellarESDK-1.7.0/Modules/Drivers/Timers/HRTIM/src\hrtim.c ****                                                     (uint32_t)(hdp->timer_preload[i].enable) |
 4145              		.loc 1 822 94
 4146 0848 42EA0300 		orr	r0, r2, r3
 824:C:/StellarStudio-7.0/SDKS/StellarESDK-1.7.0/Modules/Drivers/Timers/HRTIM/src\hrtim.c ****                                                     (uint32_t)(hdp->timer_preload[i].update_event);
 4147              		.loc 1 824 53
 4148 084c 9DF83730 		ldrb	r3, [sp, #55]	@ zero_extendqisi2
 4149              		.loc 1 824 85
 4150 0850 019A     		ldr	r2, [sp, #4]
 4151 0852 5E33     		adds	r3, r3, #94
 4152 0854 DB00     		lsls	r3, r3, #3
 4153 0856 1344     		add	r3, r3, r2
 4154 0858 9A68     		ldr	r2, [r3, #8]
 822:C:/StellarStudio-7.0/SDKS/StellarESDK-1.7.0/Modules/Drivers/Timers/HRTIM/src\hrtim.c ****                                                     (uint32_t)(hdp->timer_preload[i].enable) |
 4155              		.loc 1 822 12
 4156 085a 019B     		ldr	r3, [sp, #4]
 4157 085c 1968     		ldr	r1, [r3]
 822:C:/StellarStudio-7.0/SDKS/StellarESDK-1.7.0/Modules/Drivers/Timers/HRTIM/src\hrtim.c ****                                                     (uint32_t)(hdp->timer_preload[i].enable) |
 4158              		.loc 1 822 35
 4159 085e 9DF83730 		ldrb	r3, [sp, #55]	@ zero_extendqisi2
 823:C:/StellarStudio-7.0/SDKS/StellarESDK-1.7.0/Modules/Drivers/Timers/HRTIM/src\hrtim.c ****                                                     (uint32_t)(hdp->timer_preload[i].enable) |
 4160              		.loc 1 823 94
 4161 0862 0243     		orrs	r2, r2, r0
 822:C:/StellarStudio-7.0/SDKS/StellarESDK-1.7.0/Modules/Drivers/Timers/HRTIM/src\hrtim.c ****                                                     (uint32_t)(hdp->timer_preload[i].enable) |
 4162              		.loc 1 822 46
 4163 0864 0133     		adds	r3, r3, #1
 4164 0866 DB01     		lsls	r3, r3, #7
 4165 0868 0B44     		add	r3, r3, r1
 4166 086a 1A60     		str	r2, [r3]
 825:C:/StellarStudio-7.0/SDKS/StellarESDK-1.7.0/Modules/Drivers/Timers/HRTIM/src\hrtim.c ****         hdp->hrtim->sTimerxRegs[i].TIMxDIER  = 0U;
 4167              		.loc 1 825 12
 4168 086c 019B     		ldr	r3, [sp, #4]
 4169 086e 1A68     		ldr	r2, [r3]
 4170              		.loc 1 825 35
 4171 0870 9DF83730 		ldrb	r3, [sp, #55]	@ zero_extendqisi2
 4172              		.loc 1 825 46
 4173 0874 DB01     		lsls	r3, r3, #7
 4174 0876 1344     		add	r3, r3, r2
 4175 0878 8C33     		adds	r3, r3, #140
 4176 087a 0022     		movs	r2, #0
 4177 087c 1A60     		str	r2, [r3]
 826:C:/StellarStudio-7.0/SDKS/StellarESDK-1.7.0/Modules/Drivers/Timers/HRTIM/src\hrtim.c ****         hdp->hrtim->sTimerxRegs[i].PERxR     = hdp->timer_period[i];
 4178              		.loc 1 826 65
 4179 087e 9DF83730 		ldrb	r3, [sp, #55]	@ zero_extendqisi2
 4180 0882 019A     		ldr	r2, [sp, #4]
 4181 0884 1433     		adds	r3, r3, #20
 4182 0886 5B00     		lsls	r3, r3, #1
 4183 0888 1344     		add	r3, r3, r2
 4184 088a 9988     		ldrh	r1, [r3, #4]
 4185              		.loc 1 826 12
 4186 088c 019B     		ldr	r3, [sp, #4]
 4187 088e 1A68     		ldr	r2, [r3]
 4188              		.loc 1 826 35
 4189 0890 9DF83730 		ldrb	r3, [sp, #55]	@ zero_extendqisi2
 4190              		.loc 1 826 46
 4191 0894 DB01     		lsls	r3, r3, #7
 4192 0896 1344     		add	r3, r3, r2
 4193 0898 9433     		adds	r3, r3, #148
 4194 089a 1960     		str	r1, [r3]
 827:C:/StellarStudio-7.0/SDKS/StellarESDK-1.7.0/Modules/Drivers/Timers/HRTIM/src\hrtim.c ****         hdp->hrtim->sTimerxRegs[i].REPxR     = 0U;
 4195              		.loc 1 827 12
 4196 089c 019B     		ldr	r3, [sp, #4]
 4197 089e 1A68     		ldr	r2, [r3]
 4198              		.loc 1 827 35
 4199 08a0 9DF83730 		ldrb	r3, [sp, #55]	@ zero_extendqisi2
 4200              		.loc 1 827 46
 4201 08a4 DB01     		lsls	r3, r3, #7
 4202 08a6 1344     		add	r3, r3, r2
 4203 08a8 9833     		adds	r3, r3, #152
 4204 08aa 0022     		movs	r2, #0
 4205 08ac 1A60     		str	r2, [r3]
 828:C:/StellarStudio-7.0/SDKS/StellarESDK-1.7.0/Modules/Drivers/Timers/HRTIM/src\hrtim.c ****         hdp->hrtim->sTimerxRegs[i].CMP1xR    = hdp->timer_cmp[i][HRTIM_CMP1];
 4206              		.loc 1 828 65
 4207 08ae 9DF83720 		ldrb	r2, [sp, #55]	@ zero_extendqisi2
 4208 08b2 019B     		ldr	r3, [sp, #4]
 4209 08b4 0732     		adds	r2, r2, #7
 4210 08b6 33F83210 		ldrh	r1, [r3, r2, lsl #3]
 4211              		.loc 1 828 12
 4212 08ba 019B     		ldr	r3, [sp, #4]
 4213 08bc 1A68     		ldr	r2, [r3]
 4214              		.loc 1 828 35
 4215 08be 9DF83730 		ldrb	r3, [sp, #55]	@ zero_extendqisi2
 4216              		.loc 1 828 46
 4217 08c2 DB01     		lsls	r3, r3, #7
 4218 08c4 1344     		add	r3, r3, r2
 4219 08c6 9C33     		adds	r3, r3, #156
 4220 08c8 1960     		str	r1, [r3]
 829:C:/StellarStudio-7.0/SDKS/StellarESDK-1.7.0/Modules/Drivers/Timers/HRTIM/src\hrtim.c ****         hdp->hrtim->sTimerxRegs[i].CMP2xR    = hdp->timer_cmp[i][HRTIM_CMP2];
 4221              		.loc 1 829 65
 4222 08ca 9DF83730 		ldrb	r3, [sp, #55]	@ zero_extendqisi2
 4223 08ce 019A     		ldr	r2, [sp, #4]
 4224 08d0 DB00     		lsls	r3, r3, #3
 4225 08d2 1344     		add	r3, r3, r2
 4226 08d4 598F     		ldrh	r1, [r3, #58]
 4227              		.loc 1 829 12
 4228 08d6 019B     		ldr	r3, [sp, #4]
 4229 08d8 1A68     		ldr	r2, [r3]
 4230              		.loc 1 829 35
 4231 08da 9DF83730 		ldrb	r3, [sp, #55]	@ zero_extendqisi2
 4232              		.loc 1 829 46
 4233 08de DB01     		lsls	r3, r3, #7
 4234 08e0 1344     		add	r3, r3, r2
 4235 08e2 A433     		adds	r3, r3, #164
 4236 08e4 1960     		str	r1, [r3]
 830:C:/StellarStudio-7.0/SDKS/StellarESDK-1.7.0/Modules/Drivers/Timers/HRTIM/src\hrtim.c ****         hdp->hrtim->sTimerxRegs[i].CMP3xR    = hdp->timer_cmp[i][HRTIM_CMP3];
 4237              		.loc 1 830 65
 4238 08e6 9DF83730 		ldrb	r3, [sp, #55]	@ zero_extendqisi2
 4239 08ea 019A     		ldr	r2, [sp, #4]
 4240 08ec DB00     		lsls	r3, r3, #3
 4241 08ee 1344     		add	r3, r3, r2
 4242 08f0 998F     		ldrh	r1, [r3, #60]
 4243              		.loc 1 830 12
 4244 08f2 019B     		ldr	r3, [sp, #4]
 4245 08f4 1A68     		ldr	r2, [r3]
 4246              		.loc 1 830 35
 4247 08f6 9DF83730 		ldrb	r3, [sp, #55]	@ zero_extendqisi2
 4248              		.loc 1 830 46
 4249 08fa DB01     		lsls	r3, r3, #7
 4250 08fc 1344     		add	r3, r3, r2
 4251 08fe A833     		adds	r3, r3, #168
 4252 0900 1960     		str	r1, [r3]
 831:C:/StellarStudio-7.0/SDKS/StellarESDK-1.7.0/Modules/Drivers/Timers/HRTIM/src\hrtim.c ****         hdp->hrtim->sTimerxRegs[i].CMP4xR    = hdp->timer_cmp[i][HRTIM_CMP4];
 4253              		.loc 1 831 65
 4254 0902 9DF83730 		ldrb	r3, [sp, #55]	@ zero_extendqisi2
 4255 0906 019A     		ldr	r2, [sp, #4]
 4256 0908 DB00     		lsls	r3, r3, #3
 4257 090a 1344     		add	r3, r3, r2
 4258 090c D98F     		ldrh	r1, [r3, #62]
 4259              		.loc 1 831 12
 4260 090e 019B     		ldr	r3, [sp, #4]
 4261 0910 1A68     		ldr	r2, [r3]
 4262              		.loc 1 831 35
 4263 0912 9DF83730 		ldrb	r3, [sp, #55]	@ zero_extendqisi2
 4264              		.loc 1 831 46
 4265 0916 DB01     		lsls	r3, r3, #7
 4266 0918 1344     		add	r3, r3, r2
 4267 091a AC33     		adds	r3, r3, #172
 4268 091c 1960     		str	r1, [r3]
 832:C:/StellarStudio-7.0/SDKS/StellarESDK-1.7.0/Modules/Drivers/Timers/HRTIM/src\hrtim.c ****         hdp->hrtim->sTimerxRegs[i].DTxR      = (((uint32_t)hdp->deadtime[i].rvalue)    << HRTIM_DTx
 4269              		.loc 1 832 76
 4270 091e 9DF83720 		ldrb	r2, [sp, #55]	@ zero_extendqisi2
 4271 0922 0199     		ldr	r1, [sp, #4]
 4272 0924 1346     		mov	r3, r2
 4273 0926 9B00     		lsls	r3, r3, #2
 4274 0928 1344     		add	r3, r3, r2
 4275 092a 5B00     		lsls	r3, r3, #1
 4276 092c 0B44     		add	r3, r3, r1
 4277 092e 8233     		adds	r3, r3, #130
 4278 0930 1B88     		ldrh	r3, [r3]
 4279              		.loc 1 832 88
 4280 0932 1846     		mov	r0, r3
 833:C:/StellarStudio-7.0/SDKS/StellarESDK-1.7.0/Modules/Drivers/Timers/HRTIM/src\hrtim.c ****                                                (((uint32_t)hdp->deadtime[i].rsign)     << HRTIM_DTx
 4281              		.loc 1 833 76
 4282 0934 9DF83720 		ldrb	r2, [sp, #55]	@ zero_extendqisi2
 4283 0938 0199     		ldr	r1, [sp, #4]
 4284 093a 1346     		mov	r3, r2
 4285 093c 9B00     		lsls	r3, r3, #2
 4286 093e 1344     		add	r3, r3, r2
 4287 0940 5B00     		lsls	r3, r3, #1
 4288 0942 0B44     		add	r3, r3, r1
 4289 0944 8433     		adds	r3, r3, #132
 4290 0946 1B78     		ldrb	r3, [r3]	@ zero_extendqisi2
 4291              		.loc 1 833 88
 4292 0948 5B02     		lsls	r3, r3, #9
 832:C:/StellarStudio-7.0/SDKS/StellarESDK-1.7.0/Modules/Drivers/Timers/HRTIM/src\hrtim.c ****         hdp->hrtim->sTimerxRegs[i].DTxR      = (((uint32_t)hdp->deadtime[i].rvalue)    << HRTIM_DTx
 4293              		.loc 1 832 114
 4294 094a 40EA0301 		orr	r1, r0, r3
 834:C:/StellarStudio-7.0/SDKS/StellarESDK-1.7.0/Modules/Drivers/Timers/HRTIM/src\hrtim.c ****                                                (((uint32_t)hdp->deadtime[i].prescaler) << HRTIM_DTx
 4295              		.loc 1 834 76
 4296 094e 9DF83720 		ldrb	r2, [sp, #55]	@ zero_extendqisi2
 4297 0952 0198     		ldr	r0, [sp, #4]
 4298 0954 1346     		mov	r3, r2
 4299 0956 9B00     		lsls	r3, r3, #2
 4300 0958 1344     		add	r3, r3, r2
 4301 095a 5B00     		lsls	r3, r3, #1
 4302 095c 0344     		add	r3, r3, r0
 4303 095e 8133     		adds	r3, r3, #129
 4304 0960 1B78     		ldrb	r3, [r3]	@ zero_extendqisi2
 4305              		.loc 1 834 88
 4306 0962 9B02     		lsls	r3, r3, #10
 833:C:/StellarStudio-7.0/SDKS/StellarESDK-1.7.0/Modules/Drivers/Timers/HRTIM/src\hrtim.c ****                                                (((uint32_t)hdp->deadtime[i].rsign)     << HRTIM_DTx
 4307              		.loc 1 833 114
 4308 0964 1943     		orrs	r1, r1, r3
 835:C:/StellarStudio-7.0/SDKS/StellarESDK-1.7.0/Modules/Drivers/Timers/HRTIM/src\hrtim.c ****                                                (((uint32_t)hdp->deadtime[i].fvalue)    << HRTIM_DTx
 4309              		.loc 1 835 76
 4310 0966 9DF83720 		ldrb	r2, [sp, #55]	@ zero_extendqisi2
 4311 096a 0198     		ldr	r0, [sp, #4]
 4312 096c 1346     		mov	r3, r2
 4313 096e 9B00     		lsls	r3, r3, #2
 4314 0970 1344     		add	r3, r3, r2
 4315 0972 5B00     		lsls	r3, r3, #1
 4316 0974 0344     		add	r3, r3, r0
 4317 0976 8633     		adds	r3, r3, #134
 4318 0978 1B88     		ldrh	r3, [r3]
 4319              		.loc 1 835 88
 4320 097a 1B04     		lsls	r3, r3, #16
 834:C:/StellarStudio-7.0/SDKS/StellarESDK-1.7.0/Modules/Drivers/Timers/HRTIM/src\hrtim.c ****                                                (((uint32_t)hdp->deadtime[i].prescaler) << HRTIM_DTx
 4321              		.loc 1 834 114
 4322 097c 41EA0300 		orr	r0, r1, r3
 836:C:/StellarStudio-7.0/SDKS/StellarESDK-1.7.0/Modules/Drivers/Timers/HRTIM/src\hrtim.c ****                                                (((uint32_t)hdp->deadtime[i].fsign)     << HRTIM_DTx
 4323              		.loc 1 836 76
 4324 0980 9DF83720 		ldrb	r2, [sp, #55]	@ zero_extendqisi2
 4325 0984 0199     		ldr	r1, [sp, #4]
 4326 0986 1346     		mov	r3, r2
 4327 0988 9B00     		lsls	r3, r3, #2
 4328 098a 1344     		add	r3, r3, r2
 4329 098c 5B00     		lsls	r3, r3, #1
 4330 098e 0B44     		add	r3, r3, r1
 4331 0990 8833     		adds	r3, r3, #136
 4332 0992 1B78     		ldrb	r3, [r3]	@ zero_extendqisi2
 4333              		.loc 1 836 88
 4334 0994 5A06     		lsls	r2, r3, #25
 832:C:/StellarStudio-7.0/SDKS/StellarESDK-1.7.0/Modules/Drivers/Timers/HRTIM/src\hrtim.c ****                                                (((uint32_t)hdp->deadtime[i].rsign)     << HRTIM_DTx
 4335              		.loc 1 832 12
 4336 0996 019B     		ldr	r3, [sp, #4]
 4337 0998 1968     		ldr	r1, [r3]
 832:C:/StellarStudio-7.0/SDKS/StellarESDK-1.7.0/Modules/Drivers/Timers/HRTIM/src\hrtim.c ****                                                (((uint32_t)hdp->deadtime[i].rsign)     << HRTIM_DTx
 4338              		.loc 1 832 35
 4339 099a 9DF83730 		ldrb	r3, [sp, #55]	@ zero_extendqisi2
 835:C:/StellarStudio-7.0/SDKS/StellarESDK-1.7.0/Modules/Drivers/Timers/HRTIM/src\hrtim.c ****                                                (((uint32_t)hdp->deadtime[i].fvalue)    << HRTIM_DTx
 4340              		.loc 1 835 114
 4341 099e 0243     		orrs	r2, r2, r0
 832:C:/StellarStudio-7.0/SDKS/StellarESDK-1.7.0/Modules/Drivers/Timers/HRTIM/src\hrtim.c ****                                                (((uint32_t)hdp->deadtime[i].rsign)     << HRTIM_DTx
 4342              		.loc 1 832 46
 4343 09a0 DB01     		lsls	r3, r3, #7
 4344 09a2 0B44     		add	r3, r3, r1
 4345 09a4 B833     		adds	r3, r3, #184
 4346 09a6 1A60     		str	r2, [r3]
 837:C:/StellarStudio-7.0/SDKS/StellarESDK-1.7.0/Modules/Drivers/Timers/HRTIM/src\hrtim.c ****         hdp->hrtim->sTimerxRegs[i].SETx1R    = (uint32_t)(hdp->set_event[i][HRTIM_TIMER_OUTPUT_1]);
 4347              		.loc 1 837 48
 4348 09a8 9DF83730 		ldrb	r3, [sp, #55]	@ zero_extendqisi2
 4349              		.loc 1 837 12
 4350 09ac 019A     		ldr	r2, [sp, #4]
 4351 09ae 1168     		ldr	r1, [r2]
 4352              		.loc 1 837 35
 4353 09b0 9DF83700 		ldrb	r0, [sp, #55]	@ zero_extendqisi2
 4354              		.loc 1 837 76
 4355 09b4 019A     		ldr	r2, [sp, #4]
 4356 09b6 1733     		adds	r3, r3, #23
 4357 09b8 DB00     		lsls	r3, r3, #3
 4358 09ba 1344     		add	r3, r3, r2
 4359 09bc 5A68     		ldr	r2, [r3, #4]
 4360              		.loc 1 837 46
 4361 09be C301     		lsls	r3, r0, #7
 4362 09c0 0B44     		add	r3, r3, r1
 4363 09c2 BC33     		adds	r3, r3, #188
 4364 09c4 1A60     		str	r2, [r3]
 838:C:/StellarStudio-7.0/SDKS/StellarESDK-1.7.0/Modules/Drivers/Timers/HRTIM/src\hrtim.c ****         hdp->hrtim->sTimerxRegs[i].RSTx1R    = (uint32_t)(hdp->rst_event[i][HRTIM_TIMER_OUTPUT_1]);
 4365              		.loc 1 838 48
 4366 09c6 9DF83730 		ldrb	r3, [sp, #55]	@ zero_extendqisi2
 4367              		.loc 1 838 12
 4368 09ca 019A     		ldr	r2, [sp, #4]
 4369 09cc 1168     		ldr	r1, [r2]
 4370              		.loc 1 838 35
 4371 09ce 9DF83700 		ldrb	r0, [sp, #55]	@ zero_extendqisi2
 4372              		.loc 1 838 76
 4373 09d2 019A     		ldr	r2, [sp, #4]
 4374 09d4 3733     		adds	r3, r3, #55
 4375 09d6 DB00     		lsls	r3, r3, #3
 4376 09d8 1344     		add	r3, r3, r2
 4377 09da 5A68     		ldr	r2, [r3, #4]
 4378              		.loc 1 838 46
 4379 09dc C301     		lsls	r3, r0, #7
 4380 09de 0B44     		add	r3, r3, r1
 4381 09e0 C033     		adds	r3, r3, #192
 4382 09e2 1A60     		str	r2, [r3]
 839:C:/StellarStudio-7.0/SDKS/StellarESDK-1.7.0/Modules/Drivers/Timers/HRTIM/src\hrtim.c ****         hdp->hrtim->sTimerxRegs[i].SETx2R    = (uint32_t)(hdp->set_event[i][HRTIM_TIMER_OUTPUT_2]);
 4383              		.loc 1 839 48
 4384 09e4 9DF83730 		ldrb	r3, [sp, #55]	@ zero_extendqisi2
 4385              		.loc 1 839 12
 4386 09e8 019A     		ldr	r2, [sp, #4]
 4387 09ea 1168     		ldr	r1, [r2]
 4388              		.loc 1 839 35
 4389 09ec 9DF83700 		ldrb	r0, [sp, #55]	@ zero_extendqisi2
 4390              		.loc 1 839 76
 4391 09f0 019A     		ldr	r2, [sp, #4]
 4392 09f2 DB00     		lsls	r3, r3, #3
 4393 09f4 1344     		add	r3, r3, r2
 4394 09f6 D3F8C020 		ldr	r2, [r3, #192]
 4395              		.loc 1 839 46
 4396 09fa C301     		lsls	r3, r0, #7
 4397 09fc 0B44     		add	r3, r3, r1
 4398 09fe C433     		adds	r3, r3, #196
 4399 0a00 1A60     		str	r2, [r3]
 840:C:/StellarStudio-7.0/SDKS/StellarESDK-1.7.0/Modules/Drivers/Timers/HRTIM/src\hrtim.c ****         hdp->hrtim->sTimerxRegs[i].RSTx2R    = (uint32_t)(hdp->rst_event[i][HRTIM_TIMER_OUTPUT_2]);
 4400              		.loc 1 840 48
 4401 0a02 9DF83730 		ldrb	r3, [sp, #55]	@ zero_extendqisi2
 4402              		.loc 1 840 12
 4403 0a06 019A     		ldr	r2, [sp, #4]
 4404 0a08 1168     		ldr	r1, [r2]
 4405              		.loc 1 840 35
 4406 0a0a 9DF83700 		ldrb	r0, [sp, #55]	@ zero_extendqisi2
 4407              		.loc 1 840 76
 4408 0a0e 019A     		ldr	r2, [sp, #4]
 4409 0a10 DB00     		lsls	r3, r3, #3
 4410 0a12 1344     		add	r3, r3, r2
 4411 0a14 D3F8C021 		ldr	r2, [r3, #448]
 4412              		.loc 1 840 46
 4413 0a18 C301     		lsls	r3, r0, #7
 4414 0a1a 0B44     		add	r3, r3, r1
 4415 0a1c C833     		adds	r3, r3, #200
 4416 0a1e 1A60     		str	r2, [r3]
 841:C:/StellarStudio-7.0/SDKS/StellarESDK-1.7.0/Modules/Drivers/Timers/HRTIM/src\hrtim.c ****         hdp->hrtim->sTimerxRegs[i].RSTxR     = (uint32_t)(hdp->timer_cntr_rst_event[i]);
 4417              		.loc 1 841 48
 4418 0a20 9DF83730 		ldrb	r3, [sp, #55]	@ zero_extendqisi2
 4419              		.loc 1 841 12
 4420 0a24 019A     		ldr	r2, [sp, #4]
 4421 0a26 1168     		ldr	r1, [r2]
 4422              		.loc 1 841 35
 4423 0a28 9DF83700 		ldrb	r0, [sp, #55]	@ zero_extendqisi2
 4424              		.loc 1 841 84
 4425 0a2c 019A     		ldr	r2, [sp, #4]
 4426 0a2e B633     		adds	r3, r3, #182
 4427 0a30 9B00     		lsls	r3, r3, #2
 4428 0a32 1344     		add	r3, r3, r2
 4429 0a34 5A68     		ldr	r2, [r3, #4]
 4430              		.loc 1 841 46
 4431 0a36 C301     		lsls	r3, r0, #7
 4432 0a38 0B44     		add	r3, r3, r1
 4433 0a3a D433     		adds	r3, r3, #212
 4434 0a3c 1A60     		str	r2, [r3]
 842:C:/StellarStudio-7.0/SDKS/StellarESDK-1.7.0/Modules/Drivers/Timers/HRTIM/src\hrtim.c ****         hdp->hrtim->sTimerxRegs[i].CHPxR     = 0U;
 4435              		.loc 1 842 12
 4436 0a3e 019B     		ldr	r3, [sp, #4]
 4437 0a40 1A68     		ldr	r2, [r3]
 4438              		.loc 1 842 35
 4439 0a42 9DF83730 		ldrb	r3, [sp, #55]	@ zero_extendqisi2
 4440              		.loc 1 842 46
 4441 0a46 DB01     		lsls	r3, r3, #7
 4442 0a48 1344     		add	r3, r3, r2
 4443 0a4a D833     		adds	r3, r3, #216
 4444 0a4c 0022     		movs	r2, #0
 4445 0a4e 1A60     		str	r2, [r3]
 843:C:/StellarStudio-7.0/SDKS/StellarESDK-1.7.0/Modules/Drivers/Timers/HRTIM/src\hrtim.c ****         hdp->hrtim->sTimerxRegs[i].CPT1xCR   = hdp->cpt_unit[i].capture_trg_1;
 4446              		.loc 1 843 64
 4447 0a50 9DF83700 		ldrb	r0, [sp, #55]	@ zero_extendqisi2
 4448              		.loc 1 843 12
 4449 0a54 019B     		ldr	r3, [sp, #4]
 4450 0a56 1968     		ldr	r1, [r3]
 4451              		.loc 1 843 35
 4452 0a58 9DF83730 		ldrb	r3, [sp, #55]	@ zero_extendqisi2
 4453              		.loc 1 843 64
 4454 0a5c 019A     		ldr	r2, [sp, #4]
 4455 0a5e 00F25D10 		addw	r0, r0, #349
 4456 0a62 52F83020 		ldr	r2, [r2, r0, lsl #3]
 4457              		.loc 1 843 46
 4458 0a66 DB01     		lsls	r3, r3, #7
 4459 0a68 0B44     		add	r3, r3, r1
 4460 0a6a DC33     		adds	r3, r3, #220
 4461 0a6c 1A60     		str	r2, [r3]
 844:C:/StellarStudio-7.0/SDKS/StellarESDK-1.7.0/Modules/Drivers/Timers/HRTIM/src\hrtim.c ****         hdp->hrtim->sTimerxRegs[i].CPT2xCR   = hdp->cpt_unit[i].capture_trg_2;
 4462              		.loc 1 844 64
 4463 0a6e 9DF83730 		ldrb	r3, [sp, #55]	@ zero_extendqisi2
 4464              		.loc 1 844 12
 4465 0a72 019A     		ldr	r2, [sp, #4]
 4466 0a74 1168     		ldr	r1, [r2]
 4467              		.loc 1 844 35
 4468 0a76 9DF83700 		ldrb	r0, [sp, #55]	@ zero_extendqisi2
 4469              		.loc 1 844 64
 4470 0a7a 019A     		ldr	r2, [sp, #4]
 4471 0a7c 03F25D13 		addw	r3, r3, #349
 4472 0a80 DB00     		lsls	r3, r3, #3
 4473 0a82 1344     		add	r3, r3, r2
 4474 0a84 5A68     		ldr	r2, [r3, #4]
 4475              		.loc 1 844 46
 4476 0a86 C301     		lsls	r3, r0, #7
 4477 0a88 0B44     		add	r3, r3, r1
 4478 0a8a E033     		adds	r3, r3, #224
 4479 0a8c 1A60     		str	r2, [r3]
 845:C:/StellarStudio-7.0/SDKS/StellarESDK-1.7.0/Modules/Drivers/Timers/HRTIM/src\hrtim.c **** 
 846:C:/StellarStudio-7.0/SDKS/StellarESDK-1.7.0/Modules/Drivers/Timers/HRTIM/src\hrtim.c ****         if (hdp->deadtime[i].enable == true) {
 4480              		.loc 1 846 29
 4481 0a8e 9DF83720 		ldrb	r2, [sp, #55]	@ zero_extendqisi2
 4482 0a92 0199     		ldr	r1, [sp, #4]
 4483 0a94 1346     		mov	r3, r2
 4484 0a96 9B00     		lsls	r3, r3, #2
 4485 0a98 1344     		add	r3, r3, r2
 4486 0a9a 5B00     		lsls	r3, r3, #1
 4487 0a9c 0B44     		add	r3, r3, r1
 4488 0a9e 8033     		adds	r3, r3, #128
 4489 0aa0 1B78     		ldrb	r3, [r3]	@ zero_extendqisi2
 4490              		.loc 1 846 12
 4491 0aa2 002B     		cmp	r3, #0
 4492 0aa4 0CD0     		beq	.L180
 847:C:/StellarStudio-7.0/SDKS/StellarESDK-1.7.0/Modules/Drivers/Timers/HRTIM/src\hrtim.c ****             hdp->hrtim->sTimerxRegs[i].OUTxR = (1UL << HRTIM_OUTxR_DTEN_Pos);
 4493              		.loc 1 847 16
 4494 0aa6 019B     		ldr	r3, [sp, #4]
 4495 0aa8 1A68     		ldr	r2, [r3]
 4496              		.loc 1 847 39
 4497 0aaa 9DF83730 		ldrb	r3, [sp, #55]	@ zero_extendqisi2
 4498              		.loc 1 847 46
 4499 0aae DB01     		lsls	r3, r3, #7
 4500 0ab0 1344     		add	r3, r3, r2
 4501 0ab2 E433     		adds	r3, r3, #228
 4502 0ab4 4FF48072 		mov	r2, #256
 4503 0ab8 1A60     		str	r2, [r3]
 4504 0aba 0AE0     		b	.L181
 4505              	.L270:
 4506              		.align	2
 4507              	.L269:
 4508 0abc 0BC0FFFF 		.word	-16373
 4509              	.L180:
 848:C:/StellarStudio-7.0/SDKS/StellarESDK-1.7.0/Modules/Drivers/Timers/HRTIM/src\hrtim.c ****         } else {
 849:C:/StellarStudio-7.0/SDKS/StellarESDK-1.7.0/Modules/Drivers/Timers/HRTIM/src\hrtim.c ****             hdp->hrtim->sTimerxRegs[i].OUTxR = 0U;
 4510              		.loc 1 849 16
 4511 0ac0 019B     		ldr	r3, [sp, #4]
 4512 0ac2 1A68     		ldr	r2, [r3]
 4513              		.loc 1 849 39
 4514 0ac4 9DF83730 		ldrb	r3, [sp, #55]	@ zero_extendqisi2
 4515              		.loc 1 849 46
 4516 0ac8 DB01     		lsls	r3, r3, #7
 4517 0aca 1344     		add	r3, r3, r2
 4518 0acc E433     		adds	r3, r3, #228
 4519 0ace 0022     		movs	r2, #0
 4520 0ad0 1A60     		str	r2, [r3]
 4521              	.L181:
 850:C:/StellarStudio-7.0/SDKS/StellarESDK-1.7.0/Modules/Drivers/Timers/HRTIM/src\hrtim.c ****         }
 851:C:/StellarStudio-7.0/SDKS/StellarESDK-1.7.0/Modules/Drivers/Timers/HRTIM/src\hrtim.c **** 
 852:C:/StellarStudio-7.0/SDKS/StellarESDK-1.7.0/Modules/Drivers/Timers/HRTIM/src\hrtim.c ****         hdp->hrtim->sTimerxRegs[i].OUTxR |= (((((uint32_t)hdp->fault_state[i][HRTIM_TIMER_OUTPUT_1]
 4522              		.loc 1 852 12 discriminator 2
 4523 0ad2 019B     		ldr	r3, [sp, #4]
 4524 0ad4 1A68     		ldr	r2, [r3]
 4525              		.loc 1 852 42 discriminator 2
 4526 0ad6 9DF83730 		ldrb	r3, [sp, #55]	@ zero_extendqisi2
 4527 0ada DB01     		lsls	r3, r3, #7
 4528 0adc 1344     		add	r3, r3, r2
 4529 0ade E433     		adds	r3, r3, #228
 4530 0ae0 1868     		ldr	r0, [r3]
 4531              		.loc 1 852 78 discriminator 2
 4532 0ae2 9DF83730 		ldrb	r3, [sp, #55]	@ zero_extendqisi2
 4533 0ae6 019A     		ldr	r2, [sp, #4]
 4534 0ae8 03F5AC63 		add	r3, r3, #1376
 4535 0aec 5B00     		lsls	r3, r3, #1
 4536 0aee 1344     		add	r3, r3, r2
 4537 0af0 1B79     		ldrb	r3, [r3, #4]	@ zero_extendqisi2
 4538              		.loc 1 852 103 discriminator 2
 4539 0af2 1B01     		lsls	r3, r3, #4
 4540              		.loc 1 852 130 discriminator 2
 4541 0af4 03F03002 		and	r2, r3, #48
 853:C:/StellarStudio-7.0/SDKS/StellarESDK-1.7.0/Modules/Drivers/Timers/HRTIM/src\hrtim.c ****                                              ((((uint32_t)hdp->fault_state[i][HRTIM_TIMER_OUTPUT_2]
 4542              		.loc 1 853 78 discriminator 2
 4543 0af8 9DF83730 		ldrb	r3, [sp, #55]	@ zero_extendqisi2
 4544 0afc 0199     		ldr	r1, [sp, #4]
 4545 0afe 5B00     		lsls	r3, r3, #1
 4546 0b00 0B44     		add	r3, r3, r1
 4547 0b02 93F8C53A 		ldrb	r3, [r3, #2757]	@ zero_extendqisi2
 4548              		.loc 1 853 103 discriminator 2
 4549 0b06 1B05     		lsls	r3, r3, #20
 4550              		.loc 1 853 130 discriminator 2
 4551 0b08 03F44013 		and	r3, r3, #3145728
 852:C:/StellarStudio-7.0/SDKS/StellarESDK-1.7.0/Modules/Drivers/Timers/HRTIM/src\hrtim.c ****                                              ((((uint32_t)hdp->fault_state[i][HRTIM_TIMER_OUTPUT_2]
 4552              		.loc 1 852 156 discriminator 2
 4553 0b0c 1A43     		orrs	r2, r2, r3
 854:C:/StellarStudio-7.0/SDKS/StellarESDK-1.7.0/Modules/Drivers/Timers/HRTIM/src\hrtim.c ****                                              ((((uint32_t)hdp->idle_state[i][HRTIM_TIMER_OUTPUT_1])
 4554              		.loc 1 854 77 discriminator 2
 4555 0b0e 9DF83710 		ldrb	r1, [sp, #55]	@ zero_extendqisi2
 4556 0b12 019B     		ldr	r3, [sp, #4]
 4557 0b14 01F5AD61 		add	r1, r1, #1384
 4558 0b18 13F81130 		ldrb	r3, [r3, r1, lsl #1]	@ zero_extendqisi2
 4559              		.loc 1 854 103 discriminator 2
 4560 0b1c DB00     		lsls	r3, r3, #3
 4561              		.loc 1 854 130 discriminator 2
 4562 0b1e 03F00803 		and	r3, r3, #8
 853:C:/StellarStudio-7.0/SDKS/StellarESDK-1.7.0/Modules/Drivers/Timers/HRTIM/src\hrtim.c ****                                              ((((uint32_t)hdp->fault_state[i][HRTIM_TIMER_OUTPUT_2]
 4563              		.loc 1 853 156 discriminator 2
 4564 0b22 1A43     		orrs	r2, r2, r3
 855:C:/StellarStudio-7.0/SDKS/StellarESDK-1.7.0/Modules/Drivers/Timers/HRTIM/src\hrtim.c ****                                              ((((uint32_t)hdp->idle_state[i][HRTIM_TIMER_OUTPUT_2])
 4565              		.loc 1 855 77 discriminator 2
 4566 0b24 9DF83730 		ldrb	r3, [sp, #55]	@ zero_extendqisi2
 4567 0b28 0199     		ldr	r1, [sp, #4]
 4568 0b2a 5B00     		lsls	r3, r3, #1
 4569 0b2c 0B44     		add	r3, r3, r1
 4570 0b2e 93F8D13A 		ldrb	r3, [r3, #2769]	@ zero_extendqisi2
 4571              		.loc 1 855 103 discriminator 2
 4572 0b32 DB04     		lsls	r3, r3, #19
 4573              		.loc 1 855 130 discriminator 2
 4574 0b34 03F40023 		and	r3, r3, #524288
 854:C:/StellarStudio-7.0/SDKS/StellarESDK-1.7.0/Modules/Drivers/Timers/HRTIM/src\hrtim.c ****                                              ((((uint32_t)hdp->idle_state[i][HRTIM_TIMER_OUTPUT_1])
 4575              		.loc 1 854 156 discriminator 2
 4576 0b38 1A43     		orrs	r2, r2, r3
 856:C:/StellarStudio-7.0/SDKS/StellarESDK-1.7.0/Modules/Drivers/Timers/HRTIM/src\hrtim.c ****                                              ((((uint32_t)hdp->out_polarity[i][HRTIM_TIMER_OUTPUT_1
 4577              		.loc 1 856 79 discriminator 2
 4578 0b3a 9DF83730 		ldrb	r3, [sp, #55]	@ zero_extendqisi2
 4579 0b3e 0199     		ldr	r1, [sp, #4]
 4580 0b40 03F26C53 		addw	r3, r3, #1388
 4581 0b44 5B00     		lsls	r3, r3, #1
 4582 0b46 0B44     		add	r3, r3, r1
 4583 0b48 1B79     		ldrb	r3, [r3, #4]	@ zero_extendqisi2
 4584              		.loc 1 856 103 discriminator 2
 4585 0b4a 5B00     		lsls	r3, r3, #1
 4586              		.loc 1 856 130 discriminator 2
 4587 0b4c 03F00203 		and	r3, r3, #2
 855:C:/StellarStudio-7.0/SDKS/StellarESDK-1.7.0/Modules/Drivers/Timers/HRTIM/src\hrtim.c ****                                              ((((uint32_t)hdp->idle_state[i][HRTIM_TIMER_OUTPUT_2])
 4588              		.loc 1 855 156 discriminator 2
 4589 0b50 1A43     		orrs	r2, r2, r3
 857:C:/StellarStudio-7.0/SDKS/StellarESDK-1.7.0/Modules/Drivers/Timers/HRTIM/src\hrtim.c ****                                              ((((uint32_t)hdp->out_polarity[i][HRTIM_TIMER_OUTPUT_2
 4590              		.loc 1 857 79 discriminator 2
 4591 0b52 9DF83730 		ldrb	r3, [sp, #55]	@ zero_extendqisi2
 4592 0b56 0199     		ldr	r1, [sp, #4]
 4593 0b58 5B00     		lsls	r3, r3, #1
 4594 0b5a 0B44     		add	r3, r3, r1
 4595 0b5c 93F8DD3A 		ldrb	r3, [r3, #2781]	@ zero_extendqisi2
 4596              		.loc 1 857 103 discriminator 2
 4597 0b60 5B04     		lsls	r3, r3, #17
 4598              		.loc 1 857 130 discriminator 2
 4599 0b62 03F40033 		and	r3, r3, #131072
 856:C:/StellarStudio-7.0/SDKS/StellarESDK-1.7.0/Modules/Drivers/Timers/HRTIM/src\hrtim.c ****                                              ((((uint32_t)hdp->out_polarity[i][HRTIM_TIMER_OUTPUT_1
 4600              		.loc 1 856 156 discriminator 2
 4601 0b66 1A43     		orrs	r2, r2, r3
 852:C:/StellarStudio-7.0/SDKS/StellarESDK-1.7.0/Modules/Drivers/Timers/HRTIM/src\hrtim.c ****                                              ((((uint32_t)hdp->fault_state[i][HRTIM_TIMER_OUTPUT_2]
 4602              		.loc 1 852 12 discriminator 2
 4603 0b68 019B     		ldr	r3, [sp, #4]
 4604 0b6a 1968     		ldr	r1, [r3]
 852:C:/StellarStudio-7.0/SDKS/StellarESDK-1.7.0/Modules/Drivers/Timers/HRTIM/src\hrtim.c ****                                              ((((uint32_t)hdp->fault_state[i][HRTIM_TIMER_OUTPUT_2]
 4605              		.loc 1 852 42 discriminator 2
 4606 0b6c 9DF83730 		ldrb	r3, [sp, #55]	@ zero_extendqisi2
 4607 0b70 0243     		orrs	r2, r2, r0
 4608 0b72 DB01     		lsls	r3, r3, #7
 4609 0b74 0B44     		add	r3, r3, r1
 4610 0b76 E433     		adds	r3, r3, #228
 4611 0b78 1A60     		str	r2, [r3]
 858:C:/StellarStudio-7.0/SDKS/StellarESDK-1.7.0/Modules/Drivers/Timers/HRTIM/src\hrtim.c **** 
 859:C:/StellarStudio-7.0/SDKS/StellarESDK-1.7.0/Modules/Drivers/Timers/HRTIM/src\hrtim.c ****         hdp->hrtim->sTimerxRegs[i].FLTxR     = 0U;
 4612              		.loc 1 859 12 discriminator 2
 4613 0b7a 019B     		ldr	r3, [sp, #4]
 4614 0b7c 1A68     		ldr	r2, [r3]
 4615              		.loc 1 859 35 discriminator 2
 4616 0b7e 9DF83730 		ldrb	r3, [sp, #55]	@ zero_extendqisi2
 4617              		.loc 1 859 46 discriminator 2
 4618 0b82 DB01     		lsls	r3, r3, #7
 4619 0b84 1344     		add	r3, r3, r2
 4620 0b86 E833     		adds	r3, r3, #232
 4621 0b88 0022     		movs	r2, #0
 4622 0b8a 1A60     		str	r2, [r3]
 860:C:/StellarStudio-7.0/SDKS/StellarESDK-1.7.0/Modules/Drivers/Timers/HRTIM/src\hrtim.c **** 
 861:C:/StellarStudio-7.0/SDKS/StellarESDK-1.7.0/Modules/Drivers/Timers/HRTIM/src\hrtim.c ****         hdp->hrtim->sTimerxRegs[i].TIMxCR2 = (hdp->timer_count_mode[i].up_down_mode)               
 4623              		.loc 1 861 71 discriminator 2
 4624 0b8c 9DF83720 		ldrb	r2, [sp, #55]	@ zero_extendqisi2
 4625 0b90 0199     		ldr	r1, [sp, #4]
 4626 0b92 1346     		mov	r3, r2
 4627 0b94 9B00     		lsls	r3, r3, #2
 4628 0b96 1344     		add	r3, r3, r2
 4629 0b98 9B00     		lsls	r3, r3, #2
 4630 0b9a 0B44     		add	r3, r3, r1
 4631 0b9c 03F57773 		add	r3, r3, #988
 4632 0ba0 1B68     		ldr	r3, [r3]
 862:C:/StellarStudio-7.0/SDKS/StellarESDK-1.7.0/Modules/Drivers/Timers/HRTIM/src\hrtim.c ****                                              (hdp->timer_dualdac_enable[i])                        
 4633              		.loc 1 862 72 discriminator 2
 4634 0ba2 9DF83720 		ldrb	r2, [sp, #55]	@ zero_extendqisi2
 4635 0ba6 0199     		ldr	r1, [sp, #4]
 4636 0ba8 0A44     		add	r2, r2, r1
 4637 0baa 92F8E129 		ldrb	r2, [r2, #2529]	@ zero_extendqisi2
 861:C:/StellarStudio-7.0/SDKS/StellarESDK-1.7.0/Modules/Drivers/Timers/HRTIM/src\hrtim.c ****                                              (hdp->timer_dualdac_enable[i])                        
 4638              		.loc 1 861 143 discriminator 2
 4639 0bae 43EA0201 		orr	r1, r3, r2
 863:C:/StellarStudio-7.0/SDKS/StellarESDK-1.7.0/Modules/Drivers/Timers/HRTIM/src\hrtim.c ****                                              (hdp->timer_count_mode[i].rollover)                   
 4640              		.loc 1 863 71 discriminator 2
 4641 0bb2 9DF83720 		ldrb	r2, [sp, #55]	@ zero_extendqisi2
 4642 0bb6 0198     		ldr	r0, [sp, #4]
 4643 0bb8 1346     		mov	r3, r2
 4644 0bba 9B00     		lsls	r3, r3, #2
 4645 0bbc 1344     		add	r3, r3, r2
 4646 0bbe 9B00     		lsls	r3, r3, #2
 4647 0bc0 0344     		add	r3, r3, r0
 4648 0bc2 03F57873 		add	r3, r3, #992
 4649 0bc6 1B88     		ldrh	r3, [r3]
 862:C:/StellarStudio-7.0/SDKS/StellarESDK-1.7.0/Modules/Drivers/Timers/HRTIM/src\hrtim.c ****                                              (hdp->timer_dualdac_enable[i])                        
 4650              		.loc 1 862 143 discriminator 2
 4651 0bc8 1943     		orrs	r1, r1, r3
 864:C:/StellarStudio-7.0/SDKS/StellarESDK-1.7.0/Modules/Drivers/Timers/HRTIM/src\hrtim.c ****                                              (hdp->timer_count_mode[i].out_rollover<<(HRTIM_TIMxCR2
 4652              		.loc 1 864 71 discriminator 2
 4653 0bca 9DF83720 		ldrb	r2, [sp, #55]	@ zero_extendqisi2
 4654 0bce 0198     		ldr	r0, [sp, #4]
 4655 0bd0 1346     		mov	r3, r2
 4656 0bd2 9B00     		lsls	r3, r3, #2
 4657 0bd4 1344     		add	r3, r3, r2
 4658 0bd6 9B00     		lsls	r3, r3, #2
 4659 0bd8 0344     		add	r3, r3, r0
 4660 0bda 03F2E233 		addw	r3, r3, #994
 4661 0bde 1B88     		ldrh	r3, [r3]
 4662              		.loc 1 864 84 discriminator 2
 4663 0be0 9B00     		lsls	r3, r3, #2
 863:C:/StellarStudio-7.0/SDKS/StellarESDK-1.7.0/Modules/Drivers/Timers/HRTIM/src\hrtim.c ****                                              (hdp->timer_count_mode[i].rollover)                   
 4664              		.loc 1 863 143 discriminator 2
 4665 0be2 1943     		orrs	r1, r1, r3
 865:C:/StellarStudio-7.0/SDKS/StellarESDK-1.7.0/Modules/Drivers/Timers/HRTIM/src\hrtim.c ****                                              (hdp->timer_count_mode[i].adc_rollover<<(HRTIM_TIMxCR2
 4666              		.loc 1 865 71 discriminator 2
 4667 0be4 9DF83720 		ldrb	r2, [sp, #55]	@ zero_extendqisi2
 4668 0be8 0198     		ldr	r0, [sp, #4]
 4669 0bea 1346     		mov	r3, r2
 4670 0bec 9B00     		lsls	r3, r3, #2
 4671 0bee 1344     		add	r3, r3, r2
 4672 0bf0 9B00     		lsls	r3, r3, #2
 4673 0bf2 0344     		add	r3, r3, r0
 4674 0bf4 03F57973 		add	r3, r3, #996
 4675 0bf8 1B88     		ldrh	r3, [r3]
 4676              		.loc 1 865 84 discriminator 2
 4677 0bfa 1B01     		lsls	r3, r3, #4
 864:C:/StellarStudio-7.0/SDKS/StellarESDK-1.7.0/Modules/Drivers/Timers/HRTIM/src\hrtim.c ****                                              (hdp->timer_count_mode[i].out_rollover<<(HRTIM_TIMxCR2
 4678              		.loc 1 864 143 discriminator 2
 4679 0bfc 1943     		orrs	r1, r1, r3
 866:C:/StellarStudio-7.0/SDKS/StellarESDK-1.7.0/Modules/Drivers/Timers/HRTIM/src\hrtim.c ****                                              (hdp->timer_count_mode[i].burstmode_rollover<<(HRTIM_T
 4680              		.loc 1 866 71 discriminator 2
 4681 0bfe 9DF83720 		ldrb	r2, [sp, #55]	@ zero_extendqisi2
 4682 0c02 0198     		ldr	r0, [sp, #4]
 4683 0c04 1346     		mov	r3, r2
 4684 0c06 9B00     		lsls	r3, r3, #2
 4685 0c08 1344     		add	r3, r3, r2
 4686 0c0a 9B00     		lsls	r3, r3, #2
 4687 0c0c 0344     		add	r3, r3, r0
 4688 0c0e 03F2E633 		addw	r3, r3, #998
 4689 0c12 1B88     		ldrh	r3, [r3]
 4690              		.loc 1 866 90 discriminator 2
 4691 0c14 9B01     		lsls	r3, r3, #6
 865:C:/StellarStudio-7.0/SDKS/StellarESDK-1.7.0/Modules/Drivers/Timers/HRTIM/src\hrtim.c ****                                              (hdp->timer_count_mode[i].adc_rollover<<(HRTIM_TIMxCR2
 4692              		.loc 1 865 143 discriminator 2
 4693 0c16 41EA0300 		orr	r0, r1, r3
 867:C:/StellarStudio-7.0/SDKS/StellarESDK-1.7.0/Modules/Drivers/Timers/HRTIM/src\hrtim.c ****                                              (hdp->timer_count_mode[i].fault_event_rollover<<(HRTIM
 4694              		.loc 1 867 71 discriminator 2
 4695 0c1a 9DF83720 		ldrb	r2, [sp, #55]	@ zero_extendqisi2
 4696 0c1e 0199     		ldr	r1, [sp, #4]
 4697 0c20 1346     		mov	r3, r2
 4698 0c22 9B00     		lsls	r3, r3, #2
 4699 0c24 1344     		add	r3, r3, r2
 4700 0c26 9B00     		lsls	r3, r3, #2
 4701 0c28 0B44     		add	r3, r3, r1
 4702 0c2a 03F57A73 		add	r3, r3, #1000
 4703 0c2e 1B88     		ldrh	r3, [r3]
 4704              		.loc 1 867 92 discriminator 2
 4705 0c30 1B02     		lsls	r3, r3, #8
 4706 0c32 1A46     		mov	r2, r3
 861:C:/StellarStudio-7.0/SDKS/StellarESDK-1.7.0/Modules/Drivers/Timers/HRTIM/src\hrtim.c ****                                              (hdp->timer_dualdac_enable[i])                        
 4707              		.loc 1 861 12 discriminator 2
 4708 0c34 019B     		ldr	r3, [sp, #4]
 4709 0c36 1968     		ldr	r1, [r3]
 861:C:/StellarStudio-7.0/SDKS/StellarESDK-1.7.0/Modules/Drivers/Timers/HRTIM/src\hrtim.c ****                                              (hdp->timer_dualdac_enable[i])                        
 4710              		.loc 1 861 35 discriminator 2
 4711 0c38 9DF83730 		ldrb	r3, [sp, #55]	@ zero_extendqisi2
 866:C:/StellarStudio-7.0/SDKS/StellarESDK-1.7.0/Modules/Drivers/Timers/HRTIM/src\hrtim.c ****                                              (hdp->timer_count_mode[i].burstmode_rollover<<(HRTIM_T
 4712              		.loc 1 866 143 discriminator 2
 4713 0c3c 0243     		orrs	r2, r2, r0
 861:C:/StellarStudio-7.0/SDKS/StellarESDK-1.7.0/Modules/Drivers/Timers/HRTIM/src\hrtim.c ****                                              (hdp->timer_dualdac_enable[i])                        
 4714              		.loc 1 861 44 discriminator 2
 4715 0c3e DB01     		lsls	r3, r3, #7
 4716 0c40 0B44     		add	r3, r3, r1
 4717 0c42 EC33     		adds	r3, r3, #236
 4718 0c44 1A60     		str	r2, [r3]
 703:C:/StellarStudio-7.0/SDKS/StellarESDK-1.7.0/Modules/Drivers/Timers/HRTIM/src\hrtim.c ****         cr = 0U;
 4719              		.loc 1 703 40 discriminator 2
 4720 0c46 9DF83730 		ldrb	r3, [sp, #55]	@ zero_extendqisi2
 4721 0c4a 0133     		adds	r3, r3, #1
 4722 0c4c 8DF83730 		strb	r3, [sp, #55]
 4723              	.L148:
 703:C:/StellarStudio-7.0/SDKS/StellarESDK-1.7.0/Modules/Drivers/Timers/HRTIM/src\hrtim.c ****         cr = 0U;
 4724              		.loc 1 703 5 discriminator 1
 4725 0c50 9DF83730 		ldrb	r3, [sp, #55]	@ zero_extendqisi2
 4726 0c54 052B     		cmp	r3, #5
 4727 0c56 7FF6ECA9 		bls	.L182
 868:C:/StellarStudio-7.0/SDKS/StellarESDK-1.7.0/Modules/Drivers/Timers/HRTIM/src\hrtim.c ****     }
 869:C:/StellarStudio-7.0/SDKS/StellarESDK-1.7.0/Modules/Drivers/Timers/HRTIM/src\hrtim.c **** 
 870:C:/StellarStudio-7.0/SDKS/StellarESDK-1.7.0/Modules/Drivers/Timers/HRTIM/src\hrtim.c ****     switch (hdp->master_mode) {
 4728              		.loc 1 870 16
 4729 0c5a 019B     		ldr	r3, [sp, #4]
 4730 0c5c 1B7D     		ldrb	r3, [r3, #20]	@ zero_extendqisi2
 4731              		.loc 1 870 5
 4732 0c5e 022B     		cmp	r3, #2
 4733 0c60 0BD0     		beq	.L183
 4734 0c62 022B     		cmp	r3, #2
 4735 0c64 0EDC     		bgt	.L263
 4736 0c66 002B     		cmp	r3, #0
 4737 0c68 0ED0     		beq	.L264
 4738 0c6a 012B     		cmp	r3, #1
 4739 0c6c 00D0     		beq	.L186
 871:C:/StellarStudio-7.0/SDKS/StellarESDK-1.7.0/Modules/Drivers/Timers/HRTIM/src\hrtim.c ****         case HRTIM_MODE_SINGLE_SHOT_NO_RETRIGGERED:
 872:C:/StellarStudio-7.0/SDKS/StellarESDK-1.7.0/Modules/Drivers/Timers/HRTIM/src\hrtim.c ****             break;
 873:C:/StellarStudio-7.0/SDKS/StellarESDK-1.7.0/Modules/Drivers/Timers/HRTIM/src\hrtim.c ****         case HRTIM_MODE_SINGLE_SHOT_RETRIGGERED:
 874:C:/StellarStudio-7.0/SDKS/StellarESDK-1.7.0/Modules/Drivers/Timers/HRTIM/src\hrtim.c ****             mstr_cr |= HRTIM_TIMxCR_RETRIG;
 875:C:/StellarStudio-7.0/SDKS/StellarESDK-1.7.0/Modules/Drivers/Timers/HRTIM/src\hrtim.c ****             break;
 876:C:/StellarStudio-7.0/SDKS/StellarESDK-1.7.0/Modules/Drivers/Timers/HRTIM/src\hrtim.c ****         case HRTIM_MODE_CONTINUOS:
 877:C:/StellarStudio-7.0/SDKS/StellarESDK-1.7.0/Modules/Drivers/Timers/HRTIM/src\hrtim.c ****             mstr_cr |= HRTIM_TIMxCR_CONT;
 878:C:/StellarStudio-7.0/SDKS/StellarESDK-1.7.0/Modules/Drivers/Timers/HRTIM/src\hrtim.c ****             break;
 879:C:/StellarStudio-7.0/SDKS/StellarESDK-1.7.0/Modules/Drivers/Timers/HRTIM/src\hrtim.c ****         default:
 880:C:/StellarStudio-7.0/SDKS/StellarESDK-1.7.0/Modules/Drivers/Timers/HRTIM/src\hrtim.c ****             /* for MISRA compliance */
 881:C:/StellarStudio-7.0/SDKS/StellarESDK-1.7.0/Modules/Drivers/Timers/HRTIM/src\hrtim.c ****             break;
 4740              		.loc 1 881 13
 4741 0c6e 09E0     		b	.L263
 4742              	.L186:
 874:C:/StellarStudio-7.0/SDKS/StellarESDK-1.7.0/Modules/Drivers/Timers/HRTIM/src\hrtim.c ****             break;
 4743              		.loc 1 874 21
 4744 0c70 0E9B     		ldr	r3, [sp, #56]
 4745 0c72 43F01003 		orr	r3, r3, #16
 4746 0c76 0E93     		str	r3, [sp, #56]
 875:C:/StellarStudio-7.0/SDKS/StellarESDK-1.7.0/Modules/Drivers/Timers/HRTIM/src\hrtim.c ****         case HRTIM_MODE_CONTINUOS:
 4747              		.loc 1 875 13
 4748 0c78 07E0     		b	.L187
 4749              	.L183:
 877:C:/StellarStudio-7.0/SDKS/StellarESDK-1.7.0/Modules/Drivers/Timers/HRTIM/src\hrtim.c ****             break;
 4750              		.loc 1 877 21
 4751 0c7a 0E9B     		ldr	r3, [sp, #56]
 4752 0c7c 43F00803 		orr	r3, r3, #8
 4753 0c80 0E93     		str	r3, [sp, #56]
 878:C:/StellarStudio-7.0/SDKS/StellarESDK-1.7.0/Modules/Drivers/Timers/HRTIM/src\hrtim.c ****         default:
 4754              		.loc 1 878 13
 4755 0c82 02E0     		b	.L187
 4756              	.L263:
 4757              		.loc 1 881 13
 4758 0c84 00BF     		nop
 4759 0c86 00E0     		b	.L187
 4760              	.L264:
 872:C:/StellarStudio-7.0/SDKS/StellarESDK-1.7.0/Modules/Drivers/Timers/HRTIM/src\hrtim.c ****         case HRTIM_MODE_SINGLE_SHOT_RETRIGGERED:
 4761              		.loc 1 872 13
 4762 0c88 00BF     		nop
 4763              	.L187:
 882:C:/StellarStudio-7.0/SDKS/StellarESDK-1.7.0/Modules/Drivers/Timers/HRTIM/src\hrtim.c ****     }
 883:C:/StellarStudio-7.0/SDKS/StellarESDK-1.7.0/Modules/Drivers/Timers/HRTIM/src\hrtim.c **** 
 884:C:/StellarStudio-7.0/SDKS/StellarESDK-1.7.0/Modules/Drivers/Timers/HRTIM/src\hrtim.c ****     /* ADC trigger settings.*/
 885:C:/StellarStudio-7.0/SDKS/StellarESDK-1.7.0/Modules/Drivers/Timers/HRTIM/src\hrtim.c ****     /* Set the ADC trigger update source */
 886:C:/StellarStudio-7.0/SDKS/StellarESDK-1.7.0/Modules/Drivers/Timers/HRTIM/src\hrtim.c ****     hrtim_cr1 =  hdp->hrtim->sCommonRegs.CR1;
 4764              		.loc 1 886 21
 4765 0c8a 019B     		ldr	r3, [sp, #4]
 4766 0c8c 1B68     		ldr	r3, [r3]
 4767              		.loc 1 886 15
 4768 0c8e D3F88033 		ldr	r3, [r3, #896]
 4769 0c92 0C93     		str	r3, [sp, #48]
 887:C:/StellarStudio-7.0/SDKS/StellarESDK-1.7.0/Modules/Drivers/Timers/HRTIM/src\hrtim.c ****     hrtim_cr1 &= ~((HRTIM_CR1_ADC1USRC) |
 4770              		.loc 1 887 15
 4771 0c94 0C9A     		ldr	r2, [sp, #48]
 4772 0c96 A04B     		ldr	r3, .L271
 4773 0c98 1340     		ands	r3, r3, r2
 4774 0c9a 0C93     		str	r3, [sp, #48]
 888:C:/StellarStudio-7.0/SDKS/StellarESDK-1.7.0/Modules/Drivers/Timers/HRTIM/src\hrtim.c ****                    (HRTIM_CR1_ADC2USRC) |
 889:C:/StellarStudio-7.0/SDKS/StellarESDK-1.7.0/Modules/Drivers/Timers/HRTIM/src\hrtim.c ****                    (HRTIM_CR1_ADC3USRC) |
 890:C:/StellarStudio-7.0/SDKS/StellarESDK-1.7.0/Modules/Drivers/Timers/HRTIM/src\hrtim.c ****                    (HRTIM_CR1_ADC4USRC));
 891:C:/StellarStudio-7.0/SDKS/StellarESDK-1.7.0/Modules/Drivers/Timers/HRTIM/src\hrtim.c **** 
 892:C:/StellarStudio-7.0/SDKS/StellarESDK-1.7.0/Modules/Drivers/Timers/HRTIM/src\hrtim.c ****     hrtim_adcur = hdp->hrtim->sCommonRegs.ADCUR;
 4775              		.loc 1 892 22
 4776 0c9c 019B     		ldr	r3, [sp, #4]
 4777 0c9e 1B68     		ldr	r3, [r3]
 4778              		.loc 1 892 17
 4779 0ca0 D3F8FC33 		ldr	r3, [r3, #1020]
 4780 0ca4 0B93     		str	r3, [sp, #44]
 893:C:/StellarStudio-7.0/SDKS/StellarESDK-1.7.0/Modules/Drivers/Timers/HRTIM/src\hrtim.c ****     hrtim_adcur &= ~((HRTIM_ADCUR_AD5USRC) |
 4781              		.loc 1 893 17
 4782 0ca6 0B9A     		ldr	r2, [sp, #44]
 4783 0ca8 9C4B     		ldr	r3, .L271+4
 4784 0caa 1340     		ands	r3, r3, r2
 4785 0cac 0B93     		str	r3, [sp, #44]
 894:C:/StellarStudio-7.0/SDKS/StellarESDK-1.7.0/Modules/Drivers/Timers/HRTIM/src\hrtim.c ****                      (HRTIM_ADCUR_AD6USRC) | 
 895:C:/StellarStudio-7.0/SDKS/StellarESDK-1.7.0/Modules/Drivers/Timers/HRTIM/src\hrtim.c ****                      (HRTIM_ADCUR_AD7USRC) | 
 896:C:/StellarStudio-7.0/SDKS/StellarESDK-1.7.0/Modules/Drivers/Timers/HRTIM/src\hrtim.c ****                      (HRTIM_ADCUR_AD8USRC) | 
 897:C:/StellarStudio-7.0/SDKS/StellarESDK-1.7.0/Modules/Drivers/Timers/HRTIM/src\hrtim.c ****                      (HRTIM_ADCUR_AD9USRC) | 
 898:C:/StellarStudio-7.0/SDKS/StellarESDK-1.7.0/Modules/Drivers/Timers/HRTIM/src\hrtim.c ****                      (HRTIM_ADCUR_AD10USRC));
 899:C:/StellarStudio-7.0/SDKS/StellarESDK-1.7.0/Modules/Drivers/Timers/HRTIM/src\hrtim.c **** 
 900:C:/StellarStudio-7.0/SDKS/StellarESDK-1.7.0/Modules/Drivers/Timers/HRTIM/src\hrtim.c ****     for (i = 0U; i < HRTIM_ADCTRIG_NUM; i++) {
 4786              		.loc 1 900 12
 4787 0cae 0023     		movs	r3, #0
 4788 0cb0 8DF83730 		strb	r3, [sp, #55]
 4789              		.loc 1 900 5
 4790 0cb4 91E2     		b	.L188
 4791              	.L202:
 901:C:/StellarStudio-7.0/SDKS/StellarESDK-1.7.0/Modules/Drivers/Timers/HRTIM/src\hrtim.c ****         switch (hdp->adc_trg[i].adc_trigger) {
 4792              		.loc 1 901 32
 4793 0cb6 9DF83730 		ldrb	r3, [sp, #55]	@ zero_extendqisi2
 4794 0cba 019A     		ldr	r2, [sp, #4]
 4795 0cbc 3333     		adds	r3, r3, #51
 4796 0cbe 1B01     		lsls	r3, r3, #4
 4797 0cc0 1344     		add	r3, r3, r2
 4798 0cc2 1B78     		ldrb	r3, [r3]	@ zero_extendqisi2
 4799              		.loc 1 901 9
 4800 0cc4 092B     		cmp	r3, #9
 4801 0cc6 00F28282 		bhi	.L265
 4802 0cca 01A2     		adr	r2, .L191
 4803 0ccc 52F823F0 		ldr	pc, [r2, r3, lsl #2]
 4804              		.p2align 2
 4805              	.L191:
 4806 0cd0 F90C0000 		.word	.L200+1
 4807 0cd4 5D0D0000 		.word	.L199+1
 4808 0cd8 C30D0000 		.word	.L198+1
 4809 0cdc 290E0000 		.word	.L197+1
 4810 0ce0 8F0E0000 		.word	.L196+1
 4811 0ce4 210F0000 		.word	.L195+1
 4812 0ce8 A90F0000 		.word	.L194+1
 4813 0cec 33100000 		.word	.L193+1
 4814 0cf0 BD100000 		.word	.L192+1
 4815 0cf4 45110000 		.word	.L190+1
 4816              		.p2align 1
 4817              	.L200:
 902:C:/StellarStudio-7.0/SDKS/StellarESDK-1.7.0/Modules/Drivers/Timers/HRTIM/src\hrtim.c ****             case HRTIM_ADCTRIGGER_1:
 903:C:/StellarStudio-7.0/SDKS/StellarESDK-1.7.0/Modules/Drivers/Timers/HRTIM/src\hrtim.c ****                 /* Set the update source.*/
 904:C:/StellarStudio-7.0/SDKS/StellarESDK-1.7.0/Modules/Drivers/Timers/HRTIM/src\hrtim.c ****                 hrtim_cr1 &= ~(HRTIM_CR1_ADC1USRC);
 4818              		.loc 1 904 27
 4819 0cf8 0C9B     		ldr	r3, [sp, #48]
 4820 0cfa 23F4E023 		bic	r3, r3, #458752
 4821 0cfe 0C93     		str	r3, [sp, #48]
 905:C:/StellarStudio-7.0/SDKS/StellarESDK-1.7.0/Modules/Drivers/Timers/HRTIM/src\hrtim.c ****                 hrtim_cr1 |= ((hdp->adc_trg[i].update_src << HRTIM_CR1_ADC1USRC_Pos) & HRTIM_CR1_AD
 4822              		.loc 1 905 47
 4823 0d00 9DF83730 		ldrb	r3, [sp, #55]	@ zero_extendqisi2
 4824 0d04 019A     		ldr	r2, [sp, #4]
 4825 0d06 3333     		adds	r3, r3, #51
 4826 0d08 1B01     		lsls	r3, r3, #4
 4827 0d0a 1344     		add	r3, r3, r2
 4828 0d0c 0433     		adds	r3, r3, #4
 4829 0d0e 1B68     		ldr	r3, [r3]
 4830              		.loc 1 905 59
 4831 0d10 1B04     		lsls	r3, r3, #16
 4832              		.loc 1 905 86
 4833 0d12 03F4E023 		and	r3, r3, #458752
 4834              		.loc 1 905 27
 4835 0d16 0C9A     		ldr	r2, [sp, #48]
 4836 0d18 1343     		orrs	r3, r3, r2
 4837 0d1a 0C93     		str	r3, [sp, #48]
 906:C:/StellarStudio-7.0/SDKS/StellarESDK-1.7.0/Modules/Drivers/Timers/HRTIM/src\hrtim.c **** 
 907:C:/StellarStudio-7.0/SDKS/StellarESDK-1.7.0/Modules/Drivers/Timers/HRTIM/src\hrtim.c ****                 /* Set the ADC trigger 1 source.*/
 908:C:/StellarStudio-7.0/SDKS/StellarESDK-1.7.0/Modules/Drivers/Timers/HRTIM/src\hrtim.c ****                 hdp->hrtim->sCommonRegs.ADC1R = hdp->adc_trg[i].event_trigger;
 4838              		.loc 1 908 64
 4839 0d1c 9DF83720 		ldrb	r2, [sp, #55]	@ zero_extendqisi2
 4840              		.loc 1 908 20
 4841 0d20 019B     		ldr	r3, [sp, #4]
 4842 0d22 1B68     		ldr	r3, [r3]
 4843              		.loc 1 908 64
 4844 0d24 0199     		ldr	r1, [sp, #4]
 4845 0d26 1201     		lsls	r2, r2, #4
 4846 0d28 0A44     		add	r2, r2, r1
 4847 0d2a 02F54E72 		add	r2, r2, #824
 4848 0d2e 1268     		ldr	r2, [r2]
 4849              		.loc 1 908 47
 4850 0d30 C3F8BC23 		str	r2, [r3, #956]
 909:C:/StellarStudio-7.0/SDKS/StellarESDK-1.7.0/Modules/Drivers/Timers/HRTIM/src\hrtim.c **** 
 910:C:/StellarStudio-7.0/SDKS/StellarESDK-1.7.0/Modules/Drivers/Timers/HRTIM/src\hrtim.c ****                 /* Post-Scaler rate.*/
 911:C:/StellarStudio-7.0/SDKS/StellarESDK-1.7.0/Modules/Drivers/Timers/HRTIM/src\hrtim.c ****                 hdp->hrtim->sCommonRegs.ADCPS1 |= (uint32_t)(hdp->adc_trg[i].post_scaler_rate << HR
 4851              		.loc 1 911 20
 4852 0d34 019B     		ldr	r3, [sp, #4]
 4853 0d36 1B68     		ldr	r3, [r3]
 4854              		.loc 1 911 48
 4855 0d38 D3F80014 		ldr	r1, [r3, #1024]
 4856              		.loc 1 911 51
 4857 0d3c 9DF83730 		ldrb	r3, [sp, #55]	@ zero_extendqisi2
 4858              		.loc 1 911 95
 4859 0d40 019A     		ldr	r2, [sp, #4]
 4860 0d42 1B01     		lsls	r3, r3, #4
 4861 0d44 1344     		add	r3, r3, r2
 4862 0d46 03F54F73 		add	r3, r3, #828
 4863 0d4a 1B68     		ldr	r3, [r3]
 4864              		.loc 1 911 123
 4865 0d4c 03F01F02 		and	r2, r3, #31
 4866              		.loc 1 911 20
 4867 0d50 019B     		ldr	r3, [sp, #4]
 4868 0d52 1B68     		ldr	r3, [r3]
 4869              		.loc 1 911 48
 4870 0d54 0A43     		orrs	r2, r2, r1
 4871 0d56 C3F80024 		str	r2, [r3, #1024]
 912:C:/StellarStudio-7.0/SDKS/StellarESDK-1.7.0/Modules/Drivers/Timers/HRTIM/src\hrtim.c ****                 break;
 4872              		.loc 1 912 17
 4873 0d5a 39E2     		b	.L201
 4874              	.L199:
 913:C:/StellarStudio-7.0/SDKS/StellarESDK-1.7.0/Modules/Drivers/Timers/HRTIM/src\hrtim.c ****             case HRTIM_ADCTRIGGER_2:
 914:C:/StellarStudio-7.0/SDKS/StellarESDK-1.7.0/Modules/Drivers/Timers/HRTIM/src\hrtim.c ****                 hrtim_cr1 &= ~(HRTIM_CR1_ADC2USRC);
 4875              		.loc 1 914 27
 4876 0d5c 0C9B     		ldr	r3, [sp, #48]
 4877 0d5e 23F46013 		bic	r3, r3, #3670016
 4878 0d62 0C93     		str	r3, [sp, #48]
 915:C:/StellarStudio-7.0/SDKS/StellarESDK-1.7.0/Modules/Drivers/Timers/HRTIM/src\hrtim.c ****                 hrtim_cr1 |= ((hdp->adc_trg[i].update_src << HRTIM_CR1_ADC2USRC_Pos) & HRTIM_CR1_AD
 4879              		.loc 1 915 47
 4880 0d64 9DF83730 		ldrb	r3, [sp, #55]	@ zero_extendqisi2
 4881 0d68 019A     		ldr	r2, [sp, #4]
 4882 0d6a 3333     		adds	r3, r3, #51
 4883 0d6c 1B01     		lsls	r3, r3, #4
 4884 0d6e 1344     		add	r3, r3, r2
 4885 0d70 0433     		adds	r3, r3, #4
 4886 0d72 1B68     		ldr	r3, [r3]
 4887              		.loc 1 915 59
 4888 0d74 DB04     		lsls	r3, r3, #19
 4889              		.loc 1 915 86
 4890 0d76 03F46013 		and	r3, r3, #3670016
 4891              		.loc 1 915 27
 4892 0d7a 0C9A     		ldr	r2, [sp, #48]
 4893 0d7c 1343     		orrs	r3, r3, r2
 4894 0d7e 0C93     		str	r3, [sp, #48]
 916:C:/StellarStudio-7.0/SDKS/StellarESDK-1.7.0/Modules/Drivers/Timers/HRTIM/src\hrtim.c **** 
 917:C:/StellarStudio-7.0/SDKS/StellarESDK-1.7.0/Modules/Drivers/Timers/HRTIM/src\hrtim.c ****                 /* Set the ADC trigger 2 source.*/ 
 918:C:/StellarStudio-7.0/SDKS/StellarESDK-1.7.0/Modules/Drivers/Timers/HRTIM/src\hrtim.c ****                 hdp->hrtim->sCommonRegs.ADC2R = hdp->adc_trg[i].event_trigger;
 4895              		.loc 1 918 64
 4896 0d80 9DF83720 		ldrb	r2, [sp, #55]	@ zero_extendqisi2
 4897              		.loc 1 918 20
 4898 0d84 019B     		ldr	r3, [sp, #4]
 4899 0d86 1B68     		ldr	r3, [r3]
 4900              		.loc 1 918 64
 4901 0d88 0199     		ldr	r1, [sp, #4]
 4902 0d8a 1201     		lsls	r2, r2, #4
 4903 0d8c 0A44     		add	r2, r2, r1
 4904 0d8e 02F54E72 		add	r2, r2, #824
 4905 0d92 1268     		ldr	r2, [r2]
 4906              		.loc 1 918 47
 4907 0d94 C3F8C023 		str	r2, [r3, #960]
 919:C:/StellarStudio-7.0/SDKS/StellarESDK-1.7.0/Modules/Drivers/Timers/HRTIM/src\hrtim.c **** 
 920:C:/StellarStudio-7.0/SDKS/StellarESDK-1.7.0/Modules/Drivers/Timers/HRTIM/src\hrtim.c ****                 /* Post-Scaler rate.*/
 921:C:/StellarStudio-7.0/SDKS/StellarESDK-1.7.0/Modules/Drivers/Timers/HRTIM/src\hrtim.c ****                 hdp->hrtim->sCommonRegs.ADCPS1 |= (uint32_t)(hdp->adc_trg[i].post_scaler_rate << HR
 4908              		.loc 1 921 20
 4909 0d98 019B     		ldr	r3, [sp, #4]
 4910 0d9a 1B68     		ldr	r3, [r3]
 4911              		.loc 1 921 48
 4912 0d9c D3F80014 		ldr	r1, [r3, #1024]
 4913              		.loc 1 921 77
 4914 0da0 9DF83730 		ldrb	r3, [sp, #55]	@ zero_extendqisi2
 4915 0da4 019A     		ldr	r2, [sp, #4]
 4916 0da6 1B01     		lsls	r3, r3, #4
 4917 0da8 1344     		add	r3, r3, r2
 4918 0daa 03F54F73 		add	r3, r3, #828
 4919 0dae 1B68     		ldr	r3, [r3]
 4920              		.loc 1 921 95
 4921 0db0 9B01     		lsls	r3, r3, #6
 4922              		.loc 1 921 123
 4923 0db2 03F4F862 		and	r2, r3, #1984
 4924              		.loc 1 921 20
 4925 0db6 019B     		ldr	r3, [sp, #4]
 4926 0db8 1B68     		ldr	r3, [r3]
 4927              		.loc 1 921 48
 4928 0dba 0A43     		orrs	r2, r2, r1
 4929 0dbc C3F80024 		str	r2, [r3, #1024]
 922:C:/StellarStudio-7.0/SDKS/StellarESDK-1.7.0/Modules/Drivers/Timers/HRTIM/src\hrtim.c ****                 break;
 4930              		.loc 1 922 17
 4931 0dc0 06E2     		b	.L201
 4932              	.L198:
 923:C:/StellarStudio-7.0/SDKS/StellarESDK-1.7.0/Modules/Drivers/Timers/HRTIM/src\hrtim.c ****             case HRTIM_ADCTRIGGER_3:
 924:C:/StellarStudio-7.0/SDKS/StellarESDK-1.7.0/Modules/Drivers/Timers/HRTIM/src\hrtim.c ****                 hrtim_cr1 &= ~(HRTIM_CR1_ADC3USRC);
 4933              		.loc 1 924 27
 4934 0dc2 0C9B     		ldr	r3, [sp, #48]
 4935 0dc4 23F0E073 		bic	r3, r3, #29360128
 4936 0dc8 0C93     		str	r3, [sp, #48]
 925:C:/StellarStudio-7.0/SDKS/StellarESDK-1.7.0/Modules/Drivers/Timers/HRTIM/src\hrtim.c ****                 hrtim_cr1 |= ((hdp->adc_trg[i].update_src << HRTIM_CR1_ADC3USRC_Pos) & HRTIM_CR1_AD
 4937              		.loc 1 925 47
 4938 0dca 9DF83730 		ldrb	r3, [sp, #55]	@ zero_extendqisi2
 4939 0dce 019A     		ldr	r2, [sp, #4]
 4940 0dd0 3333     		adds	r3, r3, #51
 4941 0dd2 1B01     		lsls	r3, r3, #4
 4942 0dd4 1344     		add	r3, r3, r2
 4943 0dd6 0433     		adds	r3, r3, #4
 4944 0dd8 1B68     		ldr	r3, [r3]
 4945              		.loc 1 925 59
 4946 0dda 9B05     		lsls	r3, r3, #22
 4947              		.loc 1 925 86
 4948 0ddc 03F0E073 		and	r3, r3, #29360128
 4949              		.loc 1 925 27
 4950 0de0 0C9A     		ldr	r2, [sp, #48]
 4951 0de2 1343     		orrs	r3, r3, r2
 4952 0de4 0C93     		str	r3, [sp, #48]
 926:C:/StellarStudio-7.0/SDKS/StellarESDK-1.7.0/Modules/Drivers/Timers/HRTIM/src\hrtim.c **** 
 927:C:/StellarStudio-7.0/SDKS/StellarESDK-1.7.0/Modules/Drivers/Timers/HRTIM/src\hrtim.c ****                 /* Set the ADC trigger 3 source.*/ 
 928:C:/StellarStudio-7.0/SDKS/StellarESDK-1.7.0/Modules/Drivers/Timers/HRTIM/src\hrtim.c ****                 hdp->hrtim->sCommonRegs.ADC3R = hdp->adc_trg[i].event_trigger;
 4953              		.loc 1 928 64
 4954 0de6 9DF83720 		ldrb	r2, [sp, #55]	@ zero_extendqisi2
 4955              		.loc 1 928 20
 4956 0dea 019B     		ldr	r3, [sp, #4]
 4957 0dec 1B68     		ldr	r3, [r3]
 4958              		.loc 1 928 64
 4959 0dee 0199     		ldr	r1, [sp, #4]
 4960 0df0 1201     		lsls	r2, r2, #4
 4961 0df2 0A44     		add	r2, r2, r1
 4962 0df4 02F54E72 		add	r2, r2, #824
 4963 0df8 1268     		ldr	r2, [r2]
 4964              		.loc 1 928 47
 4965 0dfa C3F8C423 		str	r2, [r3, #964]
 929:C:/StellarStudio-7.0/SDKS/StellarESDK-1.7.0/Modules/Drivers/Timers/HRTIM/src\hrtim.c **** 
 930:C:/StellarStudio-7.0/SDKS/StellarESDK-1.7.0/Modules/Drivers/Timers/HRTIM/src\hrtim.c ****                 /* Post-Scaler rate.*/
 931:C:/StellarStudio-7.0/SDKS/StellarESDK-1.7.0/Modules/Drivers/Timers/HRTIM/src\hrtim.c ****                 hdp->hrtim->sCommonRegs.ADCPS1 |= (uint32_t)(hdp->adc_trg[i].post_scaler_rate << HR
 4966              		.loc 1 931 20
 4967 0dfe 019B     		ldr	r3, [sp, #4]
 4968 0e00 1B68     		ldr	r3, [r3]
 4969              		.loc 1 931 48
 4970 0e02 D3F80014 		ldr	r1, [r3, #1024]
 4971              		.loc 1 931 77
 4972 0e06 9DF83730 		ldrb	r3, [sp, #55]	@ zero_extendqisi2
 4973 0e0a 019A     		ldr	r2, [sp, #4]
 4974 0e0c 1B01     		lsls	r3, r3, #4
 4975 0e0e 1344     		add	r3, r3, r2
 4976 0e10 03F54F73 		add	r3, r3, #828
 4977 0e14 1B68     		ldr	r3, [r3]
 4978              		.loc 1 931 95
 4979 0e16 1B03     		lsls	r3, r3, #12
 4980              		.loc 1 931 123
 4981 0e18 03F4F832 		and	r2, r3, #126976
 4982              		.loc 1 931 20
 4983 0e1c 019B     		ldr	r3, [sp, #4]
 4984 0e1e 1B68     		ldr	r3, [r3]
 4985              		.loc 1 931 48
 4986 0e20 0A43     		orrs	r2, r2, r1
 4987 0e22 C3F80024 		str	r2, [r3, #1024]
 932:C:/StellarStudio-7.0/SDKS/StellarESDK-1.7.0/Modules/Drivers/Timers/HRTIM/src\hrtim.c ****                 break;
 4988              		.loc 1 932 17
 4989 0e26 D3E1     		b	.L201
 4990              	.L197:
 933:C:/StellarStudio-7.0/SDKS/StellarESDK-1.7.0/Modules/Drivers/Timers/HRTIM/src\hrtim.c ****             case HRTIM_ADCTRIGGER_4:
 934:C:/StellarStudio-7.0/SDKS/StellarESDK-1.7.0/Modules/Drivers/Timers/HRTIM/src\hrtim.c ****                 hrtim_cr1 &= ~(HRTIM_CR1_ADC4USRC);
 4991              		.loc 1 934 27
 4992 0e28 0C9B     		ldr	r3, [sp, #48]
 4993 0e2a 23F06063 		bic	r3, r3, #234881024
 4994 0e2e 0C93     		str	r3, [sp, #48]
 935:C:/StellarStudio-7.0/SDKS/StellarESDK-1.7.0/Modules/Drivers/Timers/HRTIM/src\hrtim.c ****                 hrtim_cr1 |= ((hdp->adc_trg[i].update_src << HRTIM_CR1_ADC4USRC_Pos) & HRTIM_CR1_AD
 4995              		.loc 1 935 47
 4996 0e30 9DF83730 		ldrb	r3, [sp, #55]	@ zero_extendqisi2
 4997 0e34 019A     		ldr	r2, [sp, #4]
 4998 0e36 3333     		adds	r3, r3, #51
 4999 0e38 1B01     		lsls	r3, r3, #4
 5000 0e3a 1344     		add	r3, r3, r2
 5001 0e3c 0433     		adds	r3, r3, #4
 5002 0e3e 1B68     		ldr	r3, [r3]
 5003              		.loc 1 935 59
 5004 0e40 5B06     		lsls	r3, r3, #25
 5005              		.loc 1 935 86
 5006 0e42 03F06063 		and	r3, r3, #234881024
 5007              		.loc 1 935 27
 5008 0e46 0C9A     		ldr	r2, [sp, #48]
 5009 0e48 1343     		orrs	r3, r3, r2
 5010 0e4a 0C93     		str	r3, [sp, #48]
 936:C:/StellarStudio-7.0/SDKS/StellarESDK-1.7.0/Modules/Drivers/Timers/HRTIM/src\hrtim.c **** 
 937:C:/StellarStudio-7.0/SDKS/StellarESDK-1.7.0/Modules/Drivers/Timers/HRTIM/src\hrtim.c ****                 /* Set the ADC trigger 4 source.*/ 
 938:C:/StellarStudio-7.0/SDKS/StellarESDK-1.7.0/Modules/Drivers/Timers/HRTIM/src\hrtim.c ****                 hdp->hrtim->sCommonRegs.ADC4R = hdp->adc_trg[i].event_trigger;
 5011              		.loc 1 938 64
 5012 0e4c 9DF83720 		ldrb	r2, [sp, #55]	@ zero_extendqisi2
 5013              		.loc 1 938 20
 5014 0e50 019B     		ldr	r3, [sp, #4]
 5015 0e52 1B68     		ldr	r3, [r3]
 5016              		.loc 1 938 64
 5017 0e54 0199     		ldr	r1, [sp, #4]
 5018 0e56 1201     		lsls	r2, r2, #4
 5019 0e58 0A44     		add	r2, r2, r1
 5020 0e5a 02F54E72 		add	r2, r2, #824
 5021 0e5e 1268     		ldr	r2, [r2]
 5022              		.loc 1 938 47
 5023 0e60 C3F8C823 		str	r2, [r3, #968]
 939:C:/StellarStudio-7.0/SDKS/StellarESDK-1.7.0/Modules/Drivers/Timers/HRTIM/src\hrtim.c **** 
 940:C:/StellarStudio-7.0/SDKS/StellarESDK-1.7.0/Modules/Drivers/Timers/HRTIM/src\hrtim.c ****                 /* Post-Scaler rate.*/
 941:C:/StellarStudio-7.0/SDKS/StellarESDK-1.7.0/Modules/Drivers/Timers/HRTIM/src\hrtim.c ****                 hdp->hrtim->sCommonRegs.ADCPS1 |= (uint32_t)(hdp->adc_trg[i].post_scaler_rate << HR
 5024              		.loc 1 941 20
 5025 0e64 019B     		ldr	r3, [sp, #4]
 5026 0e66 1B68     		ldr	r3, [r3]
 5027              		.loc 1 941 48
 5028 0e68 D3F80014 		ldr	r1, [r3, #1024]
 5029              		.loc 1 941 77
 5030 0e6c 9DF83730 		ldrb	r3, [sp, #55]	@ zero_extendqisi2
 5031 0e70 019A     		ldr	r2, [sp, #4]
 5032 0e72 1B01     		lsls	r3, r3, #4
 5033 0e74 1344     		add	r3, r3, r2
 5034 0e76 03F54F73 		add	r3, r3, #828
 5035 0e7a 1B68     		ldr	r3, [r3]
 5036              		.loc 1 941 95
 5037 0e7c 9B04     		lsls	r3, r3, #18
 5038              		.loc 1 941 123
 5039 0e7e 03F4F802 		and	r2, r3, #8126464
 5040              		.loc 1 941 20
 5041 0e82 019B     		ldr	r3, [sp, #4]
 5042 0e84 1B68     		ldr	r3, [r3]
 5043              		.loc 1 941 48
 5044 0e86 0A43     		orrs	r2, r2, r1
 5045 0e88 C3F80024 		str	r2, [r3, #1024]
 942:C:/StellarStudio-7.0/SDKS/StellarESDK-1.7.0/Modules/Drivers/Timers/HRTIM/src\hrtim.c ****                 break;
 5046              		.loc 1 942 17
 5047 0e8c A0E1     		b	.L201
 5048              	.L196:
 943:C:/StellarStudio-7.0/SDKS/StellarESDK-1.7.0/Modules/Drivers/Timers/HRTIM/src\hrtim.c ****             case HRTIM_ADCTRIGGER_5:
 944:C:/StellarStudio-7.0/SDKS/StellarESDK-1.7.0/Modules/Drivers/Timers/HRTIM/src\hrtim.c ****                 hrtim_adcur &= ~(HRTIM_ADCUR_AD5USRC);
 5049              		.loc 1 944 29
 5050 0e8e 0B9B     		ldr	r3, [sp, #44]
 5051 0e90 23F00703 		bic	r3, r3, #7
 5052 0e94 0B93     		str	r3, [sp, #44]
 945:C:/StellarStudio-7.0/SDKS/StellarESDK-1.7.0/Modules/Drivers/Timers/HRTIM/src\hrtim.c ****                 hrtim_adcur |= ((hdp->adc_trg[i].update_src >> 16U) & HRTIM_ADCUR_AD5USRC);
 5053              		.loc 1 945 49
 5054 0e96 9DF83730 		ldrb	r3, [sp, #55]	@ zero_extendqisi2
 5055 0e9a 019A     		ldr	r2, [sp, #4]
 5056 0e9c 3333     		adds	r3, r3, #51
 5057 0e9e 1B01     		lsls	r3, r3, #4
 5058 0ea0 1344     		add	r3, r3, r2
 5059 0ea2 0433     		adds	r3, r3, #4
 5060 0ea4 1B68     		ldr	r3, [r3]
 5061              		.loc 1 945 61
 5062 0ea6 1B0C     		lsrs	r3, r3, #16
 5063              		.loc 1 945 69
 5064 0ea8 03F00703 		and	r3, r3, #7
 5065              		.loc 1 945 29
 5066 0eac 0B9A     		ldr	r2, [sp, #44]
 5067 0eae 1343     		orrs	r3, r3, r2
 5068 0eb0 0B93     		str	r3, [sp, #44]
 946:C:/StellarStudio-7.0/SDKS/StellarESDK-1.7.0/Modules/Drivers/Timers/HRTIM/src\hrtim.c **** 
 947:C:/StellarStudio-7.0/SDKS/StellarESDK-1.7.0/Modules/Drivers/Timers/HRTIM/src\hrtim.c ****                 /* Set the ADC trigger 5 source.*/
 948:C:/StellarStudio-7.0/SDKS/StellarESDK-1.7.0/Modules/Drivers/Timers/HRTIM/src\hrtim.c ****                 hdp->hrtim->sCommonRegs.ADCER &= ~(HRTIM_ADCER_AD5TRG);
 5069              		.loc 1 948 20
 5070 0eb2 019B     		ldr	r3, [sp, #4]
 5071 0eb4 1B68     		ldr	r3, [r3]
 5072              		.loc 1 948 47
 5073 0eb6 D3F8F823 		ldr	r2, [r3, #1016]
 5074              		.loc 1 948 20
 5075 0eba 019B     		ldr	r3, [sp, #4]
 5076 0ebc 1B68     		ldr	r3, [r3]
 5077              		.loc 1 948 47
 5078 0ebe 22F01F02 		bic	r2, r2, #31
 5079 0ec2 C3F8F823 		str	r2, [r3, #1016]
 949:C:/StellarStudio-7.0/SDKS/StellarESDK-1.7.0/Modules/Drivers/Timers/HRTIM/src\hrtim.c ****                 hdp->hrtim->sCommonRegs.ADCER |= ((hdp->adc_trg[i].event_trigger << HRTIM_ADCER_AD5
 5080              		.loc 1 949 20
 5081 0ec6 019B     		ldr	r3, [sp, #4]
 5082 0ec8 1B68     		ldr	r3, [r3]
 5083              		.loc 1 949 47
 5084 0eca D3F8F813 		ldr	r1, [r3, #1016]
 5085              		.loc 1 949 82
 5086 0ece 9DF83730 		ldrb	r3, [sp, #55]	@ zero_extendqisi2
 5087 0ed2 019A     		ldr	r2, [sp, #4]
 5088 0ed4 1B01     		lsls	r3, r3, #4
 5089 0ed6 1344     		add	r3, r3, r2
 5090 0ed8 03F54E73 		add	r3, r3, #824
 5091 0edc 1B68     		ldr	r3, [r3]
 5092              		.loc 1 949 109
 5093 0ede 03F01F02 		and	r2, r3, #31
 5094              		.loc 1 949 20
 5095 0ee2 019B     		ldr	r3, [sp, #4]
 5096 0ee4 1B68     		ldr	r3, [r3]
 5097              		.loc 1 949 47
 5098 0ee6 0A43     		orrs	r2, r2, r1
 5099 0ee8 C3F8F823 		str	r2, [r3, #1016]
 950:C:/StellarStudio-7.0/SDKS/StellarESDK-1.7.0/Modules/Drivers/Timers/HRTIM/src\hrtim.c **** 
 951:C:/StellarStudio-7.0/SDKS/StellarESDK-1.7.0/Modules/Drivers/Timers/HRTIM/src\hrtim.c ****                 /*Post-Scaler rate*/
 952:C:/StellarStudio-7.0/SDKS/StellarESDK-1.7.0/Modules/Drivers/Timers/HRTIM/src\hrtim.c ****                 hdp->hrtim->sCommonRegs.ADCPS1 |= (uint32_t)(hdp->adc_trg[i].post_scaler_rate << HR
 5100              		.loc 1 952 20
 5101 0eec 019B     		ldr	r3, [sp, #4]
 5102 0eee 1B68     		ldr	r3, [r3]
 5103              		.loc 1 952 48
 5104 0ef0 D3F80014 		ldr	r1, [r3, #1024]
 5105              		.loc 1 952 77
 5106 0ef4 9DF83730 		ldrb	r3, [sp, #55]	@ zero_extendqisi2
 5107 0ef8 019A     		ldr	r2, [sp, #4]
 5108 0efa 1B01     		lsls	r3, r3, #4
 5109 0efc 1344     		add	r3, r3, r2
 5110 0efe 03F54F73 		add	r3, r3, #828
 5111 0f02 1B68     		ldr	r3, [r3]
 5112              		.loc 1 952 95
 5113 0f04 1B06     		lsls	r3, r3, #24
 5114              		.loc 1 952 123
 5115 0f06 03F0F852 		and	r2, r3, #520093696
 5116              		.loc 1 952 20
 5117 0f0a 019B     		ldr	r3, [sp, #4]
 5118 0f0c 1B68     		ldr	r3, [r3]
 5119              		.loc 1 952 48
 5120 0f0e 0A43     		orrs	r2, r2, r1
 5121 0f10 C3F80024 		str	r2, [r3, #1024]
 953:C:/StellarStudio-7.0/SDKS/StellarESDK-1.7.0/Modules/Drivers/Timers/HRTIM/src\hrtim.c ****                 break;
 5122              		.loc 1 953 17
 5123 0f14 5CE1     		b	.L201
 5124              	.L272:
 5125 0f16 00BF     		.align	2
 5126              	.L271:
 5127 0f18 FFFF00F0 		.word	-268369921
 5128 0f1c 888888FF 		.word	-7829368
 5129              	.L195:
 954:C:/StellarStudio-7.0/SDKS/StellarESDK-1.7.0/Modules/Drivers/Timers/HRTIM/src\hrtim.c ****             case HRTIM_ADCTRIGGER_6:
 955:C:/StellarStudio-7.0/SDKS/StellarESDK-1.7.0/Modules/Drivers/Timers/HRTIM/src\hrtim.c ****                 hrtim_adcur &= ~(HRTIM_ADCUR_AD6USRC);
 5130              		.loc 1 955 29
 5131 0f20 0B9B     		ldr	r3, [sp, #44]
 5132 0f22 23F07003 		bic	r3, r3, #112
 5133 0f26 0B93     		str	r3, [sp, #44]
 956:C:/StellarStudio-7.0/SDKS/StellarESDK-1.7.0/Modules/Drivers/Timers/HRTIM/src\hrtim.c ****                 hrtim_adcur |= ((hdp->adc_trg[i].update_src >> 12U) & HRTIM_ADCUR_AD6USRC);
 5134              		.loc 1 956 49
 5135 0f28 9DF83730 		ldrb	r3, [sp, #55]	@ zero_extendqisi2
 5136 0f2c 019A     		ldr	r2, [sp, #4]
 5137 0f2e 3333     		adds	r3, r3, #51
 5138 0f30 1B01     		lsls	r3, r3, #4
 5139 0f32 1344     		add	r3, r3, r2
 5140 0f34 0433     		adds	r3, r3, #4
 5141 0f36 1B68     		ldr	r3, [r3]
 5142              		.loc 1 956 61
 5143 0f38 1B0B     		lsrs	r3, r3, #12
 5144              		.loc 1 956 69
 5145 0f3a 03F07003 		and	r3, r3, #112
 5146              		.loc 1 956 29
 5147 0f3e 0B9A     		ldr	r2, [sp, #44]
 5148 0f40 1343     		orrs	r3, r3, r2
 5149 0f42 0B93     		str	r3, [sp, #44]
 957:C:/StellarStudio-7.0/SDKS/StellarESDK-1.7.0/Modules/Drivers/Timers/HRTIM/src\hrtim.c **** 
 958:C:/StellarStudio-7.0/SDKS/StellarESDK-1.7.0/Modules/Drivers/Timers/HRTIM/src\hrtim.c ****                 /* Set the ADC trigger 6 source.*/
 959:C:/StellarStudio-7.0/SDKS/StellarESDK-1.7.0/Modules/Drivers/Timers/HRTIM/src\hrtim.c ****                 hdp->hrtim->sCommonRegs.ADCER &= ~(HRTIM_ADCER_AD6TRG);
 5150              		.loc 1 959 20
 5151 0f44 019B     		ldr	r3, [sp, #4]
 5152 0f46 1B68     		ldr	r3, [r3]
 5153              		.loc 1 959 47
 5154 0f48 D3F8F823 		ldr	r2, [r3, #1016]
 5155              		.loc 1 959 20
 5156 0f4c 019B     		ldr	r3, [sp, #4]
 5157 0f4e 1B68     		ldr	r3, [r3]
 5158              		.loc 1 959 47
 5159 0f50 22F47872 		bic	r2, r2, #992
 5160 0f54 C3F8F823 		str	r2, [r3, #1016]
 960:C:/StellarStudio-7.0/SDKS/StellarESDK-1.7.0/Modules/Drivers/Timers/HRTIM/src\hrtim.c ****                 hdp->hrtim->sCommonRegs.ADCER |= ((hdp->adc_trg[i].event_trigger << HRTIM_ADCER_AD6
 5161              		.loc 1 960 20
 5162 0f58 019B     		ldr	r3, [sp, #4]
 5163 0f5a 1B68     		ldr	r3, [r3]
 5164              		.loc 1 960 47
 5165 0f5c D3F8F813 		ldr	r1, [r3, #1016]
 5166              		.loc 1 960 67
 5167 0f60 9DF83730 		ldrb	r3, [sp, #55]	@ zero_extendqisi2
 5168 0f64 019A     		ldr	r2, [sp, #4]
 5169 0f66 1B01     		lsls	r3, r3, #4
 5170 0f68 1344     		add	r3, r3, r2
 5171 0f6a 03F54E73 		add	r3, r3, #824
 5172 0f6e 1B68     		ldr	r3, [r3]
 5173              		.loc 1 960 82
 5174 0f70 5B01     		lsls	r3, r3, #5
 5175              		.loc 1 960 109
 5176 0f72 03F47872 		and	r2, r3, #992
 5177              		.loc 1 960 20
 5178 0f76 019B     		ldr	r3, [sp, #4]
 5179 0f78 1B68     		ldr	r3, [r3]
 5180              		.loc 1 960 47
 5181 0f7a 0A43     		orrs	r2, r2, r1
 5182 0f7c C3F8F823 		str	r2, [r3, #1016]
 961:C:/StellarStudio-7.0/SDKS/StellarESDK-1.7.0/Modules/Drivers/Timers/HRTIM/src\hrtim.c **** 
 962:C:/StellarStudio-7.0/SDKS/StellarESDK-1.7.0/Modules/Drivers/Timers/HRTIM/src\hrtim.c ****                 /* Post-Scaler rate.*/
 963:C:/StellarStudio-7.0/SDKS/StellarESDK-1.7.0/Modules/Drivers/Timers/HRTIM/src\hrtim.c ****                 hdp->hrtim->sCommonRegs.ADCPS2 |= (uint32_t)(hdp->adc_trg[i].post_scaler_rate << HR
 5183              		.loc 1 963 20
 5184 0f80 019B     		ldr	r3, [sp, #4]
 5185 0f82 1B68     		ldr	r3, [r3]
 5186              		.loc 1 963 48
 5187 0f84 D3F80414 		ldr	r1, [r3, #1028]
 5188              		.loc 1 963 51
 5189 0f88 9DF83730 		ldrb	r3, [sp, #55]	@ zero_extendqisi2
 5190              		.loc 1 963 95
 5191 0f8c 019A     		ldr	r2, [sp, #4]
 5192 0f8e 1B01     		lsls	r3, r3, #4
 5193 0f90 1344     		add	r3, r3, r2
 5194 0f92 03F54F73 		add	r3, r3, #828
 5195 0f96 1B68     		ldr	r3, [r3]
 5196              		.loc 1 963 123
 5197 0f98 03F01F02 		and	r2, r3, #31
 5198              		.loc 1 963 20
 5199 0f9c 019B     		ldr	r3, [sp, #4]
 5200 0f9e 1B68     		ldr	r3, [r3]
 5201              		.loc 1 963 48
 5202 0fa0 0A43     		orrs	r2, r2, r1
 5203 0fa2 C3F80424 		str	r2, [r3, #1028]
 964:C:/StellarStudio-7.0/SDKS/StellarESDK-1.7.0/Modules/Drivers/Timers/HRTIM/src\hrtim.c ****                 break;
 5204              		.loc 1 964 17
 5205 0fa6 13E1     		b	.L201
 5206              	.L194:
 965:C:/StellarStudio-7.0/SDKS/StellarESDK-1.7.0/Modules/Drivers/Timers/HRTIM/src\hrtim.c ****             case HRTIM_ADCTRIGGER_7:
 966:C:/StellarStudio-7.0/SDKS/StellarESDK-1.7.0/Modules/Drivers/Timers/HRTIM/src\hrtim.c ****                 hrtim_adcur &= ~(HRTIM_ADCUR_AD7USRC);
 5207              		.loc 1 966 29
 5208 0fa8 0B9B     		ldr	r3, [sp, #44]
 5209 0faa 23F4E063 		bic	r3, r3, #1792
 5210 0fae 0B93     		str	r3, [sp, #44]
 967:C:/StellarStudio-7.0/SDKS/StellarESDK-1.7.0/Modules/Drivers/Timers/HRTIM/src\hrtim.c ****                 hrtim_adcur |= ((hdp->adc_trg[i].update_src >> 8U) & HRTIM_ADCUR_AD7USRC);
 5211              		.loc 1 967 49
 5212 0fb0 9DF83730 		ldrb	r3, [sp, #55]	@ zero_extendqisi2
 5213 0fb4 019A     		ldr	r2, [sp, #4]
 5214 0fb6 3333     		adds	r3, r3, #51
 5215 0fb8 1B01     		lsls	r3, r3, #4
 5216 0fba 1344     		add	r3, r3, r2
 5217 0fbc 0433     		adds	r3, r3, #4
 5218 0fbe 1B68     		ldr	r3, [r3]
 5219              		.loc 1 967 61
 5220 0fc0 1B0A     		lsrs	r3, r3, #8
 5221              		.loc 1 967 68
 5222 0fc2 03F4E063 		and	r3, r3, #1792
 5223              		.loc 1 967 29
 5224 0fc6 0B9A     		ldr	r2, [sp, #44]
 5225 0fc8 1343     		orrs	r3, r3, r2
 5226 0fca 0B93     		str	r3, [sp, #44]
 968:C:/StellarStudio-7.0/SDKS/StellarESDK-1.7.0/Modules/Drivers/Timers/HRTIM/src\hrtim.c **** 
 969:C:/StellarStudio-7.0/SDKS/StellarESDK-1.7.0/Modules/Drivers/Timers/HRTIM/src\hrtim.c ****                 /* Set the ADC trigger 7 source.*/
 970:C:/StellarStudio-7.0/SDKS/StellarESDK-1.7.0/Modules/Drivers/Timers/HRTIM/src\hrtim.c ****                 hdp->hrtim->sCommonRegs.ADCER &= ~(HRTIM_ADCER_AD7TRG);
 5227              		.loc 1 970 20
 5228 0fcc 019B     		ldr	r3, [sp, #4]
 5229 0fce 1B68     		ldr	r3, [r3]
 5230              		.loc 1 970 47
 5231 0fd0 D3F8F823 		ldr	r2, [r3, #1016]
 5232              		.loc 1 970 20
 5233 0fd4 019B     		ldr	r3, [sp, #4]
 5234 0fd6 1B68     		ldr	r3, [r3]
 5235              		.loc 1 970 47
 5236 0fd8 22F4F842 		bic	r2, r2, #31744
 5237 0fdc C3F8F823 		str	r2, [r3, #1016]
 971:C:/StellarStudio-7.0/SDKS/StellarESDK-1.7.0/Modules/Drivers/Timers/HRTIM/src\hrtim.c ****                 hdp->hrtim->sCommonRegs.ADCER |= ((hdp->adc_trg[i].event_trigger << HRTIM_ADCER_AD7
 5238              		.loc 1 971 20
 5239 0fe0 019B     		ldr	r3, [sp, #4]
 5240 0fe2 1B68     		ldr	r3, [r3]
 5241              		.loc 1 971 47
 5242 0fe4 D3F8F813 		ldr	r1, [r3, #1016]
 5243              		.loc 1 971 67
 5244 0fe8 9DF83730 		ldrb	r3, [sp, #55]	@ zero_extendqisi2
 5245 0fec 019A     		ldr	r2, [sp, #4]
 5246 0fee 1B01     		lsls	r3, r3, #4
 5247 0ff0 1344     		add	r3, r3, r2
 5248 0ff2 03F54E73 		add	r3, r3, #824
 5249 0ff6 1B68     		ldr	r3, [r3]
 5250              		.loc 1 971 82
 5251 0ff8 9B02     		lsls	r3, r3, #10
 5252              		.loc 1 971 109
 5253 0ffa 03F4F842 		and	r2, r3, #31744
 5254              		.loc 1 971 20
 5255 0ffe 019B     		ldr	r3, [sp, #4]
 5256 1000 1B68     		ldr	r3, [r3]
 5257              		.loc 1 971 47
 5258 1002 0A43     		orrs	r2, r2, r1
 5259 1004 C3F8F823 		str	r2, [r3, #1016]
 972:C:/StellarStudio-7.0/SDKS/StellarESDK-1.7.0/Modules/Drivers/Timers/HRTIM/src\hrtim.c **** 
 973:C:/StellarStudio-7.0/SDKS/StellarESDK-1.7.0/Modules/Drivers/Timers/HRTIM/src\hrtim.c ****                 /* Post-Scaler rate.*/
 974:C:/StellarStudio-7.0/SDKS/StellarESDK-1.7.0/Modules/Drivers/Timers/HRTIM/src\hrtim.c ****                 hdp->hrtim->sCommonRegs.ADCPS2 |= (uint32_t)(hdp->adc_trg[i].post_scaler_rate << HR
 5260              		.loc 1 974 20
 5261 1008 019B     		ldr	r3, [sp, #4]
 5262 100a 1B68     		ldr	r3, [r3]
 5263              		.loc 1 974 48
 5264 100c D3F80414 		ldr	r1, [r3, #1028]
 5265              		.loc 1 974 77
 5266 1010 9DF83730 		ldrb	r3, [sp, #55]	@ zero_extendqisi2
 5267 1014 019A     		ldr	r2, [sp, #4]
 5268 1016 1B01     		lsls	r3, r3, #4
 5269 1018 1344     		add	r3, r3, r2
 5270 101a 03F54F73 		add	r3, r3, #828
 5271 101e 1B68     		ldr	r3, [r3]
 5272              		.loc 1 974 95
 5273 1020 9B01     		lsls	r3, r3, #6
 5274              		.loc 1 974 123
 5275 1022 03F4F862 		and	r2, r3, #1984
 5276              		.loc 1 974 20
 5277 1026 019B     		ldr	r3, [sp, #4]
 5278 1028 1B68     		ldr	r3, [r3]
 5279              		.loc 1 974 48
 5280 102a 0A43     		orrs	r2, r2, r1
 5281 102c C3F80424 		str	r2, [r3, #1028]
 975:C:/StellarStudio-7.0/SDKS/StellarESDK-1.7.0/Modules/Drivers/Timers/HRTIM/src\hrtim.c ****                 break;
 5282              		.loc 1 975 17
 5283 1030 CEE0     		b	.L201
 5284              	.L193:
 976:C:/StellarStudio-7.0/SDKS/StellarESDK-1.7.0/Modules/Drivers/Timers/HRTIM/src\hrtim.c ****             case HRTIM_ADCTRIGGER_8:
 977:C:/StellarStudio-7.0/SDKS/StellarESDK-1.7.0/Modules/Drivers/Timers/HRTIM/src\hrtim.c ****                 hrtim_adcur &= ~(HRTIM_ADCUR_AD8USRC);
 5285              		.loc 1 977 29
 5286 1032 0B9B     		ldr	r3, [sp, #44]
 5287 1034 23F4E043 		bic	r3, r3, #28672
 5288 1038 0B93     		str	r3, [sp, #44]
 978:C:/StellarStudio-7.0/SDKS/StellarESDK-1.7.0/Modules/Drivers/Timers/HRTIM/src\hrtim.c ****                 hrtim_adcur |= ((hdp->adc_trg[i].update_src >> 4U) & HRTIM_ADCUR_AD8USRC);
 5289              		.loc 1 978 49
 5290 103a 9DF83730 		ldrb	r3, [sp, #55]	@ zero_extendqisi2
 5291 103e 019A     		ldr	r2, [sp, #4]
 5292 1040 3333     		adds	r3, r3, #51
 5293 1042 1B01     		lsls	r3, r3, #4
 5294 1044 1344     		add	r3, r3, r2
 5295 1046 0433     		adds	r3, r3, #4
 5296 1048 1B68     		ldr	r3, [r3]
 5297              		.loc 1 978 61
 5298 104a 1B09     		lsrs	r3, r3, #4
 5299              		.loc 1 978 68
 5300 104c 03F4E043 		and	r3, r3, #28672
 5301              		.loc 1 978 29
 5302 1050 0B9A     		ldr	r2, [sp, #44]
 5303 1052 1343     		orrs	r3, r3, r2
 5304 1054 0B93     		str	r3, [sp, #44]
 979:C:/StellarStudio-7.0/SDKS/StellarESDK-1.7.0/Modules/Drivers/Timers/HRTIM/src\hrtim.c **** 
 980:C:/StellarStudio-7.0/SDKS/StellarESDK-1.7.0/Modules/Drivers/Timers/HRTIM/src\hrtim.c ****                 /* Set the ADC trigger 8 source.*/
 981:C:/StellarStudio-7.0/SDKS/StellarESDK-1.7.0/Modules/Drivers/Timers/HRTIM/src\hrtim.c ****                 hdp->hrtim->sCommonRegs.ADCER &= ~(HRTIM_ADCER_AD8TRG);
 5305              		.loc 1 981 20
 5306 1056 019B     		ldr	r3, [sp, #4]
 5307 1058 1B68     		ldr	r3, [r3]
 5308              		.loc 1 981 47
 5309 105a D3F8F823 		ldr	r2, [r3, #1016]
 5310              		.loc 1 981 20
 5311 105e 019B     		ldr	r3, [sp, #4]
 5312 1060 1B68     		ldr	r3, [r3]
 5313              		.loc 1 981 47
 5314 1062 22F4F812 		bic	r2, r2, #2031616
 5315 1066 C3F8F823 		str	r2, [r3, #1016]
 982:C:/StellarStudio-7.0/SDKS/StellarESDK-1.7.0/Modules/Drivers/Timers/HRTIM/src\hrtim.c ****                 hdp->hrtim->sCommonRegs.ADCER |= ((hdp->adc_trg[i].event_trigger << HRTIM_ADCER_AD8
 5316              		.loc 1 982 20
 5317 106a 019B     		ldr	r3, [sp, #4]
 5318 106c 1B68     		ldr	r3, [r3]
 5319              		.loc 1 982 47
 5320 106e D3F8F813 		ldr	r1, [r3, #1016]
 5321              		.loc 1 982 67
 5322 1072 9DF83730 		ldrb	r3, [sp, #55]	@ zero_extendqisi2
 5323 1076 019A     		ldr	r2, [sp, #4]
 5324 1078 1B01     		lsls	r3, r3, #4
 5325 107a 1344     		add	r3, r3, r2
 5326 107c 03F54E73 		add	r3, r3, #824
 5327 1080 1B68     		ldr	r3, [r3]
 5328              		.loc 1 982 82
 5329 1082 1B04     		lsls	r3, r3, #16
 5330              		.loc 1 982 109
 5331 1084 03F4F812 		and	r2, r3, #2031616
 5332              		.loc 1 982 20
 5333 1088 019B     		ldr	r3, [sp, #4]
 5334 108a 1B68     		ldr	r3, [r3]
 5335              		.loc 1 982 47
 5336 108c 0A43     		orrs	r2, r2, r1
 5337 108e C3F8F823 		str	r2, [r3, #1016]
 983:C:/StellarStudio-7.0/SDKS/StellarESDK-1.7.0/Modules/Drivers/Timers/HRTIM/src\hrtim.c **** 
 984:C:/StellarStudio-7.0/SDKS/StellarESDK-1.7.0/Modules/Drivers/Timers/HRTIM/src\hrtim.c ****                 /* Post-Scaler rate.*/
 985:C:/StellarStudio-7.0/SDKS/StellarESDK-1.7.0/Modules/Drivers/Timers/HRTIM/src\hrtim.c ****                 hdp->hrtim->sCommonRegs.ADCPS2 |= (uint32_t)(hdp->adc_trg[i].post_scaler_rate << HR
 5338              		.loc 1 985 20
 5339 1092 019B     		ldr	r3, [sp, #4]
 5340 1094 1B68     		ldr	r3, [r3]
 5341              		.loc 1 985 48
 5342 1096 D3F80414 		ldr	r1, [r3, #1028]
 5343              		.loc 1 985 77
 5344 109a 9DF83730 		ldrb	r3, [sp, #55]	@ zero_extendqisi2
 5345 109e 019A     		ldr	r2, [sp, #4]
 5346 10a0 1B01     		lsls	r3, r3, #4
 5347 10a2 1344     		add	r3, r3, r2
 5348 10a4 03F54F73 		add	r3, r3, #828
 5349 10a8 1B68     		ldr	r3, [r3]
 5350              		.loc 1 985 95
 5351 10aa 1B03     		lsls	r3, r3, #12
 5352              		.loc 1 985 123
 5353 10ac 03F4F832 		and	r2, r3, #126976
 5354              		.loc 1 985 20
 5355 10b0 019B     		ldr	r3, [sp, #4]
 5356 10b2 1B68     		ldr	r3, [r3]
 5357              		.loc 1 985 48
 5358 10b4 0A43     		orrs	r2, r2, r1
 5359 10b6 C3F80424 		str	r2, [r3, #1028]
 986:C:/StellarStudio-7.0/SDKS/StellarESDK-1.7.0/Modules/Drivers/Timers/HRTIM/src\hrtim.c ****                 break;
 5360              		.loc 1 986 17
 5361 10ba 89E0     		b	.L201
 5362              	.L192:
 987:C:/StellarStudio-7.0/SDKS/StellarESDK-1.7.0/Modules/Drivers/Timers/HRTIM/src\hrtim.c ****             case HRTIM_ADCTRIGGER_9:
 988:C:/StellarStudio-7.0/SDKS/StellarESDK-1.7.0/Modules/Drivers/Timers/HRTIM/src\hrtim.c ****                 hrtim_adcur &= ~(HRTIM_ADCUR_AD9USRC);
 5363              		.loc 1 988 29
 5364 10bc 0B9B     		ldr	r3, [sp, #44]
 5365 10be 23F4E023 		bic	r3, r3, #458752
 5366 10c2 0B93     		str	r3, [sp, #44]
 989:C:/StellarStudio-7.0/SDKS/StellarESDK-1.7.0/Modules/Drivers/Timers/HRTIM/src\hrtim.c ****                 hrtim_adcur |= ((hdp->adc_trg[i].update_src) & HRTIM_ADCUR_AD9USRC);
 5367              		.loc 1 989 49
 5368 10c4 9DF83730 		ldrb	r3, [sp, #55]	@ zero_extendqisi2
 5369 10c8 019A     		ldr	r2, [sp, #4]
 5370 10ca 3333     		adds	r3, r3, #51
 5371 10cc 1B01     		lsls	r3, r3, #4
 5372 10ce 1344     		add	r3, r3, r2
 5373 10d0 0433     		adds	r3, r3, #4
 5374 10d2 1B68     		ldr	r3, [r3]
 5375              		.loc 1 989 62
 5376 10d4 03F4E023 		and	r3, r3, #458752
 5377              		.loc 1 989 29
 5378 10d8 0B9A     		ldr	r2, [sp, #44]
 5379 10da 1343     		orrs	r3, r3, r2
 5380 10dc 0B93     		str	r3, [sp, #44]
 990:C:/StellarStudio-7.0/SDKS/StellarESDK-1.7.0/Modules/Drivers/Timers/HRTIM/src\hrtim.c **** 
 991:C:/StellarStudio-7.0/SDKS/StellarESDK-1.7.0/Modules/Drivers/Timers/HRTIM/src\hrtim.c ****                 /* Set the ADC trigger 9 source.*/
 992:C:/StellarStudio-7.0/SDKS/StellarESDK-1.7.0/Modules/Drivers/Timers/HRTIM/src\hrtim.c ****                 hdp->hrtim->sCommonRegs.ADCER &= ~(HRTIM_ADCER_AD9TRG);
 5381              		.loc 1 992 20
 5382 10de 019B     		ldr	r3, [sp, #4]
 5383 10e0 1B68     		ldr	r3, [r3]
 5384              		.loc 1 992 47
 5385 10e2 D3F8F823 		ldr	r2, [r3, #1016]
 5386              		.loc 1 992 20
 5387 10e6 019B     		ldr	r3, [sp, #4]
 5388 10e8 1B68     		ldr	r3, [r3]
 5389              		.loc 1 992 47
 5390 10ea 22F07872 		bic	r2, r2, #65011712
 5391 10ee C3F8F823 		str	r2, [r3, #1016]
 993:C:/StellarStudio-7.0/SDKS/StellarESDK-1.7.0/Modules/Drivers/Timers/HRTIM/src\hrtim.c ****                 hdp->hrtim->sCommonRegs.ADCER |= ((hdp->adc_trg[i].event_trigger << HRTIM_ADCER_AD9
 5392              		.loc 1 993 20
 5393 10f2 019B     		ldr	r3, [sp, #4]
 5394 10f4 1B68     		ldr	r3, [r3]
 5395              		.loc 1 993 47
 5396 10f6 D3F8F813 		ldr	r1, [r3, #1016]
 5397              		.loc 1 993 67
 5398 10fa 9DF83730 		ldrb	r3, [sp, #55]	@ zero_extendqisi2
 5399 10fe 019A     		ldr	r2, [sp, #4]
 5400 1100 1B01     		lsls	r3, r3, #4
 5401 1102 1344     		add	r3, r3, r2
 5402 1104 03F54E73 		add	r3, r3, #824
 5403 1108 1B68     		ldr	r3, [r3]
 5404              		.loc 1 993 82
 5405 110a 5B05     		lsls	r3, r3, #21
 5406              		.loc 1 993 109
 5407 110c 03F07872 		and	r2, r3, #65011712
 5408              		.loc 1 993 20
 5409 1110 019B     		ldr	r3, [sp, #4]
 5410 1112 1B68     		ldr	r3, [r3]
 5411              		.loc 1 993 47
 5412 1114 0A43     		orrs	r2, r2, r1
 5413 1116 C3F8F823 		str	r2, [r3, #1016]
 994:C:/StellarStudio-7.0/SDKS/StellarESDK-1.7.0/Modules/Drivers/Timers/HRTIM/src\hrtim.c **** 
 995:C:/StellarStudio-7.0/SDKS/StellarESDK-1.7.0/Modules/Drivers/Timers/HRTIM/src\hrtim.c ****                 /* Post-Scaler rate.*/
 996:C:/StellarStudio-7.0/SDKS/StellarESDK-1.7.0/Modules/Drivers/Timers/HRTIM/src\hrtim.c ****                 hdp->hrtim->sCommonRegs.ADCPS2 |= (uint32_t)(hdp->adc_trg[i].post_scaler_rate << HR
 5414              		.loc 1 996 20
 5415 111a 019B     		ldr	r3, [sp, #4]
 5416 111c 1B68     		ldr	r3, [r3]
 5417              		.loc 1 996 48
 5418 111e D3F80414 		ldr	r1, [r3, #1028]
 5419              		.loc 1 996 77
 5420 1122 9DF83730 		ldrb	r3, [sp, #55]	@ zero_extendqisi2
 5421 1126 019A     		ldr	r2, [sp, #4]
 5422 1128 1B01     		lsls	r3, r3, #4
 5423 112a 1344     		add	r3, r3, r2
 5424 112c 03F54F73 		add	r3, r3, #828
 5425 1130 1B68     		ldr	r3, [r3]
 5426              		.loc 1 996 95
 5427 1132 9B04     		lsls	r3, r3, #18
 5428              		.loc 1 996 123
 5429 1134 03F4F802 		and	r2, r3, #8126464
 5430              		.loc 1 996 20
 5431 1138 019B     		ldr	r3, [sp, #4]
 5432 113a 1B68     		ldr	r3, [r3]
 5433              		.loc 1 996 48
 5434 113c 0A43     		orrs	r2, r2, r1
 5435 113e C3F80424 		str	r2, [r3, #1028]
 997:C:/StellarStudio-7.0/SDKS/StellarESDK-1.7.0/Modules/Drivers/Timers/HRTIM/src\hrtim.c ****                 break;
 5436              		.loc 1 997 17
 5437 1142 45E0     		b	.L201
 5438              	.L190:
 998:C:/StellarStudio-7.0/SDKS/StellarESDK-1.7.0/Modules/Drivers/Timers/HRTIM/src\hrtim.c ****             case HRTIM_ADCTRIGGER_10:
 999:C:/StellarStudio-7.0/SDKS/StellarESDK-1.7.0/Modules/Drivers/Timers/HRTIM/src\hrtim.c ****                 hrtim_adcur &= ~(HRTIM_ADCUR_AD10USRC);
 5439              		.loc 1 999 29
 5440 1144 0B9B     		ldr	r3, [sp, #44]
 5441 1146 23F4E003 		bic	r3, r3, #7340032
 5442 114a 0B93     		str	r3, [sp, #44]
1000:C:/StellarStudio-7.0/SDKS/StellarESDK-1.7.0/Modules/Drivers/Timers/HRTIM/src\hrtim.c ****                 hrtim_adcur |= ((hdp->adc_trg[i].update_src << 4U) & HRTIM_ADCUR_AD10USRC);
 5443              		.loc 1 1000 49
 5444 114c 9DF83730 		ldrb	r3, [sp, #55]	@ zero_extendqisi2
 5445 1150 019A     		ldr	r2, [sp, #4]
 5446 1152 3333     		adds	r3, r3, #51
 5447 1154 1B01     		lsls	r3, r3, #4
 5448 1156 1344     		add	r3, r3, r2
 5449 1158 0433     		adds	r3, r3, #4
 5450 115a 1B68     		ldr	r3, [r3]
 5451              		.loc 1 1000 61
 5452 115c 1B01     		lsls	r3, r3, #4
 5453              		.loc 1 1000 68
 5454 115e 03F4E003 		and	r3, r3, #7340032
 5455              		.loc 1 1000 29
 5456 1162 0B9A     		ldr	r2, [sp, #44]
 5457 1164 1343     		orrs	r3, r3, r2
 5458 1166 0B93     		str	r3, [sp, #44]
1001:C:/StellarStudio-7.0/SDKS/StellarESDK-1.7.0/Modules/Drivers/Timers/HRTIM/src\hrtim.c **** 
1002:C:/StellarStudio-7.0/SDKS/StellarESDK-1.7.0/Modules/Drivers/Timers/HRTIM/src\hrtim.c ****                 /* Set the ADC trigger 10 source.*/
1003:C:/StellarStudio-7.0/SDKS/StellarESDK-1.7.0/Modules/Drivers/Timers/HRTIM/src\hrtim.c ****                 hdp->hrtim->sCommonRegs.ADCER &= ~(HRTIM_ADCER_AD10TRG);
 5459              		.loc 1 1003 20
 5460 1168 019B     		ldr	r3, [sp, #4]
 5461 116a 1B68     		ldr	r3, [r3]
 5462              		.loc 1 1003 47
 5463 116c D3F8F823 		ldr	r2, [r3, #1016]
 5464              		.loc 1 1003 20
 5465 1170 019B     		ldr	r3, [sp, #4]
 5466 1172 1B68     		ldr	r3, [r3]
 5467              		.loc 1 1003 47
 5468 1174 22F0F842 		bic	r2, r2, #2080374784
 5469 1178 C3F8F823 		str	r2, [r3, #1016]
1004:C:/StellarStudio-7.0/SDKS/StellarESDK-1.7.0/Modules/Drivers/Timers/HRTIM/src\hrtim.c ****                 hdp->hrtim->sCommonRegs.ADCER |= ((hdp->adc_trg[i].event_trigger << HRTIM_ADCER_AD1
 5470              		.loc 1 1004 20
 5471 117c 019B     		ldr	r3, [sp, #4]
 5472 117e 1B68     		ldr	r3, [r3]
 5473              		.loc 1 1004 47
 5474 1180 D3F8F813 		ldr	r1, [r3, #1016]
 5475              		.loc 1 1004 67
 5476 1184 9DF83730 		ldrb	r3, [sp, #55]	@ zero_extendqisi2
 5477 1188 019A     		ldr	r2, [sp, #4]
 5478 118a 1B01     		lsls	r3, r3, #4
 5479 118c 1344     		add	r3, r3, r2
 5480 118e 03F54E73 		add	r3, r3, #824
 5481 1192 1B68     		ldr	r3, [r3]
 5482              		.loc 1 1004 82
 5483 1194 9B06     		lsls	r3, r3, #26
 5484              		.loc 1 1004 110
 5485 1196 03F0F842 		and	r2, r3, #2080374784
 5486              		.loc 1 1004 20
 5487 119a 019B     		ldr	r3, [sp, #4]
 5488 119c 1B68     		ldr	r3, [r3]
 5489              		.loc 1 1004 47
 5490 119e 0A43     		orrs	r2, r2, r1
 5491 11a0 C3F8F823 		str	r2, [r3, #1016]
1005:C:/StellarStudio-7.0/SDKS/StellarESDK-1.7.0/Modules/Drivers/Timers/HRTIM/src\hrtim.c **** 
1006:C:/StellarStudio-7.0/SDKS/StellarESDK-1.7.0/Modules/Drivers/Timers/HRTIM/src\hrtim.c ****                 /* Post-Scaler rate.*/
1007:C:/StellarStudio-7.0/SDKS/StellarESDK-1.7.0/Modules/Drivers/Timers/HRTIM/src\hrtim.c ****                 hdp->hrtim->sCommonRegs.ADCPS2 |= (uint32_t)(hdp->adc_trg[i].post_scaler_rate << HR
 5492              		.loc 1 1007 20
 5493 11a4 019B     		ldr	r3, [sp, #4]
 5494 11a6 1B68     		ldr	r3, [r3]
 5495              		.loc 1 1007 48
 5496 11a8 D3F80414 		ldr	r1, [r3, #1028]
 5497              		.loc 1 1007 77
 5498 11ac 9DF83730 		ldrb	r3, [sp, #55]	@ zero_extendqisi2
 5499 11b0 019A     		ldr	r2, [sp, #4]
 5500 11b2 1B01     		lsls	r3, r3, #4
 5501 11b4 1344     		add	r3, r3, r2
 5502 11b6 03F54F73 		add	r3, r3, #828
 5503 11ba 1B68     		ldr	r3, [r3]
 5504              		.loc 1 1007 95
 5505 11bc 1B06     		lsls	r3, r3, #24
 5506              		.loc 1 1007 124
 5507 11be 03F0F852 		and	r2, r3, #520093696
 5508              		.loc 1 1007 20
 5509 11c2 019B     		ldr	r3, [sp, #4]
 5510 11c4 1B68     		ldr	r3, [r3]
 5511              		.loc 1 1007 48
 5512 11c6 0A43     		orrs	r2, r2, r1
 5513 11c8 C3F80424 		str	r2, [r3, #1028]
1008:C:/StellarStudio-7.0/SDKS/StellarESDK-1.7.0/Modules/Drivers/Timers/HRTIM/src\hrtim.c ****                 break;
 5514              		.loc 1 1008 17
 5515 11cc 00E0     		b	.L201
 5516              	.L265:
1009:C:/StellarStudio-7.0/SDKS/StellarESDK-1.7.0/Modules/Drivers/Timers/HRTIM/src\hrtim.c ****             case HRTIM_NO_ADCTRIGGER:
1010:C:/StellarStudio-7.0/SDKS/StellarESDK-1.7.0/Modules/Drivers/Timers/HRTIM/src\hrtim.c ****             default:
1011:C:/StellarStudio-7.0/SDKS/StellarESDK-1.7.0/Modules/Drivers/Timers/HRTIM/src\hrtim.c ****                 /* for MISRA compliance */
1012:C:/StellarStudio-7.0/SDKS/StellarESDK-1.7.0/Modules/Drivers/Timers/HRTIM/src\hrtim.c ****                 break;
 5517              		.loc 1 1012 17
 5518 11ce 00BF     		nop
 5519              	.L201:
 900:C:/StellarStudio-7.0/SDKS/StellarESDK-1.7.0/Modules/Drivers/Timers/HRTIM/src\hrtim.c ****         switch (hdp->adc_trg[i].adc_trigger) {
 5520              		.loc 1 900 42 discriminator 2
 5521 11d0 9DF83730 		ldrb	r3, [sp, #55]	@ zero_extendqisi2
 5522 11d4 0133     		adds	r3, r3, #1
 5523 11d6 8DF83730 		strb	r3, [sp, #55]
 5524              	.L188:
 900:C:/StellarStudio-7.0/SDKS/StellarESDK-1.7.0/Modules/Drivers/Timers/HRTIM/src\hrtim.c ****         switch (hdp->adc_trg[i].adc_trigger) {
 5525              		.loc 1 900 5 discriminator 1
 5526 11da 9DF83730 		ldrb	r3, [sp, #55]	@ zero_extendqisi2
 5527 11de 092B     		cmp	r3, #9
 5528 11e0 7FF669AD 		bls	.L202
1013:C:/StellarStudio-7.0/SDKS/StellarESDK-1.7.0/Modules/Drivers/Timers/HRTIM/src\hrtim.c ****         }
1014:C:/StellarStudio-7.0/SDKS/StellarESDK-1.7.0/Modules/Drivers/Timers/HRTIM/src\hrtim.c ****     }
1015:C:/StellarStudio-7.0/SDKS/StellarESDK-1.7.0/Modules/Drivers/Timers/HRTIM/src\hrtim.c **** 
1016:C:/StellarStudio-7.0/SDKS/StellarESDK-1.7.0/Modules/Drivers/Timers/HRTIM/src\hrtim.c ****     /* Update the HRTIM registers.*/
1017:C:/StellarStudio-7.0/SDKS/StellarESDK-1.7.0/Modules/Drivers/Timers/HRTIM/src\hrtim.c ****     hdp->hrtim->sCommonRegs.CR1   |= hrtim_cr1;
 5529              		.loc 1 1017 8
 5530 11e4 019B     		ldr	r3, [sp, #4]
 5531 11e6 1B68     		ldr	r3, [r3]
 5532              		.loc 1 1017 35
 5533 11e8 D3F88013 		ldr	r1, [r3, #896]
 5534              		.loc 1 1017 8
 5535 11ec 019B     		ldr	r3, [sp, #4]
 5536 11ee 1B68     		ldr	r3, [r3]
 5537              		.loc 1 1017 35
 5538 11f0 0C9A     		ldr	r2, [sp, #48]
 5539 11f2 0A43     		orrs	r2, r2, r1
 5540 11f4 C3F88023 		str	r2, [r3, #896]
1018:C:/StellarStudio-7.0/SDKS/StellarESDK-1.7.0/Modules/Drivers/Timers/HRTIM/src\hrtim.c ****     hdp->hrtim->sCommonRegs.ADCUR |= hrtim_adcur;
 5541              		.loc 1 1018 8
 5542 11f8 019B     		ldr	r3, [sp, #4]
 5543 11fa 1B68     		ldr	r3, [r3]
 5544              		.loc 1 1018 35
 5545 11fc D3F8FC13 		ldr	r1, [r3, #1020]
 5546              		.loc 1 1018 8
 5547 1200 019B     		ldr	r3, [sp, #4]
 5548 1202 1B68     		ldr	r3, [r3]
 5549              		.loc 1 1018 35
 5550 1204 0B9A     		ldr	r2, [sp, #44]
 5551 1206 0A43     		orrs	r2, r2, r1
 5552 1208 C3F8FC23 		str	r2, [r3, #1020]
1019:C:/StellarStudio-7.0/SDKS/StellarESDK-1.7.0/Modules/Drivers/Timers/HRTIM/src\hrtim.c **** 
1020:C:/StellarStudio-7.0/SDKS/StellarESDK-1.7.0/Modules/Drivers/Timers/HRTIM/src\hrtim.c ****     /* Configure external event channel.*/
1021:C:/StellarStudio-7.0/SDKS/StellarESDK-1.7.0/Modules/Drivers/Timers/HRTIM/src\hrtim.c ****     hrtim_eecr1 = hdp->hrtim->sCommonRegs.EECR1;
 5553              		.loc 1 1021 22
 5554 120c 019B     		ldr	r3, [sp, #4]
 5555 120e 1B68     		ldr	r3, [r3]
 5556              		.loc 1 1021 17
 5557 1210 D3F8B033 		ldr	r3, [r3, #944]
 5558 1214 0A93     		str	r3, [sp, #40]
1022:C:/StellarStudio-7.0/SDKS/StellarESDK-1.7.0/Modules/Drivers/Timers/HRTIM/src\hrtim.c ****     hrtim_eecr2 = hdp->hrtim->sCommonRegs.EECR2;
 5559              		.loc 1 1022 22
 5560 1216 019B     		ldr	r3, [sp, #4]
 5561 1218 1B68     		ldr	r3, [r3]
 5562              		.loc 1 1022 17
 5563 121a D3F8B433 		ldr	r3, [r3, #948]
 5564 121e 0993     		str	r3, [sp, #36]
1023:C:/StellarStudio-7.0/SDKS/StellarESDK-1.7.0/Modules/Drivers/Timers/HRTIM/src\hrtim.c ****     hrtim_eecr3 = hdp->hrtim->sCommonRegs.EECR3;
 5565              		.loc 1 1023 22
 5566 1220 019B     		ldr	r3, [sp, #4]
 5567 1222 1B68     		ldr	r3, [r3]
 5568              		.loc 1 1023 17
 5569 1224 D3F8B833 		ldr	r3, [r3, #952]
 5570 1228 0893     		str	r3, [sp, #32]
1024:C:/StellarStudio-7.0/SDKS/StellarESDK-1.7.0/Modules/Drivers/Timers/HRTIM/src\hrtim.c **** 
1025:C:/StellarStudio-7.0/SDKS/StellarESDK-1.7.0/Modules/Drivers/Timers/HRTIM/src\hrtim.c ****     hdp->hrtim->sCommonRegs.EECR1 = 0U;
 5571              		.loc 1 1025 8
 5572 122a 019B     		ldr	r3, [sp, #4]
 5573 122c 1B68     		ldr	r3, [r3]
 5574              		.loc 1 1025 35
 5575 122e 0022     		movs	r2, #0
 5576 1230 C3F8B023 		str	r2, [r3, #944]
1026:C:/StellarStudio-7.0/SDKS/StellarESDK-1.7.0/Modules/Drivers/Timers/HRTIM/src\hrtim.c ****     hdp->hrtim->sCommonRegs.EECR2 = 0U;
 5577              		.loc 1 1026 8
 5578 1234 019B     		ldr	r3, [sp, #4]
 5579 1236 1B68     		ldr	r3, [r3]
 5580              		.loc 1 1026 35
 5581 1238 0022     		movs	r2, #0
 5582 123a C3F8B423 		str	r2, [r3, #948]
1027:C:/StellarStudio-7.0/SDKS/StellarESDK-1.7.0/Modules/Drivers/Timers/HRTIM/src\hrtim.c ****     hdp->hrtim->sCommonRegs.EECR3 = 0U;
 5583              		.loc 1 1027 8
 5584 123e 019B     		ldr	r3, [sp, #4]
 5585 1240 1B68     		ldr	r3, [r3]
 5586              		.loc 1 1027 35
 5587 1242 0022     		movs	r2, #0
 5588 1244 C3F8B823 		str	r2, [r3, #952]
1028:C:/StellarStudio-7.0/SDKS/StellarESDK-1.7.0/Modules/Drivers/Timers/HRTIM/src\hrtim.c ****     for (i = 1U; i <= HRTIM_EXEVENT_NUM; i++) {
 5589              		.loc 1 1028 12
 5590 1248 0123     		movs	r3, #1
 5591 124a 8DF83730 		strb	r3, [sp, #55]
 5592              		.loc 1 1028 5
 5593 124e F6E3     		b	.L203
 5594              	.L217:
1029:C:/StellarStudio-7.0/SDKS/StellarESDK-1.7.0/Modules/Drivers/Timers/HRTIM/src\hrtim.c ****         switch (i) {
 5595              		.loc 1 1029 9
 5596 1250 9DF83730 		ldrb	r3, [sp, #55]	@ zero_extendqisi2
 5597 1254 013B     		subs	r3, r3, #1
 5598 1256 092B     		cmp	r3, #9
 5599 1258 00F2EB83 		bhi	.L266
 5600 125c 01A2     		adr	r2, .L206
 5601 125e 52F823F0 		ldr	pc, [r2, r3, lsl #2]
 5602 1262 00BF     		.p2align 2
 5603              	.L206:
 5604 1264 8D120000 		.word	.L215+1
 5605 1268 47130000 		.word	.L214+1
 5606 126c 07140000 		.word	.L213+1
 5607 1270 C9140000 		.word	.L212+1
 5608 1274 8B150000 		.word	.L211+1
 5609 1278 4D160000 		.word	.L210+1
 5610 127c 0F170000 		.word	.L209+1
 5611 1280 D7170000 		.word	.L208+1
 5612 1284 9F180000 		.word	.L207+1
 5613 1288 69190000 		.word	.L205+1
 5614              		.p2align 1
 5615              	.L215:
1030:C:/StellarStudio-7.0/SDKS/StellarESDK-1.7.0/Modules/Drivers/Timers/HRTIM/src\hrtim.c ****             case HRTIM_EVENT_1:
1031:C:/StellarStudio-7.0/SDKS/StellarESDK-1.7.0/Modules/Drivers/Timers/HRTIM/src\hrtim.c ****                 hrtim_eecr1 &= ~(HRTIM_EECR1_EE1SRC | HRTIM_EECR1_EE1POL | HRTIM_EECR1_EE1SNS | HRT
 5616              		.loc 1 1031 29
 5617 128c 0A9B     		ldr	r3, [sp, #40]
 5618 128e 23F03F03 		bic	r3, r3, #63
 5619 1292 0A93     		str	r3, [sp, #40]
1032:C:/StellarStudio-7.0/SDKS/StellarESDK-1.7.0/Modules/Drivers/Timers/HRTIM/src\hrtim.c ****                 hrtim_eecr1 |= ( hdp->eev[i - 1U].source & HRTIM_EECR1_EE1SRC);
 5620              		.loc 1 1032 45
 5621 1294 9DF83730 		ldrb	r3, [sp, #55]	@ zero_extendqisi2
 5622 1298 5A1E     		subs	r2, r3, #1
 5623              		.loc 1 1032 50
 5624 129a 0199     		ldr	r1, [sp, #4]
 5625 129c 1346     		mov	r3, r2
 5626 129e 9B00     		lsls	r3, r3, #2
 5627 12a0 1344     		add	r3, r3, r2
 5628 12a2 9B00     		lsls	r3, r3, #2
 5629 12a4 0B44     		add	r3, r3, r1
 5630 12a6 03F58D63 		add	r3, r3, #1128
 5631 12aa 1B68     		ldr	r3, [r3]
 5632              		.loc 1 1032 58
 5633 12ac 03F00303 		and	r3, r3, #3
 5634              		.loc 1 1032 29
 5635 12b0 0A9A     		ldr	r2, [sp, #40]
 5636 12b2 1343     		orrs	r3, r3, r2
 5637 12b4 0A93     		str	r3, [sp, #40]
1033:C:/StellarStudio-7.0/SDKS/StellarESDK-1.7.0/Modules/Drivers/Timers/HRTIM/src\hrtim.c ****                 hrtim_eecr1 |= ( hdp->eev[i - 1U].polarity & HRTIM_EECR1_EE1POL);
 5638              		.loc 1 1033 45
 5639 12b6 9DF83730 		ldrb	r3, [sp, #55]	@ zero_extendqisi2
 5640 12ba 5A1E     		subs	r2, r3, #1
 5641              		.loc 1 1033 50
 5642 12bc 0199     		ldr	r1, [sp, #4]
 5643 12be 1346     		mov	r3, r2
 5644 12c0 9B00     		lsls	r3, r3, #2
 5645 12c2 1344     		add	r3, r3, r2
 5646 12c4 9B00     		lsls	r3, r3, #2
 5647 12c6 0B44     		add	r3, r3, r1
 5648 12c8 03F26C43 		addw	r3, r3, #1132
 5649 12cc 1B68     		ldr	r3, [r3]
 5650              		.loc 1 1033 60
 5651 12ce 03F00403 		and	r3, r3, #4
 5652              		.loc 1 1033 29
 5653 12d2 0A9A     		ldr	r2, [sp, #40]
 5654 12d4 1343     		orrs	r3, r3, r2
 5655 12d6 0A93     		str	r3, [sp, #40]
1034:C:/StellarStudio-7.0/SDKS/StellarESDK-1.7.0/Modules/Drivers/Timers/HRTIM/src\hrtim.c ****                 hrtim_eecr1 |= ( hdp->eev[i - 1U].sensitivity & HRTIM_EECR1_EE1SNS);
 5656              		.loc 1 1034 45
 5657 12d8 9DF83730 		ldrb	r3, [sp, #55]	@ zero_extendqisi2
 5658 12dc 5A1E     		subs	r2, r3, #1
 5659              		.loc 1 1034 50
 5660 12de 0199     		ldr	r1, [sp, #4]
 5661 12e0 1346     		mov	r3, r2
 5662 12e2 9B00     		lsls	r3, r3, #2
 5663 12e4 1344     		add	r3, r3, r2
 5664 12e6 9B00     		lsls	r3, r3, #2
 5665 12e8 0B44     		add	r3, r3, r1
 5666 12ea 03F58E63 		add	r3, r3, #1136
 5667 12ee 1B68     		ldr	r3, [r3]
 5668              		.loc 1 1034 63
 5669 12f0 03F01803 		and	r3, r3, #24
 5670              		.loc 1 1034 29
 5671 12f4 0A9A     		ldr	r2, [sp, #40]
 5672 12f6 1343     		orrs	r3, r3, r2
 5673 12f8 0A93     		str	r3, [sp, #40]
1035:C:/StellarStudio-7.0/SDKS/StellarESDK-1.7.0/Modules/Drivers/Timers/HRTIM/src\hrtim.c ****                 /* Update the HRTIM registers (all bitfields but EE1FAST bit) */
1036:C:/StellarStudio-7.0/SDKS/StellarESDK-1.7.0/Modules/Drivers/Timers/HRTIM/src\hrtim.c ****                 hdp->hrtim->sCommonRegs.EECR1 |= hrtim_eecr1;
 5674              		.loc 1 1036 20
 5675 12fa 019B     		ldr	r3, [sp, #4]
 5676 12fc 1B68     		ldr	r3, [r3]
 5677              		.loc 1 1036 47
 5678 12fe D3F8B013 		ldr	r1, [r3, #944]
 5679              		.loc 1 1036 20
 5680 1302 019B     		ldr	r3, [sp, #4]
 5681 1304 1B68     		ldr	r3, [r3]
 5682              		.loc 1 1036 47
 5683 1306 0A9A     		ldr	r2, [sp, #40]
 5684 1308 0A43     		orrs	r2, r2, r1
 5685 130a C3F8B023 		str	r2, [r3, #944]
1037:C:/StellarStudio-7.0/SDKS/StellarESDK-1.7.0/Modules/Drivers/Timers/HRTIM/src\hrtim.c ****                 /* Update the HRTIM registers (EE1FAST bit) */
1038:C:/StellarStudio-7.0/SDKS/StellarESDK-1.7.0/Modules/Drivers/Timers/HRTIM/src\hrtim.c ****                 hrtim_eecr1 |= ( hdp->eev[i - 1U].fast_mode  & HRTIM_EECR1_EE1FAST);
 5686              		.loc 1 1038 45
 5687 130e 9DF83730 		ldrb	r3, [sp, #55]	@ zero_extendqisi2
 5688 1312 5A1E     		subs	r2, r3, #1
 5689              		.loc 1 1038 50
 5690 1314 0199     		ldr	r1, [sp, #4]
 5691 1316 1346     		mov	r3, r2
 5692 1318 9B00     		lsls	r3, r3, #2
 5693 131a 1344     		add	r3, r3, r2
 5694 131c 9B00     		lsls	r3, r3, #2
 5695 131e 0B44     		add	r3, r3, r1
 5696 1320 03F58F63 		add	r3, r3, #1144
 5697 1324 1B68     		ldr	r3, [r3]
 5698              		.loc 1 1038 62
 5699 1326 03F02003 		and	r3, r3, #32
 5700              		.loc 1 1038 29
 5701 132a 0A9A     		ldr	r2, [sp, #40]
 5702 132c 1343     		orrs	r3, r3, r2
 5703 132e 0A93     		str	r3, [sp, #40]
1039:C:/StellarStudio-7.0/SDKS/StellarESDK-1.7.0/Modules/Drivers/Timers/HRTIM/src\hrtim.c ****                 hdp->hrtim->sCommonRegs.EECR1 |= hrtim_eecr1;
 5704              		.loc 1 1039 20
 5705 1330 019B     		ldr	r3, [sp, #4]
 5706 1332 1B68     		ldr	r3, [r3]
 5707              		.loc 1 1039 47
 5708 1334 D3F8B013 		ldr	r1, [r3, #944]
 5709              		.loc 1 1039 20
 5710 1338 019B     		ldr	r3, [sp, #4]
 5711 133a 1B68     		ldr	r3, [r3]
 5712              		.loc 1 1039 47
 5713 133c 0A9A     		ldr	r2, [sp, #40]
 5714 133e 0A43     		orrs	r2, r2, r1
 5715 1340 C3F8B023 		str	r2, [r3, #944]
1040:C:/StellarStudio-7.0/SDKS/StellarESDK-1.7.0/Modules/Drivers/Timers/HRTIM/src\hrtim.c ****                 break;
 5716              		.loc 1 1040 17
 5717 1344 76E3     		b	.L216
 5718              	.L214:
1041:C:/StellarStudio-7.0/SDKS/StellarESDK-1.7.0/Modules/Drivers/Timers/HRTIM/src\hrtim.c ****             case HRTIM_EVENT_2:
1042:C:/StellarStudio-7.0/SDKS/StellarESDK-1.7.0/Modules/Drivers/Timers/HRTIM/src\hrtim.c ****                 hrtim_eecr1 &= ~(HRTIM_EECR1_EE2SRC | HRTIM_EECR1_EE2POL | HRTIM_EECR1_EE2SNS | HRT
 5719              		.loc 1 1042 29
 5720 1346 0A9B     		ldr	r3, [sp, #40]
 5721 1348 23F47C63 		bic	r3, r3, #4032
 5722 134c 0A93     		str	r3, [sp, #40]
1043:C:/StellarStudio-7.0/SDKS/StellarESDK-1.7.0/Modules/Drivers/Timers/HRTIM/src\hrtim.c ****                 hrtim_eecr1 |= (( hdp->eev[i - 1U].source << 6U) & HRTIM_EECR1_EE2SRC);
 5723              		.loc 1 1043 46
 5724 134e 9DF83730 		ldrb	r3, [sp, #55]	@ zero_extendqisi2
 5725 1352 5A1E     		subs	r2, r3, #1
 5726              		.loc 1 1043 51
 5727 1354 0199     		ldr	r1, [sp, #4]
 5728 1356 1346     		mov	r3, r2
 5729 1358 9B00     		lsls	r3, r3, #2
 5730 135a 1344     		add	r3, r3, r2
 5731 135c 9B00     		lsls	r3, r3, #2
 5732 135e 0B44     		add	r3, r3, r1
 5733 1360 03F58D63 		add	r3, r3, #1128
 5734 1364 1B68     		ldr	r3, [r3]
 5735              		.loc 1 1043 59
 5736 1366 9B01     		lsls	r3, r3, #6
 5737              		.loc 1 1043 66
 5738 1368 DBB2     		uxtb	r3, r3
 5739              		.loc 1 1043 29
 5740 136a 0A9A     		ldr	r2, [sp, #40]
 5741 136c 1343     		orrs	r3, r3, r2
 5742 136e 0A93     		str	r3, [sp, #40]
1044:C:/StellarStudio-7.0/SDKS/StellarESDK-1.7.0/Modules/Drivers/Timers/HRTIM/src\hrtim.c ****                 hrtim_eecr1 |= (( hdp->eev[i - 1U].polarity << 6U) & HRTIM_EECR1_EE2POL);
 5743              		.loc 1 1044 46
 5744 1370 9DF83730 		ldrb	r3, [sp, #55]	@ zero_extendqisi2
 5745 1374 5A1E     		subs	r2, r3, #1
 5746              		.loc 1 1044 51
 5747 1376 0199     		ldr	r1, [sp, #4]
 5748 1378 1346     		mov	r3, r2
 5749 137a 9B00     		lsls	r3, r3, #2
 5750 137c 1344     		add	r3, r3, r2
 5751 137e 9B00     		lsls	r3, r3, #2
 5752 1380 0B44     		add	r3, r3, r1
 5753 1382 03F26C43 		addw	r3, r3, #1132
 5754 1386 1B68     		ldr	r3, [r3]
 5755              		.loc 1 1044 61
 5756 1388 9B01     		lsls	r3, r3, #6
 5757              		.loc 1 1044 68
 5758 138a 03F48073 		and	r3, r3, #256
 5759              		.loc 1 1044 29
 5760 138e 0A9A     		ldr	r2, [sp, #40]
 5761 1390 1343     		orrs	r3, r3, r2
 5762 1392 0A93     		str	r3, [sp, #40]
1045:C:/StellarStudio-7.0/SDKS/StellarESDK-1.7.0/Modules/Drivers/Timers/HRTIM/src\hrtim.c ****                 hrtim_eecr1 |= (( hdp->eev[i - 1U].sensitivity << 6U) & HRTIM_EECR1_EE2SNS);
 5763              		.loc 1 1045 46
 5764 1394 9DF83730 		ldrb	r3, [sp, #55]	@ zero_extendqisi2
 5765 1398 5A1E     		subs	r2, r3, #1
 5766              		.loc 1 1045 51
 5767 139a 0199     		ldr	r1, [sp, #4]
 5768 139c 1346     		mov	r3, r2
 5769 139e 9B00     		lsls	r3, r3, #2
 5770 13a0 1344     		add	r3, r3, r2
 5771 13a2 9B00     		lsls	r3, r3, #2
 5772 13a4 0B44     		add	r3, r3, r1
 5773 13a6 03F58E63 		add	r3, r3, #1136
 5774 13aa 1B68     		ldr	r3, [r3]
 5775              		.loc 1 1045 64
 5776 13ac 9B01     		lsls	r3, r3, #6
 5777              		.loc 1 1045 71
 5778 13ae 03F4C063 		and	r3, r3, #1536
 5779              		.loc 1 1045 29
 5780 13b2 0A9A     		ldr	r2, [sp, #40]
 5781 13b4 1343     		orrs	r3, r3, r2
 5782 13b6 0A93     		str	r3, [sp, #40]
1046:C:/StellarStudio-7.0/SDKS/StellarESDK-1.7.0/Modules/Drivers/Timers/HRTIM/src\hrtim.c ****                 /* Update the HRTIM registers (all bitfields but EE2FAST bit) */
1047:C:/StellarStudio-7.0/SDKS/StellarESDK-1.7.0/Modules/Drivers/Timers/HRTIM/src\hrtim.c ****                 hdp->hrtim->sCommonRegs.EECR1 |= hrtim_eecr1;
 5783              		.loc 1 1047 20
 5784 13b8 019B     		ldr	r3, [sp, #4]
 5785 13ba 1B68     		ldr	r3, [r3]
 5786              		.loc 1 1047 47
 5787 13bc D3F8B013 		ldr	r1, [r3, #944]
 5788              		.loc 1 1047 20
 5789 13c0 019B     		ldr	r3, [sp, #4]
 5790 13c2 1B68     		ldr	r3, [r3]
 5791              		.loc 1 1047 47
 5792 13c4 0A9A     		ldr	r2, [sp, #40]
 5793 13c6 0A43     		orrs	r2, r2, r1
 5794 13c8 C3F8B023 		str	r2, [r3, #944]
1048:C:/StellarStudio-7.0/SDKS/StellarESDK-1.7.0/Modules/Drivers/Timers/HRTIM/src\hrtim.c ****                 /* Update the HRTIM registers (EE2FAST bit) */
1049:C:/StellarStudio-7.0/SDKS/StellarESDK-1.7.0/Modules/Drivers/Timers/HRTIM/src\hrtim.c ****                 hrtim_eecr1 |= (( hdp->eev[i - 1U].fast_mode << 6U) & HRTIM_EECR1_EE2FAST);
 5795              		.loc 1 1049 46
 5796 13cc 9DF83730 		ldrb	r3, [sp, #55]	@ zero_extendqisi2
 5797 13d0 5A1E     		subs	r2, r3, #1
 5798              		.loc 1 1049 51
 5799 13d2 0199     		ldr	r1, [sp, #4]
 5800 13d4 1346     		mov	r3, r2
 5801 13d6 9B00     		lsls	r3, r3, #2
 5802 13d8 1344     		add	r3, r3, r2
 5803 13da 9B00     		lsls	r3, r3, #2
 5804 13dc 0B44     		add	r3, r3, r1
 5805 13de 03F58F63 		add	r3, r3, #1144
 5806 13e2 1B68     		ldr	r3, [r3]
 5807              		.loc 1 1049 62
 5808 13e4 9B01     		lsls	r3, r3, #6
 5809              		.loc 1 1049 69
 5810 13e6 03F40063 		and	r3, r3, #2048
 5811              		.loc 1 1049 29
 5812 13ea 0A9A     		ldr	r2, [sp, #40]
 5813 13ec 1343     		orrs	r3, r3, r2
 5814 13ee 0A93     		str	r3, [sp, #40]
1050:C:/StellarStudio-7.0/SDKS/StellarESDK-1.7.0/Modules/Drivers/Timers/HRTIM/src\hrtim.c ****                 hdp->hrtim->sCommonRegs.EECR1 |= hrtim_eecr1;
 5815              		.loc 1 1050 20
 5816 13f0 019B     		ldr	r3, [sp, #4]
 5817 13f2 1B68     		ldr	r3, [r3]
 5818              		.loc 1 1050 47
 5819 13f4 D3F8B013 		ldr	r1, [r3, #944]
 5820              		.loc 1 1050 20
 5821 13f8 019B     		ldr	r3, [sp, #4]
 5822 13fa 1B68     		ldr	r3, [r3]
 5823              		.loc 1 1050 47
 5824 13fc 0A9A     		ldr	r2, [sp, #40]
 5825 13fe 0A43     		orrs	r2, r2, r1
 5826 1400 C3F8B023 		str	r2, [r3, #944]
1051:C:/StellarStudio-7.0/SDKS/StellarESDK-1.7.0/Modules/Drivers/Timers/HRTIM/src\hrtim.c ****                 break;
 5827              		.loc 1 1051 17
 5828 1404 16E3     		b	.L216
 5829              	.L213:
1052:C:/StellarStudio-7.0/SDKS/StellarESDK-1.7.0/Modules/Drivers/Timers/HRTIM/src\hrtim.c ****             case HRTIM_EVENT_3:
1053:C:/StellarStudio-7.0/SDKS/StellarESDK-1.7.0/Modules/Drivers/Timers/HRTIM/src\hrtim.c ****                 hrtim_eecr1 &= ~(HRTIM_EECR1_EE3SRC | HRTIM_EECR1_EE3POL | HRTIM_EECR1_EE3SNS | HRT
 5830              		.loc 1 1053 29
 5831 1406 0A9B     		ldr	r3, [sp, #40]
 5832 1408 23F47C33 		bic	r3, r3, #258048
 5833 140c 0A93     		str	r3, [sp, #40]
1054:C:/StellarStudio-7.0/SDKS/StellarESDK-1.7.0/Modules/Drivers/Timers/HRTIM/src\hrtim.c ****                 hrtim_eecr1 |= (( hdp->eev[i - 1U].source << 12U) & HRTIM_EECR1_EE3SRC);
 5834              		.loc 1 1054 46
 5835 140e 9DF83730 		ldrb	r3, [sp, #55]	@ zero_extendqisi2
 5836 1412 5A1E     		subs	r2, r3, #1
 5837              		.loc 1 1054 51
 5838 1414 0199     		ldr	r1, [sp, #4]
 5839 1416 1346     		mov	r3, r2
 5840 1418 9B00     		lsls	r3, r3, #2
 5841 141a 1344     		add	r3, r3, r2
 5842 141c 9B00     		lsls	r3, r3, #2
 5843 141e 0B44     		add	r3, r3, r1
 5844 1420 03F58D63 		add	r3, r3, #1128
 5845 1424 1B68     		ldr	r3, [r3]
 5846              		.loc 1 1054 59
 5847 1426 1B03     		lsls	r3, r3, #12
 5848              		.loc 1 1054 67
 5849 1428 03F44053 		and	r3, r3, #12288
 5850              		.loc 1 1054 29
 5851 142c 0A9A     		ldr	r2, [sp, #40]
 5852 142e 1343     		orrs	r3, r3, r2
 5853 1430 0A93     		str	r3, [sp, #40]
1055:C:/StellarStudio-7.0/SDKS/StellarESDK-1.7.0/Modules/Drivers/Timers/HRTIM/src\hrtim.c ****                 hrtim_eecr1 |= (( hdp->eev[i - 1U].polarity << 12U) & HRTIM_EECR1_EE3POL);
 5854              		.loc 1 1055 46
 5855 1432 9DF83730 		ldrb	r3, [sp, #55]	@ zero_extendqisi2
 5856 1436 5A1E     		subs	r2, r3, #1
 5857              		.loc 1 1055 51
 5858 1438 0199     		ldr	r1, [sp, #4]
 5859 143a 1346     		mov	r3, r2
 5860 143c 9B00     		lsls	r3, r3, #2
 5861 143e 1344     		add	r3, r3, r2
 5862 1440 9B00     		lsls	r3, r3, #2
 5863 1442 0B44     		add	r3, r3, r1
 5864 1444 03F26C43 		addw	r3, r3, #1132
 5865 1448 1B68     		ldr	r3, [r3]
 5866              		.loc 1 1055 61
 5867 144a 1B03     		lsls	r3, r3, #12
 5868              		.loc 1 1055 69
 5869 144c 03F48043 		and	r3, r3, #16384
 5870              		.loc 1 1055 29
 5871 1450 0A9A     		ldr	r2, [sp, #40]
 5872 1452 1343     		orrs	r3, r3, r2
 5873 1454 0A93     		str	r3, [sp, #40]
1056:C:/StellarStudio-7.0/SDKS/StellarESDK-1.7.0/Modules/Drivers/Timers/HRTIM/src\hrtim.c ****                 hrtim_eecr1 |= (( hdp->eev[i - 1U].sensitivity << 12U) & HRTIM_EECR1_EE3SNS);
 5874              		.loc 1 1056 46
 5875 1456 9DF83730 		ldrb	r3, [sp, #55]	@ zero_extendqisi2
 5876 145a 5A1E     		subs	r2, r3, #1
 5877              		.loc 1 1056 51
 5878 145c 0199     		ldr	r1, [sp, #4]
 5879 145e 1346     		mov	r3, r2
 5880 1460 9B00     		lsls	r3, r3, #2
 5881 1462 1344     		add	r3, r3, r2
 5882 1464 9B00     		lsls	r3, r3, #2
 5883 1466 0B44     		add	r3, r3, r1
 5884 1468 03F58E63 		add	r3, r3, #1136
 5885 146c 1B68     		ldr	r3, [r3]
 5886              		.loc 1 1056 64
 5887 146e 1B03     		lsls	r3, r3, #12
 5888              		.loc 1 1056 72
 5889 1470 03F4C033 		and	r3, r3, #98304
 5890              		.loc 1 1056 29
 5891 1474 0A9A     		ldr	r2, [sp, #40]
 5892 1476 1343     		orrs	r3, r3, r2
 5893 1478 0A93     		str	r3, [sp, #40]
1057:C:/StellarStudio-7.0/SDKS/StellarESDK-1.7.0/Modules/Drivers/Timers/HRTIM/src\hrtim.c ****                 /* Update the HRTIM registers (all bitfields but EE3FAST bit) */
1058:C:/StellarStudio-7.0/SDKS/StellarESDK-1.7.0/Modules/Drivers/Timers/HRTIM/src\hrtim.c ****                 hdp->hrtim->sCommonRegs.EECR1 |= hrtim_eecr1;
 5894              		.loc 1 1058 20
 5895 147a 019B     		ldr	r3, [sp, #4]
 5896 147c 1B68     		ldr	r3, [r3]
 5897              		.loc 1 1058 47
 5898 147e D3F8B013 		ldr	r1, [r3, #944]
 5899              		.loc 1 1058 20
 5900 1482 019B     		ldr	r3, [sp, #4]
 5901 1484 1B68     		ldr	r3, [r3]
 5902              		.loc 1 1058 47
 5903 1486 0A9A     		ldr	r2, [sp, #40]
 5904 1488 0A43     		orrs	r2, r2, r1
 5905 148a C3F8B023 		str	r2, [r3, #944]
1059:C:/StellarStudio-7.0/SDKS/StellarESDK-1.7.0/Modules/Drivers/Timers/HRTIM/src\hrtim.c ****                 /* Update the HRTIM registers (EE3FAST bit) */
1060:C:/StellarStudio-7.0/SDKS/StellarESDK-1.7.0/Modules/Drivers/Timers/HRTIM/src\hrtim.c ****                 hrtim_eecr1 |= (( hdp->eev[i - 1U].fast_mode << 12U) & HRTIM_EECR1_EE3FAST);
 5906              		.loc 1 1060 46
 5907 148e 9DF83730 		ldrb	r3, [sp, #55]	@ zero_extendqisi2
 5908 1492 5A1E     		subs	r2, r3, #1
 5909              		.loc 1 1060 51
 5910 1494 0199     		ldr	r1, [sp, #4]
 5911 1496 1346     		mov	r3, r2
 5912 1498 9B00     		lsls	r3, r3, #2
 5913 149a 1344     		add	r3, r3, r2
 5914 149c 9B00     		lsls	r3, r3, #2
 5915 149e 0B44     		add	r3, r3, r1
 5916 14a0 03F58F63 		add	r3, r3, #1144
 5917 14a4 1B68     		ldr	r3, [r3]
 5918              		.loc 1 1060 62
 5919 14a6 1B03     		lsls	r3, r3, #12
 5920              		.loc 1 1060 70
 5921 14a8 03F40033 		and	r3, r3, #131072
 5922              		.loc 1 1060 29
 5923 14ac 0A9A     		ldr	r2, [sp, #40]
 5924 14ae 1343     		orrs	r3, r3, r2
 5925 14b0 0A93     		str	r3, [sp, #40]
1061:C:/StellarStudio-7.0/SDKS/StellarESDK-1.7.0/Modules/Drivers/Timers/HRTIM/src\hrtim.c ****                 hdp->hrtim->sCommonRegs.EECR1 |= hrtim_eecr1;
 5926              		.loc 1 1061 20
 5927 14b2 019B     		ldr	r3, [sp, #4]
 5928 14b4 1B68     		ldr	r3, [r3]
 5929              		.loc 1 1061 47
 5930 14b6 D3F8B013 		ldr	r1, [r3, #944]
 5931              		.loc 1 1061 20
 5932 14ba 019B     		ldr	r3, [sp, #4]
 5933 14bc 1B68     		ldr	r3, [r3]
 5934              		.loc 1 1061 47
 5935 14be 0A9A     		ldr	r2, [sp, #40]
 5936 14c0 0A43     		orrs	r2, r2, r1
 5937 14c2 C3F8B023 		str	r2, [r3, #944]
1062:C:/StellarStudio-7.0/SDKS/StellarESDK-1.7.0/Modules/Drivers/Timers/HRTIM/src\hrtim.c ****                 break;
 5938              		.loc 1 1062 17
 5939 14c6 B5E2     		b	.L216
 5940              	.L212:
1063:C:/StellarStudio-7.0/SDKS/StellarESDK-1.7.0/Modules/Drivers/Timers/HRTIM/src\hrtim.c ****             case HRTIM_EVENT_4:
1064:C:/StellarStudio-7.0/SDKS/StellarESDK-1.7.0/Modules/Drivers/Timers/HRTIM/src\hrtim.c ****                 hrtim_eecr1 &= ~(HRTIM_EECR1_EE4SRC | HRTIM_EECR1_EE4POL | HRTIM_EECR1_EE4SNS | HRT
 5941              		.loc 1 1064 29
 5942 14c8 0A9B     		ldr	r3, [sp, #40]
 5943 14ca 23F47C03 		bic	r3, r3, #16515072
 5944 14ce 0A93     		str	r3, [sp, #40]
1065:C:/StellarStudio-7.0/SDKS/StellarESDK-1.7.0/Modules/Drivers/Timers/HRTIM/src\hrtim.c ****                 hrtim_eecr1 |= (( hdp->eev[i - 1U].source << 18U) & HRTIM_EECR1_EE4SRC);
 5945              		.loc 1 1065 46
 5946 14d0 9DF83730 		ldrb	r3, [sp, #55]	@ zero_extendqisi2
 5947 14d4 5A1E     		subs	r2, r3, #1
 5948              		.loc 1 1065 51
 5949 14d6 0199     		ldr	r1, [sp, #4]
 5950 14d8 1346     		mov	r3, r2
 5951 14da 9B00     		lsls	r3, r3, #2
 5952 14dc 1344     		add	r3, r3, r2
 5953 14de 9B00     		lsls	r3, r3, #2
 5954 14e0 0B44     		add	r3, r3, r1
 5955 14e2 03F58D63 		add	r3, r3, #1128
 5956 14e6 1B68     		ldr	r3, [r3]
 5957              		.loc 1 1065 59
 5958 14e8 9B04     		lsls	r3, r3, #18
 5959              		.loc 1 1065 67
 5960 14ea 03F44023 		and	r3, r3, #786432
 5961              		.loc 1 1065 29
 5962 14ee 0A9A     		ldr	r2, [sp, #40]
 5963 14f0 1343     		orrs	r3, r3, r2
 5964 14f2 0A93     		str	r3, [sp, #40]
1066:C:/StellarStudio-7.0/SDKS/StellarESDK-1.7.0/Modules/Drivers/Timers/HRTIM/src\hrtim.c ****                 hrtim_eecr1 |= (( hdp->eev[i - 1U].polarity << 18U) & HRTIM_EECR1_EE4POL);
 5965              		.loc 1 1066 46
 5966 14f4 9DF83730 		ldrb	r3, [sp, #55]	@ zero_extendqisi2
 5967 14f8 5A1E     		subs	r2, r3, #1
 5968              		.loc 1 1066 51
 5969 14fa 0199     		ldr	r1, [sp, #4]
 5970 14fc 1346     		mov	r3, r2
 5971 14fe 9B00     		lsls	r3, r3, #2
 5972 1500 1344     		add	r3, r3, r2
 5973 1502 9B00     		lsls	r3, r3, #2
 5974 1504 0B44     		add	r3, r3, r1
 5975 1506 03F26C43 		addw	r3, r3, #1132
 5976 150a 1B68     		ldr	r3, [r3]
 5977              		.loc 1 1066 61
 5978 150c 9B04     		lsls	r3, r3, #18
 5979              		.loc 1 1066 69
 5980 150e 03F48013 		and	r3, r3, #1048576
 5981              		.loc 1 1066 29
 5982 1512 0A9A     		ldr	r2, [sp, #40]
 5983 1514 1343     		orrs	r3, r3, r2
 5984 1516 0A93     		str	r3, [sp, #40]
1067:C:/StellarStudio-7.0/SDKS/StellarESDK-1.7.0/Modules/Drivers/Timers/HRTIM/src\hrtim.c ****                 hrtim_eecr1 |= (( hdp->eev[i - 1U].sensitivity << 18U) & HRTIM_EECR1_EE4SNS);
 5985              		.loc 1 1067 46
 5986 1518 9DF83730 		ldrb	r3, [sp, #55]	@ zero_extendqisi2
 5987 151c 5A1E     		subs	r2, r3, #1
 5988              		.loc 1 1067 51
 5989 151e 0199     		ldr	r1, [sp, #4]
 5990 1520 1346     		mov	r3, r2
 5991 1522 9B00     		lsls	r3, r3, #2
 5992 1524 1344     		add	r3, r3, r2
 5993 1526 9B00     		lsls	r3, r3, #2
 5994 1528 0B44     		add	r3, r3, r1
 5995 152a 03F58E63 		add	r3, r3, #1136
 5996 152e 1B68     		ldr	r3, [r3]
 5997              		.loc 1 1067 64
 5998 1530 9B04     		lsls	r3, r3, #18
 5999              		.loc 1 1067 72
 6000 1532 03F4C003 		and	r3, r3, #6291456
 6001              		.loc 1 1067 29
 6002 1536 0A9A     		ldr	r2, [sp, #40]
 6003 1538 1343     		orrs	r3, r3, r2
 6004 153a 0A93     		str	r3, [sp, #40]
1068:C:/StellarStudio-7.0/SDKS/StellarESDK-1.7.0/Modules/Drivers/Timers/HRTIM/src\hrtim.c ****                 /* Update the HRTIM registers (all bitfields but EE4FAST bit) */
1069:C:/StellarStudio-7.0/SDKS/StellarESDK-1.7.0/Modules/Drivers/Timers/HRTIM/src\hrtim.c ****                 hdp->hrtim->sCommonRegs.EECR1 |= hrtim_eecr1;
 6005              		.loc 1 1069 20
 6006 153c 019B     		ldr	r3, [sp, #4]
 6007 153e 1B68     		ldr	r3, [r3]
 6008              		.loc 1 1069 47
 6009 1540 D3F8B013 		ldr	r1, [r3, #944]
 6010              		.loc 1 1069 20
 6011 1544 019B     		ldr	r3, [sp, #4]
 6012 1546 1B68     		ldr	r3, [r3]
 6013              		.loc 1 1069 47
 6014 1548 0A9A     		ldr	r2, [sp, #40]
 6015 154a 0A43     		orrs	r2, r2, r1
 6016 154c C3F8B023 		str	r2, [r3, #944]
1070:C:/StellarStudio-7.0/SDKS/StellarESDK-1.7.0/Modules/Drivers/Timers/HRTIM/src\hrtim.c ****                 /* Update the HRTIM registers (EE4FAST bit) */
1071:C:/StellarStudio-7.0/SDKS/StellarESDK-1.7.0/Modules/Drivers/Timers/HRTIM/src\hrtim.c ****                 hrtim_eecr1 |= (( hdp->eev[i - 1U].fast_mode << 18U) & HRTIM_EECR1_EE4FAST);
 6017              		.loc 1 1071 46
 6018 1550 9DF83730 		ldrb	r3, [sp, #55]	@ zero_extendqisi2
 6019 1554 5A1E     		subs	r2, r3, #1
 6020              		.loc 1 1071 51
 6021 1556 0199     		ldr	r1, [sp, #4]
 6022 1558 1346     		mov	r3, r2
 6023 155a 9B00     		lsls	r3, r3, #2
 6024 155c 1344     		add	r3, r3, r2
 6025 155e 9B00     		lsls	r3, r3, #2
 6026 1560 0B44     		add	r3, r3, r1
 6027 1562 03F58F63 		add	r3, r3, #1144
 6028 1566 1B68     		ldr	r3, [r3]
 6029              		.loc 1 1071 62
 6030 1568 9B04     		lsls	r3, r3, #18
 6031              		.loc 1 1071 70
 6032 156a 03F40003 		and	r3, r3, #8388608
 6033              		.loc 1 1071 29
 6034 156e 0A9A     		ldr	r2, [sp, #40]
 6035 1570 1343     		orrs	r3, r3, r2
 6036 1572 0A93     		str	r3, [sp, #40]
1072:C:/StellarStudio-7.0/SDKS/StellarESDK-1.7.0/Modules/Drivers/Timers/HRTIM/src\hrtim.c ****                 hdp->hrtim->sCommonRegs.EECR1 |= hrtim_eecr1;
 6037              		.loc 1 1072 20
 6038 1574 019B     		ldr	r3, [sp, #4]
 6039 1576 1B68     		ldr	r3, [r3]
 6040              		.loc 1 1072 47
 6041 1578 D3F8B013 		ldr	r1, [r3, #944]
 6042              		.loc 1 1072 20
 6043 157c 019B     		ldr	r3, [sp, #4]
 6044 157e 1B68     		ldr	r3, [r3]
 6045              		.loc 1 1072 47
 6046 1580 0A9A     		ldr	r2, [sp, #40]
 6047 1582 0A43     		orrs	r2, r2, r1
 6048 1584 C3F8B023 		str	r2, [r3, #944]
1073:C:/StellarStudio-7.0/SDKS/StellarESDK-1.7.0/Modules/Drivers/Timers/HRTIM/src\hrtim.c ****                 break;
 6049              		.loc 1 1073 17
 6050 1588 54E2     		b	.L216
 6051              	.L211:
1074:C:/StellarStudio-7.0/SDKS/StellarESDK-1.7.0/Modules/Drivers/Timers/HRTIM/src\hrtim.c ****             case HRTIM_EVENT_5:
1075:C:/StellarStudio-7.0/SDKS/StellarESDK-1.7.0/Modules/Drivers/Timers/HRTIM/src\hrtim.c ****                 hrtim_eecr1 &= ~(HRTIM_EECR1_EE5SRC | HRTIM_EECR1_EE5POL | HRTIM_EECR1_EE5SNS | HRT
 6052              		.loc 1 1075 29
 6053 158a 0A9B     		ldr	r3, [sp, #40]
 6054 158c 23F07C53 		bic	r3, r3, #1056964608
 6055 1590 0A93     		str	r3, [sp, #40]
1076:C:/StellarStudio-7.0/SDKS/StellarESDK-1.7.0/Modules/Drivers/Timers/HRTIM/src\hrtim.c ****                 hrtim_eecr1 |= (( hdp->eev[i - 1U].source << 24U) & HRTIM_EECR1_EE5SRC);
 6056              		.loc 1 1076 46
 6057 1592 9DF83730 		ldrb	r3, [sp, #55]	@ zero_extendqisi2
 6058 1596 5A1E     		subs	r2, r3, #1
 6059              		.loc 1 1076 51
 6060 1598 0199     		ldr	r1, [sp, #4]
 6061 159a 1346     		mov	r3, r2
 6062 159c 9B00     		lsls	r3, r3, #2
 6063 159e 1344     		add	r3, r3, r2
 6064 15a0 9B00     		lsls	r3, r3, #2
 6065 15a2 0B44     		add	r3, r3, r1
 6066 15a4 03F58D63 		add	r3, r3, #1128
 6067 15a8 1B68     		ldr	r3, [r3]
 6068              		.loc 1 1076 59
 6069 15aa 1B06     		lsls	r3, r3, #24
 6070              		.loc 1 1076 67
 6071 15ac 03F04073 		and	r3, r3, #50331648
 6072              		.loc 1 1076 29
 6073 15b0 0A9A     		ldr	r2, [sp, #40]
 6074 15b2 1343     		orrs	r3, r3, r2
 6075 15b4 0A93     		str	r3, [sp, #40]
1077:C:/StellarStudio-7.0/SDKS/StellarESDK-1.7.0/Modules/Drivers/Timers/HRTIM/src\hrtim.c ****                 hrtim_eecr1 |= (( hdp->eev[i - 1U].polarity << 24U) & HRTIM_EECR1_EE5POL);
 6076              		.loc 1 1077 46
 6077 15b6 9DF83730 		ldrb	r3, [sp, #55]	@ zero_extendqisi2
 6078 15ba 5A1E     		subs	r2, r3, #1
 6079              		.loc 1 1077 51
 6080 15bc 0199     		ldr	r1, [sp, #4]
 6081 15be 1346     		mov	r3, r2
 6082 15c0 9B00     		lsls	r3, r3, #2
 6083 15c2 1344     		add	r3, r3, r2
 6084 15c4 9B00     		lsls	r3, r3, #2
 6085 15c6 0B44     		add	r3, r3, r1
 6086 15c8 03F26C43 		addw	r3, r3, #1132
 6087 15cc 1B68     		ldr	r3, [r3]
 6088              		.loc 1 1077 61
 6089 15ce 1B06     		lsls	r3, r3, #24
 6090              		.loc 1 1077 69
 6091 15d0 03F08063 		and	r3, r3, #67108864
 6092              		.loc 1 1077 29
 6093 15d4 0A9A     		ldr	r2, [sp, #40]
 6094 15d6 1343     		orrs	r3, r3, r2
 6095 15d8 0A93     		str	r3, [sp, #40]
1078:C:/StellarStudio-7.0/SDKS/StellarESDK-1.7.0/Modules/Drivers/Timers/HRTIM/src\hrtim.c ****                 hrtim_eecr1 |= (( hdp->eev[i - 1U].sensitivity << 24U) & HRTIM_EECR1_EE5SNS);
 6096              		.loc 1 1078 46
 6097 15da 9DF83730 		ldrb	r3, [sp, #55]	@ zero_extendqisi2
 6098 15de 5A1E     		subs	r2, r3, #1
 6099              		.loc 1 1078 51
 6100 15e0 0199     		ldr	r1, [sp, #4]
 6101 15e2 1346     		mov	r3, r2
 6102 15e4 9B00     		lsls	r3, r3, #2
 6103 15e6 1344     		add	r3, r3, r2
 6104 15e8 9B00     		lsls	r3, r3, #2
 6105 15ea 0B44     		add	r3, r3, r1
 6106 15ec 03F58E63 		add	r3, r3, #1136
 6107 15f0 1B68     		ldr	r3, [r3]
 6108              		.loc 1 1078 64
 6109 15f2 1B06     		lsls	r3, r3, #24
 6110              		.loc 1 1078 72
 6111 15f4 03F0C053 		and	r3, r3, #402653184
 6112              		.loc 1 1078 29
 6113 15f8 0A9A     		ldr	r2, [sp, #40]
 6114 15fa 1343     		orrs	r3, r3, r2
 6115 15fc 0A93     		str	r3, [sp, #40]
1079:C:/StellarStudio-7.0/SDKS/StellarESDK-1.7.0/Modules/Drivers/Timers/HRTIM/src\hrtim.c ****                 /* Update the HRTIM registers (all bitfields but EE5FAST bit) */
1080:C:/StellarStudio-7.0/SDKS/StellarESDK-1.7.0/Modules/Drivers/Timers/HRTIM/src\hrtim.c ****                 hdp->hrtim->sCommonRegs.EECR1 |= hrtim_eecr1;
 6116              		.loc 1 1080 20
 6117 15fe 019B     		ldr	r3, [sp, #4]
 6118 1600 1B68     		ldr	r3, [r3]
 6119              		.loc 1 1080 47
 6120 1602 D3F8B013 		ldr	r1, [r3, #944]
 6121              		.loc 1 1080 20
 6122 1606 019B     		ldr	r3, [sp, #4]
 6123 1608 1B68     		ldr	r3, [r3]
 6124              		.loc 1 1080 47
 6125 160a 0A9A     		ldr	r2, [sp, #40]
 6126 160c 0A43     		orrs	r2, r2, r1
 6127 160e C3F8B023 		str	r2, [r3, #944]
1081:C:/StellarStudio-7.0/SDKS/StellarESDK-1.7.0/Modules/Drivers/Timers/HRTIM/src\hrtim.c ****                 /* Update the HRTIM registers (EE5FAST bit) */
1082:C:/StellarStudio-7.0/SDKS/StellarESDK-1.7.0/Modules/Drivers/Timers/HRTIM/src\hrtim.c ****                 hrtim_eecr1 |= (( hdp->eev[i - 1U].fast_mode << 24U) & HRTIM_EECR1_EE5FAST);
 6128              		.loc 1 1082 46
 6129 1612 9DF83730 		ldrb	r3, [sp, #55]	@ zero_extendqisi2
 6130 1616 5A1E     		subs	r2, r3, #1
 6131              		.loc 1 1082 51
 6132 1618 0199     		ldr	r1, [sp, #4]
 6133 161a 1346     		mov	r3, r2
 6134 161c 9B00     		lsls	r3, r3, #2
 6135 161e 1344     		add	r3, r3, r2
 6136 1620 9B00     		lsls	r3, r3, #2
 6137 1622 0B44     		add	r3, r3, r1
 6138 1624 03F58F63 		add	r3, r3, #1144
 6139 1628 1B68     		ldr	r3, [r3]
 6140              		.loc 1 1082 62
 6141 162a 1B06     		lsls	r3, r3, #24
 6142              		.loc 1 1082 70
 6143 162c 03F00053 		and	r3, r3, #536870912
 6144              		.loc 1 1082 29
 6145 1630 0A9A     		ldr	r2, [sp, #40]
 6146 1632 1343     		orrs	r3, r3, r2
 6147 1634 0A93     		str	r3, [sp, #40]
1083:C:/StellarStudio-7.0/SDKS/StellarESDK-1.7.0/Modules/Drivers/Timers/HRTIM/src\hrtim.c ****                 hdp->hrtim->sCommonRegs.EECR1 |= hrtim_eecr1;
 6148              		.loc 1 1083 20
 6149 1636 019B     		ldr	r3, [sp, #4]
 6150 1638 1B68     		ldr	r3, [r3]
 6151              		.loc 1 1083 47
 6152 163a D3F8B013 		ldr	r1, [r3, #944]
 6153              		.loc 1 1083 20
 6154 163e 019B     		ldr	r3, [sp, #4]
 6155 1640 1B68     		ldr	r3, [r3]
 6156              		.loc 1 1083 47
 6157 1642 0A9A     		ldr	r2, [sp, #40]
 6158 1644 0A43     		orrs	r2, r2, r1
 6159 1646 C3F8B023 		str	r2, [r3, #944]
1084:C:/StellarStudio-7.0/SDKS/StellarESDK-1.7.0/Modules/Drivers/Timers/HRTIM/src\hrtim.c ****                 break;
 6160              		.loc 1 1084 17
 6161 164a F3E1     		b	.L216
 6162              	.L210:
1085:C:/StellarStudio-7.0/SDKS/StellarESDK-1.7.0/Modules/Drivers/Timers/HRTIM/src\hrtim.c ****             case HRTIM_EVENT_6:
1086:C:/StellarStudio-7.0/SDKS/StellarESDK-1.7.0/Modules/Drivers/Timers/HRTIM/src\hrtim.c ****                 hrtim_eecr2 &= ~(HRTIM_EECR2_EE6SRC | HRTIM_EECR2_EE6POL | HRTIM_EECR2_EE6SNS);
 6163              		.loc 1 1086 29
 6164 164c 099B     		ldr	r3, [sp, #36]
 6165 164e 23F01F03 		bic	r3, r3, #31
 6166 1652 0993     		str	r3, [sp, #36]
1087:C:/StellarStudio-7.0/SDKS/StellarESDK-1.7.0/Modules/Drivers/Timers/HRTIM/src\hrtim.c ****                 hrtim_eecr2 |= ( hdp->eev[i - 1U].source & HRTIM_EECR2_EE6SRC);
 6167              		.loc 1 1087 45
 6168 1654 9DF83730 		ldrb	r3, [sp, #55]	@ zero_extendqisi2
 6169 1658 5A1E     		subs	r2, r3, #1
 6170              		.loc 1 1087 50
 6171 165a 0199     		ldr	r1, [sp, #4]
 6172 165c 1346     		mov	r3, r2
 6173 165e 9B00     		lsls	r3, r3, #2
 6174 1660 1344     		add	r3, r3, r2
 6175 1662 9B00     		lsls	r3, r3, #2
 6176 1664 0B44     		add	r3, r3, r1
 6177 1666 03F58D63 		add	r3, r3, #1128
 6178 166a 1B68     		ldr	r3, [r3]
 6179              		.loc 1 1087 58
 6180 166c 03F00303 		and	r3, r3, #3
 6181              		.loc 1 1087 29
 6182 1670 099A     		ldr	r2, [sp, #36]
 6183 1672 1343     		orrs	r3, r3, r2
 6184 1674 0993     		str	r3, [sp, #36]
1088:C:/StellarStudio-7.0/SDKS/StellarESDK-1.7.0/Modules/Drivers/Timers/HRTIM/src\hrtim.c ****                 hrtim_eecr2 |= ( hdp->eev[i - 1U].polarity & HRTIM_EECR2_EE6POL);
 6185              		.loc 1 1088 45
 6186 1676 9DF83730 		ldrb	r3, [sp, #55]	@ zero_extendqisi2
 6187 167a 5A1E     		subs	r2, r3, #1
 6188              		.loc 1 1088 50
 6189 167c 0199     		ldr	r1, [sp, #4]
 6190 167e 1346     		mov	r3, r2
 6191 1680 9B00     		lsls	r3, r3, #2
 6192 1682 1344     		add	r3, r3, r2
 6193 1684 9B00     		lsls	r3, r3, #2
 6194 1686 0B44     		add	r3, r3, r1
 6195 1688 03F26C43 		addw	r3, r3, #1132
 6196 168c 1B68     		ldr	r3, [r3]
 6197              		.loc 1 1088 60
 6198 168e 03F00403 		and	r3, r3, #4
 6199              		.loc 1 1088 29
 6200 1692 099A     		ldr	r2, [sp, #36]
 6201 1694 1343     		orrs	r3, r3, r2
 6202 1696 0993     		str	r3, [sp, #36]
1089:C:/StellarStudio-7.0/SDKS/StellarESDK-1.7.0/Modules/Drivers/Timers/HRTIM/src\hrtim.c ****                 hrtim_eecr2 |= ( hdp->eev[i - 1U].sensitivity & HRTIM_EECR2_EE6SNS);
 6203              		.loc 1 1089 45
 6204 1698 9DF83730 		ldrb	r3, [sp, #55]	@ zero_extendqisi2
 6205 169c 5A1E     		subs	r2, r3, #1
 6206              		.loc 1 1089 50
 6207 169e 0199     		ldr	r1, [sp, #4]
 6208 16a0 1346     		mov	r3, r2
 6209 16a2 9B00     		lsls	r3, r3, #2
 6210 16a4 1344     		add	r3, r3, r2
 6211 16a6 9B00     		lsls	r3, r3, #2
 6212 16a8 0B44     		add	r3, r3, r1
 6213 16aa 03F58E63 		add	r3, r3, #1136
 6214 16ae 1B68     		ldr	r3, [r3]
 6215              		.loc 1 1089 63
 6216 16b0 03F01803 		and	r3, r3, #24
 6217              		.loc 1 1089 29
 6218 16b4 099A     		ldr	r2, [sp, #36]
 6219 16b6 1343     		orrs	r3, r3, r2
 6220 16b8 0993     		str	r3, [sp, #36]
1090:C:/StellarStudio-7.0/SDKS/StellarESDK-1.7.0/Modules/Drivers/Timers/HRTIM/src\hrtim.c ****                 hrtim_eecr3 &= ~(HRTIM_EECR3_EE6F);
 6221              		.loc 1 1090 29
 6222 16ba 089B     		ldr	r3, [sp, #32]
 6223 16bc 23F00F03 		bic	r3, r3, #15
 6224 16c0 0893     		str	r3, [sp, #32]
1091:C:/StellarStudio-7.0/SDKS/StellarESDK-1.7.0/Modules/Drivers/Timers/HRTIM/src\hrtim.c ****                 hrtim_eecr3 |= ( hdp->eev[i - 1U].filter & HRTIM_EECR3_EE6F);
 6225              		.loc 1 1091 45
 6226 16c2 9DF83730 		ldrb	r3, [sp, #55]	@ zero_extendqisi2
 6227 16c6 5A1E     		subs	r2, r3, #1
 6228              		.loc 1 1091 50
 6229 16c8 0199     		ldr	r1, [sp, #4]
 6230 16ca 1346     		mov	r3, r2
 6231 16cc 9B00     		lsls	r3, r3, #2
 6232 16ce 1344     		add	r3, r3, r2
 6233 16d0 9B00     		lsls	r3, r3, #2
 6234 16d2 0B44     		add	r3, r3, r1
 6235 16d4 03F27443 		addw	r3, r3, #1140
 6236 16d8 1B68     		ldr	r3, [r3]
 6237              		.loc 1 1091 58
 6238 16da 03F00F03 		and	r3, r3, #15
 6239              		.loc 1 1091 29
 6240 16de 089A     		ldr	r2, [sp, #32]
 6241 16e0 1343     		orrs	r3, r3, r2
 6242 16e2 0893     		str	r3, [sp, #32]
1092:C:/StellarStudio-7.0/SDKS/StellarESDK-1.7.0/Modules/Drivers/Timers/HRTIM/src\hrtim.c ****                 /* Update the HRTIM registers */
1093:C:/StellarStudio-7.0/SDKS/StellarESDK-1.7.0/Modules/Drivers/Timers/HRTIM/src\hrtim.c ****                 hdp->hrtim->sCommonRegs.EECR2 |= hrtim_eecr2;
 6243              		.loc 1 1093 20
 6244 16e4 019B     		ldr	r3, [sp, #4]
 6245 16e6 1B68     		ldr	r3, [r3]
 6246              		.loc 1 1093 47
 6247 16e8 D3F8B413 		ldr	r1, [r3, #948]
 6248              		.loc 1 1093 20
 6249 16ec 019B     		ldr	r3, [sp, #4]
 6250 16ee 1B68     		ldr	r3, [r3]
 6251              		.loc 1 1093 47
 6252 16f0 099A     		ldr	r2, [sp, #36]
 6253 16f2 0A43     		orrs	r2, r2, r1
 6254 16f4 C3F8B423 		str	r2, [r3, #948]
1094:C:/StellarStudio-7.0/SDKS/StellarESDK-1.7.0/Modules/Drivers/Timers/HRTIM/src\hrtim.c ****                 hdp->hrtim->sCommonRegs.EECR3 |= hrtim_eecr3;
 6255              		.loc 1 1094 20
 6256 16f8 019B     		ldr	r3, [sp, #4]
 6257 16fa 1B68     		ldr	r3, [r3]
 6258              		.loc 1 1094 47
 6259 16fc D3F8B813 		ldr	r1, [r3, #952]
 6260              		.loc 1 1094 20
 6261 1700 019B     		ldr	r3, [sp, #4]
 6262 1702 1B68     		ldr	r3, [r3]
 6263              		.loc 1 1094 47
 6264 1704 089A     		ldr	r2, [sp, #32]
 6265 1706 0A43     		orrs	r2, r2, r1
 6266 1708 C3F8B823 		str	r2, [r3, #952]
1095:C:/StellarStudio-7.0/SDKS/StellarESDK-1.7.0/Modules/Drivers/Timers/HRTIM/src\hrtim.c ****                 break;
 6267              		.loc 1 1095 17
 6268 170c 92E1     		b	.L216
 6269              	.L209:
1096:C:/StellarStudio-7.0/SDKS/StellarESDK-1.7.0/Modules/Drivers/Timers/HRTIM/src\hrtim.c ****             case HRTIM_EVENT_7:
1097:C:/StellarStudio-7.0/SDKS/StellarESDK-1.7.0/Modules/Drivers/Timers/HRTIM/src\hrtim.c ****                 hrtim_eecr2 &= ~(HRTIM_EECR2_EE7SRC | HRTIM_EECR2_EE7POL | HRTIM_EECR2_EE7SNS);
 6270              		.loc 1 1097 29
 6271 170e 099B     		ldr	r3, [sp, #36]
 6272 1710 23F4F863 		bic	r3, r3, #1984
 6273 1714 0993     		str	r3, [sp, #36]
1098:C:/StellarStudio-7.0/SDKS/StellarESDK-1.7.0/Modules/Drivers/Timers/HRTIM/src\hrtim.c ****                 hrtim_eecr2 |= (( hdp->eev[i - 1U].source << 6U) & HRTIM_EECR2_EE7SRC);
 6274              		.loc 1 1098 46
 6275 1716 9DF83730 		ldrb	r3, [sp, #55]	@ zero_extendqisi2
 6276 171a 5A1E     		subs	r2, r3, #1
 6277              		.loc 1 1098 51
 6278 171c 0199     		ldr	r1, [sp, #4]
 6279 171e 1346     		mov	r3, r2
 6280 1720 9B00     		lsls	r3, r3, #2
 6281 1722 1344     		add	r3, r3, r2
 6282 1724 9B00     		lsls	r3, r3, #2
 6283 1726 0B44     		add	r3, r3, r1
 6284 1728 03F58D63 		add	r3, r3, #1128
 6285 172c 1B68     		ldr	r3, [r3]
 6286              		.loc 1 1098 59
 6287 172e 9B01     		lsls	r3, r3, #6
 6288              		.loc 1 1098 66
 6289 1730 DBB2     		uxtb	r3, r3
 6290              		.loc 1 1098 29
 6291 1732 099A     		ldr	r2, [sp, #36]
 6292 1734 1343     		orrs	r3, r3, r2
 6293 1736 0993     		str	r3, [sp, #36]
1099:C:/StellarStudio-7.0/SDKS/StellarESDK-1.7.0/Modules/Drivers/Timers/HRTIM/src\hrtim.c ****                 hrtim_eecr2 |= (( hdp->eev[i - 1U].polarity << 6U) & HRTIM_EECR2_EE7POL);
 6294              		.loc 1 1099 46
 6295 1738 9DF83730 		ldrb	r3, [sp, #55]	@ zero_extendqisi2
 6296 173c 5A1E     		subs	r2, r3, #1
 6297              		.loc 1 1099 51
 6298 173e 0199     		ldr	r1, [sp, #4]
 6299 1740 1346     		mov	r3, r2
 6300 1742 9B00     		lsls	r3, r3, #2
 6301 1744 1344     		add	r3, r3, r2
 6302 1746 9B00     		lsls	r3, r3, #2
 6303 1748 0B44     		add	r3, r3, r1
 6304 174a 03F26C43 		addw	r3, r3, #1132
 6305 174e 1B68     		ldr	r3, [r3]
 6306              		.loc 1 1099 61
 6307 1750 9B01     		lsls	r3, r3, #6
 6308              		.loc 1 1099 68
 6309 1752 03F48073 		and	r3, r3, #256
 6310              		.loc 1 1099 29
 6311 1756 099A     		ldr	r2, [sp, #36]
 6312 1758 1343     		orrs	r3, r3, r2
 6313 175a 0993     		str	r3, [sp, #36]
1100:C:/StellarStudio-7.0/SDKS/StellarESDK-1.7.0/Modules/Drivers/Timers/HRTIM/src\hrtim.c ****                 hrtim_eecr2 |= (( hdp->eev[i - 1U].sensitivity << 6U) & HRTIM_EECR2_EE7SNS);
 6314              		.loc 1 1100 46
 6315 175c 9DF83730 		ldrb	r3, [sp, #55]	@ zero_extendqisi2
 6316 1760 5A1E     		subs	r2, r3, #1
 6317              		.loc 1 1100 51
 6318 1762 0199     		ldr	r1, [sp, #4]
 6319 1764 1346     		mov	r3, r2
 6320 1766 9B00     		lsls	r3, r3, #2
 6321 1768 1344     		add	r3, r3, r2
 6322 176a 9B00     		lsls	r3, r3, #2
 6323 176c 0B44     		add	r3, r3, r1
 6324 176e 03F58E63 		add	r3, r3, #1136
 6325 1772 1B68     		ldr	r3, [r3]
 6326              		.loc 1 1100 64
 6327 1774 9B01     		lsls	r3, r3, #6
 6328              		.loc 1 1100 71
 6329 1776 03F4C063 		and	r3, r3, #1536
 6330              		.loc 1 1100 29
 6331 177a 099A     		ldr	r2, [sp, #36]
 6332 177c 1343     		orrs	r3, r3, r2
 6333 177e 0993     		str	r3, [sp, #36]
1101:C:/StellarStudio-7.0/SDKS/StellarESDK-1.7.0/Modules/Drivers/Timers/HRTIM/src\hrtim.c ****                 hrtim_eecr3 &= ~(HRTIM_EECR3_EE7F);
 6334              		.loc 1 1101 29
 6335 1780 089B     		ldr	r3, [sp, #32]
 6336 1782 23F47073 		bic	r3, r3, #960
 6337 1786 0893     		str	r3, [sp, #32]
1102:C:/StellarStudio-7.0/SDKS/StellarESDK-1.7.0/Modules/Drivers/Timers/HRTIM/src\hrtim.c ****                 hrtim_eecr3 |= (( hdp->eev[i - 1U].filter << 6U) & HRTIM_EECR3_EE7F);
 6338              		.loc 1 1102 46
 6339 1788 9DF83730 		ldrb	r3, [sp, #55]	@ zero_extendqisi2
 6340 178c 5A1E     		subs	r2, r3, #1
 6341              		.loc 1 1102 51
 6342 178e 0199     		ldr	r1, [sp, #4]
 6343 1790 1346     		mov	r3, r2
 6344 1792 9B00     		lsls	r3, r3, #2
 6345 1794 1344     		add	r3, r3, r2
 6346 1796 9B00     		lsls	r3, r3, #2
 6347 1798 0B44     		add	r3, r3, r1
 6348 179a 03F27443 		addw	r3, r3, #1140
 6349 179e 1B68     		ldr	r3, [r3]
 6350              		.loc 1 1102 59
 6351 17a0 9B01     		lsls	r3, r3, #6
 6352              		.loc 1 1102 66
 6353 17a2 03F47073 		and	r3, r3, #960
 6354              		.loc 1 1102 29
 6355 17a6 089A     		ldr	r2, [sp, #32]
 6356 17a8 1343     		orrs	r3, r3, r2
 6357 17aa 0893     		str	r3, [sp, #32]
1103:C:/StellarStudio-7.0/SDKS/StellarESDK-1.7.0/Modules/Drivers/Timers/HRTIM/src\hrtim.c ****                 /* Update the HRTIM registers */
1104:C:/StellarStudio-7.0/SDKS/StellarESDK-1.7.0/Modules/Drivers/Timers/HRTIM/src\hrtim.c ****                 hdp->hrtim->sCommonRegs.EECR2 |= hrtim_eecr2;
 6358              		.loc 1 1104 20
 6359 17ac 019B     		ldr	r3, [sp, #4]
 6360 17ae 1B68     		ldr	r3, [r3]
 6361              		.loc 1 1104 47
 6362 17b0 D3F8B413 		ldr	r1, [r3, #948]
 6363              		.loc 1 1104 20
 6364 17b4 019B     		ldr	r3, [sp, #4]
 6365 17b6 1B68     		ldr	r3, [r3]
 6366              		.loc 1 1104 47
 6367 17b8 099A     		ldr	r2, [sp, #36]
 6368 17ba 0A43     		orrs	r2, r2, r1
 6369 17bc C3F8B423 		str	r2, [r3, #948]
1105:C:/StellarStudio-7.0/SDKS/StellarESDK-1.7.0/Modules/Drivers/Timers/HRTIM/src\hrtim.c ****                 hdp->hrtim->sCommonRegs.EECR3 |= hrtim_eecr3;
 6370              		.loc 1 1105 20
 6371 17c0 019B     		ldr	r3, [sp, #4]
 6372 17c2 1B68     		ldr	r3, [r3]
 6373              		.loc 1 1105 47
 6374 17c4 D3F8B813 		ldr	r1, [r3, #952]
 6375              		.loc 1 1105 20
 6376 17c8 019B     		ldr	r3, [sp, #4]
 6377 17ca 1B68     		ldr	r3, [r3]
 6378              		.loc 1 1105 47
 6379 17cc 089A     		ldr	r2, [sp, #32]
 6380 17ce 0A43     		orrs	r2, r2, r1
 6381 17d0 C3F8B823 		str	r2, [r3, #952]
1106:C:/StellarStudio-7.0/SDKS/StellarESDK-1.7.0/Modules/Drivers/Timers/HRTIM/src\hrtim.c ****                 break;
 6382              		.loc 1 1106 17
 6383 17d4 2EE1     		b	.L216
 6384              	.L208:
1107:C:/StellarStudio-7.0/SDKS/StellarESDK-1.7.0/Modules/Drivers/Timers/HRTIM/src\hrtim.c ****             case HRTIM_EVENT_8:
1108:C:/StellarStudio-7.0/SDKS/StellarESDK-1.7.0/Modules/Drivers/Timers/HRTIM/src\hrtim.c ****                 hrtim_eecr2 &= ~(HRTIM_EECR2_EE8SRC | HRTIM_EECR2_EE8POL | HRTIM_EECR2_EE8SNS);
 6385              		.loc 1 1108 29
 6386 17d6 099B     		ldr	r3, [sp, #36]
 6387 17d8 23F4F833 		bic	r3, r3, #126976
 6388 17dc 0993     		str	r3, [sp, #36]
1109:C:/StellarStudio-7.0/SDKS/StellarESDK-1.7.0/Modules/Drivers/Timers/HRTIM/src\hrtim.c ****                 hrtim_eecr2 |= (( hdp->eev[i - 1U].source << 12U) & HRTIM_EECR2_EE8SRC);
 6389              		.loc 1 1109 46
 6390 17de 9DF83730 		ldrb	r3, [sp, #55]	@ zero_extendqisi2
 6391 17e2 5A1E     		subs	r2, r3, #1
 6392              		.loc 1 1109 51
 6393 17e4 0199     		ldr	r1, [sp, #4]
 6394 17e6 1346     		mov	r3, r2
 6395 17e8 9B00     		lsls	r3, r3, #2
 6396 17ea 1344     		add	r3, r3, r2
 6397 17ec 9B00     		lsls	r3, r3, #2
 6398 17ee 0B44     		add	r3, r3, r1
 6399 17f0 03F58D63 		add	r3, r3, #1128
 6400 17f4 1B68     		ldr	r3, [r3]
 6401              		.loc 1 1109 59
 6402 17f6 1B03     		lsls	r3, r3, #12
 6403              		.loc 1 1109 67
 6404 17f8 03F44053 		and	r3, r3, #12288
 6405              		.loc 1 1109 29
 6406 17fc 099A     		ldr	r2, [sp, #36]
 6407 17fe 1343     		orrs	r3, r3, r2
 6408 1800 0993     		str	r3, [sp, #36]
1110:C:/StellarStudio-7.0/SDKS/StellarESDK-1.7.0/Modules/Drivers/Timers/HRTIM/src\hrtim.c ****                 hrtim_eecr2 |= (( hdp->eev[i - 1U].polarity << 12U) & HRTIM_EECR2_EE8POL);
 6409              		.loc 1 1110 46
 6410 1802 9DF83730 		ldrb	r3, [sp, #55]	@ zero_extendqisi2
 6411 1806 5A1E     		subs	r2, r3, #1
 6412              		.loc 1 1110 51
 6413 1808 0199     		ldr	r1, [sp, #4]
 6414 180a 1346     		mov	r3, r2
 6415 180c 9B00     		lsls	r3, r3, #2
 6416 180e 1344     		add	r3, r3, r2
 6417 1810 9B00     		lsls	r3, r3, #2
 6418 1812 0B44     		add	r3, r3, r1
 6419 1814 03F26C43 		addw	r3, r3, #1132
 6420 1818 1B68     		ldr	r3, [r3]
 6421              		.loc 1 1110 61
 6422 181a 1B03     		lsls	r3, r3, #12
 6423              		.loc 1 1110 69
 6424 181c 03F48043 		and	r3, r3, #16384
 6425              		.loc 1 1110 29
 6426 1820 099A     		ldr	r2, [sp, #36]
 6427 1822 1343     		orrs	r3, r3, r2
 6428 1824 0993     		str	r3, [sp, #36]
1111:C:/StellarStudio-7.0/SDKS/StellarESDK-1.7.0/Modules/Drivers/Timers/HRTIM/src\hrtim.c ****                 hrtim_eecr2 |= (( hdp->eev[i - 1U].sensitivity << 12U) & HRTIM_EECR2_EE8SNS);
 6429              		.loc 1 1111 46
 6430 1826 9DF83730 		ldrb	r3, [sp, #55]	@ zero_extendqisi2
 6431 182a 5A1E     		subs	r2, r3, #1
 6432              		.loc 1 1111 51
 6433 182c 0199     		ldr	r1, [sp, #4]
 6434 182e 1346     		mov	r3, r2
 6435 1830 9B00     		lsls	r3, r3, #2
 6436 1832 1344     		add	r3, r3, r2
 6437 1834 9B00     		lsls	r3, r3, #2
 6438 1836 0B44     		add	r3, r3, r1
 6439 1838 03F58E63 		add	r3, r3, #1136
 6440 183c 1B68     		ldr	r3, [r3]
 6441              		.loc 1 1111 64
 6442 183e 1B03     		lsls	r3, r3, #12
 6443              		.loc 1 1111 72
 6444 1840 03F4C033 		and	r3, r3, #98304
 6445              		.loc 1 1111 29
 6446 1844 099A     		ldr	r2, [sp, #36]
 6447 1846 1343     		orrs	r3, r3, r2
 6448 1848 0993     		str	r3, [sp, #36]
1112:C:/StellarStudio-7.0/SDKS/StellarESDK-1.7.0/Modules/Drivers/Timers/HRTIM/src\hrtim.c ****                 hrtim_eecr3 &= ~(HRTIM_EECR3_EE8F);
 6449              		.loc 1 1112 29
 6450 184a 089B     		ldr	r3, [sp, #32]
 6451 184c 23F47043 		bic	r3, r3, #61440
 6452 1850 0893     		str	r3, [sp, #32]
1113:C:/StellarStudio-7.0/SDKS/StellarESDK-1.7.0/Modules/Drivers/Timers/HRTIM/src\hrtim.c ****                 hrtim_eecr3 |= (( hdp->eev[i - 1U].filter << 12U) & HRTIM_EECR3_EE8F );
 6453              		.loc 1 1113 46
 6454 1852 9DF83730 		ldrb	r3, [sp, #55]	@ zero_extendqisi2
 6455 1856 5A1E     		subs	r2, r3, #1
 6456              		.loc 1 1113 51
 6457 1858 0199     		ldr	r1, [sp, #4]
 6458 185a 1346     		mov	r3, r2
 6459 185c 9B00     		lsls	r3, r3, #2
 6460 185e 1344     		add	r3, r3, r2
 6461 1860 9B00     		lsls	r3, r3, #2
 6462 1862 0B44     		add	r3, r3, r1
 6463 1864 03F27443 		addw	r3, r3, #1140
 6464 1868 1B68     		ldr	r3, [r3]
 6465              		.loc 1 1113 59
 6466 186a 1B03     		lsls	r3, r3, #12
 6467              		.loc 1 1113 67
 6468 186c 9BB2     		uxth	r3, r3
 6469              		.loc 1 1113 29
 6470 186e 089A     		ldr	r2, [sp, #32]
 6471 1870 1343     		orrs	r3, r3, r2
 6472 1872 0893     		str	r3, [sp, #32]
1114:C:/StellarStudio-7.0/SDKS/StellarESDK-1.7.0/Modules/Drivers/Timers/HRTIM/src\hrtim.c ****                 /* Update the HRTIM registers */
1115:C:/StellarStudio-7.0/SDKS/StellarESDK-1.7.0/Modules/Drivers/Timers/HRTIM/src\hrtim.c ****                 hdp->hrtim->sCommonRegs.EECR2 |= hrtim_eecr2;
 6473              		.loc 1 1115 20
 6474 1874 019B     		ldr	r3, [sp, #4]
 6475 1876 1B68     		ldr	r3, [r3]
 6476              		.loc 1 1115 47
 6477 1878 D3F8B413 		ldr	r1, [r3, #948]
 6478              		.loc 1 1115 20
 6479 187c 019B     		ldr	r3, [sp, #4]
 6480 187e 1B68     		ldr	r3, [r3]
 6481              		.loc 1 1115 47
 6482 1880 099A     		ldr	r2, [sp, #36]
 6483 1882 0A43     		orrs	r2, r2, r1
 6484 1884 C3F8B423 		str	r2, [r3, #948]
1116:C:/StellarStudio-7.0/SDKS/StellarESDK-1.7.0/Modules/Drivers/Timers/HRTIM/src\hrtim.c ****                 hdp->hrtim->sCommonRegs.EECR3 |= hrtim_eecr3;
 6485              		.loc 1 1116 20
 6486 1888 019B     		ldr	r3, [sp, #4]
 6487 188a 1B68     		ldr	r3, [r3]
 6488              		.loc 1 1116 47
 6489 188c D3F8B813 		ldr	r1, [r3, #952]
 6490              		.loc 1 1116 20
 6491 1890 019B     		ldr	r3, [sp, #4]
 6492 1892 1B68     		ldr	r3, [r3]
 6493              		.loc 1 1116 47
 6494 1894 089A     		ldr	r2, [sp, #32]
 6495 1896 0A43     		orrs	r2, r2, r1
 6496 1898 C3F8B823 		str	r2, [r3, #952]
1117:C:/StellarStudio-7.0/SDKS/StellarESDK-1.7.0/Modules/Drivers/Timers/HRTIM/src\hrtim.c ****                 break;
 6497              		.loc 1 1117 17
 6498 189c CAE0     		b	.L216
 6499              	.L207:
1118:C:/StellarStudio-7.0/SDKS/StellarESDK-1.7.0/Modules/Drivers/Timers/HRTIM/src\hrtim.c ****             case HRTIM_EVENT_9:
1119:C:/StellarStudio-7.0/SDKS/StellarESDK-1.7.0/Modules/Drivers/Timers/HRTIM/src\hrtim.c ****                 hrtim_eecr2 &= ~(HRTIM_EECR2_EE9SRC | HRTIM_EECR2_EE9POL | HRTIM_EECR2_EE9SNS);
 6500              		.loc 1 1119 29
 6501 189e 099B     		ldr	r3, [sp, #36]
 6502 18a0 23F4F803 		bic	r3, r3, #8126464
 6503 18a4 0993     		str	r3, [sp, #36]
1120:C:/StellarStudio-7.0/SDKS/StellarESDK-1.7.0/Modules/Drivers/Timers/HRTIM/src\hrtim.c ****                 hrtim_eecr2 |= (( hdp->eev[i - 1U].source << 18U) & HRTIM_EECR2_EE9SRC);
 6504              		.loc 1 1120 46
 6505 18a6 9DF83730 		ldrb	r3, [sp, #55]	@ zero_extendqisi2
 6506 18aa 5A1E     		subs	r2, r3, #1
 6507              		.loc 1 1120 51
 6508 18ac 0199     		ldr	r1, [sp, #4]
 6509 18ae 1346     		mov	r3, r2
 6510 18b0 9B00     		lsls	r3, r3, #2
 6511 18b2 1344     		add	r3, r3, r2
 6512 18b4 9B00     		lsls	r3, r3, #2
 6513 18b6 0B44     		add	r3, r3, r1
 6514 18b8 03F58D63 		add	r3, r3, #1128
 6515 18bc 1B68     		ldr	r3, [r3]
 6516              		.loc 1 1120 59
 6517 18be 9B04     		lsls	r3, r3, #18
 6518              		.loc 1 1120 67
 6519 18c0 03F44023 		and	r3, r3, #786432
 6520              		.loc 1 1120 29
 6521 18c4 099A     		ldr	r2, [sp, #36]
 6522 18c6 1343     		orrs	r3, r3, r2
 6523 18c8 0993     		str	r3, [sp, #36]
1121:C:/StellarStudio-7.0/SDKS/StellarESDK-1.7.0/Modules/Drivers/Timers/HRTIM/src\hrtim.c ****                 hrtim_eecr2 |= (( hdp->eev[i - 1U].polarity << 18U) & HRTIM_EECR2_EE9POL);
 6524              		.loc 1 1121 46
 6525 18ca 9DF83730 		ldrb	r3, [sp, #55]	@ zero_extendqisi2
 6526 18ce 5A1E     		subs	r2, r3, #1
 6527              		.loc 1 1121 51
 6528 18d0 0199     		ldr	r1, [sp, #4]
 6529 18d2 1346     		mov	r3, r2
 6530 18d4 9B00     		lsls	r3, r3, #2
 6531 18d6 1344     		add	r3, r3, r2
 6532 18d8 9B00     		lsls	r3, r3, #2
 6533 18da 0B44     		add	r3, r3, r1
 6534 18dc 03F26C43 		addw	r3, r3, #1132
 6535 18e0 1B68     		ldr	r3, [r3]
 6536              		.loc 1 1121 61
 6537 18e2 9B04     		lsls	r3, r3, #18
 6538              		.loc 1 1121 69
 6539 18e4 03F48013 		and	r3, r3, #1048576
 6540              		.loc 1 1121 29
 6541 18e8 099A     		ldr	r2, [sp, #36]
 6542 18ea 1343     		orrs	r3, r3, r2
 6543 18ec 0993     		str	r3, [sp, #36]
1122:C:/StellarStudio-7.0/SDKS/StellarESDK-1.7.0/Modules/Drivers/Timers/HRTIM/src\hrtim.c ****                 hrtim_eecr2 |= (( hdp->eev[i - 1U].sensitivity << 18U) & HRTIM_EECR2_EE9SNS);
 6544              		.loc 1 1122 46
 6545 18ee 9DF83730 		ldrb	r3, [sp, #55]	@ zero_extendqisi2
 6546 18f2 5A1E     		subs	r2, r3, #1
 6547              		.loc 1 1122 51
 6548 18f4 0199     		ldr	r1, [sp, #4]
 6549 18f6 1346     		mov	r3, r2
 6550 18f8 9B00     		lsls	r3, r3, #2
 6551 18fa 1344     		add	r3, r3, r2
 6552 18fc 9B00     		lsls	r3, r3, #2
 6553 18fe 0B44     		add	r3, r3, r1
 6554 1900 03F58E63 		add	r3, r3, #1136
 6555 1904 1B68     		ldr	r3, [r3]
 6556              		.loc 1 1122 64
 6557 1906 9B04     		lsls	r3, r3, #18
 6558              		.loc 1 1122 72
 6559 1908 03F4C003 		and	r3, r3, #6291456
 6560              		.loc 1 1122 29
 6561 190c 099A     		ldr	r2, [sp, #36]
 6562 190e 1343     		orrs	r3, r3, r2
 6563 1910 0993     		str	r3, [sp, #36]
1123:C:/StellarStudio-7.0/SDKS/StellarESDK-1.7.0/Modules/Drivers/Timers/HRTIM/src\hrtim.c ****                 hrtim_eecr3 &= ~(HRTIM_EECR3_EE9F);
 6564              		.loc 1 1123 29
 6565 1912 089B     		ldr	r3, [sp, #32]
 6566 1914 23F47013 		bic	r3, r3, #3932160
 6567 1918 0893     		str	r3, [sp, #32]
1124:C:/StellarStudio-7.0/SDKS/StellarESDK-1.7.0/Modules/Drivers/Timers/HRTIM/src\hrtim.c ****                 hrtim_eecr3 |= (( hdp->eev[i - 1U].filter << 18U) & HRTIM_EECR3_EE9F);
 6568              		.loc 1 1124 46
 6569 191a 9DF83730 		ldrb	r3, [sp, #55]	@ zero_extendqisi2
 6570 191e 5A1E     		subs	r2, r3, #1
 6571              		.loc 1 1124 51
 6572 1920 0199     		ldr	r1, [sp, #4]
 6573 1922 1346     		mov	r3, r2
 6574 1924 9B00     		lsls	r3, r3, #2
 6575 1926 1344     		add	r3, r3, r2
 6576 1928 9B00     		lsls	r3, r3, #2
 6577 192a 0B44     		add	r3, r3, r1
 6578 192c 03F27443 		addw	r3, r3, #1140
 6579 1930 1B68     		ldr	r3, [r3]
 6580              		.loc 1 1124 59
 6581 1932 9B04     		lsls	r3, r3, #18
 6582              		.loc 1 1124 67
 6583 1934 03F47013 		and	r3, r3, #3932160
 6584              		.loc 1 1124 29
 6585 1938 089A     		ldr	r2, [sp, #32]
 6586 193a 1343     		orrs	r3, r3, r2
 6587 193c 0893     		str	r3, [sp, #32]
1125:C:/StellarStudio-7.0/SDKS/StellarESDK-1.7.0/Modules/Drivers/Timers/HRTIM/src\hrtim.c ****                 /* Update the HRTIM registers */
1126:C:/StellarStudio-7.0/SDKS/StellarESDK-1.7.0/Modules/Drivers/Timers/HRTIM/src\hrtim.c ****                 hdp->hrtim->sCommonRegs.EECR2 |= hrtim_eecr2;
 6588              		.loc 1 1126 20
 6589 193e 019B     		ldr	r3, [sp, #4]
 6590 1940 1B68     		ldr	r3, [r3]
 6591              		.loc 1 1126 47
 6592 1942 D3F8B413 		ldr	r1, [r3, #948]
 6593              		.loc 1 1126 20
 6594 1946 019B     		ldr	r3, [sp, #4]
 6595 1948 1B68     		ldr	r3, [r3]
 6596              		.loc 1 1126 47
 6597 194a 099A     		ldr	r2, [sp, #36]
 6598 194c 0A43     		orrs	r2, r2, r1
 6599 194e C3F8B423 		str	r2, [r3, #948]
1127:C:/StellarStudio-7.0/SDKS/StellarESDK-1.7.0/Modules/Drivers/Timers/HRTIM/src\hrtim.c ****                 hdp->hrtim->sCommonRegs.EECR3 |= hrtim_eecr3;
 6600              		.loc 1 1127 20
 6601 1952 019B     		ldr	r3, [sp, #4]
 6602 1954 1B68     		ldr	r3, [r3]
 6603              		.loc 1 1127 47
 6604 1956 D3F8B813 		ldr	r1, [r3, #952]
 6605              		.loc 1 1127 20
 6606 195a 019B     		ldr	r3, [sp, #4]
 6607 195c 1B68     		ldr	r3, [r3]
 6608              		.loc 1 1127 47
 6609 195e 089A     		ldr	r2, [sp, #32]
 6610 1960 0A43     		orrs	r2, r2, r1
 6611 1962 C3F8B823 		str	r2, [r3, #952]
1128:C:/StellarStudio-7.0/SDKS/StellarESDK-1.7.0/Modules/Drivers/Timers/HRTIM/src\hrtim.c ****                 break;
 6612              		.loc 1 1128 17
 6613 1966 65E0     		b	.L216
 6614              	.L205:
1129:C:/StellarStudio-7.0/SDKS/StellarESDK-1.7.0/Modules/Drivers/Timers/HRTIM/src\hrtim.c ****             case HRTIM_EVENT_10:
1130:C:/StellarStudio-7.0/SDKS/StellarESDK-1.7.0/Modules/Drivers/Timers/HRTIM/src\hrtim.c ****                 hrtim_eecr2 &= ~(HRTIM_EECR2_EE10SRC | HRTIM_EECR2_EE10POL | HRTIM_EECR2_EE10SNS);
 6615              		.loc 1 1130 29
 6616 1968 099B     		ldr	r3, [sp, #36]
 6617 196a 23F0F853 		bic	r3, r3, #520093696
 6618 196e 0993     		str	r3, [sp, #36]
1131:C:/StellarStudio-7.0/SDKS/StellarESDK-1.7.0/Modules/Drivers/Timers/HRTIM/src\hrtim.c ****                 hrtim_eecr2 |= (( hdp->eev[i - 1U].source << 24U) & HRTIM_EECR2_EE10SRC);
 6619              		.loc 1 1131 46
 6620 1970 9DF83730 		ldrb	r3, [sp, #55]	@ zero_extendqisi2
 6621 1974 5A1E     		subs	r2, r3, #1
 6622              		.loc 1 1131 51
 6623 1976 0199     		ldr	r1, [sp, #4]
 6624 1978 1346     		mov	r3, r2
 6625 197a 9B00     		lsls	r3, r3, #2
 6626 197c 1344     		add	r3, r3, r2
 6627 197e 9B00     		lsls	r3, r3, #2
 6628 1980 0B44     		add	r3, r3, r1
 6629 1982 03F58D63 		add	r3, r3, #1128
 6630 1986 1B68     		ldr	r3, [r3]
 6631              		.loc 1 1131 59
 6632 1988 1B06     		lsls	r3, r3, #24
 6633              		.loc 1 1131 67
 6634 198a 03F04073 		and	r3, r3, #50331648
 6635              		.loc 1 1131 29
 6636 198e 099A     		ldr	r2, [sp, #36]
 6637 1990 1343     		orrs	r3, r3, r2
 6638 1992 0993     		str	r3, [sp, #36]
1132:C:/StellarStudio-7.0/SDKS/StellarESDK-1.7.0/Modules/Drivers/Timers/HRTIM/src\hrtim.c ****                 hrtim_eecr2 |= (( hdp->eev[i - 1U].polarity << 24U) & HRTIM_EECR2_EE10POL);
 6639              		.loc 1 1132 46
 6640 1994 9DF83730 		ldrb	r3, [sp, #55]	@ zero_extendqisi2
 6641 1998 5A1E     		subs	r2, r3, #1
 6642              		.loc 1 1132 51
 6643 199a 0199     		ldr	r1, [sp, #4]
 6644 199c 1346     		mov	r3, r2
 6645 199e 9B00     		lsls	r3, r3, #2
 6646 19a0 1344     		add	r3, r3, r2
 6647 19a2 9B00     		lsls	r3, r3, #2
 6648 19a4 0B44     		add	r3, r3, r1
 6649 19a6 03F26C43 		addw	r3, r3, #1132
 6650 19aa 1B68     		ldr	r3, [r3]
 6651              		.loc 1 1132 61
 6652 19ac 1B06     		lsls	r3, r3, #24
 6653              		.loc 1 1132 69
 6654 19ae 03F08063 		and	r3, r3, #67108864
 6655              		.loc 1 1132 29
 6656 19b2 099A     		ldr	r2, [sp, #36]
 6657 19b4 1343     		orrs	r3, r3, r2
 6658 19b6 0993     		str	r3, [sp, #36]
1133:C:/StellarStudio-7.0/SDKS/StellarESDK-1.7.0/Modules/Drivers/Timers/HRTIM/src\hrtim.c ****                 hrtim_eecr2 |= (( hdp->eev[i - 1U].sensitivity << 24U) & HRTIM_EECR2_EE10SNS);
 6659              		.loc 1 1133 46
 6660 19b8 9DF83730 		ldrb	r3, [sp, #55]	@ zero_extendqisi2
 6661 19bc 5A1E     		subs	r2, r3, #1
 6662              		.loc 1 1133 51
 6663 19be 0199     		ldr	r1, [sp, #4]
 6664 19c0 1346     		mov	r3, r2
 6665 19c2 9B00     		lsls	r3, r3, #2
 6666 19c4 1344     		add	r3, r3, r2
 6667 19c6 9B00     		lsls	r3, r3, #2
 6668 19c8 0B44     		add	r3, r3, r1
 6669 19ca 03F58E63 		add	r3, r3, #1136
 6670 19ce 1B68     		ldr	r3, [r3]
 6671              		.loc 1 1133 64
 6672 19d0 1B06     		lsls	r3, r3, #24
 6673              		.loc 1 1133 72
 6674 19d2 03F0C053 		and	r3, r3, #402653184
 6675              		.loc 1 1133 29
 6676 19d6 099A     		ldr	r2, [sp, #36]
 6677 19d8 1343     		orrs	r3, r3, r2
 6678 19da 0993     		str	r3, [sp, #36]
1134:C:/StellarStudio-7.0/SDKS/StellarESDK-1.7.0/Modules/Drivers/Timers/HRTIM/src\hrtim.c ****                 hrtim_eecr3 &= ~(HRTIM_EECR3_EE10F);
 6679              		.loc 1 1134 29
 6680 19dc 089B     		ldr	r3, [sp, #32]
 6681 19de 23F07063 		bic	r3, r3, #251658240
 6682 19e2 0893     		str	r3, [sp, #32]
1135:C:/StellarStudio-7.0/SDKS/StellarESDK-1.7.0/Modules/Drivers/Timers/HRTIM/src\hrtim.c ****                 hrtim_eecr3 |= (( hdp->eev[i - 1U].filter << 24U) & HRTIM_EECR3_EE10F);
 6683              		.loc 1 1135 46
 6684 19e4 9DF83730 		ldrb	r3, [sp, #55]	@ zero_extendqisi2
 6685 19e8 5A1E     		subs	r2, r3, #1
 6686              		.loc 1 1135 51
 6687 19ea 0199     		ldr	r1, [sp, #4]
 6688 19ec 1346     		mov	r3, r2
 6689 19ee 9B00     		lsls	r3, r3, #2
 6690 19f0 1344     		add	r3, r3, r2
 6691 19f2 9B00     		lsls	r3, r3, #2
 6692 19f4 0B44     		add	r3, r3, r1
 6693 19f6 03F27443 		addw	r3, r3, #1140
 6694 19fa 1B68     		ldr	r3, [r3]
 6695              		.loc 1 1135 59
 6696 19fc 1B06     		lsls	r3, r3, #24
 6697              		.loc 1 1135 67
 6698 19fe 03F07063 		and	r3, r3, #251658240
 6699              		.loc 1 1135 29
 6700 1a02 089A     		ldr	r2, [sp, #32]
 6701 1a04 1343     		orrs	r3, r3, r2
 6702 1a06 0893     		str	r3, [sp, #32]
1136:C:/StellarStudio-7.0/SDKS/StellarESDK-1.7.0/Modules/Drivers/Timers/HRTIM/src\hrtim.c ****                 /* Update the HRTIM registers */
1137:C:/StellarStudio-7.0/SDKS/StellarESDK-1.7.0/Modules/Drivers/Timers/HRTIM/src\hrtim.c ****                 hdp->hrtim->sCommonRegs.EECR2 |= hrtim_eecr2;
 6703              		.loc 1 1137 20
 6704 1a08 019B     		ldr	r3, [sp, #4]
 6705 1a0a 1B68     		ldr	r3, [r3]
 6706              		.loc 1 1137 47
 6707 1a0c D3F8B413 		ldr	r1, [r3, #948]
 6708              		.loc 1 1137 20
 6709 1a10 019B     		ldr	r3, [sp, #4]
 6710 1a12 1B68     		ldr	r3, [r3]
 6711              		.loc 1 1137 47
 6712 1a14 099A     		ldr	r2, [sp, #36]
 6713 1a16 0A43     		orrs	r2, r2, r1
 6714 1a18 C3F8B423 		str	r2, [r3, #948]
1138:C:/StellarStudio-7.0/SDKS/StellarESDK-1.7.0/Modules/Drivers/Timers/HRTIM/src\hrtim.c ****                 hdp->hrtim->sCommonRegs.EECR3 |= hrtim_eecr3;
 6715              		.loc 1 1138 20
 6716 1a1c 019B     		ldr	r3, [sp, #4]
 6717 1a1e 1B68     		ldr	r3, [r3]
 6718              		.loc 1 1138 47
 6719 1a20 D3F8B813 		ldr	r1, [r3, #952]
 6720              		.loc 1 1138 20
 6721 1a24 019B     		ldr	r3, [sp, #4]
 6722 1a26 1B68     		ldr	r3, [r3]
 6723              		.loc 1 1138 47
 6724 1a28 089A     		ldr	r2, [sp, #32]
 6725 1a2a 0A43     		orrs	r2, r2, r1
 6726 1a2c C3F8B823 		str	r2, [r3, #952]
1139:C:/StellarStudio-7.0/SDKS/StellarESDK-1.7.0/Modules/Drivers/Timers/HRTIM/src\hrtim.c ****                 break;
 6727              		.loc 1 1139 17
 6728 1a30 00E0     		b	.L216
 6729              	.L266:
1140:C:/StellarStudio-7.0/SDKS/StellarESDK-1.7.0/Modules/Drivers/Timers/HRTIM/src\hrtim.c ****             default:
1141:C:/StellarStudio-7.0/SDKS/StellarESDK-1.7.0/Modules/Drivers/Timers/HRTIM/src\hrtim.c ****                 /* for MISRA compliance */
1142:C:/StellarStudio-7.0/SDKS/StellarESDK-1.7.0/Modules/Drivers/Timers/HRTIM/src\hrtim.c ****                 break;
 6730              		.loc 1 1142 17
 6731 1a32 00BF     		nop
 6732              	.L216:
1028:C:/StellarStudio-7.0/SDKS/StellarESDK-1.7.0/Modules/Drivers/Timers/HRTIM/src\hrtim.c ****         switch (i) {
 6733              		.loc 1 1028 43 discriminator 2
 6734 1a34 9DF83730 		ldrb	r3, [sp, #55]	@ zero_extendqisi2
 6735 1a38 0133     		adds	r3, r3, #1
 6736 1a3a 8DF83730 		strb	r3, [sp, #55]
 6737              	.L203:
1028:C:/StellarStudio-7.0/SDKS/StellarESDK-1.7.0/Modules/Drivers/Timers/HRTIM/src\hrtim.c ****         switch (i) {
 6738              		.loc 1 1028 5 discriminator 1
 6739 1a3e 9DF83730 		ldrb	r3, [sp, #55]	@ zero_extendqisi2
 6740 1a42 0A2B     		cmp	r3, #10
 6741 1a44 7FF604AC 		bls	.L217
1143:C:/StellarStudio-7.0/SDKS/StellarESDK-1.7.0/Modules/Drivers/Timers/HRTIM/src\hrtim.c ****         }
1144:C:/StellarStudio-7.0/SDKS/StellarESDK-1.7.0/Modules/Drivers/Timers/HRTIM/src\hrtim.c ****     }
1145:C:/StellarStudio-7.0/SDKS/StellarESDK-1.7.0/Modules/Drivers/Timers/HRTIM/src\hrtim.c **** 
1146:C:/StellarStudio-7.0/SDKS/StellarESDK-1.7.0/Modules/Drivers/Timers/HRTIM/src\hrtim.c ****     /* Configure the external event conditioning block prescaler.*/
1147:C:/StellarStudio-7.0/SDKS/StellarESDK-1.7.0/Modules/Drivers/Timers/HRTIM/src\hrtim.c ****     hdp->hrtim->sCommonRegs.EECR3 |= ((uint32_t)hdp->eev_prescaler) << 30;
 6742              		.loc 1 1147 8
 6743 1a48 019B     		ldr	r3, [sp, #4]
 6744 1a4a 1B68     		ldr	r3, [r3]
 6745              		.loc 1 1147 35
 6746 1a4c D3F8B813 		ldr	r1, [r3, #952]
 6747              		.loc 1 1147 52
 6748 1a50 019B     		ldr	r3, [sp, #4]
 6749 1a52 93F8E039 		ldrb	r3, [r3, #2528]	@ zero_extendqisi2
 6750              		.loc 1 1147 69
 6751 1a56 9A07     		lsls	r2, r3, #30
 6752              		.loc 1 1147 8
 6753 1a58 019B     		ldr	r3, [sp, #4]
 6754 1a5a 1B68     		ldr	r3, [r3]
 6755              		.loc 1 1147 35
 6756 1a5c 0A43     		orrs	r2, r2, r1
 6757 1a5e C3F8B823 		str	r2, [r3, #952]
1148:C:/StellarStudio-7.0/SDKS/StellarESDK-1.7.0/Modules/Drivers/Timers/HRTIM/src\hrtim.c **** 
1149:C:/StellarStudio-7.0/SDKS/StellarESDK-1.7.0/Modules/Drivers/Timers/HRTIM/src\hrtim.c ****     /* Set the external event prescaler.*/
1150:C:/StellarStudio-7.0/SDKS/StellarESDK-1.7.0/Modules/Drivers/Timers/HRTIM/src\hrtim.c ****     hdp->hrtim->sCommonRegs.FLTINR2 &= (~(HRTIM_FLTINR2_FLTSD));
 6758              		.loc 1 1150 8
 6759 1a62 019B     		ldr	r3, [sp, #4]
 6760 1a64 1B68     		ldr	r3, [r3]
 6761              		.loc 1 1150 37
 6762 1a66 D3F8D423 		ldr	r2, [r3, #980]
 6763              		.loc 1 1150 8
 6764 1a6a 019B     		ldr	r3, [sp, #4]
 6765 1a6c 1B68     		ldr	r3, [r3]
 6766              		.loc 1 1150 37
 6767 1a6e 22F04072 		bic	r2, r2, #50331648
 6768 1a72 C3F8D423 		str	r2, [r3, #980]
1151:C:/StellarStudio-7.0/SDKS/StellarESDK-1.7.0/Modules/Drivers/Timers/HRTIM/src\hrtim.c ****     hdp->hrtim->sCommonRegs.FLTINR2 = ((((uint32_t)hdp->fault_prescaler) << HRTIM_FLTINR2_FLTSD_Pos
 6769              		.loc 1 1151 55
 6770 1a76 019B     		ldr	r3, [sp, #4]
 6771 1a78 93F8603A 		ldrb	r3, [r3, #2656]	@ zero_extendqisi2
 6772              		.loc 1 1151 74
 6773 1a7c 1A06     		lsls	r2, r3, #24
 6774              		.loc 1 1151 8
 6775 1a7e 019B     		ldr	r3, [sp, #4]
 6776 1a80 1B68     		ldr	r3, [r3]
 6777              		.loc 1 1151 102
 6778 1a82 02F04072 		and	r2, r2, #50331648
 6779              		.loc 1 1151 37
 6780 1a86 C3F8D423 		str	r2, [r3, #980]
1152:C:/StellarStudio-7.0/SDKS/StellarESDK-1.7.0/Modules/Drivers/Timers/HRTIM/src\hrtim.c **** 
1153:C:/StellarStudio-7.0/SDKS/StellarESDK-1.7.0/Modules/Drivers/Timers/HRTIM/src\hrtim.c ****     /* Configure fault channel.*/
1154:C:/StellarStudio-7.0/SDKS/StellarESDK-1.7.0/Modules/Drivers/Timers/HRTIM/src\hrtim.c ****     hrtim_fltinr1 = hdp->hrtim->sCommonRegs.FLTINR1;
 6781              		.loc 1 1154 24
 6782 1a8a 019B     		ldr	r3, [sp, #4]
 6783 1a8c 1B68     		ldr	r3, [r3]
 6784              		.loc 1 1154 19
 6785 1a8e D3F8D033 		ldr	r3, [r3, #976]
 6786 1a92 0793     		str	r3, [sp, #28]
1155:C:/StellarStudio-7.0/SDKS/StellarESDK-1.7.0/Modules/Drivers/Timers/HRTIM/src\hrtim.c ****     hrtim_fltinr2 = hdp->hrtim->sCommonRegs.FLTINR2;
 6787              		.loc 1 1155 24
 6788 1a94 019B     		ldr	r3, [sp, #4]
 6789 1a96 1B68     		ldr	r3, [r3]
 6790              		.loc 1 1155 19
 6791 1a98 D3F8D433 		ldr	r3, [r3, #980]
 6792 1a9c 0693     		str	r3, [sp, #24]
1156:C:/StellarStudio-7.0/SDKS/StellarESDK-1.7.0/Modules/Drivers/Timers/HRTIM/src\hrtim.c **** 
1157:C:/StellarStudio-7.0/SDKS/StellarESDK-1.7.0/Modules/Drivers/Timers/HRTIM/src\hrtim.c ****     for (idx = 0U; idx < HRTIM_FAULT_NUM; idx++) {
 6793              		.loc 1 1157 14
 6794 1a9e 0023     		movs	r3, #0
 6795 1aa0 0593     		str	r3, [sp, #20]
 6796              		.loc 1 1157 5
 6797 1aa2 00F001BC 		b	.L218
 6798              	.L246:
1158:C:/StellarStudio-7.0/SDKS/StellarESDK-1.7.0/Modules/Drivers/Timers/HRTIM/src\hrtim.c ****         source0 =  (hdp->fault[idx].source & 1U);
 6799              		.loc 1 1158 36
 6800 1aa6 0199     		ldr	r1, [sp, #4]
 6801 1aa8 059A     		ldr	r2, [sp, #20]
 6802 1aaa 1346     		mov	r3, r2
 6803 1aac 9B00     		lsls	r3, r3, #2
 6804 1aae 1344     		add	r3, r3, r2
 6805 1ab0 9B00     		lsls	r3, r3, #2
 6806 1ab2 0B44     		add	r3, r3, r1
 6807 1ab4 03F6EC13 		addw	r3, r3, #2540
 6808 1ab8 1B68     		ldr	r3, [r3]
 6809              		.loc 1 1158 17
 6810 1aba 03F00103 		and	r3, r3, #1
 6811 1abe 0493     		str	r3, [sp, #16]
1159:C:/StellarStudio-7.0/SDKS/StellarESDK-1.7.0/Modules/Drivers/Timers/HRTIM/src\hrtim.c ****         source1 =  ((hdp->fault[idx].source & 2U) >> 1);
 6812              		.loc 1 1159 37
 6813 1ac0 0199     		ldr	r1, [sp, #4]
 6814 1ac2 059A     		ldr	r2, [sp, #20]
 6815 1ac4 1346     		mov	r3, r2
 6816 1ac6 9B00     		lsls	r3, r3, #2
 6817 1ac8 1344     		add	r3, r3, r2
 6818 1aca 9B00     		lsls	r3, r3, #2
 6819 1acc 0B44     		add	r3, r3, r1
 6820 1ace 03F6EC13 		addw	r3, r3, #2540
 6821 1ad2 1B68     		ldr	r3, [r3]
 6822              		.loc 1 1159 51
 6823 1ad4 5B08     		lsrs	r3, r3, #1
 6824              		.loc 1 1159 17
 6825 1ad6 03F00103 		and	r3, r3, #1
 6826 1ada 0393     		str	r3, [sp, #12]
1160:C:/StellarStudio-7.0/SDKS/StellarESDK-1.7.0/Modules/Drivers/Timers/HRTIM/src\hrtim.c **** 
1161:C:/StellarStudio-7.0/SDKS/StellarESDK-1.7.0/Modules/Drivers/Timers/HRTIM/src\hrtim.c ****         switch (hdp->fault[idx].fault_idx) {
 6827              		.loc 1 1161 32
 6828 1adc 0199     		ldr	r1, [sp, #4]
 6829 1ade 059A     		ldr	r2, [sp, #20]
 6830 1ae0 1346     		mov	r3, r2
 6831 1ae2 9B00     		lsls	r3, r3, #2
 6832 1ae4 1344     		add	r3, r3, r2
 6833 1ae6 9B00     		lsls	r3, r3, #2
 6834 1ae8 0B44     		add	r3, r3, r1
 6835 1aea 03F6E813 		addw	r3, r3, #2536
 6836 1aee 1B78     		ldrb	r3, [r3]	@ zero_extendqisi2
 6837              		.loc 1 1161 9
 6838 1af0 052B     		cmp	r3, #5
 6839 1af2 00F2D583 		bhi	.L267
 6840 1af6 01A2     		adr	r2, .L221
 6841 1af8 52F823F0 		ldr	pc, [r2, r3, lsl #2]
 6842              		.p2align 2
 6843              	.L221:
 6844 1afc 151B0000 		.word	.L226+1
 6845 1b00 531C0000 		.word	.L225+1
 6846 1b04 971D0000 		.word	.L224+1
 6847 1b08 DB1E0000 		.word	.L223+1
 6848 1b0c 1F200000 		.word	.L222+1
 6849 1b10 5D210000 		.word	.L220+1
 6850              		.p2align 1
 6851              	.L226:
1162:C:/StellarStudio-7.0/SDKS/StellarESDK-1.7.0/Modules/Drivers/Timers/HRTIM/src\hrtim.c ****             case HRTIM_FAULT_1:
1163:C:/StellarStudio-7.0/SDKS/StellarESDK-1.7.0/Modules/Drivers/Timers/HRTIM/src\hrtim.c ****                 hrtim_fltinr1 &= ~(HRTIM_FLTINR1_FLT1P | HRTIM_FLTINR1_FLT1SRC_0 | HRTIM_FLTINR1_FL
 6852              		.loc 1 1163 31
 6853 1b14 079B     		ldr	r3, [sp, #28]
 6854 1b16 23F0FE03 		bic	r3, r3, #254
 6855 1b1a 0793     		str	r3, [sp, #28]
1164:C:/StellarStudio-7.0/SDKS/StellarESDK-1.7.0/Modules/Drivers/Timers/HRTIM/src\hrtim.c ****                 hrtim_fltinr1 |= (hdp->fault[idx].polarity & HRTIM_FLTINR1_FLT1P);
 6856              		.loc 1 1164 50
 6857 1b1c 0199     		ldr	r1, [sp, #4]
 6858 1b1e 059A     		ldr	r2, [sp, #20]
 6859 1b20 1346     		mov	r3, r2
 6860 1b22 9B00     		lsls	r3, r3, #2
 6861 1b24 1344     		add	r3, r3, r2
 6862 1b26 9B00     		lsls	r3, r3, #2
 6863 1b28 0B44     		add	r3, r3, r1
 6864 1b2a 03F51F63 		add	r3, r3, #2544
 6865 1b2e 1B68     		ldr	r3, [r3]
 6866              		.loc 1 1164 60
 6867 1b30 03F00203 		and	r3, r3, #2
 6868              		.loc 1 1164 31
 6869 1b34 079A     		ldr	r2, [sp, #28]
 6870 1b36 1343     		orrs	r3, r3, r2
 6871 1b38 0793     		str	r3, [sp, #28]
1165:C:/StellarStudio-7.0/SDKS/StellarESDK-1.7.0/Modules/Drivers/Timers/HRTIM/src\hrtim.c ****                 hrtim_fltinr1 |= (source0 << HRTIM_FLTINR1_FLT1SRC_0_Pos);
 6872              		.loc 1 1165 43
 6873 1b3a 049B     		ldr	r3, [sp, #16]
 6874 1b3c 9B00     		lsls	r3, r3, #2
 6875              		.loc 1 1165 31
 6876 1b3e 079A     		ldr	r2, [sp, #28]
 6877 1b40 1343     		orrs	r3, r3, r2
 6878 1b42 0793     		str	r3, [sp, #28]
1166:C:/StellarStudio-7.0/SDKS/StellarESDK-1.7.0/Modules/Drivers/Timers/HRTIM/src\hrtim.c ****                 hrtim_fltinr2 &= ~(HRTIM_FLTINR2_FLT1SRC_1);
 6879              		.loc 1 1166 31
 6880 1b44 069B     		ldr	r3, [sp, #24]
 6881 1b46 23F48033 		bic	r3, r3, #65536
 6882 1b4a 0693     		str	r3, [sp, #24]
1167:C:/StellarStudio-7.0/SDKS/StellarESDK-1.7.0/Modules/Drivers/Timers/HRTIM/src\hrtim.c ****                 hrtim_fltinr2 |= (source1 << HRTIM_FLTINR2_FLT1SRC_1_Pos);
 6883              		.loc 1 1167 43
 6884 1b4c 039B     		ldr	r3, [sp, #12]
 6885 1b4e 1B04     		lsls	r3, r3, #16
 6886              		.loc 1 1167 31
 6887 1b50 069A     		ldr	r2, [sp, #24]
 6888 1b52 1343     		orrs	r3, r3, r2
 6889 1b54 0693     		str	r3, [sp, #24]
1168:C:/StellarStudio-7.0/SDKS/StellarESDK-1.7.0/Modules/Drivers/Timers/HRTIM/src\hrtim.c ****                 hrtim_fltinr1 |= (hdp->fault[idx].filter & HRTIM_FLTINR1_FLT1F);
 6890              		.loc 1 1168 50
 6891 1b56 0199     		ldr	r1, [sp, #4]
 6892 1b58 059A     		ldr	r2, [sp, #20]
 6893 1b5a 1346     		mov	r3, r2
 6894 1b5c 9B00     		lsls	r3, r3, #2
 6895 1b5e 1344     		add	r3, r3, r2
 6896 1b60 9B00     		lsls	r3, r3, #2
 6897 1b62 0B44     		add	r3, r3, r1
 6898 1b64 03F6F413 		addw	r3, r3, #2548
 6899 1b68 1B68     		ldr	r3, [r3]
 6900              		.loc 1 1168 58
 6901 1b6a 03F07803 		and	r3, r3, #120
 6902              		.loc 1 1168 31
 6903 1b6e 079A     		ldr	r2, [sp, #28]
 6904 1b70 1343     		orrs	r3, r3, r2
 6905 1b72 0793     		str	r3, [sp, #28]
1169:C:/StellarStudio-7.0/SDKS/StellarESDK-1.7.0/Modules/Drivers/Timers/HRTIM/src\hrtim.c ****                 hrtim_fltinr1 |= (hdp->fault[idx].lock & HRTIM_FLTINR1_FLT1LCK);
 6906              		.loc 1 1169 50
 6907 1b74 0199     		ldr	r1, [sp, #4]
 6908 1b76 059A     		ldr	r2, [sp, #20]
 6909 1b78 1346     		mov	r3, r2
 6910 1b7a 9B00     		lsls	r3, r3, #2
 6911 1b7c 1344     		add	r3, r3, r2
 6912 1b7e 9B00     		lsls	r3, r3, #2
 6913 1b80 0B44     		add	r3, r3, r1
 6914 1b82 03F6F813 		addw	r3, r3, #2552
 6915 1b86 1B68     		ldr	r3, [r3]
 6916              		.loc 1 1169 56
 6917 1b88 03F08003 		and	r3, r3, #128
 6918              		.loc 1 1169 31
 6919 1b8c 079A     		ldr	r2, [sp, #28]
 6920 1b8e 1343     		orrs	r3, r3, r2
 6921 1b90 0793     		str	r3, [sp, #28]
1170:C:/StellarStudio-7.0/SDKS/StellarESDK-1.7.0/Modules/Drivers/Timers/HRTIM/src\hrtim.c ****                 hdp->hrtim->sCommonRegs.FLTINR3 &=~ (HRTIM_FLTINR3_FLT1RSTM | HRTIM_FLTINR3_FLT1CNT
 6922              		.loc 1 1170 20
 6923 1b92 019B     		ldr	r3, [sp, #4]
 6924 1b94 1B68     		ldr	r3, [r3]
 6925              		.loc 1 1170 49
 6926 1b96 D3F80824 		ldr	r2, [r3, #1032]
 6927              		.loc 1 1170 20
 6928 1b9a 019B     		ldr	r3, [sp, #4]
 6929 1b9c 1B68     		ldr	r3, [r3]
 6930              		.loc 1 1170 49
 6931 1b9e 22F0BC02 		bic	r2, r2, #188
 6932 1ba2 C3F80824 		str	r2, [r3, #1032]
1171:C:/StellarStudio-7.0/SDKS/StellarESDK-1.7.0/Modules/Drivers/Timers/HRTIM/src\hrtim.c ****                 hdp->hrtim->sCommonRegs.FLTINR3 |= (((uint32_t)hdp->fault_blnk[idx].threshold << HR
 6933              		.loc 1 1171 20
 6934 1ba6 019B     		ldr	r3, [sp, #4]
 6935 1ba8 1B68     		ldr	r3, [r3]
 6936              		.loc 1 1171 49
 6937 1baa D3F80814 		ldr	r1, [r3, #1032]
 6938              		.loc 1 1171 84
 6939 1bae 019A     		ldr	r2, [sp, #4]
 6940 1bb0 059B     		ldr	r3, [sp, #20]
 6941 1bb2 A633     		adds	r3, r3, #166
 6942 1bb4 1B01     		lsls	r3, r3, #4
 6943 1bb6 1344     		add	r3, r3, r2
 6944 1bb8 0433     		adds	r3, r3, #4
 6945 1bba 1B68     		ldr	r3, [r3]
 6946              		.loc 1 1171 95
 6947 1bbc 9A00     		lsls	r2, r3, #2
1172:C:/StellarStudio-7.0/SDKS/StellarESDK-1.7.0/Modules/Drivers/Timers/HRTIM/src\hrtim.c ****                                                     ((uint32_t)hdp->fault_blnk[idx].reset_mode << H
 6948              		.loc 1 1172 84
 6949 1bbe 0198     		ldr	r0, [sp, #4]
 6950 1bc0 059B     		ldr	r3, [sp, #20]
 6951 1bc2 A633     		adds	r3, r3, #166
 6952 1bc4 1B01     		lsls	r3, r3, #4
 6953 1bc6 0344     		add	r3, r3, r0
 6954 1bc8 0833     		adds	r3, r3, #8
 6955 1bca 1B68     		ldr	r3, [r3]
 6956              		.loc 1 1172 96
 6957 1bcc DB01     		lsls	r3, r3, #7
1171:C:/StellarStudio-7.0/SDKS/StellarESDK-1.7.0/Modules/Drivers/Timers/HRTIM/src\hrtim.c ****                 hdp->hrtim->sCommonRegs.FLTINR3 |= (((uint32_t)hdp->fault_blnk[idx].threshold << HR
 6958              		.loc 1 1171 125
 6959 1bce 1A43     		orrs	r2, r2, r3
1171:C:/StellarStudio-7.0/SDKS/StellarESDK-1.7.0/Modules/Drivers/Timers/HRTIM/src\hrtim.c ****                 hdp->hrtim->sCommonRegs.FLTINR3 |= (((uint32_t)hdp->fault_blnk[idx].threshold << HR
 6960              		.loc 1 1171 20
 6961 1bd0 019B     		ldr	r3, [sp, #4]
 6962 1bd2 1B68     		ldr	r3, [r3]
1171:C:/StellarStudio-7.0/SDKS/StellarESDK-1.7.0/Modules/Drivers/Timers/HRTIM/src\hrtim.c ****                 hdp->hrtim->sCommonRegs.FLTINR3 |= (((uint32_t)hdp->fault_blnk[idx].threshold << HR
 6963              		.loc 1 1171 49
 6964 1bd4 0A43     		orrs	r2, r2, r1
 6965 1bd6 C3F80824 		str	r2, [r3, #1032]
1173:C:/StellarStudio-7.0/SDKS/StellarESDK-1.7.0/Modules/Drivers/Timers/HRTIM/src\hrtim.c ****                 hdp->hrtim->sCommonRegs.FLTINR3 &= ~(HRTIM_FLTINR3_FLT1BLKS | HRTIM_FLTINR3_FLT1BLK
 6966              		.loc 1 1173 20
 6967 1bda 019B     		ldr	r3, [sp, #4]
 6968 1bdc 1B68     		ldr	r3, [r3]
 6969              		.loc 1 1173 49
 6970 1bde D3F80824 		ldr	r2, [r3, #1032]
 6971              		.loc 1 1173 20
 6972 1be2 019B     		ldr	r3, [sp, #4]
 6973 1be4 1B68     		ldr	r3, [r3]
 6974              		.loc 1 1173 49
 6975 1be6 22F00302 		bic	r2, r2, #3
 6976 1bea C3F80824 		str	r2, [r3, #1032]
1174:C:/StellarStudio-7.0/SDKS/StellarESDK-1.7.0/Modules/Drivers/Timers/HRTIM/src\hrtim.c ****                 if (hdp->fault_blnk[idx].blanking_enable == true) {
 6977              		.loc 1 1174 41
 6978 1bee 019A     		ldr	r2, [sp, #4]
 6979 1bf0 059B     		ldr	r3, [sp, #20]
 6980 1bf2 1B01     		lsls	r3, r3, #4
 6981 1bf4 1344     		add	r3, r3, r2
 6982 1bf6 03F66C23 		addw	r3, r3, #2668
 6983 1bfa 1B78     		ldrb	r3, [r3]	@ zero_extendqisi2
 6984              		.loc 1 1174 20
 6985 1bfc 002B     		cmp	r3, #0
 6986 1bfe 12D0     		beq	.L227
1175:C:/StellarStudio-7.0/SDKS/StellarESDK-1.7.0/Modules/Drivers/Timers/HRTIM/src\hrtim.c ****                     hdp->hrtim->sCommonRegs.FLTINR3 |= (((uint32_t)hdp->fault_blnk[idx].blanking_so
 6987              		.loc 1 1175 24
 6988 1c00 019B     		ldr	r3, [sp, #4]
 6989 1c02 1B68     		ldr	r3, [r3]
 6990              		.loc 1 1175 53
 6991 1c04 D3F80824 		ldr	r2, [r3, #1032]
 6992              		.loc 1 1175 88
 6993 1c08 0199     		ldr	r1, [sp, #4]
 6994 1c0a 059B     		ldr	r3, [sp, #20]
 6995 1c0c 1B01     		lsls	r3, r3, #4
 6996 1c0e 0B44     		add	r3, r3, r1
 6997 1c10 03F52763 		add	r3, r3, #2672
 6998 1c14 1B68     		ldr	r3, [r3]
 6999              		.loc 1 1175 105
 7000 1c16 5B00     		lsls	r3, r3, #1
 7001              		.loc 1 1175 53
 7002 1c18 1A43     		orrs	r2, r2, r3
 7003              		.loc 1 1175 24
 7004 1c1a 019B     		ldr	r3, [sp, #4]
 7005 1c1c 1B68     		ldr	r3, [r3]
 7006              		.loc 1 1175 53
 7007 1c1e 42F00102 		orr	r2, r2, #1
 7008 1c22 C3F80824 		str	r2, [r3, #1032]
 7009              	.L227:
1176:C:/StellarStudio-7.0/SDKS/StellarESDK-1.7.0/Modules/Drivers/Timers/HRTIM/src\hrtim.c ****                 }
1177:C:/StellarStudio-7.0/SDKS/StellarESDK-1.7.0/Modules/Drivers/Timers/HRTIM/src\hrtim.c ****                 if (hdp->fault[idx].enable == true) {
 7010              		.loc 1 1177 36
 7011 1c26 0199     		ldr	r1, [sp, #4]
 7012 1c28 059A     		ldr	r2, [sp, #20]
 7013 1c2a 1346     		mov	r3, r2
 7014 1c2c 9B00     		lsls	r3, r3, #2
 7015 1c2e 1344     		add	r3, r3, r2
 7016 1c30 9B00     		lsls	r3, r3, #2
 7017 1c32 0B44     		add	r3, r3, r1
 7018 1c34 03F6E913 		addw	r3, r3, #2537
 7019 1c38 1B78     		ldrb	r3, [r3]	@ zero_extendqisi2
 7020              		.loc 1 1177 20
 7021 1c3a 002B     		cmp	r3, #0
 7022 1c3c 04D0     		beq	.L228
1178:C:/StellarStudio-7.0/SDKS/StellarESDK-1.7.0/Modules/Drivers/Timers/HRTIM/src\hrtim.c ****                     hrtim_fltinr1 |= HRTIM_FLTINR1_FLT1E;
 7023              		.loc 1 1178 35
 7024 1c3e 079B     		ldr	r3, [sp, #28]
 7025 1c40 43F00103 		orr	r3, r3, #1
 7026 1c44 0793     		str	r3, [sp, #28]
1179:C:/StellarStudio-7.0/SDKS/StellarESDK-1.7.0/Modules/Drivers/Timers/HRTIM/src\hrtim.c ****                 } else {
1180:C:/StellarStudio-7.0/SDKS/StellarESDK-1.7.0/Modules/Drivers/Timers/HRTIM/src\hrtim.c ****                     hrtim_fltinr1 &= ~HRTIM_FLTINR1_FLT1E;
1181:C:/StellarStudio-7.0/SDKS/StellarESDK-1.7.0/Modules/Drivers/Timers/HRTIM/src\hrtim.c ****                 }
1182:C:/StellarStudio-7.0/SDKS/StellarESDK-1.7.0/Modules/Drivers/Timers/HRTIM/src\hrtim.c ****                 break;
 7027              		.loc 1 1182 17
 7028 1c46 2CE3     		b	.L230
 7029              	.L228:
1180:C:/StellarStudio-7.0/SDKS/StellarESDK-1.7.0/Modules/Drivers/Timers/HRTIM/src\hrtim.c ****                 }
 7030              		.loc 1 1180 35
 7031 1c48 079B     		ldr	r3, [sp, #28]
 7032 1c4a 23F00103 		bic	r3, r3, #1
 7033 1c4e 0793     		str	r3, [sp, #28]
 7034              		.loc 1 1182 17
 7035 1c50 27E3     		b	.L230
 7036              	.L225:
1183:C:/StellarStudio-7.0/SDKS/StellarESDK-1.7.0/Modules/Drivers/Timers/HRTIM/src\hrtim.c ****             case HRTIM_FAULT_2:
1184:C:/StellarStudio-7.0/SDKS/StellarESDK-1.7.0/Modules/Drivers/Timers/HRTIM/src\hrtim.c ****                 hrtim_fltinr1 &= ~(HRTIM_FLTINR1_FLT2P | HRTIM_FLTINR1_FLT2SRC_0 | HRTIM_FLTINR1_FL
 7037              		.loc 1 1184 31
 7038 1c52 079B     		ldr	r3, [sp, #28]
 7039 1c54 23F47E43 		bic	r3, r3, #65024
 7040 1c58 0793     		str	r3, [sp, #28]
1185:C:/StellarStudio-7.0/SDKS/StellarESDK-1.7.0/Modules/Drivers/Timers/HRTIM/src\hrtim.c ****                 hrtim_fltinr1 |= ((hdp->fault[idx].polarity << 8U) & HRTIM_FLTINR1_FLT2P);
 7041              		.loc 1 1185 51
 7042 1c5a 0199     		ldr	r1, [sp, #4]
 7043 1c5c 059A     		ldr	r2, [sp, #20]
 7044 1c5e 1346     		mov	r3, r2
 7045 1c60 9B00     		lsls	r3, r3, #2
 7046 1c62 1344     		add	r3, r3, r2
 7047 1c64 9B00     		lsls	r3, r3, #2
 7048 1c66 0B44     		add	r3, r3, r1
 7049 1c68 03F51F63 		add	r3, r3, #2544
 7050 1c6c 1B68     		ldr	r3, [r3]
 7051              		.loc 1 1185 61
 7052 1c6e 1B02     		lsls	r3, r3, #8
 7053              		.loc 1 1185 68
 7054 1c70 03F40073 		and	r3, r3, #512
 7055              		.loc 1 1185 31
 7056 1c74 079A     		ldr	r2, [sp, #28]
 7057 1c76 1343     		orrs	r3, r3, r2
 7058 1c78 0793     		str	r3, [sp, #28]
1186:C:/StellarStudio-7.0/SDKS/StellarESDK-1.7.0/Modules/Drivers/Timers/HRTIM/src\hrtim.c ****                 hrtim_fltinr1 |= (source0 << HRTIM_FLTINR1_FLT2SRC_0_Pos);
 7059              		.loc 1 1186 43
 7060 1c7a 049B     		ldr	r3, [sp, #16]
 7061 1c7c 9B02     		lsls	r3, r3, #10
 7062              		.loc 1 1186 31
 7063 1c7e 079A     		ldr	r2, [sp, #28]
 7064 1c80 1343     		orrs	r3, r3, r2
 7065 1c82 0793     		str	r3, [sp, #28]
1187:C:/StellarStudio-7.0/SDKS/StellarESDK-1.7.0/Modules/Drivers/Timers/HRTIM/src\hrtim.c ****                 hrtim_fltinr2 &= ~(HRTIM_FLTINR2_FLT2SRC_1);
 7066              		.loc 1 1187 31
 7067 1c84 069B     		ldr	r3, [sp, #24]
 7068 1c86 23F40033 		bic	r3, r3, #131072
 7069 1c8a 0693     		str	r3, [sp, #24]
1188:C:/StellarStudio-7.0/SDKS/StellarESDK-1.7.0/Modules/Drivers/Timers/HRTIM/src\hrtim.c ****                 hrtim_fltinr2 |= (source1 << HRTIM_FLTINR2_FLT2SRC_1_Pos);
 7070              		.loc 1 1188 43
 7071 1c8c 039B     		ldr	r3, [sp, #12]
 7072 1c8e 5B04     		lsls	r3, r3, #17
 7073              		.loc 1 1188 31
 7074 1c90 069A     		ldr	r2, [sp, #24]
 7075 1c92 1343     		orrs	r3, r3, r2
 7076 1c94 0693     		str	r3, [sp, #24]
1189:C:/StellarStudio-7.0/SDKS/StellarESDK-1.7.0/Modules/Drivers/Timers/HRTIM/src\hrtim.c ****                 hrtim_fltinr1 |= ((hdp->fault[idx].filter << 8U) & HRTIM_FLTINR1_FLT2F);
 7077              		.loc 1 1189 51
 7078 1c96 0199     		ldr	r1, [sp, #4]
 7079 1c98 059A     		ldr	r2, [sp, #20]
 7080 1c9a 1346     		mov	r3, r2
 7081 1c9c 9B00     		lsls	r3, r3, #2
 7082 1c9e 1344     		add	r3, r3, r2
 7083 1ca0 9B00     		lsls	r3, r3, #2
 7084 1ca2 0B44     		add	r3, r3, r1
 7085 1ca4 03F6F413 		addw	r3, r3, #2548
 7086 1ca8 1B68     		ldr	r3, [r3]
 7087              		.loc 1 1189 59
 7088 1caa 1B02     		lsls	r3, r3, #8
 7089              		.loc 1 1189 66
 7090 1cac 03F4F043 		and	r3, r3, #30720
 7091              		.loc 1 1189 31
 7092 1cb0 079A     		ldr	r2, [sp, #28]
 7093 1cb2 1343     		orrs	r3, r3, r2
 7094 1cb4 0793     		str	r3, [sp, #28]
1190:C:/StellarStudio-7.0/SDKS/StellarESDK-1.7.0/Modules/Drivers/Timers/HRTIM/src\hrtim.c ****                 hrtim_fltinr1 |= ((hdp->fault[idx].lock << 8U) & HRTIM_FLTINR1_FLT2LCK);
 7095              		.loc 1 1190 51
 7096 1cb6 0199     		ldr	r1, [sp, #4]
 7097 1cb8 059A     		ldr	r2, [sp, #20]
 7098 1cba 1346     		mov	r3, r2
 7099 1cbc 9B00     		lsls	r3, r3, #2
 7100 1cbe 1344     		add	r3, r3, r2
 7101 1cc0 9B00     		lsls	r3, r3, #2
 7102 1cc2 0B44     		add	r3, r3, r1
 7103 1cc4 03F6F813 		addw	r3, r3, #2552
 7104 1cc8 1B68     		ldr	r3, [r3]
 7105              		.loc 1 1190 57
 7106 1cca 1B02     		lsls	r3, r3, #8
 7107              		.loc 1 1190 64
 7108 1ccc 03F40043 		and	r3, r3, #32768
 7109              		.loc 1 1190 31
 7110 1cd0 079A     		ldr	r2, [sp, #28]
 7111 1cd2 1343     		orrs	r3, r3, r2
 7112 1cd4 0793     		str	r3, [sp, #28]
1191:C:/StellarStudio-7.0/SDKS/StellarESDK-1.7.0/Modules/Drivers/Timers/HRTIM/src\hrtim.c ****                 hdp->hrtim->sCommonRegs.FLTINR3 &=~ (HRTIM_FLTINR3_FLT2RSTM | HRTIM_FLTINR3_FLT2CNT
 7113              		.loc 1 1191 20
 7114 1cd6 019B     		ldr	r3, [sp, #4]
 7115 1cd8 1B68     		ldr	r3, [r3]
 7116              		.loc 1 1191 49
 7117 1cda D3F80824 		ldr	r2, [r3, #1032]
 7118              		.loc 1 1191 20
 7119 1cde 019B     		ldr	r3, [sp, #4]
 7120 1ce0 1B68     		ldr	r3, [r3]
 7121              		.loc 1 1191 49
 7122 1ce2 22F43C42 		bic	r2, r2, #48128
 7123 1ce6 C3F80824 		str	r2, [r3, #1032]
1192:C:/StellarStudio-7.0/SDKS/StellarESDK-1.7.0/Modules/Drivers/Timers/HRTIM/src\hrtim.c ****                 hdp->hrtim->sCommonRegs.FLTINR3 |= (((uint32_t)hdp->fault_blnk[idx].threshold << HR
 7124              		.loc 1 1192 20
 7125 1cea 019B     		ldr	r3, [sp, #4]
 7126 1cec 1B68     		ldr	r3, [r3]
 7127              		.loc 1 1192 49
 7128 1cee D3F80814 		ldr	r1, [r3, #1032]
 7129              		.loc 1 1192 84
 7130 1cf2 019A     		ldr	r2, [sp, #4]
 7131 1cf4 059B     		ldr	r3, [sp, #20]
 7132 1cf6 A633     		adds	r3, r3, #166
 7133 1cf8 1B01     		lsls	r3, r3, #4
 7134 1cfa 1344     		add	r3, r3, r2
 7135 1cfc 0433     		adds	r3, r3, #4
 7136 1cfe 1B68     		ldr	r3, [r3]
 7137              		.loc 1 1192 95
 7138 1d00 9A02     		lsls	r2, r3, #10
1193:C:/StellarStudio-7.0/SDKS/StellarESDK-1.7.0/Modules/Drivers/Timers/HRTIM/src\hrtim.c ****                                                     ((uint32_t)hdp->fault_blnk[idx].reset_mode << H
 7139              		.loc 1 1193 84
 7140 1d02 0198     		ldr	r0, [sp, #4]
 7141 1d04 059B     		ldr	r3, [sp, #20]
 7142 1d06 A633     		adds	r3, r3, #166
 7143 1d08 1B01     		lsls	r3, r3, #4
 7144 1d0a 0344     		add	r3, r3, r0
 7145 1d0c 0833     		adds	r3, r3, #8
 7146 1d0e 1B68     		ldr	r3, [r3]
 7147              		.loc 1 1193 96
 7148 1d10 DB03     		lsls	r3, r3, #15
1192:C:/StellarStudio-7.0/SDKS/StellarESDK-1.7.0/Modules/Drivers/Timers/HRTIM/src\hrtim.c ****                 hdp->hrtim->sCommonRegs.FLTINR3 |= (((uint32_t)hdp->fault_blnk[idx].threshold << HR
 7149              		.loc 1 1192 125
 7150 1d12 1A43     		orrs	r2, r2, r3
1192:C:/StellarStudio-7.0/SDKS/StellarESDK-1.7.0/Modules/Drivers/Timers/HRTIM/src\hrtim.c ****                 hdp->hrtim->sCommonRegs.FLTINR3 |= (((uint32_t)hdp->fault_blnk[idx].threshold << HR
 7151              		.loc 1 1192 20
 7152 1d14 019B     		ldr	r3, [sp, #4]
 7153 1d16 1B68     		ldr	r3, [r3]
1192:C:/StellarStudio-7.0/SDKS/StellarESDK-1.7.0/Modules/Drivers/Timers/HRTIM/src\hrtim.c ****                 hdp->hrtim->sCommonRegs.FLTINR3 |= (((uint32_t)hdp->fault_blnk[idx].threshold << HR
 7154              		.loc 1 1192 49
 7155 1d18 0A43     		orrs	r2, r2, r1
 7156 1d1a C3F80824 		str	r2, [r3, #1032]
1194:C:/StellarStudio-7.0/SDKS/StellarESDK-1.7.0/Modules/Drivers/Timers/HRTIM/src\hrtim.c ****                 hdp->hrtim->sCommonRegs.FLTINR3 &= ~(HRTIM_FLTINR3_FLT2BLKS | HRTIM_FLTINR3_FLT2BLK
 7157              		.loc 1 1194 20
 7158 1d1e 019B     		ldr	r3, [sp, #4]
 7159 1d20 1B68     		ldr	r3, [r3]
 7160              		.loc 1 1194 49
 7161 1d22 D3F80824 		ldr	r2, [r3, #1032]
 7162              		.loc 1 1194 20
 7163 1d26 019B     		ldr	r3, [sp, #4]
 7164 1d28 1B68     		ldr	r3, [r3]
 7165              		.loc 1 1194 49
 7166 1d2a 22F44072 		bic	r2, r2, #768
 7167 1d2e C3F80824 		str	r2, [r3, #1032]
1195:C:/StellarStudio-7.0/SDKS/StellarESDK-1.7.0/Modules/Drivers/Timers/HRTIM/src\hrtim.c ****                 if (hdp->fault_blnk[idx].blanking_enable == true) {
 7168              		.loc 1 1195 41
 7169 1d32 019A     		ldr	r2, [sp, #4]
 7170 1d34 059B     		ldr	r3, [sp, #20]
 7171 1d36 1B01     		lsls	r3, r3, #4
 7172 1d38 1344     		add	r3, r3, r2
 7173 1d3a 03F66C23 		addw	r3, r3, #2668
 7174 1d3e 1B78     		ldrb	r3, [r3]	@ zero_extendqisi2
 7175              		.loc 1 1195 20
 7176 1d40 002B     		cmp	r3, #0
 7177 1d42 12D0     		beq	.L231
1196:C:/StellarStudio-7.0/SDKS/StellarESDK-1.7.0/Modules/Drivers/Timers/HRTIM/src\hrtim.c ****                     hdp->hrtim->sCommonRegs.FLTINR3 |= (((uint32_t)hdp->fault_blnk[idx].blanking_so
 7178              		.loc 1 1196 24
 7179 1d44 019B     		ldr	r3, [sp, #4]
 7180 1d46 1B68     		ldr	r3, [r3]
 7181              		.loc 1 1196 53
 7182 1d48 D3F80824 		ldr	r2, [r3, #1032]
 7183              		.loc 1 1196 88
 7184 1d4c 0199     		ldr	r1, [sp, #4]
 7185 1d4e 059B     		ldr	r3, [sp, #20]
 7186 1d50 1B01     		lsls	r3, r3, #4
 7187 1d52 0B44     		add	r3, r3, r1
 7188 1d54 03F52763 		add	r3, r3, #2672
 7189 1d58 1B68     		ldr	r3, [r3]
 7190              		.loc 1 1196 105
 7191 1d5a 5B02     		lsls	r3, r3, #9
 7192              		.loc 1 1196 53
 7193 1d5c 1A43     		orrs	r2, r2, r3
 7194              		.loc 1 1196 24
 7195 1d5e 019B     		ldr	r3, [sp, #4]
 7196 1d60 1B68     		ldr	r3, [r3]
 7197              		.loc 1 1196 53
 7198 1d62 42F48072 		orr	r2, r2, #256
 7199 1d66 C3F80824 		str	r2, [r3, #1032]
 7200              	.L231:
1197:C:/StellarStudio-7.0/SDKS/StellarESDK-1.7.0/Modules/Drivers/Timers/HRTIM/src\hrtim.c ****                 }
1198:C:/StellarStudio-7.0/SDKS/StellarESDK-1.7.0/Modules/Drivers/Timers/HRTIM/src\hrtim.c ****                 if (hdp->fault[idx].enable == true) {
 7201              		.loc 1 1198 36
 7202 1d6a 0199     		ldr	r1, [sp, #4]
 7203 1d6c 059A     		ldr	r2, [sp, #20]
 7204 1d6e 1346     		mov	r3, r2
 7205 1d70 9B00     		lsls	r3, r3, #2
 7206 1d72 1344     		add	r3, r3, r2
 7207 1d74 9B00     		lsls	r3, r3, #2
 7208 1d76 0B44     		add	r3, r3, r1
 7209 1d78 03F6E913 		addw	r3, r3, #2537
 7210 1d7c 1B78     		ldrb	r3, [r3]	@ zero_extendqisi2
 7211              		.loc 1 1198 20
 7212 1d7e 002B     		cmp	r3, #0
 7213 1d80 04D0     		beq	.L232
1199:C:/StellarStudio-7.0/SDKS/StellarESDK-1.7.0/Modules/Drivers/Timers/HRTIM/src\hrtim.c ****                     hrtim_fltinr1 |= HRTIM_FLTINR1_FLT2E;
 7214              		.loc 1 1199 35
 7215 1d82 079B     		ldr	r3, [sp, #28]
 7216 1d84 43F48073 		orr	r3, r3, #256
 7217 1d88 0793     		str	r3, [sp, #28]
1200:C:/StellarStudio-7.0/SDKS/StellarESDK-1.7.0/Modules/Drivers/Timers/HRTIM/src\hrtim.c ****                 } else {
1201:C:/StellarStudio-7.0/SDKS/StellarESDK-1.7.0/Modules/Drivers/Timers/HRTIM/src\hrtim.c ****                     hrtim_fltinr1 &= ~HRTIM_FLTINR1_FLT2E;
1202:C:/StellarStudio-7.0/SDKS/StellarESDK-1.7.0/Modules/Drivers/Timers/HRTIM/src\hrtim.c ****                 }
1203:C:/StellarStudio-7.0/SDKS/StellarESDK-1.7.0/Modules/Drivers/Timers/HRTIM/src\hrtim.c ****                 break;
 7218              		.loc 1 1203 17
 7219 1d8a 8AE2     		b	.L230
 7220              	.L232:
1201:C:/StellarStudio-7.0/SDKS/StellarESDK-1.7.0/Modules/Drivers/Timers/HRTIM/src\hrtim.c ****                 }
 7221              		.loc 1 1201 35
 7222 1d8c 079B     		ldr	r3, [sp, #28]
 7223 1d8e 23F48073 		bic	r3, r3, #256
 7224 1d92 0793     		str	r3, [sp, #28]
 7225              		.loc 1 1203 17
 7226 1d94 85E2     		b	.L230
 7227              	.L224:
1204:C:/StellarStudio-7.0/SDKS/StellarESDK-1.7.0/Modules/Drivers/Timers/HRTIM/src\hrtim.c ****             case HRTIM_FAULT_3:
1205:C:/StellarStudio-7.0/SDKS/StellarESDK-1.7.0/Modules/Drivers/Timers/HRTIM/src\hrtim.c ****                 hrtim_fltinr1 &= ~(HRTIM_FLTINR1_FLT3P | HRTIM_FLTINR1_FLT3SRC_0 | HRTIM_FLTINR1_FL
 7228              		.loc 1 1205 31
 7229 1d96 079B     		ldr	r3, [sp, #28]
 7230 1d98 23F47E03 		bic	r3, r3, #16646144
 7231 1d9c 0793     		str	r3, [sp, #28]
1206:C:/StellarStudio-7.0/SDKS/StellarESDK-1.7.0/Modules/Drivers/Timers/HRTIM/src\hrtim.c ****                 hrtim_fltinr1 |= ((hdp->fault[idx].polarity << 16U) & HRTIM_FLTINR1_FLT3P);
 7232              		.loc 1 1206 51
 7233 1d9e 0199     		ldr	r1, [sp, #4]
 7234 1da0 059A     		ldr	r2, [sp, #20]
 7235 1da2 1346     		mov	r3, r2
 7236 1da4 9B00     		lsls	r3, r3, #2
 7237 1da6 1344     		add	r3, r3, r2
 7238 1da8 9B00     		lsls	r3, r3, #2
 7239 1daa 0B44     		add	r3, r3, r1
 7240 1dac 03F51F63 		add	r3, r3, #2544
 7241 1db0 1B68     		ldr	r3, [r3]
 7242              		.loc 1 1206 61
 7243 1db2 1B04     		lsls	r3, r3, #16
 7244              		.loc 1 1206 69
 7245 1db4 03F40033 		and	r3, r3, #131072
 7246              		.loc 1 1206 31
 7247 1db8 079A     		ldr	r2, [sp, #28]
 7248 1dba 1343     		orrs	r3, r3, r2
 7249 1dbc 0793     		str	r3, [sp, #28]
1207:C:/StellarStudio-7.0/SDKS/StellarESDK-1.7.0/Modules/Drivers/Timers/HRTIM/src\hrtim.c ****                 hrtim_fltinr1 |= (source0 << HRTIM_FLTINR1_FLT3SRC_0_Pos);
 7250              		.loc 1 1207 43
 7251 1dbe 049B     		ldr	r3, [sp, #16]
 7252 1dc0 9B04     		lsls	r3, r3, #18
 7253              		.loc 1 1207 31
 7254 1dc2 079A     		ldr	r2, [sp, #28]
 7255 1dc4 1343     		orrs	r3, r3, r2
 7256 1dc6 0793     		str	r3, [sp, #28]
1208:C:/StellarStudio-7.0/SDKS/StellarESDK-1.7.0/Modules/Drivers/Timers/HRTIM/src\hrtim.c ****                 hrtim_fltinr2 &= ~(HRTIM_FLTINR2_FLT3SRC_1);
 7257              		.loc 1 1208 31
 7258 1dc8 069B     		ldr	r3, [sp, #24]
 7259 1dca 23F48023 		bic	r3, r3, #262144
 7260 1dce 0693     		str	r3, [sp, #24]
1209:C:/StellarStudio-7.0/SDKS/StellarESDK-1.7.0/Modules/Drivers/Timers/HRTIM/src\hrtim.c ****                 hrtim_fltinr2 |= (source1 << HRTIM_FLTINR2_FLT3SRC_1_Pos);
 7261              		.loc 1 1209 43
 7262 1dd0 039B     		ldr	r3, [sp, #12]
 7263 1dd2 9B04     		lsls	r3, r3, #18
 7264              		.loc 1 1209 31
 7265 1dd4 069A     		ldr	r2, [sp, #24]
 7266 1dd6 1343     		orrs	r3, r3, r2
 7267 1dd8 0693     		str	r3, [sp, #24]
1210:C:/StellarStudio-7.0/SDKS/StellarESDK-1.7.0/Modules/Drivers/Timers/HRTIM/src\hrtim.c ****                 hrtim_fltinr1 |= ((hdp->fault[idx].filter << 16U) & HRTIM_FLTINR1_FLT3F);
 7268              		.loc 1 1210 51
 7269 1dda 0199     		ldr	r1, [sp, #4]
 7270 1ddc 059A     		ldr	r2, [sp, #20]
 7271 1dde 1346     		mov	r3, r2
 7272 1de0 9B00     		lsls	r3, r3, #2
 7273 1de2 1344     		add	r3, r3, r2
 7274 1de4 9B00     		lsls	r3, r3, #2
 7275 1de6 0B44     		add	r3, r3, r1
 7276 1de8 03F6F413 		addw	r3, r3, #2548
 7277 1dec 1B68     		ldr	r3, [r3]
 7278              		.loc 1 1210 59
 7279 1dee 1B04     		lsls	r3, r3, #16
 7280              		.loc 1 1210 67
 7281 1df0 03F4F003 		and	r3, r3, #7864320
 7282              		.loc 1 1210 31
 7283 1df4 079A     		ldr	r2, [sp, #28]
 7284 1df6 1343     		orrs	r3, r3, r2
 7285 1df8 0793     		str	r3, [sp, #28]
1211:C:/StellarStudio-7.0/SDKS/StellarESDK-1.7.0/Modules/Drivers/Timers/HRTIM/src\hrtim.c ****                 hrtim_fltinr1 |= ((hdp->fault[idx].lock << 16U) & HRTIM_FLTINR1_FLT3LCK);
 7286              		.loc 1 1211 51
 7287 1dfa 0199     		ldr	r1, [sp, #4]
 7288 1dfc 059A     		ldr	r2, [sp, #20]
 7289 1dfe 1346     		mov	r3, r2
 7290 1e00 9B00     		lsls	r3, r3, #2
 7291 1e02 1344     		add	r3, r3, r2
 7292 1e04 9B00     		lsls	r3, r3, #2
 7293 1e06 0B44     		add	r3, r3, r1
 7294 1e08 03F6F813 		addw	r3, r3, #2552
 7295 1e0c 1B68     		ldr	r3, [r3]
 7296              		.loc 1 1211 57
 7297 1e0e 1B04     		lsls	r3, r3, #16
 7298              		.loc 1 1211 65
 7299 1e10 03F40003 		and	r3, r3, #8388608
 7300              		.loc 1 1211 31
 7301 1e14 079A     		ldr	r2, [sp, #28]
 7302 1e16 1343     		orrs	r3, r3, r2
 7303 1e18 0793     		str	r3, [sp, #28]
1212:C:/StellarStudio-7.0/SDKS/StellarESDK-1.7.0/Modules/Drivers/Timers/HRTIM/src\hrtim.c ****                 hdp->hrtim->sCommonRegs.FLTINR3 &=~ (HRTIM_FLTINR3_FLT3RSTM | HRTIM_FLTINR3_FLT3CNT
 7304              		.loc 1 1212 20
 7305 1e1a 019B     		ldr	r3, [sp, #4]
 7306 1e1c 1B68     		ldr	r3, [r3]
 7307              		.loc 1 1212 49
 7308 1e1e D3F80824 		ldr	r2, [r3, #1032]
 7309              		.loc 1 1212 20
 7310 1e22 019B     		ldr	r3, [sp, #4]
 7311 1e24 1B68     		ldr	r3, [r3]
 7312              		.loc 1 1212 49
 7313 1e26 22F43C02 		bic	r2, r2, #12320768
 7314 1e2a C3F80824 		str	r2, [r3, #1032]
1213:C:/StellarStudio-7.0/SDKS/StellarESDK-1.7.0/Modules/Drivers/Timers/HRTIM/src\hrtim.c ****                 hdp->hrtim->sCommonRegs.FLTINR3 |= (((uint32_t)hdp->fault_blnk[idx].threshold << HR
 7315              		.loc 1 1213 20
 7316 1e2e 019B     		ldr	r3, [sp, #4]
 7317 1e30 1B68     		ldr	r3, [r3]
 7318              		.loc 1 1213 49
 7319 1e32 D3F80814 		ldr	r1, [r3, #1032]
 7320              		.loc 1 1213 84
 7321 1e36 019A     		ldr	r2, [sp, #4]
 7322 1e38 059B     		ldr	r3, [sp, #20]
 7323 1e3a A633     		adds	r3, r3, #166
 7324 1e3c 1B01     		lsls	r3, r3, #4
 7325 1e3e 1344     		add	r3, r3, r2
 7326 1e40 0433     		adds	r3, r3, #4
 7327 1e42 1B68     		ldr	r3, [r3]
 7328              		.loc 1 1213 95
 7329 1e44 9A04     		lsls	r2, r3, #18
1214:C:/StellarStudio-7.0/SDKS/StellarESDK-1.7.0/Modules/Drivers/Timers/HRTIM/src\hrtim.c ****                                                     ((uint32_t)hdp->fault_blnk[idx].reset_mode << H
 7330              		.loc 1 1214 84
 7331 1e46 0198     		ldr	r0, [sp, #4]
 7332 1e48 059B     		ldr	r3, [sp, #20]
 7333 1e4a A633     		adds	r3, r3, #166
 7334 1e4c 1B01     		lsls	r3, r3, #4
 7335 1e4e 0344     		add	r3, r3, r0
 7336 1e50 0833     		adds	r3, r3, #8
 7337 1e52 1B68     		ldr	r3, [r3]
 7338              		.loc 1 1214 96
 7339 1e54 DB05     		lsls	r3, r3, #23
1213:C:/StellarStudio-7.0/SDKS/StellarESDK-1.7.0/Modules/Drivers/Timers/HRTIM/src\hrtim.c ****                 hdp->hrtim->sCommonRegs.FLTINR3 |= (((uint32_t)hdp->fault_blnk[idx].threshold << HR
 7340              		.loc 1 1213 125
 7341 1e56 1A43     		orrs	r2, r2, r3
1213:C:/StellarStudio-7.0/SDKS/StellarESDK-1.7.0/Modules/Drivers/Timers/HRTIM/src\hrtim.c ****                 hdp->hrtim->sCommonRegs.FLTINR3 |= (((uint32_t)hdp->fault_blnk[idx].threshold << HR
 7342              		.loc 1 1213 20
 7343 1e58 019B     		ldr	r3, [sp, #4]
 7344 1e5a 1B68     		ldr	r3, [r3]
1213:C:/StellarStudio-7.0/SDKS/StellarESDK-1.7.0/Modules/Drivers/Timers/HRTIM/src\hrtim.c ****                 hdp->hrtim->sCommonRegs.FLTINR3 |= (((uint32_t)hdp->fault_blnk[idx].threshold << HR
 7345              		.loc 1 1213 49
 7346 1e5c 0A43     		orrs	r2, r2, r1
 7347 1e5e C3F80824 		str	r2, [r3, #1032]
1215:C:/StellarStudio-7.0/SDKS/StellarESDK-1.7.0/Modules/Drivers/Timers/HRTIM/src\hrtim.c ****                 hdp->hrtim->sCommonRegs.FLTINR3 &= ~(HRTIM_FLTINR3_FLT3BLKS | HRTIM_FLTINR3_FLT3BLK
 7348              		.loc 1 1215 20
 7349 1e62 019B     		ldr	r3, [sp, #4]
 7350 1e64 1B68     		ldr	r3, [r3]
 7351              		.loc 1 1215 49
 7352 1e66 D3F80824 		ldr	r2, [r3, #1032]
 7353              		.loc 1 1215 20
 7354 1e6a 019B     		ldr	r3, [sp, #4]
 7355 1e6c 1B68     		ldr	r3, [r3]
 7356              		.loc 1 1215 49
 7357 1e6e 22F44032 		bic	r2, r2, #196608
 7358 1e72 C3F80824 		str	r2, [r3, #1032]
1216:C:/StellarStudio-7.0/SDKS/StellarESDK-1.7.0/Modules/Drivers/Timers/HRTIM/src\hrtim.c ****                 if (hdp->fault_blnk[idx].blanking_enable == true) {
 7359              		.loc 1 1216 41
 7360 1e76 019A     		ldr	r2, [sp, #4]
 7361 1e78 059B     		ldr	r3, [sp, #20]
 7362 1e7a 1B01     		lsls	r3, r3, #4
 7363 1e7c 1344     		add	r3, r3, r2
 7364 1e7e 03F66C23 		addw	r3, r3, #2668
 7365 1e82 1B78     		ldrb	r3, [r3]	@ zero_extendqisi2
 7366              		.loc 1 1216 20
 7367 1e84 002B     		cmp	r3, #0
 7368 1e86 12D0     		beq	.L234
1217:C:/StellarStudio-7.0/SDKS/StellarESDK-1.7.0/Modules/Drivers/Timers/HRTIM/src\hrtim.c ****                     hdp->hrtim->sCommonRegs.FLTINR3 |= (((uint32_t)hdp->fault_blnk[idx].blanking_so
 7369              		.loc 1 1217 24
 7370 1e88 019B     		ldr	r3, [sp, #4]
 7371 1e8a 1B68     		ldr	r3, [r3]
 7372              		.loc 1 1217 53
 7373 1e8c D3F80824 		ldr	r2, [r3, #1032]
 7374              		.loc 1 1217 88
 7375 1e90 0199     		ldr	r1, [sp, #4]
 7376 1e92 059B     		ldr	r3, [sp, #20]
 7377 1e94 1B01     		lsls	r3, r3, #4
 7378 1e96 0B44     		add	r3, r3, r1
 7379 1e98 03F52763 		add	r3, r3, #2672
 7380 1e9c 1B68     		ldr	r3, [r3]
 7381              		.loc 1 1217 105
 7382 1e9e 5B04     		lsls	r3, r3, #17
 7383              		.loc 1 1217 53
 7384 1ea0 1A43     		orrs	r2, r2, r3
 7385              		.loc 1 1217 24
 7386 1ea2 019B     		ldr	r3, [sp, #4]
 7387 1ea4 1B68     		ldr	r3, [r3]
 7388              		.loc 1 1217 53
 7389 1ea6 42F48032 		orr	r2, r2, #65536
 7390 1eaa C3F80824 		str	r2, [r3, #1032]
 7391              	.L234:
1218:C:/StellarStudio-7.0/SDKS/StellarESDK-1.7.0/Modules/Drivers/Timers/HRTIM/src\hrtim.c ****                 }
1219:C:/StellarStudio-7.0/SDKS/StellarESDK-1.7.0/Modules/Drivers/Timers/HRTIM/src\hrtim.c ****                 if (hdp->fault[idx].enable == true) {
 7392              		.loc 1 1219 36
 7393 1eae 0199     		ldr	r1, [sp, #4]
 7394 1eb0 059A     		ldr	r2, [sp, #20]
 7395 1eb2 1346     		mov	r3, r2
 7396 1eb4 9B00     		lsls	r3, r3, #2
 7397 1eb6 1344     		add	r3, r3, r2
 7398 1eb8 9B00     		lsls	r3, r3, #2
 7399 1eba 0B44     		add	r3, r3, r1
 7400 1ebc 03F6E913 		addw	r3, r3, #2537
 7401 1ec0 1B78     		ldrb	r3, [r3]	@ zero_extendqisi2
 7402              		.loc 1 1219 20
 7403 1ec2 002B     		cmp	r3, #0
 7404 1ec4 04D0     		beq	.L235
1220:C:/StellarStudio-7.0/SDKS/StellarESDK-1.7.0/Modules/Drivers/Timers/HRTIM/src\hrtim.c ****                     hrtim_fltinr1 |= HRTIM_FLTINR1_FLT3E;
 7405              		.loc 1 1220 35
 7406 1ec6 079B     		ldr	r3, [sp, #28]
 7407 1ec8 43F48033 		orr	r3, r3, #65536
 7408 1ecc 0793     		str	r3, [sp, #28]
1221:C:/StellarStudio-7.0/SDKS/StellarESDK-1.7.0/Modules/Drivers/Timers/HRTIM/src\hrtim.c ****                 } else {
1222:C:/StellarStudio-7.0/SDKS/StellarESDK-1.7.0/Modules/Drivers/Timers/HRTIM/src\hrtim.c ****                     hrtim_fltinr1 &= ~HRTIM_FLTINR1_FLT3E;
1223:C:/StellarStudio-7.0/SDKS/StellarESDK-1.7.0/Modules/Drivers/Timers/HRTIM/src\hrtim.c ****                 }
1224:C:/StellarStudio-7.0/SDKS/StellarESDK-1.7.0/Modules/Drivers/Timers/HRTIM/src\hrtim.c ****                 break;
 7409              		.loc 1 1224 17
 7410 1ece E8E1     		b	.L230
 7411              	.L235:
1222:C:/StellarStudio-7.0/SDKS/StellarESDK-1.7.0/Modules/Drivers/Timers/HRTIM/src\hrtim.c ****                 }
 7412              		.loc 1 1222 35
 7413 1ed0 079B     		ldr	r3, [sp, #28]
 7414 1ed2 23F48033 		bic	r3, r3, #65536
 7415 1ed6 0793     		str	r3, [sp, #28]
 7416              		.loc 1 1224 17
 7417 1ed8 E3E1     		b	.L230
 7418              	.L223:
1225:C:/StellarStudio-7.0/SDKS/StellarESDK-1.7.0/Modules/Drivers/Timers/HRTIM/src\hrtim.c ****             case HRTIM_FAULT_4:
1226:C:/StellarStudio-7.0/SDKS/StellarESDK-1.7.0/Modules/Drivers/Timers/HRTIM/src\hrtim.c ****                 hrtim_fltinr1 &= ~(HRTIM_FLTINR1_FLT4P | HRTIM_FLTINR1_FLT4SRC_0 | HRTIM_FLTINR1_FL
 7419              		.loc 1 1226 31
 7420 1eda 079B     		ldr	r3, [sp, #28]
 7421 1edc 23F07E43 		bic	r3, r3, #-33554432
 7422 1ee0 0793     		str	r3, [sp, #28]
1227:C:/StellarStudio-7.0/SDKS/StellarESDK-1.7.0/Modules/Drivers/Timers/HRTIM/src\hrtim.c ****                 hrtim_fltinr1 |= ((hdp->fault[idx].polarity << 24U) & HRTIM_FLTINR1_FLT4P);
 7423              		.loc 1 1227 51
 7424 1ee2 0199     		ldr	r1, [sp, #4]
 7425 1ee4 059A     		ldr	r2, [sp, #20]
 7426 1ee6 1346     		mov	r3, r2
 7427 1ee8 9B00     		lsls	r3, r3, #2
 7428 1eea 1344     		add	r3, r3, r2
 7429 1eec 9B00     		lsls	r3, r3, #2
 7430 1eee 0B44     		add	r3, r3, r1
 7431 1ef0 03F51F63 		add	r3, r3, #2544
 7432 1ef4 1B68     		ldr	r3, [r3]
 7433              		.loc 1 1227 61
 7434 1ef6 1B06     		lsls	r3, r3, #24
 7435              		.loc 1 1227 69
 7436 1ef8 03F00073 		and	r3, r3, #33554432
 7437              		.loc 1 1227 31
 7438 1efc 079A     		ldr	r2, [sp, #28]
 7439 1efe 1343     		orrs	r3, r3, r2
 7440 1f00 0793     		str	r3, [sp, #28]
1228:C:/StellarStudio-7.0/SDKS/StellarESDK-1.7.0/Modules/Drivers/Timers/HRTIM/src\hrtim.c ****                 hrtim_fltinr1 |= (source0 << HRTIM_FLTINR1_FLT4SRC_0_Pos);
 7441              		.loc 1 1228 43
 7442 1f02 049B     		ldr	r3, [sp, #16]
 7443 1f04 9B06     		lsls	r3, r3, #26
 7444              		.loc 1 1228 31
 7445 1f06 079A     		ldr	r2, [sp, #28]
 7446 1f08 1343     		orrs	r3, r3, r2
 7447 1f0a 0793     		str	r3, [sp, #28]
1229:C:/StellarStudio-7.0/SDKS/StellarESDK-1.7.0/Modules/Drivers/Timers/HRTIM/src\hrtim.c ****                 hrtim_fltinr2 &= ~(HRTIM_FLTINR2_FLT4SRC_1);
 7448              		.loc 1 1229 31
 7449 1f0c 069B     		ldr	r3, [sp, #24]
 7450 1f0e 23F40023 		bic	r3, r3, #524288
 7451 1f12 0693     		str	r3, [sp, #24]
1230:C:/StellarStudio-7.0/SDKS/StellarESDK-1.7.0/Modules/Drivers/Timers/HRTIM/src\hrtim.c ****                 hrtim_fltinr2 |= (source1 << HRTIM_FLTINR2_FLT4SRC_1_Pos);
 7452              		.loc 1 1230 43
 7453 1f14 039B     		ldr	r3, [sp, #12]
 7454 1f16 DB04     		lsls	r3, r3, #19
 7455              		.loc 1 1230 31
 7456 1f18 069A     		ldr	r2, [sp, #24]
 7457 1f1a 1343     		orrs	r3, r3, r2
 7458 1f1c 0693     		str	r3, [sp, #24]
1231:C:/StellarStudio-7.0/SDKS/StellarESDK-1.7.0/Modules/Drivers/Timers/HRTIM/src\hrtim.c ****                 hrtim_fltinr1 |= ((hdp->fault[idx].filter << 24U) & HRTIM_FLTINR1_FLT4F);
 7459              		.loc 1 1231 51
 7460 1f1e 0199     		ldr	r1, [sp, #4]
 7461 1f20 059A     		ldr	r2, [sp, #20]
 7462 1f22 1346     		mov	r3, r2
 7463 1f24 9B00     		lsls	r3, r3, #2
 7464 1f26 1344     		add	r3, r3, r2
 7465 1f28 9B00     		lsls	r3, r3, #2
 7466 1f2a 0B44     		add	r3, r3, r1
 7467 1f2c 03F6F413 		addw	r3, r3, #2548
 7468 1f30 1B68     		ldr	r3, [r3]
 7469              		.loc 1 1231 59
 7470 1f32 1B06     		lsls	r3, r3, #24
 7471              		.loc 1 1231 67
 7472 1f34 03F0F043 		and	r3, r3, #2013265920
 7473              		.loc 1 1231 31
 7474 1f38 079A     		ldr	r2, [sp, #28]
 7475 1f3a 1343     		orrs	r3, r3, r2
 7476 1f3c 0793     		str	r3, [sp, #28]
1232:C:/StellarStudio-7.0/SDKS/StellarESDK-1.7.0/Modules/Drivers/Timers/HRTIM/src\hrtim.c ****                 hrtim_fltinr1 |= ((hdp->fault[idx].lock << 24U) & HRTIM_FLTINR1_FLT4LCK);
 7477              		.loc 1 1232 51
 7478 1f3e 0199     		ldr	r1, [sp, #4]
 7479 1f40 059A     		ldr	r2, [sp, #20]
 7480 1f42 1346     		mov	r3, r2
 7481 1f44 9B00     		lsls	r3, r3, #2
 7482 1f46 1344     		add	r3, r3, r2
 7483 1f48 9B00     		lsls	r3, r3, #2
 7484 1f4a 0B44     		add	r3, r3, r1
 7485 1f4c 03F6F813 		addw	r3, r3, #2552
 7486 1f50 1B68     		ldr	r3, [r3]
 7487              		.loc 1 1232 57
 7488 1f52 1B06     		lsls	r3, r3, #24
 7489              		.loc 1 1232 65
 7490 1f54 03F00043 		and	r3, r3, #-2147483648
 7491              		.loc 1 1232 31
 7492 1f58 079A     		ldr	r2, [sp, #28]
 7493 1f5a 1343     		orrs	r3, r3, r2
 7494 1f5c 0793     		str	r3, [sp, #28]
1233:C:/StellarStudio-7.0/SDKS/StellarESDK-1.7.0/Modules/Drivers/Timers/HRTIM/src\hrtim.c ****                 hdp->hrtim->sCommonRegs.FLTINR3 &=~ (HRTIM_FLTINR3_FLT4RSTM | HRTIM_FLTINR3_FLT4CNT
 7495              		.loc 1 1233 20
 7496 1f5e 019B     		ldr	r3, [sp, #4]
 7497 1f60 1B68     		ldr	r3, [r3]
 7498              		.loc 1 1233 49
 7499 1f62 D3F80824 		ldr	r2, [r3, #1032]
 7500              		.loc 1 1233 20
 7501 1f66 019B     		ldr	r3, [sp, #4]
 7502 1f68 1B68     		ldr	r3, [r3]
 7503              		.loc 1 1233 49
 7504 1f6a 22F03C42 		bic	r2, r2, #-1140850688
 7505 1f6e C3F80824 		str	r2, [r3, #1032]
1234:C:/StellarStudio-7.0/SDKS/StellarESDK-1.7.0/Modules/Drivers/Timers/HRTIM/src\hrtim.c ****                 hdp->hrtim->sCommonRegs.FLTINR3 |= (((uint32_t)hdp->fault_blnk[idx].threshold << HR
 7506              		.loc 1 1234 20
 7507 1f72 019B     		ldr	r3, [sp, #4]
 7508 1f74 1B68     		ldr	r3, [r3]
 7509              		.loc 1 1234 49
 7510 1f76 D3F80814 		ldr	r1, [r3, #1032]
 7511              		.loc 1 1234 84
 7512 1f7a 019A     		ldr	r2, [sp, #4]
 7513 1f7c 059B     		ldr	r3, [sp, #20]
 7514 1f7e A633     		adds	r3, r3, #166
 7515 1f80 1B01     		lsls	r3, r3, #4
 7516 1f82 1344     		add	r3, r3, r2
 7517 1f84 0433     		adds	r3, r3, #4
 7518 1f86 1B68     		ldr	r3, [r3]
 7519              		.loc 1 1234 95
 7520 1f88 9A06     		lsls	r2, r3, #26
1235:C:/StellarStudio-7.0/SDKS/StellarESDK-1.7.0/Modules/Drivers/Timers/HRTIM/src\hrtim.c ****                                                     ((uint32_t)hdp->fault_blnk[idx].reset_mode << H
 7521              		.loc 1 1235 84
 7522 1f8a 0198     		ldr	r0, [sp, #4]
 7523 1f8c 059B     		ldr	r3, [sp, #20]
 7524 1f8e A633     		adds	r3, r3, #166
 7525 1f90 1B01     		lsls	r3, r3, #4
 7526 1f92 0344     		add	r3, r3, r0
 7527 1f94 0833     		adds	r3, r3, #8
 7528 1f96 1B68     		ldr	r3, [r3]
 7529              		.loc 1 1235 96
 7530 1f98 DB07     		lsls	r3, r3, #31
1234:C:/StellarStudio-7.0/SDKS/StellarESDK-1.7.0/Modules/Drivers/Timers/HRTIM/src\hrtim.c ****                 hdp->hrtim->sCommonRegs.FLTINR3 |= (((uint32_t)hdp->fault_blnk[idx].threshold << HR
 7531              		.loc 1 1234 125
 7532 1f9a 1A43     		orrs	r2, r2, r3
1234:C:/StellarStudio-7.0/SDKS/StellarESDK-1.7.0/Modules/Drivers/Timers/HRTIM/src\hrtim.c ****                 hdp->hrtim->sCommonRegs.FLTINR3 |= (((uint32_t)hdp->fault_blnk[idx].threshold << HR
 7533              		.loc 1 1234 20
 7534 1f9c 019B     		ldr	r3, [sp, #4]
 7535 1f9e 1B68     		ldr	r3, [r3]
1234:C:/StellarStudio-7.0/SDKS/StellarESDK-1.7.0/Modules/Drivers/Timers/HRTIM/src\hrtim.c ****                 hdp->hrtim->sCommonRegs.FLTINR3 |= (((uint32_t)hdp->fault_blnk[idx].threshold << HR
 7536              		.loc 1 1234 49
 7537 1fa0 0A43     		orrs	r2, r2, r1
 7538 1fa2 C3F80824 		str	r2, [r3, #1032]
1236:C:/StellarStudio-7.0/SDKS/StellarESDK-1.7.0/Modules/Drivers/Timers/HRTIM/src\hrtim.c ****                 hdp->hrtim->sCommonRegs.FLTINR3 &= ~(HRTIM_FLTINR3_FLT4BLKS | HRTIM_FLTINR3_FLT4BLK
 7539              		.loc 1 1236 20
 7540 1fa6 019B     		ldr	r3, [sp, #4]
 7541 1fa8 1B68     		ldr	r3, [r3]
 7542              		.loc 1 1236 49
 7543 1faa D3F80824 		ldr	r2, [r3, #1032]
 7544              		.loc 1 1236 20
 7545 1fae 019B     		ldr	r3, [sp, #4]
 7546 1fb0 1B68     		ldr	r3, [r3]
 7547              		.loc 1 1236 49
 7548 1fb2 22F04072 		bic	r2, r2, #50331648
 7549 1fb6 C3F80824 		str	r2, [r3, #1032]
1237:C:/StellarStudio-7.0/SDKS/StellarESDK-1.7.0/Modules/Drivers/Timers/HRTIM/src\hrtim.c ****                 if (hdp->fault_blnk[idx].blanking_enable == true) {
 7550              		.loc 1 1237 41
 7551 1fba 019A     		ldr	r2, [sp, #4]
 7552 1fbc 059B     		ldr	r3, [sp, #20]
 7553 1fbe 1B01     		lsls	r3, r3, #4
 7554 1fc0 1344     		add	r3, r3, r2
 7555 1fc2 03F66C23 		addw	r3, r3, #2668
 7556 1fc6 1B78     		ldrb	r3, [r3]	@ zero_extendqisi2
 7557              		.loc 1 1237 20
 7558 1fc8 002B     		cmp	r3, #0
 7559 1fca 12D0     		beq	.L237
1238:C:/StellarStudio-7.0/SDKS/StellarESDK-1.7.0/Modules/Drivers/Timers/HRTIM/src\hrtim.c ****                     hdp->hrtim->sCommonRegs.FLTINR3 |= (((uint32_t)hdp->fault_blnk[idx].blanking_so
 7560              		.loc 1 1238 24
 7561 1fcc 019B     		ldr	r3, [sp, #4]
 7562 1fce 1B68     		ldr	r3, [r3]
 7563              		.loc 1 1238 53
 7564 1fd0 D3F80824 		ldr	r2, [r3, #1032]
 7565              		.loc 1 1238 88
 7566 1fd4 0199     		ldr	r1, [sp, #4]
 7567 1fd6 059B     		ldr	r3, [sp, #20]
 7568 1fd8 1B01     		lsls	r3, r3, #4
 7569 1fda 0B44     		add	r3, r3, r1
 7570 1fdc 03F52763 		add	r3, r3, #2672
 7571 1fe0 1B68     		ldr	r3, [r3]
 7572              		.loc 1 1238 105
 7573 1fe2 5B06     		lsls	r3, r3, #25
 7574              		.loc 1 1238 53
 7575 1fe4 1A43     		orrs	r2, r2, r3
 7576              		.loc 1 1238 24
 7577 1fe6 019B     		ldr	r3, [sp, #4]
 7578 1fe8 1B68     		ldr	r3, [r3]
 7579              		.loc 1 1238 53
 7580 1fea 42F08072 		orr	r2, r2, #16777216
 7581 1fee C3F80824 		str	r2, [r3, #1032]
 7582              	.L237:
1239:C:/StellarStudio-7.0/SDKS/StellarESDK-1.7.0/Modules/Drivers/Timers/HRTIM/src\hrtim.c ****                 }
1240:C:/StellarStudio-7.0/SDKS/StellarESDK-1.7.0/Modules/Drivers/Timers/HRTIM/src\hrtim.c ****                 if (hdp->fault[idx].enable == true) {
 7583              		.loc 1 1240 36
 7584 1ff2 0199     		ldr	r1, [sp, #4]
 7585 1ff4 059A     		ldr	r2, [sp, #20]
 7586 1ff6 1346     		mov	r3, r2
 7587 1ff8 9B00     		lsls	r3, r3, #2
 7588 1ffa 1344     		add	r3, r3, r2
 7589 1ffc 9B00     		lsls	r3, r3, #2
 7590 1ffe 0B44     		add	r3, r3, r1
 7591 2000 03F6E913 		addw	r3, r3, #2537
 7592 2004 1B78     		ldrb	r3, [r3]	@ zero_extendqisi2
 7593              		.loc 1 1240 20
 7594 2006 002B     		cmp	r3, #0
 7595 2008 04D0     		beq	.L238
1241:C:/StellarStudio-7.0/SDKS/StellarESDK-1.7.0/Modules/Drivers/Timers/HRTIM/src\hrtim.c ****                     hrtim_fltinr1 |= HRTIM_FLTINR1_FLT4E;
 7596              		.loc 1 1241 35
 7597 200a 079B     		ldr	r3, [sp, #28]
 7598 200c 43F08073 		orr	r3, r3, #16777216
 7599 2010 0793     		str	r3, [sp, #28]
1242:C:/StellarStudio-7.0/SDKS/StellarESDK-1.7.0/Modules/Drivers/Timers/HRTIM/src\hrtim.c ****                 } else {
1243:C:/StellarStudio-7.0/SDKS/StellarESDK-1.7.0/Modules/Drivers/Timers/HRTIM/src\hrtim.c ****                     hrtim_fltinr1 &= ~HRTIM_FLTINR1_FLT4E;
1244:C:/StellarStudio-7.0/SDKS/StellarESDK-1.7.0/Modules/Drivers/Timers/HRTIM/src\hrtim.c ****                 }
1245:C:/StellarStudio-7.0/SDKS/StellarESDK-1.7.0/Modules/Drivers/Timers/HRTIM/src\hrtim.c ****                 break;
 7600              		.loc 1 1245 17
 7601 2012 46E1     		b	.L230
 7602              	.L238:
1243:C:/StellarStudio-7.0/SDKS/StellarESDK-1.7.0/Modules/Drivers/Timers/HRTIM/src\hrtim.c ****                 }
 7603              		.loc 1 1243 35
 7604 2014 079B     		ldr	r3, [sp, #28]
 7605 2016 23F08073 		bic	r3, r3, #16777216
 7606 201a 0793     		str	r3, [sp, #28]
 7607              		.loc 1 1245 17
 7608 201c 41E1     		b	.L230
 7609              	.L222:
1246:C:/StellarStudio-7.0/SDKS/StellarESDK-1.7.0/Modules/Drivers/Timers/HRTIM/src\hrtim.c ****             case HRTIM_FAULT_5:
1247:C:/StellarStudio-7.0/SDKS/StellarESDK-1.7.0/Modules/Drivers/Timers/HRTIM/src\hrtim.c ****                 hrtim_fltinr2 &= ~(HRTIM_FLTINR2_FLT5P | HRTIM_FLTINR2_FLT5SRC_0 | HRTIM_FLTINR2_FL
 7610              		.loc 1 1247 31
 7611 201e 069B     		ldr	r3, [sp, #24]
 7612 2020 23F0FE03 		bic	r3, r3, #254
 7613 2024 0693     		str	r3, [sp, #24]
1248:C:/StellarStudio-7.0/SDKS/StellarESDK-1.7.0/Modules/Drivers/Timers/HRTIM/src\hrtim.c ****                 hrtim_fltinr2 |= (hdp->fault[idx].polarity & HRTIM_FLTINR2_FLT5P);
 7614              		.loc 1 1248 50
 7615 2026 0199     		ldr	r1, [sp, #4]
 7616 2028 059A     		ldr	r2, [sp, #20]
 7617 202a 1346     		mov	r3, r2
 7618 202c 9B00     		lsls	r3, r3, #2
 7619 202e 1344     		add	r3, r3, r2
 7620 2030 9B00     		lsls	r3, r3, #2
 7621 2032 0B44     		add	r3, r3, r1
 7622 2034 03F51F63 		add	r3, r3, #2544
 7623 2038 1B68     		ldr	r3, [r3]
 7624              		.loc 1 1248 60
 7625 203a 03F00203 		and	r3, r3, #2
 7626              		.loc 1 1248 31
 7627 203e 069A     		ldr	r2, [sp, #24]
 7628 2040 1343     		orrs	r3, r3, r2
 7629 2042 0693     		str	r3, [sp, #24]
1249:C:/StellarStudio-7.0/SDKS/StellarESDK-1.7.0/Modules/Drivers/Timers/HRTIM/src\hrtim.c ****                 hrtim_fltinr2 |= (source0 << HRTIM_FLTINR2_FLT5SRC_0_Pos);
 7630              		.loc 1 1249 43
 7631 2044 049B     		ldr	r3, [sp, #16]
 7632 2046 9B00     		lsls	r3, r3, #2
 7633              		.loc 1 1249 31
 7634 2048 069A     		ldr	r2, [sp, #24]
 7635 204a 1343     		orrs	r3, r3, r2
 7636 204c 0693     		str	r3, [sp, #24]
1250:C:/StellarStudio-7.0/SDKS/StellarESDK-1.7.0/Modules/Drivers/Timers/HRTIM/src\hrtim.c ****                 hrtim_fltinr2 &= ~(HRTIM_FLTINR2_FLT5SRC_1);
 7637              		.loc 1 1250 31
 7638 204e 069B     		ldr	r3, [sp, #24]
 7639 2050 23F48013 		bic	r3, r3, #1048576
 7640 2054 0693     		str	r3, [sp, #24]
1251:C:/StellarStudio-7.0/SDKS/StellarESDK-1.7.0/Modules/Drivers/Timers/HRTIM/src\hrtim.c ****                 hrtim_fltinr2 |= (source1 << HRTIM_FLTINR2_FLT5SRC_1_Pos);
 7641              		.loc 1 1251 43
 7642 2056 039B     		ldr	r3, [sp, #12]
 7643 2058 1B05     		lsls	r3, r3, #20
 7644              		.loc 1 1251 31
 7645 205a 069A     		ldr	r2, [sp, #24]
 7646 205c 1343     		orrs	r3, r3, r2
 7647 205e 0693     		str	r3, [sp, #24]
1252:C:/StellarStudio-7.0/SDKS/StellarESDK-1.7.0/Modules/Drivers/Timers/HRTIM/src\hrtim.c ****                 hrtim_fltinr2 |= (hdp->fault[idx].filter & HRTIM_FLTINR2_FLT5F);
 7648              		.loc 1 1252 50
 7649 2060 0199     		ldr	r1, [sp, #4]
 7650 2062 059A     		ldr	r2, [sp, #20]
 7651 2064 1346     		mov	r3, r2
 7652 2066 9B00     		lsls	r3, r3, #2
 7653 2068 1344     		add	r3, r3, r2
 7654 206a 9B00     		lsls	r3, r3, #2
 7655 206c 0B44     		add	r3, r3, r1
 7656 206e 03F6F413 		addw	r3, r3, #2548
 7657 2072 1B68     		ldr	r3, [r3]
 7658              		.loc 1 1252 58
 7659 2074 03F07803 		and	r3, r3, #120
 7660              		.loc 1 1252 31
 7661 2078 069A     		ldr	r2, [sp, #24]
 7662 207a 1343     		orrs	r3, r3, r2
 7663 207c 0693     		str	r3, [sp, #24]
1253:C:/StellarStudio-7.0/SDKS/StellarESDK-1.7.0/Modules/Drivers/Timers/HRTIM/src\hrtim.c ****                 hrtim_fltinr2 |= (hdp->fault[idx].lock & HRTIM_FLTINR2_FLT5LCK);
 7664              		.loc 1 1253 50
 7665 207e 0199     		ldr	r1, [sp, #4]
 7666 2080 059A     		ldr	r2, [sp, #20]
 7667 2082 1346     		mov	r3, r2
 7668 2084 9B00     		lsls	r3, r3, #2
 7669 2086 1344     		add	r3, r3, r2
 7670 2088 9B00     		lsls	r3, r3, #2
 7671 208a 0B44     		add	r3, r3, r1
 7672 208c 03F6F813 		addw	r3, r3, #2552
 7673 2090 1B68     		ldr	r3, [r3]
 7674              		.loc 1 1253 56
 7675 2092 03F08003 		and	r3, r3, #128
 7676              		.loc 1 1253 31
 7677 2096 069A     		ldr	r2, [sp, #24]
 7678 2098 1343     		orrs	r3, r3, r2
 7679 209a 0693     		str	r3, [sp, #24]
1254:C:/StellarStudio-7.0/SDKS/StellarESDK-1.7.0/Modules/Drivers/Timers/HRTIM/src\hrtim.c ****                 hdp->hrtim->sCommonRegs.FLTINR4 &=~ (HRTIM_FLTINR4_FLT5RSTM | HRTIM_FLTINR4_FLT5CNT
 7680              		.loc 1 1254 20
 7681 209c 019B     		ldr	r3, [sp, #4]
 7682 209e 1B68     		ldr	r3, [r3]
 7683              		.loc 1 1254 49
 7684 20a0 D3F80C24 		ldr	r2, [r3, #1036]
 7685              		.loc 1 1254 20
 7686 20a4 019B     		ldr	r3, [sp, #4]
 7687 20a6 1B68     		ldr	r3, [r3]
 7688              		.loc 1 1254 49
 7689 20a8 22F0BC02 		bic	r2, r2, #188
 7690 20ac C3F80C24 		str	r2, [r3, #1036]
1255:C:/StellarStudio-7.0/SDKS/StellarESDK-1.7.0/Modules/Drivers/Timers/HRTIM/src\hrtim.c ****                 hdp->hrtim->sCommonRegs.FLTINR4 |= (((uint32_t)hdp->fault_blnk[idx].threshold << HR
 7691              		.loc 1 1255 20
 7692 20b0 019B     		ldr	r3, [sp, #4]
 7693 20b2 1B68     		ldr	r3, [r3]
 7694              		.loc 1 1255 49
 7695 20b4 D3F80C14 		ldr	r1, [r3, #1036]
 7696              		.loc 1 1255 84
 7697 20b8 019A     		ldr	r2, [sp, #4]
 7698 20ba 059B     		ldr	r3, [sp, #20]
 7699 20bc A633     		adds	r3, r3, #166
 7700 20be 1B01     		lsls	r3, r3, #4
 7701 20c0 1344     		add	r3, r3, r2
 7702 20c2 0433     		adds	r3, r3, #4
 7703 20c4 1B68     		ldr	r3, [r3]
 7704              		.loc 1 1255 95
 7705 20c6 9A00     		lsls	r2, r3, #2
1256:C:/StellarStudio-7.0/SDKS/StellarESDK-1.7.0/Modules/Drivers/Timers/HRTIM/src\hrtim.c ****                                                     ((uint32_t)hdp->fault_blnk[idx].reset_mode << H
 7706              		.loc 1 1256 84
 7707 20c8 0198     		ldr	r0, [sp, #4]
 7708 20ca 059B     		ldr	r3, [sp, #20]
 7709 20cc A633     		adds	r3, r3, #166
 7710 20ce 1B01     		lsls	r3, r3, #4
 7711 20d0 0344     		add	r3, r3, r0
 7712 20d2 0833     		adds	r3, r3, #8
 7713 20d4 1B68     		ldr	r3, [r3]
 7714              		.loc 1 1256 96
 7715 20d6 DB01     		lsls	r3, r3, #7
1255:C:/StellarStudio-7.0/SDKS/StellarESDK-1.7.0/Modules/Drivers/Timers/HRTIM/src\hrtim.c ****                 hdp->hrtim->sCommonRegs.FLTINR4 |= (((uint32_t)hdp->fault_blnk[idx].threshold << HR
 7716              		.loc 1 1255 125
 7717 20d8 1A43     		orrs	r2, r2, r3
1255:C:/StellarStudio-7.0/SDKS/StellarESDK-1.7.0/Modules/Drivers/Timers/HRTIM/src\hrtim.c ****                 hdp->hrtim->sCommonRegs.FLTINR4 |= (((uint32_t)hdp->fault_blnk[idx].threshold << HR
 7718              		.loc 1 1255 20
 7719 20da 019B     		ldr	r3, [sp, #4]
 7720 20dc 1B68     		ldr	r3, [r3]
1255:C:/StellarStudio-7.0/SDKS/StellarESDK-1.7.0/Modules/Drivers/Timers/HRTIM/src\hrtim.c ****                 hdp->hrtim->sCommonRegs.FLTINR4 |= (((uint32_t)hdp->fault_blnk[idx].threshold << HR
 7721              		.loc 1 1255 49
 7722 20de 0A43     		orrs	r2, r2, r1
 7723 20e0 C3F80C24 		str	r2, [r3, #1036]
1257:C:/StellarStudio-7.0/SDKS/StellarESDK-1.7.0/Modules/Drivers/Timers/HRTIM/src\hrtim.c ****                 hdp->hrtim->sCommonRegs.FLTINR4 &= ~(HRTIM_FLTINR4_FLT5BLKS | HRTIM_FLTINR4_FLT5BLK
 7724              		.loc 1 1257 20
 7725 20e4 019B     		ldr	r3, [sp, #4]
 7726 20e6 1B68     		ldr	r3, [r3]
 7727              		.loc 1 1257 49
 7728 20e8 D3F80C24 		ldr	r2, [r3, #1036]
 7729              		.loc 1 1257 20
 7730 20ec 019B     		ldr	r3, [sp, #4]
 7731 20ee 1B68     		ldr	r3, [r3]
 7732              		.loc 1 1257 49
 7733 20f0 22F00302 		bic	r2, r2, #3
 7734 20f4 C3F80C24 		str	r2, [r3, #1036]
1258:C:/StellarStudio-7.0/SDKS/StellarESDK-1.7.0/Modules/Drivers/Timers/HRTIM/src\hrtim.c ****                 if (hdp->fault_blnk[idx].blanking_enable == true) {
 7735              		.loc 1 1258 41
 7736 20f8 019A     		ldr	r2, [sp, #4]
 7737 20fa 059B     		ldr	r3, [sp, #20]
 7738 20fc 1B01     		lsls	r3, r3, #4
 7739 20fe 1344     		add	r3, r3, r2
 7740 2100 03F66C23 		addw	r3, r3, #2668
 7741 2104 1B78     		ldrb	r3, [r3]	@ zero_extendqisi2
 7742              		.loc 1 1258 20
 7743 2106 002B     		cmp	r3, #0
 7744 2108 12D0     		beq	.L240
1259:C:/StellarStudio-7.0/SDKS/StellarESDK-1.7.0/Modules/Drivers/Timers/HRTIM/src\hrtim.c ****                     hdp->hrtim->sCommonRegs.FLTINR4 |= (((uint32_t)hdp->fault_blnk[idx].blanking_so
 7745              		.loc 1 1259 24
 7746 210a 019B     		ldr	r3, [sp, #4]
 7747 210c 1B68     		ldr	r3, [r3]
 7748              		.loc 1 1259 53
 7749 210e D3F80C24 		ldr	r2, [r3, #1036]
 7750              		.loc 1 1259 88
 7751 2112 0199     		ldr	r1, [sp, #4]
 7752 2114 059B     		ldr	r3, [sp, #20]
 7753 2116 1B01     		lsls	r3, r3, #4
 7754 2118 0B44     		add	r3, r3, r1
 7755 211a 03F52763 		add	r3, r3, #2672
 7756 211e 1B68     		ldr	r3, [r3]
 7757              		.loc 1 1259 105
 7758 2120 5B00     		lsls	r3, r3, #1
 7759              		.loc 1 1259 53
 7760 2122 1A43     		orrs	r2, r2, r3
 7761              		.loc 1 1259 24
 7762 2124 019B     		ldr	r3, [sp, #4]
 7763 2126 1B68     		ldr	r3, [r3]
 7764              		.loc 1 1259 53
 7765 2128 42F00102 		orr	r2, r2, #1
 7766 212c C3F80C24 		str	r2, [r3, #1036]
 7767              	.L240:
1260:C:/StellarStudio-7.0/SDKS/StellarESDK-1.7.0/Modules/Drivers/Timers/HRTIM/src\hrtim.c ****                 }
1261:C:/StellarStudio-7.0/SDKS/StellarESDK-1.7.0/Modules/Drivers/Timers/HRTIM/src\hrtim.c ****                 if (hdp->fault[idx].enable == true) {
 7768              		.loc 1 1261 36
 7769 2130 0199     		ldr	r1, [sp, #4]
 7770 2132 059A     		ldr	r2, [sp, #20]
 7771 2134 1346     		mov	r3, r2
 7772 2136 9B00     		lsls	r3, r3, #2
 7773 2138 1344     		add	r3, r3, r2
 7774 213a 9B00     		lsls	r3, r3, #2
 7775 213c 0B44     		add	r3, r3, r1
 7776 213e 03F6E913 		addw	r3, r3, #2537
 7777 2142 1B78     		ldrb	r3, [r3]	@ zero_extendqisi2
 7778              		.loc 1 1261 20
 7779 2144 002B     		cmp	r3, #0
 7780 2146 04D0     		beq	.L241
1262:C:/StellarStudio-7.0/SDKS/StellarESDK-1.7.0/Modules/Drivers/Timers/HRTIM/src\hrtim.c ****                     hrtim_fltinr2 |= HRTIM_FLTINR2_FLT5E;
 7781              		.loc 1 1262 35
 7782 2148 069B     		ldr	r3, [sp, #24]
 7783 214a 43F00103 		orr	r3, r3, #1
 7784 214e 0693     		str	r3, [sp, #24]
1263:C:/StellarStudio-7.0/SDKS/StellarESDK-1.7.0/Modules/Drivers/Timers/HRTIM/src\hrtim.c ****                 } else {
1264:C:/StellarStudio-7.0/SDKS/StellarESDK-1.7.0/Modules/Drivers/Timers/HRTIM/src\hrtim.c ****                     hrtim_fltinr2 &= ~HRTIM_FLTINR2_FLT5E;
1265:C:/StellarStudio-7.0/SDKS/StellarESDK-1.7.0/Modules/Drivers/Timers/HRTIM/src\hrtim.c ****                 }
1266:C:/StellarStudio-7.0/SDKS/StellarESDK-1.7.0/Modules/Drivers/Timers/HRTIM/src\hrtim.c ****                 break;
 7785              		.loc 1 1266 17
 7786 2150 A7E0     		b	.L230
 7787              	.L241:
1264:C:/StellarStudio-7.0/SDKS/StellarESDK-1.7.0/Modules/Drivers/Timers/HRTIM/src\hrtim.c ****                 }
 7788              		.loc 1 1264 35
 7789 2152 069B     		ldr	r3, [sp, #24]
 7790 2154 23F00103 		bic	r3, r3, #1
 7791 2158 0693     		str	r3, [sp, #24]
 7792              		.loc 1 1266 17
 7793 215a A2E0     		b	.L230
 7794              	.L220:
1267:C:/StellarStudio-7.0/SDKS/StellarESDK-1.7.0/Modules/Drivers/Timers/HRTIM/src\hrtim.c ****             case HRTIM_FAULT_6:
1268:C:/StellarStudio-7.0/SDKS/StellarESDK-1.7.0/Modules/Drivers/Timers/HRTIM/src\hrtim.c ****                 hrtim_fltinr2 &= ~(HRTIM_FLTINR2_FLT6P | HRTIM_FLTINR2_FLT6SRC_0 | HRTIM_FLTINR2_FL
 7795              		.loc 1 1268 31
 7796 215c 069B     		ldr	r3, [sp, #24]
 7797 215e 23F47E43 		bic	r3, r3, #65024
 7798 2162 0693     		str	r3, [sp, #24]
1269:C:/StellarStudio-7.0/SDKS/StellarESDK-1.7.0/Modules/Drivers/Timers/HRTIM/src\hrtim.c ****                 hrtim_fltinr2 |= ((hdp->fault[idx].polarity << 8U) & HRTIM_FLTINR2_FLT6P);
 7799              		.loc 1 1269 51
 7800 2164 0199     		ldr	r1, [sp, #4]
 7801 2166 059A     		ldr	r2, [sp, #20]
 7802 2168 1346     		mov	r3, r2
 7803 216a 9B00     		lsls	r3, r3, #2
 7804 216c 1344     		add	r3, r3, r2
 7805 216e 9B00     		lsls	r3, r3, #2
 7806 2170 0B44     		add	r3, r3, r1
 7807 2172 03F51F63 		add	r3, r3, #2544
 7808 2176 1B68     		ldr	r3, [r3]
 7809              		.loc 1 1269 61
 7810 2178 1B02     		lsls	r3, r3, #8
 7811              		.loc 1 1269 68
 7812 217a 03F40073 		and	r3, r3, #512
 7813              		.loc 1 1269 31
 7814 217e 069A     		ldr	r2, [sp, #24]
 7815 2180 1343     		orrs	r3, r3, r2
 7816 2182 0693     		str	r3, [sp, #24]
1270:C:/StellarStudio-7.0/SDKS/StellarESDK-1.7.0/Modules/Drivers/Timers/HRTIM/src\hrtim.c ****                 hrtim_fltinr2 |= (source0 << HRTIM_FLTINR2_FLT6SRC_0_Pos);
 7817              		.loc 1 1270 43
 7818 2184 049B     		ldr	r3, [sp, #16]
 7819 2186 9B02     		lsls	r3, r3, #10
 7820              		.loc 1 1270 31
 7821 2188 069A     		ldr	r2, [sp, #24]
 7822 218a 1343     		orrs	r3, r3, r2
 7823 218c 0693     		str	r3, [sp, #24]
1271:C:/StellarStudio-7.0/SDKS/StellarESDK-1.7.0/Modules/Drivers/Timers/HRTIM/src\hrtim.c ****                 hrtim_fltinr2 &= ~(HRTIM_FLTINR2_FLT6SRC_1);
 7824              		.loc 1 1271 31
 7825 218e 069B     		ldr	r3, [sp, #24]
 7826 2190 23F40013 		bic	r3, r3, #2097152
 7827 2194 0693     		str	r3, [sp, #24]
1272:C:/StellarStudio-7.0/SDKS/StellarESDK-1.7.0/Modules/Drivers/Timers/HRTIM/src\hrtim.c ****                 hrtim_fltinr2 |= (source1 << HRTIM_FLTINR2_FLT6SRC_1_Pos);
 7828              		.loc 1 1272 43
 7829 2196 039B     		ldr	r3, [sp, #12]
 7830 2198 5B05     		lsls	r3, r3, #21
 7831              		.loc 1 1272 31
 7832 219a 069A     		ldr	r2, [sp, #24]
 7833 219c 1343     		orrs	r3, r3, r2
 7834 219e 0693     		str	r3, [sp, #24]
1273:C:/StellarStudio-7.0/SDKS/StellarESDK-1.7.0/Modules/Drivers/Timers/HRTIM/src\hrtim.c ****                 hrtim_fltinr2 |= ((hdp->fault[idx].filter << 8U) & HRTIM_FLTINR2_FLT6F);
 7835              		.loc 1 1273 51
 7836 21a0 0199     		ldr	r1, [sp, #4]
 7837 21a2 059A     		ldr	r2, [sp, #20]
 7838 21a4 1346     		mov	r3, r2
 7839 21a6 9B00     		lsls	r3, r3, #2
 7840 21a8 1344     		add	r3, r3, r2
 7841 21aa 9B00     		lsls	r3, r3, #2
 7842 21ac 0B44     		add	r3, r3, r1
 7843 21ae 03F6F413 		addw	r3, r3, #2548
 7844 21b2 1B68     		ldr	r3, [r3]
 7845              		.loc 1 1273 59
 7846 21b4 1B02     		lsls	r3, r3, #8
 7847              		.loc 1 1273 66
 7848 21b6 03F4F043 		and	r3, r3, #30720
 7849              		.loc 1 1273 31
 7850 21ba 069A     		ldr	r2, [sp, #24]
 7851 21bc 1343     		orrs	r3, r3, r2
 7852 21be 0693     		str	r3, [sp, #24]
1274:C:/StellarStudio-7.0/SDKS/StellarESDK-1.7.0/Modules/Drivers/Timers/HRTIM/src\hrtim.c ****                 hrtim_fltinr2 |= ((hdp->fault[idx].lock << 8U) & HRTIM_FLTINR2_FLT6LCK);
 7853              		.loc 1 1274 51
 7854 21c0 0199     		ldr	r1, [sp, #4]
 7855 21c2 059A     		ldr	r2, [sp, #20]
 7856 21c4 1346     		mov	r3, r2
 7857 21c6 9B00     		lsls	r3, r3, #2
 7858 21c8 1344     		add	r3, r3, r2
 7859 21ca 9B00     		lsls	r3, r3, #2
 7860 21cc 0B44     		add	r3, r3, r1
 7861 21ce 03F6F813 		addw	r3, r3, #2552
 7862 21d2 1B68     		ldr	r3, [r3]
 7863              		.loc 1 1274 57
 7864 21d4 1B02     		lsls	r3, r3, #8
 7865              		.loc 1 1274 64
 7866 21d6 03F40043 		and	r3, r3, #32768
 7867              		.loc 1 1274 31
 7868 21da 069A     		ldr	r2, [sp, #24]
 7869 21dc 1343     		orrs	r3, r3, r2
 7870 21de 0693     		str	r3, [sp, #24]
1275:C:/StellarStudio-7.0/SDKS/StellarESDK-1.7.0/Modules/Drivers/Timers/HRTIM/src\hrtim.c ****                 hdp->hrtim->sCommonRegs.FLTINR4 &=~ (HRTIM_FLTINR4_FLT6RSTM | HRTIM_FLTINR4_FLT6CNT
 7871              		.loc 1 1275 20
 7872 21e0 019B     		ldr	r3, [sp, #4]
 7873 21e2 1B68     		ldr	r3, [r3]
 7874              		.loc 1 1275 49
 7875 21e4 D3F80C24 		ldr	r2, [r3, #1036]
 7876              		.loc 1 1275 20
 7877 21e8 019B     		ldr	r3, [sp, #4]
 7878 21ea 1B68     		ldr	r3, [r3]
 7879              		.loc 1 1275 49
 7880 21ec 22F43C42 		bic	r2, r2, #48128
 7881 21f0 C3F80C24 		str	r2, [r3, #1036]
1276:C:/StellarStudio-7.0/SDKS/StellarESDK-1.7.0/Modules/Drivers/Timers/HRTIM/src\hrtim.c ****                 hdp->hrtim->sCommonRegs.FLTINR4 |= (((uint32_t)hdp->fault_blnk[idx].threshold << HR
 7882              		.loc 1 1276 20
 7883 21f4 019B     		ldr	r3, [sp, #4]
 7884 21f6 1B68     		ldr	r3, [r3]
 7885              		.loc 1 1276 49
 7886 21f8 D3F80C14 		ldr	r1, [r3, #1036]
 7887              		.loc 1 1276 84
 7888 21fc 019A     		ldr	r2, [sp, #4]
 7889 21fe 059B     		ldr	r3, [sp, #20]
 7890 2200 A633     		adds	r3, r3, #166
 7891 2202 1B01     		lsls	r3, r3, #4
 7892 2204 1344     		add	r3, r3, r2
 7893 2206 0433     		adds	r3, r3, #4
 7894 2208 1B68     		ldr	r3, [r3]
 7895              		.loc 1 1276 95
 7896 220a 9A02     		lsls	r2, r3, #10
1277:C:/StellarStudio-7.0/SDKS/StellarESDK-1.7.0/Modules/Drivers/Timers/HRTIM/src\hrtim.c ****                                                     ((uint32_t)hdp->fault_blnk[idx].reset_mode << H
 7897              		.loc 1 1277 84
 7898 220c 0198     		ldr	r0, [sp, #4]
 7899 220e 059B     		ldr	r3, [sp, #20]
 7900 2210 A633     		adds	r3, r3, #166
 7901 2212 1B01     		lsls	r3, r3, #4
 7902 2214 0344     		add	r3, r3, r0
 7903 2216 0833     		adds	r3, r3, #8
 7904 2218 1B68     		ldr	r3, [r3]
 7905              		.loc 1 1277 96
 7906 221a DB03     		lsls	r3, r3, #15
1276:C:/StellarStudio-7.0/SDKS/StellarESDK-1.7.0/Modules/Drivers/Timers/HRTIM/src\hrtim.c ****                 hdp->hrtim->sCommonRegs.FLTINR4 |= (((uint32_t)hdp->fault_blnk[idx].threshold << HR
 7907              		.loc 1 1276 125
 7908 221c 1A43     		orrs	r2, r2, r3
1276:C:/StellarStudio-7.0/SDKS/StellarESDK-1.7.0/Modules/Drivers/Timers/HRTIM/src\hrtim.c ****                 hdp->hrtim->sCommonRegs.FLTINR4 |= (((uint32_t)hdp->fault_blnk[idx].threshold << HR
 7909              		.loc 1 1276 20
 7910 221e 019B     		ldr	r3, [sp, #4]
 7911 2220 1B68     		ldr	r3, [r3]
1276:C:/StellarStudio-7.0/SDKS/StellarESDK-1.7.0/Modules/Drivers/Timers/HRTIM/src\hrtim.c ****                 hdp->hrtim->sCommonRegs.FLTINR4 |= (((uint32_t)hdp->fault_blnk[idx].threshold << HR
 7912              		.loc 1 1276 49
 7913 2222 0A43     		orrs	r2, r2, r1
 7914 2224 C3F80C24 		str	r2, [r3, #1036]
1278:C:/StellarStudio-7.0/SDKS/StellarESDK-1.7.0/Modules/Drivers/Timers/HRTIM/src\hrtim.c ****                 hdp->hrtim->sCommonRegs.FLTINR4 &= ~(HRTIM_FLTINR4_FLT6BLKS | HRTIM_FLTINR4_FLT6BLK
 7915              		.loc 1 1278 20
 7916 2228 019B     		ldr	r3, [sp, #4]
 7917 222a 1B68     		ldr	r3, [r3]
 7918              		.loc 1 1278 49
 7919 222c D3F80C24 		ldr	r2, [r3, #1036]
 7920              		.loc 1 1278 20
 7921 2230 019B     		ldr	r3, [sp, #4]
 7922 2232 1B68     		ldr	r3, [r3]
 7923              		.loc 1 1278 49
 7924 2234 22F44072 		bic	r2, r2, #768
 7925 2238 C3F80C24 		str	r2, [r3, #1036]
1279:C:/StellarStudio-7.0/SDKS/StellarESDK-1.7.0/Modules/Drivers/Timers/HRTIM/src\hrtim.c ****                 if (hdp->fault_blnk[idx].blanking_enable == true) {
 7926              		.loc 1 1279 41
 7927 223c 019A     		ldr	r2, [sp, #4]
 7928 223e 059B     		ldr	r3, [sp, #20]
 7929 2240 1B01     		lsls	r3, r3, #4
 7930 2242 1344     		add	r3, r3, r2
 7931 2244 03F66C23 		addw	r3, r3, #2668
 7932 2248 1B78     		ldrb	r3, [r3]	@ zero_extendqisi2
 7933              		.loc 1 1279 20
 7934 224a 002B     		cmp	r3, #0
 7935 224c 12D0     		beq	.L243
1280:C:/StellarStudio-7.0/SDKS/StellarESDK-1.7.0/Modules/Drivers/Timers/HRTIM/src\hrtim.c ****                     hdp->hrtim->sCommonRegs.FLTINR4 |= (((uint32_t)hdp->fault_blnk[idx].blanking_so
 7936              		.loc 1 1280 24
 7937 224e 019B     		ldr	r3, [sp, #4]
 7938 2250 1B68     		ldr	r3, [r3]
 7939              		.loc 1 1280 53
 7940 2252 D3F80C24 		ldr	r2, [r3, #1036]
 7941              		.loc 1 1280 88
 7942 2256 0199     		ldr	r1, [sp, #4]
 7943 2258 059B     		ldr	r3, [sp, #20]
 7944 225a 1B01     		lsls	r3, r3, #4
 7945 225c 0B44     		add	r3, r3, r1
 7946 225e 03F52763 		add	r3, r3, #2672
 7947 2262 1B68     		ldr	r3, [r3]
 7948              		.loc 1 1280 105
 7949 2264 5B02     		lsls	r3, r3, #9
 7950              		.loc 1 1280 53
 7951 2266 1A43     		orrs	r2, r2, r3
 7952              		.loc 1 1280 24
 7953 2268 019B     		ldr	r3, [sp, #4]
 7954 226a 1B68     		ldr	r3, [r3]
 7955              		.loc 1 1280 53
 7956 226c 42F48072 		orr	r2, r2, #256
 7957 2270 C3F80C24 		str	r2, [r3, #1036]
 7958              	.L243:
1281:C:/StellarStudio-7.0/SDKS/StellarESDK-1.7.0/Modules/Drivers/Timers/HRTIM/src\hrtim.c ****                 }
1282:C:/StellarStudio-7.0/SDKS/StellarESDK-1.7.0/Modules/Drivers/Timers/HRTIM/src\hrtim.c ****                 if (hdp->fault[idx].enable == true) {
 7959              		.loc 1 1282 36
 7960 2274 0199     		ldr	r1, [sp, #4]
 7961 2276 059A     		ldr	r2, [sp, #20]
 7962 2278 1346     		mov	r3, r2
 7963 227a 9B00     		lsls	r3, r3, #2
 7964 227c 1344     		add	r3, r3, r2
 7965 227e 9B00     		lsls	r3, r3, #2
 7966 2280 0B44     		add	r3, r3, r1
 7967 2282 03F6E913 		addw	r3, r3, #2537
 7968 2286 1B78     		ldrb	r3, [r3]	@ zero_extendqisi2
 7969              		.loc 1 1282 20
 7970 2288 002B     		cmp	r3, #0
 7971 228a 04D0     		beq	.L244
1283:C:/StellarStudio-7.0/SDKS/StellarESDK-1.7.0/Modules/Drivers/Timers/HRTIM/src\hrtim.c ****                     hrtim_fltinr2 |= HRTIM_FLTINR2_FLT6E;
 7972              		.loc 1 1283 35
 7973 228c 069B     		ldr	r3, [sp, #24]
 7974 228e 43F48073 		orr	r3, r3, #256
 7975 2292 0693     		str	r3, [sp, #24]
1284:C:/StellarStudio-7.0/SDKS/StellarESDK-1.7.0/Modules/Drivers/Timers/HRTIM/src\hrtim.c ****                 } else {
1285:C:/StellarStudio-7.0/SDKS/StellarESDK-1.7.0/Modules/Drivers/Timers/HRTIM/src\hrtim.c ****                     hrtim_fltinr2 &= ~HRTIM_FLTINR2_FLT6E;
1286:C:/StellarStudio-7.0/SDKS/StellarESDK-1.7.0/Modules/Drivers/Timers/HRTIM/src\hrtim.c ****                 }
1287:C:/StellarStudio-7.0/SDKS/StellarESDK-1.7.0/Modules/Drivers/Timers/HRTIM/src\hrtim.c ****                 break;
 7976              		.loc 1 1287 17
 7977 2294 05E0     		b	.L230
 7978              	.L244:
1285:C:/StellarStudio-7.0/SDKS/StellarESDK-1.7.0/Modules/Drivers/Timers/HRTIM/src\hrtim.c ****                 }
 7979              		.loc 1 1285 35
 7980 2296 069B     		ldr	r3, [sp, #24]
 7981 2298 23F48073 		bic	r3, r3, #256
 7982 229c 0693     		str	r3, [sp, #24]
 7983              		.loc 1 1287 17
 7984 229e 00E0     		b	.L230
 7985              	.L267:
1288:C:/StellarStudio-7.0/SDKS/StellarESDK-1.7.0/Modules/Drivers/Timers/HRTIM/src\hrtim.c ****             case HRTIM_NO_FAULT:
1289:C:/StellarStudio-7.0/SDKS/StellarESDK-1.7.0/Modules/Drivers/Timers/HRTIM/src\hrtim.c ****             default:
1290:C:/StellarStudio-7.0/SDKS/StellarESDK-1.7.0/Modules/Drivers/Timers/HRTIM/src\hrtim.c ****                 /* for MISRA compliance */
1291:C:/StellarStudio-7.0/SDKS/StellarESDK-1.7.0/Modules/Drivers/Timers/HRTIM/src\hrtim.c ****                 break;
 7986              		.loc 1 1291 17
 7987 22a0 00BF     		nop
 7988              	.L230:
1157:C:/StellarStudio-7.0/SDKS/StellarESDK-1.7.0/Modules/Drivers/Timers/HRTIM/src\hrtim.c ****         source0 =  (hdp->fault[idx].source & 1U);
 7989              		.loc 1 1157 46 discriminator 2
 7990 22a2 059B     		ldr	r3, [sp, #20]
 7991 22a4 0133     		adds	r3, r3, #1
 7992 22a6 0593     		str	r3, [sp, #20]
 7993              	.L218:
1157:C:/StellarStudio-7.0/SDKS/StellarESDK-1.7.0/Modules/Drivers/Timers/HRTIM/src\hrtim.c ****         source0 =  (hdp->fault[idx].source & 1U);
 7994              		.loc 1 1157 5 discriminator 1
 7995 22a8 059B     		ldr	r3, [sp, #20]
 7996 22aa 052B     		cmp	r3, #5
 7997 22ac 7FF6FBAB 		bls	.L246
1292:C:/StellarStudio-7.0/SDKS/StellarESDK-1.7.0/Modules/Drivers/Timers/HRTIM/src\hrtim.c ****         }
1293:C:/StellarStudio-7.0/SDKS/StellarESDK-1.7.0/Modules/Drivers/Timers/HRTIM/src\hrtim.c ****     }
1294:C:/StellarStudio-7.0/SDKS/StellarESDK-1.7.0/Modules/Drivers/Timers/HRTIM/src\hrtim.c **** 
1295:C:/StellarStudio-7.0/SDKS/StellarESDK-1.7.0/Modules/Drivers/Timers/HRTIM/src\hrtim.c ****     /* Update the HRTIM registers except LOCK bit.*/
1296:C:/StellarStudio-7.0/SDKS/StellarESDK-1.7.0/Modules/Drivers/Timers/HRTIM/src\hrtim.c ****     hdp->hrtim->sCommonRegs.FLTINR1 = (hrtim_fltinr1 & (~(HRTIM_FLTINR1_FLTxLCK)));
 7998              		.loc 1 1296 8
 7999 22b0 019B     		ldr	r3, [sp, #4]
 8000 22b2 1B68     		ldr	r3, [r3]
 8001              		.loc 1 1296 54
 8002 22b4 079A     		ldr	r2, [sp, #28]
 8003 22b6 02F07F32 		and	r2, r2, #2139062143
 8004              		.loc 1 1296 37
 8005 22ba C3F8D023 		str	r2, [r3, #976]
1297:C:/StellarStudio-7.0/SDKS/StellarESDK-1.7.0/Modules/Drivers/Timers/HRTIM/src\hrtim.c ****     hdp->hrtim->sCommonRegs.FLTINR2 = (hrtim_fltinr2 & (~(HRTIM_FLTINR2_FLTxLCK)));
 8006              		.loc 1 1297 8
 8007 22be 019B     		ldr	r3, [sp, #4]
 8008 22c0 1A68     		ldr	r2, [r3]
 8009              		.loc 1 1297 54
 8010 22c2 0699     		ldr	r1, [sp, #24]
 8011 22c4 8E4B     		ldr	r3, .L273
 8012 22c6 0B40     		ands	r3, r3, r1
 8013              		.loc 1 1297 37
 8014 22c8 C2F8D433 		str	r3, [r2, #980]
1298:C:/StellarStudio-7.0/SDKS/StellarESDK-1.7.0/Modules/Drivers/Timers/HRTIM/src\hrtim.c **** 
1299:C:/StellarStudio-7.0/SDKS/StellarESDK-1.7.0/Modules/Drivers/Timers/HRTIM/src\hrtim.c ****     /* Update the HRTIM registers LOCK bit.*/
1300:C:/StellarStudio-7.0/SDKS/StellarESDK-1.7.0/Modules/Drivers/Timers/HRTIM/src\hrtim.c ****     hdp->hrtim->sCommonRegs.FLTINR1 |= (hrtim_fltinr1 & HRTIM_FLTINR1_FLTxLCK);
 8015              		.loc 1 1300 8
 8016 22cc 019B     		ldr	r3, [sp, #4]
 8017 22ce 1B68     		ldr	r3, [r3]
 8018              		.loc 1 1300 37
 8019 22d0 D3F8D013 		ldr	r1, [r3, #976]
 8020              		.loc 1 1300 55
 8021 22d4 079B     		ldr	r3, [sp, #28]
 8022 22d6 03F08032 		and	r2, r3, #-2139062144
 8023              		.loc 1 1300 8
 8024 22da 019B     		ldr	r3, [sp, #4]
 8025 22dc 1B68     		ldr	r3, [r3]
 8026              		.loc 1 1300 37
 8027 22de 0A43     		orrs	r2, r2, r1
 8028 22e0 C3F8D023 		str	r2, [r3, #976]
1301:C:/StellarStudio-7.0/SDKS/StellarESDK-1.7.0/Modules/Drivers/Timers/HRTIM/src\hrtim.c ****     hdp->hrtim->sCommonRegs.FLTINR2 |= (hrtim_fltinr2 & HRTIM_FLTINR2_FLTxLCK);
 8029              		.loc 1 1301 8
 8030 22e4 019B     		ldr	r3, [sp, #4]
 8031 22e6 1B68     		ldr	r3, [r3]
 8032              		.loc 1 1301 37
 8033 22e8 D3F8D413 		ldr	r1, [r3, #980]
 8034              		.loc 1 1301 55
 8035 22ec 069A     		ldr	r2, [sp, #24]
 8036 22ee 48F28003 		movw	r3, #32896
 8037 22f2 1340     		ands	r3, r3, r2
 8038              		.loc 1 1301 8
 8039 22f4 019A     		ldr	r2, [sp, #4]
 8040 22f6 1268     		ldr	r2, [r2]
 8041              		.loc 1 1301 37
 8042 22f8 0B43     		orrs	r3, r3, r1
 8043 22fa C2F8D433 		str	r3, [r2, #980]
1302:C:/StellarStudio-7.0/SDKS/StellarESDK-1.7.0/Modules/Drivers/Timers/HRTIM/src\hrtim.c **** 
1303:C:/StellarStudio-7.0/SDKS/StellarESDK-1.7.0/Modules/Drivers/Timers/HRTIM/src\hrtim.c ****     /* Common registers configuration setup.*/
1304:C:/StellarStudio-7.0/SDKS/StellarESDK-1.7.0/Modules/Drivers/Timers/HRTIM/src\hrtim.c ****     hdp->hrtim->sCommonRegs.CR2     = 0U & ~HRTIM_CR2_CFG_FORBIDDEN;
 8044              		.loc 1 1304 8
 8045 22fe 019B     		ldr	r3, [sp, #4]
 8046 2300 1B68     		ldr	r3, [r3]
 8047              		.loc 1 1304 37
 8048 2302 0022     		movs	r2, #0
 8049 2304 C3F88423 		str	r2, [r3, #900]
1305:C:/StellarStudio-7.0/SDKS/StellarESDK-1.7.0/Modules/Drivers/Timers/HRTIM/src\hrtim.c ****     hdp->hrtim->sCommonRegs.IER     = 0U ;
 8050              		.loc 1 1305 8
 8051 2308 019B     		ldr	r3, [sp, #4]
 8052 230a 1B68     		ldr	r3, [r3]
 8053              		.loc 1 1305 37
 8054 230c 0022     		movs	r2, #0
 8055 230e C3F89023 		str	r2, [r3, #912]
1306:C:/StellarStudio-7.0/SDKS/StellarESDK-1.7.0/Modules/Drivers/Timers/HRTIM/src\hrtim.c ****     hdp->hrtim->sCommonRegs.BMCR    = 0U ;
 8056              		.loc 1 1306 8
 8057 2312 019B     		ldr	r3, [sp, #4]
 8058 2314 1B68     		ldr	r3, [r3]
 8059              		.loc 1 1306 37
 8060 2316 0022     		movs	r2, #0
 8061 2318 C3F8A023 		str	r2, [r3, #928]
1307:C:/StellarStudio-7.0/SDKS/StellarESDK-1.7.0/Modules/Drivers/Timers/HRTIM/src\hrtim.c ****     hdp->hrtim->sCommonRegs.BMTRGR  = 0U ;
 8062              		.loc 1 1307 8
 8063 231c 019B     		ldr	r3, [sp, #4]
 8064 231e 1B68     		ldr	r3, [r3]
 8065              		.loc 1 1307 37
 8066 2320 0022     		movs	r2, #0
 8067 2322 C3F8A423 		str	r2, [r3, #932]
1308:C:/StellarStudio-7.0/SDKS/StellarESDK-1.7.0/Modules/Drivers/Timers/HRTIM/src\hrtim.c ****     hdp->hrtim->sCommonRegs.BMCMPR  = 0U ;
 8068              		.loc 1 1308 8
 8069 2326 019B     		ldr	r3, [sp, #4]
 8070 2328 1B68     		ldr	r3, [r3]
 8071              		.loc 1 1308 37
 8072 232a 0022     		movs	r2, #0
 8073 232c C3F8A823 		str	r2, [r3, #936]
1309:C:/StellarStudio-7.0/SDKS/StellarESDK-1.7.0/Modules/Drivers/Timers/HRTIM/src\hrtim.c ****     hdp->hrtim->sCommonRegs.BMPER   = 0U ;
 8074              		.loc 1 1309 8
 8075 2330 019B     		ldr	r3, [sp, #4]
 8076 2332 1B68     		ldr	r3, [r3]
 8077              		.loc 1 1309 37
 8078 2334 0022     		movs	r2, #0
 8079 2336 C3F8AC23 		str	r2, [r3, #940]
1310:C:/StellarStudio-7.0/SDKS/StellarESDK-1.7.0/Modules/Drivers/Timers/HRTIM/src\hrtim.c ****     hdp->hrtim->sCommonRegs.DLLCR   = ((uint32_t)(hdp->cal_period) | HRTIM_DLLCR_CALEN) & ~HRTIM_DL
 8080              		.loc 1 1310 54
 8081 233a 019B     		ldr	r3, [sp, #4]
 8082 233c DB68     		ldr	r3, [r3, #12]
 8083              		.loc 1 1310 89
 8084 233e 23F00302 		bic	r2, r3, #3
 8085              		.loc 1 1310 8
 8086 2342 019B     		ldr	r3, [sp, #4]
 8087 2344 1B68     		ldr	r3, [r3]
 8088              		.loc 1 1310 89
 8089 2346 42F00202 		orr	r2, r2, #2
 8090              		.loc 1 1310 37
 8091 234a C3F8CC23 		str	r2, [r3, #972]
1311:C:/StellarStudio-7.0/SDKS/StellarESDK-1.7.0/Modules/Drivers/Timers/HRTIM/src\hrtim.c ****     hdp->hrtim->sCommonRegs.BDMUPR  = HRTIM_BDMUPR_MPER  | HRTIM_BDMUPR_MCMP1 |
 8092              		.loc 1 1311 8
 8093 234e 019B     		ldr	r3, [sp, #4]
 8094 2350 1B68     		ldr	r3, [r3]
 8095              		.loc 1 1311 37
 8096 2352 4FF47472 		mov	r2, #976
 8097 2356 C3F8D823 		str	r2, [r3, #984]
1312:C:/StellarStudio-7.0/SDKS/StellarESDK-1.7.0/Modules/Drivers/Timers/HRTIM/src\hrtim.c ****                                       HRTIM_BDMUPR_MCMP2 | HRTIM_BDMUPR_MCMP3 |
1313:C:/StellarStudio-7.0/SDKS/StellarESDK-1.7.0/Modules/Drivers/Timers/HRTIM/src\hrtim.c ****                                       HRTIM_BDMUPR_MCMP4;
1314:C:/StellarStudio-7.0/SDKS/StellarESDK-1.7.0/Modules/Drivers/Timers/HRTIM/src\hrtim.c ****     hdp->hrtim->sCommonRegs.BDTAUPR = HRTIM_BDTAUPR_TIMPER  | HRTIM_BDTAUPR_TIMCMP1 |
 8098              		.loc 1 1314 8
 8099 235a 019B     		ldr	r3, [sp, #4]
 8100 235c 1B68     		ldr	r3, [r3]
 8101              		.loc 1 1314 37
 8102 235e 4FF47472 		mov	r2, #976
 8103 2362 C3F8DC23 		str	r2, [r3, #988]
1315:C:/StellarStudio-7.0/SDKS/StellarESDK-1.7.0/Modules/Drivers/Timers/HRTIM/src\hrtim.c ****                                       HRTIM_BDTAUPR_TIMCMP2 | HRTIM_BDTAUPR_TIMCMP3 |
1316:C:/StellarStudio-7.0/SDKS/StellarESDK-1.7.0/Modules/Drivers/Timers/HRTIM/src\hrtim.c ****                                       HRTIM_BDTAUPR_TIMCMP4;
1317:C:/StellarStudio-7.0/SDKS/StellarESDK-1.7.0/Modules/Drivers/Timers/HRTIM/src\hrtim.c ****     hdp->hrtim->sCommonRegs.BDTBUPR = HRTIM_BDTBUPR_TIMPER  | HRTIM_BDTBUPR_TIMCMP1 |
 8104              		.loc 1 1317 8
 8105 2366 019B     		ldr	r3, [sp, #4]
 8106 2368 1B68     		ldr	r3, [r3]
 8107              		.loc 1 1317 37
 8108 236a 4FF47472 		mov	r2, #976
 8109 236e C3F8E023 		str	r2, [r3, #992]
1318:C:/StellarStudio-7.0/SDKS/StellarESDK-1.7.0/Modules/Drivers/Timers/HRTIM/src\hrtim.c ****                                       HRTIM_BDTBUPR_TIMCMP2 | HRTIM_BDTBUPR_TIMCMP3 |
1319:C:/StellarStudio-7.0/SDKS/StellarESDK-1.7.0/Modules/Drivers/Timers/HRTIM/src\hrtim.c ****                                       HRTIM_BDTBUPR_TIMCMP4;
1320:C:/StellarStudio-7.0/SDKS/StellarESDK-1.7.0/Modules/Drivers/Timers/HRTIM/src\hrtim.c ****     hdp->hrtim->sCommonRegs.BDTCUPR = HRTIM_BDTCUPR_TIMPER  | HRTIM_BDTCUPR_TIMCMP1 |
 8110              		.loc 1 1320 8
 8111 2372 019B     		ldr	r3, [sp, #4]
 8112 2374 1B68     		ldr	r3, [r3]
 8113              		.loc 1 1320 37
 8114 2376 4FF47472 		mov	r2, #976
 8115 237a C3F8E423 		str	r2, [r3, #996]
1321:C:/StellarStudio-7.0/SDKS/StellarESDK-1.7.0/Modules/Drivers/Timers/HRTIM/src\hrtim.c ****                                       HRTIM_BDTCUPR_TIMCMP2 | HRTIM_BDTCUPR_TIMCMP3 |
1322:C:/StellarStudio-7.0/SDKS/StellarESDK-1.7.0/Modules/Drivers/Timers/HRTIM/src\hrtim.c ****                                       HRTIM_BDTCUPR_TIMCMP4;
1323:C:/StellarStudio-7.0/SDKS/StellarESDK-1.7.0/Modules/Drivers/Timers/HRTIM/src\hrtim.c ****     hdp->hrtim->sCommonRegs.BDTDUPR = HRTIM_BDTDUPR_TIMPER  | HRTIM_BDTDUPR_TIMCMP1 |
 8116              		.loc 1 1323 8
 8117 237e 019B     		ldr	r3, [sp, #4]
 8118 2380 1B68     		ldr	r3, [r3]
 8119              		.loc 1 1323 37
 8120 2382 4FF47472 		mov	r2, #976
 8121 2386 C3F8E823 		str	r2, [r3, #1000]
1324:C:/StellarStudio-7.0/SDKS/StellarESDK-1.7.0/Modules/Drivers/Timers/HRTIM/src\hrtim.c ****                                       HRTIM_BDTDUPR_TIMCMP2 | HRTIM_BDTDUPR_TIMCMP3 |
1325:C:/StellarStudio-7.0/SDKS/StellarESDK-1.7.0/Modules/Drivers/Timers/HRTIM/src\hrtim.c ****                                       HRTIM_BDTDUPR_TIMCMP4;
1326:C:/StellarStudio-7.0/SDKS/StellarESDK-1.7.0/Modules/Drivers/Timers/HRTIM/src\hrtim.c ****     hdp->hrtim->sCommonRegs.BDTEUPR = HRTIM_BDTEUPR_TIMPER  | HRTIM_BDTEUPR_TIMCMP1 |
 8122              		.loc 1 1326 8
 8123 238a 019B     		ldr	r3, [sp, #4]
 8124 238c 1B68     		ldr	r3, [r3]
 8125              		.loc 1 1326 37
 8126 238e 4FF47472 		mov	r2, #976
 8127 2392 C3F8EC23 		str	r2, [r3, #1004]
1327:C:/StellarStudio-7.0/SDKS/StellarESDK-1.7.0/Modules/Drivers/Timers/HRTIM/src\hrtim.c ****                                       HRTIM_BDTEUPR_TIMCMP2 | HRTIM_BDTEUPR_TIMCMP3 |
1328:C:/StellarStudio-7.0/SDKS/StellarESDK-1.7.0/Modules/Drivers/Timers/HRTIM/src\hrtim.c ****                                       HRTIM_BDTEUPR_TIMCMP4;
1329:C:/StellarStudio-7.0/SDKS/StellarESDK-1.7.0/Modules/Drivers/Timers/HRTIM/src\hrtim.c ****     hdp->hrtim->sCommonRegs.BDTFUPR = HRTIM_BDTFUPR_TIMPER  | HRTIM_BDTFUPR_TIMCMP1 |
 8128              		.loc 1 1329 8
 8129 2396 019B     		ldr	r3, [sp, #4]
 8130 2398 1B68     		ldr	r3, [r3]
 8131              		.loc 1 1329 37
 8132 239a 4FF47472 		mov	r2, #976
 8133 239e C3F8F423 		str	r2, [r3, #1012]
1330:C:/StellarStudio-7.0/SDKS/StellarESDK-1.7.0/Modules/Drivers/Timers/HRTIM/src\hrtim.c ****                                       HRTIM_BDTFUPR_TIMCMP2 | HRTIM_BDTFUPR_TIMCMP3 |
1331:C:/StellarStudio-7.0/SDKS/StellarESDK-1.7.0/Modules/Drivers/Timers/HRTIM/src\hrtim.c ****                                       HRTIM_BDTFUPR_TIMCMP4;
1332:C:/StellarStudio-7.0/SDKS/StellarESDK-1.7.0/Modules/Drivers/Timers/HRTIM/src\hrtim.c **** 
1333:C:/StellarStudio-7.0/SDKS/StellarESDK-1.7.0/Modules/Drivers/Timers/HRTIM/src\hrtim.c ****     switch (hdp->master_mode_tpg) {
 8134              		.loc 1 1333 16
 8135 23a2 019B     		ldr	r3, [sp, #4]
 8136 23a4 93F82C33 		ldrb	r3, [r3, #812]	@ zero_extendqisi2
 8137              		.loc 1 1333 5
 8138 23a8 042B     		cmp	r3, #4
 8139 23aa 2ED8     		bhi	.L268
 8140 23ac 01A2     		adr	r2, .L249
 8141 23ae 52F823F0 		ldr	pc, [r2, r3, lsl #2]
 8142 23b2 00BF     		.p2align 2
 8143              	.L249:
 8144 23b4 C9230000 		.word	.L253+1
 8145 23b8 D3230000 		.word	.L252+1
 8146 23bc E5230000 		.word	.L251+1
 8147 23c0 F7230000 		.word	.L250+1
 8148 23c4 01240000 		.word	.L248+1
 8149              		.p2align 1
 8150              	.L253:
1334:C:/StellarStudio-7.0/SDKS/StellarESDK-1.7.0/Modules/Drivers/Timers/HRTIM/src\hrtim.c ****         case HRTIM_MODE_HALF_INTLVD_DISABLED:
1335:C:/StellarStudio-7.0/SDKS/StellarESDK-1.7.0/Modules/Drivers/Timers/HRTIM/src\hrtim.c ****             mstr_cr &= ~(HRTIM_MCR_HALF|HRTIM_MCR_INTLVD_0|HRTIM_MCR_INTLVD_1);
 8151              		.loc 1 1335 21
 8152 23c8 0E9B     		ldr	r3, [sp, #56]
 8153 23ca 23F0E003 		bic	r3, r3, #224
 8154 23ce 0E93     		str	r3, [sp, #56]
1336:C:/StellarStudio-7.0/SDKS/StellarESDK-1.7.0/Modules/Drivers/Timers/HRTIM/src\hrtim.c ****             break;
 8155              		.loc 1 1336 13
 8156 23d0 1CE0     		b	.L254
 8157              	.L252:
1337:C:/StellarStudio-7.0/SDKS/StellarESDK-1.7.0/Modules/Drivers/Timers/HRTIM/src\hrtim.c ****         case HRTIM_MODE_TRIPLE_INTERVALLED:
1338:C:/StellarStudio-7.0/SDKS/StellarESDK-1.7.0/Modules/Drivers/Timers/HRTIM/src\hrtim.c ****             mstr_cr &= ~(HRTIM_MCR_HALF);
 8158              		.loc 1 1338 21
 8159 23d2 0E9B     		ldr	r3, [sp, #56]
 8160 23d4 23F02003 		bic	r3, r3, #32
 8161 23d8 0E93     		str	r3, [sp, #56]
1339:C:/StellarStudio-7.0/SDKS/StellarESDK-1.7.0/Modules/Drivers/Timers/HRTIM/src\hrtim.c ****             mstr_cr |= HRTIM_MCR_INTLVD_0;
 8162              		.loc 1 1339 21
 8163 23da 0E9B     		ldr	r3, [sp, #56]
 8164 23dc 43F04003 		orr	r3, r3, #64
 8165 23e0 0E93     		str	r3, [sp, #56]
1340:C:/StellarStudio-7.0/SDKS/StellarESDK-1.7.0/Modules/Drivers/Timers/HRTIM/src\hrtim.c ****             break;
 8166              		.loc 1 1340 13
 8167 23e2 13E0     		b	.L254
 8168              	.L251:
1341:C:/StellarStudio-7.0/SDKS/StellarESDK-1.7.0/Modules/Drivers/Timers/HRTIM/src\hrtim.c ****         case HRTIM_MODE_QUAD_INTERVALLED:
1342:C:/StellarStudio-7.0/SDKS/StellarESDK-1.7.0/Modules/Drivers/Timers/HRTIM/src\hrtim.c ****             mstr_cr &= ~(HRTIM_MCR_HALF);
 8169              		.loc 1 1342 21
 8170 23e4 0E9B     		ldr	r3, [sp, #56]
 8171 23e6 23F02003 		bic	r3, r3, #32
 8172 23ea 0E93     		str	r3, [sp, #56]
1343:C:/StellarStudio-7.0/SDKS/StellarESDK-1.7.0/Modules/Drivers/Timers/HRTIM/src\hrtim.c ****             mstr_cr |= HRTIM_MCR_INTLVD_1;
 8173              		.loc 1 1343 21
 8174 23ec 0E9B     		ldr	r3, [sp, #56]
 8175 23ee 43F08003 		orr	r3, r3, #128
 8176 23f2 0E93     		str	r3, [sp, #56]
1344:C:/StellarStudio-7.0/SDKS/StellarESDK-1.7.0/Modules/Drivers/Timers/HRTIM/src\hrtim.c ****             break;
 8177              		.loc 1 1344 13
 8178 23f4 0AE0     		b	.L254
 8179              	.L250:
1345:C:/StellarStudio-7.0/SDKS/StellarESDK-1.7.0/Modules/Drivers/Timers/HRTIM/src\hrtim.c ****         case HRTIM_MODE_DUAL_INTERVALLED:
1346:C:/StellarStudio-7.0/SDKS/StellarESDK-1.7.0/Modules/Drivers/Timers/HRTIM/src\hrtim.c ****             mstr_cr |= HRTIM_MCR_HALF;
 8180              		.loc 1 1346 21
 8181 23f6 0E9B     		ldr	r3, [sp, #56]
 8182 23f8 43F02003 		orr	r3, r3, #32
 8183 23fc 0E93     		str	r3, [sp, #56]
1347:C:/StellarStudio-7.0/SDKS/StellarESDK-1.7.0/Modules/Drivers/Timers/HRTIM/src\hrtim.c ****             break;
 8184              		.loc 1 1347 13
 8185 23fe 05E0     		b	.L254
 8186              	.L248:
1348:C:/StellarStudio-7.0/SDKS/StellarESDK-1.7.0/Modules/Drivers/Timers/HRTIM/src\hrtim.c ****         case HRTIM_MODE_HALF:
1349:C:/StellarStudio-7.0/SDKS/StellarESDK-1.7.0/Modules/Drivers/Timers/HRTIM/src\hrtim.c ****             mstr_cr |= HRTIM_MCR_HALF;
 8187              		.loc 1 1349 21
 8188 2400 0E9B     		ldr	r3, [sp, #56]
 8189 2402 43F02003 		orr	r3, r3, #32
 8190 2406 0E93     		str	r3, [sp, #56]
1350:C:/StellarStudio-7.0/SDKS/StellarESDK-1.7.0/Modules/Drivers/Timers/HRTIM/src\hrtim.c ****             break;
 8191              		.loc 1 1350 13
 8192 2408 00E0     		b	.L254
 8193              	.L268:
1351:C:/StellarStudio-7.0/SDKS/StellarESDK-1.7.0/Modules/Drivers/Timers/HRTIM/src\hrtim.c ****         default:
1352:C:/StellarStudio-7.0/SDKS/StellarESDK-1.7.0/Modules/Drivers/Timers/HRTIM/src\hrtim.c ****             /* for MISRA compliance */
1353:C:/StellarStudio-7.0/SDKS/StellarESDK-1.7.0/Modules/Drivers/Timers/HRTIM/src\hrtim.c ****             break;
 8194              		.loc 1 1353 13
 8195 240a 00BF     		nop
 8196              	.L254:
1354:C:/StellarStudio-7.0/SDKS/StellarESDK-1.7.0/Modules/Drivers/Timers/HRTIM/src\hrtim.c ****     }
1355:C:/StellarStudio-7.0/SDKS/StellarESDK-1.7.0/Modules/Drivers/Timers/HRTIM/src\hrtim.c **** 
1356:C:/StellarStudio-7.0/SDKS/StellarESDK-1.7.0/Modules/Drivers/Timers/HRTIM/src\hrtim.c ****     if (hdp->is_master_sync_start == true) {
 8197              		.loc 1 1356 12
 8198 240c 019B     		ldr	r3, [sp, #4]
 8199 240e 93F81B3B 		ldrb	r3, [r3, #2843]	@ zero_extendqisi2
 8200              		.loc 1 1356 8
 8201 2412 002B     		cmp	r3, #0
 8202 2414 03D0     		beq	.L255
1357:C:/StellarStudio-7.0/SDKS/StellarESDK-1.7.0/Modules/Drivers/Timers/HRTIM/src\hrtim.c ****         mstr_cr |= HRTIM_MCR_SYNCSTRTM;
 8203              		.loc 1 1357 17
 8204 2416 0E9B     		ldr	r3, [sp, #56]
 8205 2418 43F40063 		orr	r3, r3, #2048
 8206 241c 0E93     		str	r3, [sp, #56]
 8207              	.L255:
1358:C:/StellarStudio-7.0/SDKS/StellarESDK-1.7.0/Modules/Drivers/Timers/HRTIM/src\hrtim.c ****     }
1359:C:/StellarStudio-7.0/SDKS/StellarESDK-1.7.0/Modules/Drivers/Timers/HRTIM/src\hrtim.c **** 
1360:C:/StellarStudio-7.0/SDKS/StellarESDK-1.7.0/Modules/Drivers/Timers/HRTIM/src\hrtim.c ****     if (hdp->is_master_sync_reset == true) {
 8208              		.loc 1 1360 12
 8209 241e 019B     		ldr	r3, [sp, #4]
 8210 2420 93F81C3B 		ldrb	r3, [r3, #2844]	@ zero_extendqisi2
 8211              		.loc 1 1360 8
 8212 2424 002B     		cmp	r3, #0
 8213 2426 03D0     		beq	.L256
1361:C:/StellarStudio-7.0/SDKS/StellarESDK-1.7.0/Modules/Drivers/Timers/HRTIM/src\hrtim.c ****         mstr_cr |= HRTIM_MCR_SYNCRSTM;
 8214              		.loc 1 1361 17
 8215 2428 0E9B     		ldr	r3, [sp, #56]
 8216 242a 43F48063 		orr	r3, r3, #1024
 8217 242e 0E93     		str	r3, [sp, #56]
 8218              	.L256:
1362:C:/StellarStudio-7.0/SDKS/StellarESDK-1.7.0/Modules/Drivers/Timers/HRTIM/src\hrtim.c ****     }
1363:C:/StellarStudio-7.0/SDKS/StellarESDK-1.7.0/Modules/Drivers/Timers/HRTIM/src\hrtim.c **** 
1364:C:/StellarStudio-7.0/SDKS/StellarESDK-1.7.0/Modules/Drivers/Timers/HRTIM/src\hrtim.c ****     /* Master registers configuration setup.*/
1365:C:/StellarStudio-7.0/SDKS/StellarESDK-1.7.0/Modules/Drivers/Timers/HRTIM/src\hrtim.c ****     hdp->hrtim->sMasterRegs.MCR    = mstr_cr | (uint32_t)(hdp->master_prescaler)                   
 8219              		.loc 1 1365 62
 8220 2430 019B     		ldr	r3, [sp, #4]
 8221 2432 5B7D     		ldrb	r3, [r3, #21]	@ zero_extendqisi2
 8222              		.loc 1 1365 48
 8223 2434 1A46     		mov	r2, r3
 8224              		.loc 1 1365 46
 8225 2436 0E9B     		ldr	r3, [sp, #56]
 8226 2438 1A43     		orrs	r2, r2, r3
1366:C:/StellarStudio-7.0/SDKS/StellarESDK-1.7.0/Modules/Drivers/Timers/HRTIM/src\hrtim.c ****                                                (uint32_t)(hdp->master_preload.enable)              
 8227              		.loc 1 1366 78
 8228 243a 019B     		ldr	r3, [sp, #4]
 8229 243c D3F82433 		ldr	r3, [r3, #804]
1365:C:/StellarStudio-7.0/SDKS/StellarESDK-1.7.0/Modules/Drivers/Timers/HRTIM/src\hrtim.c ****                                                (uint32_t)(hdp->master_preload.enable)              
 8230              		.loc 1 1365 102
 8231 2440 1A43     		orrs	r2, r2, r3
1367:C:/StellarStudio-7.0/SDKS/StellarESDK-1.7.0/Modules/Drivers/Timers/HRTIM/src\hrtim.c ****                                                (uint32_t)(hdp->master_preload.update_event)        
 8232              		.loc 1 1367 78
 8233 2442 019B     		ldr	r3, [sp, #4]
 8234 2444 D3F82833 		ldr	r3, [r3, #808]
1366:C:/StellarStudio-7.0/SDKS/StellarESDK-1.7.0/Modules/Drivers/Timers/HRTIM/src\hrtim.c ****                                                (uint32_t)(hdp->master_preload.enable)              
 8235              		.loc 1 1366 102
 8236 2448 1A43     		orrs	r2, r2, r3
1368:C:/StellarStudio-7.0/SDKS/StellarESDK-1.7.0/Modules/Drivers/Timers/HRTIM/src\hrtim.c ****                                                ((uint32_t)(hdp->sync_in) << HRTIM_MCR_SYNC_IN_Pos) 
 8237              		.loc 1 1368 63
 8238 244a 019B     		ldr	r3, [sp, #4]
 8239 244c 93F8183B 		ldrb	r3, [r3, #2840]	@ zero_extendqisi2
 8240              		.loc 1 1368 74
 8241 2450 1B02     		lsls	r3, r3, #8
1367:C:/StellarStudio-7.0/SDKS/StellarESDK-1.7.0/Modules/Drivers/Timers/HRTIM/src\hrtim.c ****                                                (uint32_t)(hdp->master_preload.update_event)        
 8242              		.loc 1 1367 102
 8243 2452 1A43     		orrs	r2, r2, r3
1369:C:/StellarStudio-7.0/SDKS/StellarESDK-1.7.0/Modules/Drivers/Timers/HRTIM/src\hrtim.c ****                                                ((uint32_t)(hdp->sync_out) << HRTIM_MCR_SYNC_OUT_Pos
 8244              		.loc 1 1369 63
 8245 2454 019B     		ldr	r3, [sp, #4]
 8246 2456 93F8193B 		ldrb	r3, [r3, #2841]	@ zero_extendqisi2
 8247              		.loc 1 1369 75
 8248 245a 1B03     		lsls	r3, r3, #12
1368:C:/StellarStudio-7.0/SDKS/StellarESDK-1.7.0/Modules/Drivers/Timers/HRTIM/src\hrtim.c ****                                                ((uint32_t)(hdp->sync_in) << HRTIM_MCR_SYNC_IN_Pos) 
 8249              		.loc 1 1368 102
 8250 245c 42EA0301 		orr	r1, r2, r3
1370:C:/StellarStudio-7.0/SDKS/StellarESDK-1.7.0/Modules/Drivers/Timers/HRTIM/src\hrtim.c ****                                                ((uint32_t)(hdp->sync_src) << HRTIM_MCR_SYNC_SRC_Pos
 8251              		.loc 1 1370 63
 8252 2460 019B     		ldr	r3, [sp, #4]
 8253 2462 93F81A3B 		ldrb	r3, [r3, #2842]	@ zero_extendqisi2
 8254              		.loc 1 1370 75
 8255 2466 9A03     		lsls	r2, r3, #14
1365:C:/StellarStudio-7.0/SDKS/StellarESDK-1.7.0/Modules/Drivers/Timers/HRTIM/src\hrtim.c ****                                                (uint32_t)(hdp->master_preload.enable)              
 8256              		.loc 1 1365 8
 8257 2468 019B     		ldr	r3, [sp, #4]
 8258 246a 1B68     		ldr	r3, [r3]
1369:C:/StellarStudio-7.0/SDKS/StellarESDK-1.7.0/Modules/Drivers/Timers/HRTIM/src\hrtim.c ****                                                ((uint32_t)(hdp->sync_out) << HRTIM_MCR_SYNC_OUT_Pos
 8259              		.loc 1 1369 102
 8260 246c 0A43     		orrs	r2, r2, r1
1365:C:/StellarStudio-7.0/SDKS/StellarESDK-1.7.0/Modules/Drivers/Timers/HRTIM/src\hrtim.c ****                                                (uint32_t)(hdp->master_preload.enable)              
 8261              		.loc 1 1365 36
 8262 246e 1A60     		str	r2, [r3]
1371:C:/StellarStudio-7.0/SDKS/StellarESDK-1.7.0/Modules/Drivers/Timers/HRTIM/src\hrtim.c ****     hdp->hrtim->sMasterRegs.MDIER  = 0U;
 8263              		.loc 1 1371 8
 8264 2470 019B     		ldr	r3, [sp, #4]
 8265 2472 1B68     		ldr	r3, [r3]
 8266              		.loc 1 1371 36
 8267 2474 0022     		movs	r2, #0
 8268 2476 DA60     		str	r2, [r3, #12]
1372:C:/StellarStudio-7.0/SDKS/StellarESDK-1.7.0/Modules/Drivers/Timers/HRTIM/src\hrtim.c ****     hdp->hrtim->sMasterRegs.MPER   = hdp->master_period;
 8269              		.loc 1 1372 41
 8270 2478 019B     		ldr	r3, [sp, #4]
 8271 247a DA8A     		ldrh	r2, [r3, #22]
 8272              		.loc 1 1372 8
 8273 247c 019B     		ldr	r3, [sp, #4]
 8274 247e 1B68     		ldr	r3, [r3]
 8275              		.loc 1 1372 36
 8276 2480 5A61     		str	r2, [r3, #20]
1373:C:/StellarStudio-7.0/SDKS/StellarESDK-1.7.0/Modules/Drivers/Timers/HRTIM/src\hrtim.c ****     hdp->hrtim->sMasterRegs.MREP   = 0U;
 8277              		.loc 1 1373 8
 8278 2482 019B     		ldr	r3, [sp, #4]
 8279 2484 1B68     		ldr	r3, [r3]
 8280              		.loc 1 1373 36
 8281 2486 0022     		movs	r2, #0
 8282 2488 9A61     		str	r2, [r3, #24]
1374:C:/StellarStudio-7.0/SDKS/StellarESDK-1.7.0/Modules/Drivers/Timers/HRTIM/src\hrtim.c ****     hdp->hrtim->sMasterRegs.MCMP1R = hdp->master_cmp[HRTIM_CMP1];
 8283              		.loc 1 1374 53
 8284 248a 019B     		ldr	r3, [sp, #4]
 8285 248c 1A8B     		ldrh	r2, [r3, #24]
 8286              		.loc 1 1374 8
 8287 248e 019B     		ldr	r3, [sp, #4]
 8288 2490 1B68     		ldr	r3, [r3]
 8289              		.loc 1 1374 36
 8290 2492 DA61     		str	r2, [r3, #28]
1375:C:/StellarStudio-7.0/SDKS/StellarESDK-1.7.0/Modules/Drivers/Timers/HRTIM/src\hrtim.c ****     hdp->hrtim->sMasterRegs.MCMP2R = hdp->master_cmp[HRTIM_CMP2];
 8291              		.loc 1 1375 53
 8292 2494 019B     		ldr	r3, [sp, #4]
 8293 2496 5A8B     		ldrh	r2, [r3, #26]
 8294              		.loc 1 1375 8
 8295 2498 019B     		ldr	r3, [sp, #4]
 8296 249a 1B68     		ldr	r3, [r3]
 8297              		.loc 1 1375 36
 8298 249c 5A62     		str	r2, [r3, #36]
1376:C:/StellarStudio-7.0/SDKS/StellarESDK-1.7.0/Modules/Drivers/Timers/HRTIM/src\hrtim.c ****     hdp->hrtim->sMasterRegs.MCMP3R = hdp->master_cmp[HRTIM_CMP3];
 8299              		.loc 1 1376 53
 8300 249e 019B     		ldr	r3, [sp, #4]
 8301 24a0 9A8B     		ldrh	r2, [r3, #28]
 8302              		.loc 1 1376 8
 8303 24a2 019B     		ldr	r3, [sp, #4]
 8304 24a4 1B68     		ldr	r3, [r3]
 8305              		.loc 1 1376 36
 8306 24a6 9A62     		str	r2, [r3, #40]
1377:C:/StellarStudio-7.0/SDKS/StellarESDK-1.7.0/Modules/Drivers/Timers/HRTIM/src\hrtim.c ****     hdp->hrtim->sMasterRegs.MCMP4R = hdp->master_cmp[HRTIM_CMP4];
 8307              		.loc 1 1377 53
 8308 24a8 019B     		ldr	r3, [sp, #4]
 8309 24aa DA8B     		ldrh	r2, [r3, #30]
 8310              		.loc 1 1377 8
 8311 24ac 019B     		ldr	r3, [sp, #4]
 8312 24ae 1B68     		ldr	r3, [r3]
 8313              		.loc 1 1377 36
 8314 24b0 DA62     		str	r2, [r3, #44]
1378:C:/StellarStudio-7.0/SDKS/StellarESDK-1.7.0/Modules/Drivers/Timers/HRTIM/src\hrtim.c **** 
1379:C:/StellarStudio-7.0/SDKS/StellarESDK-1.7.0/Modules/Drivers/Timers/HRTIM/src\hrtim.c ****     /* Clearing interrupt status bits.*/
1380:C:/StellarStudio-7.0/SDKS/StellarESDK-1.7.0/Modules/Drivers/Timers/HRTIM/src\hrtim.c ****     hdp->hrtim->sMasterRegs.MICR = 0xFFFFFFFFU;
 8315              		.loc 1 1380 8
 8316 24b2 019B     		ldr	r3, [sp, #4]
 8317 24b4 1B68     		ldr	r3, [r3]
 8318              		.loc 1 1380 34
 8319 24b6 4FF0FF32 		mov	r2, #-1
 8320 24ba 9A60     		str	r2, [r3, #8]
1381:C:/StellarStudio-7.0/SDKS/StellarESDK-1.7.0/Modules/Drivers/Timers/HRTIM/src\hrtim.c ****     hdp->hrtim->sCommonRegs.ICR  = 0xFFFFFFFFU;
 8321              		.loc 1 1381 8
 8322 24bc 019B     		ldr	r3, [sp, #4]
 8323 24be 1B68     		ldr	r3, [r3]
 8324              		.loc 1 1381 34
 8325 24c0 4FF0FF32 		mov	r2, #-1
 8326 24c4 C3F88C23 		str	r2, [r3, #908]
1382:C:/StellarStudio-7.0/SDKS/StellarESDK-1.7.0/Modules/Drivers/Timers/HRTIM/src\hrtim.c ****     for (i = 0U; i < HRTIM_TIMER_NUM; i++) {
 8327              		.loc 1 1382 12
 8328 24c8 0023     		movs	r3, #0
 8329 24ca 8DF83730 		strb	r3, [sp, #55]
 8330              		.loc 1 1382 5
 8331 24ce 0EE0     		b	.L257
 8332              	.L258:
1383:C:/StellarStudio-7.0/SDKS/StellarESDK-1.7.0/Modules/Drivers/Timers/HRTIM/src\hrtim.c ****         hdp->hrtim->sTimerxRegs[i].TIMxICR = 0xFFFFFFFFU;
 8333              		.loc 1 1383 12 discriminator 3
 8334 24d0 019B     		ldr	r3, [sp, #4]
 8335 24d2 1A68     		ldr	r2, [r3]
 8336              		.loc 1 1383 35 discriminator 3
 8337 24d4 9DF83730 		ldrb	r3, [sp, #55]	@ zero_extendqisi2
 8338              		.loc 1 1383 44 discriminator 3
 8339 24d8 DB01     		lsls	r3, r3, #7
 8340 24da 1344     		add	r3, r3, r2
 8341 24dc 8833     		adds	r3, r3, #136
 8342 24de 4FF0FF32 		mov	r2, #-1
 8343 24e2 1A60     		str	r2, [r3]
1382:C:/StellarStudio-7.0/SDKS/StellarESDK-1.7.0/Modules/Drivers/Timers/HRTIM/src\hrtim.c ****     for (i = 0U; i < HRTIM_TIMER_NUM; i++) {
 8344              		.loc 1 1382 40 discriminator 3
 8345 24e4 9DF83730 		ldrb	r3, [sp, #55]	@ zero_extendqisi2
 8346 24e8 0133     		adds	r3, r3, #1
 8347 24ea 8DF83730 		strb	r3, [sp, #55]
 8348              	.L257:
1382:C:/StellarStudio-7.0/SDKS/StellarESDK-1.7.0/Modules/Drivers/Timers/HRTIM/src\hrtim.c ****     for (i = 0U; i < HRTIM_TIMER_NUM; i++) {
 8349              		.loc 1 1382 5 discriminator 1
 8350 24ee 9DF83730 		ldrb	r3, [sp, #55]	@ zero_extendqisi2
 8351 24f2 052B     		cmp	r3, #5
 8352 24f4 ECD9     		bls	.L258
1384:C:/StellarStudio-7.0/SDKS/StellarESDK-1.7.0/Modules/Drivers/Timers/HRTIM/src\hrtim.c ****     }
1385:C:/StellarStudio-7.0/SDKS/StellarESDK-1.7.0/Modules/Drivers/Timers/HRTIM/src\hrtim.c **** }
 8353              		.loc 1 1385 1
 8354 24f6 00BF     		nop
 8355 24f8 00BF     		nop
 8356 24fa 11B0     		add	sp, sp, #68
 8357              		.cfi_def_cfa_offset 12
 8358              		@ sp needed
 8359 24fc 30BD     		pop	{r4, r5, pc}
 8360              	.L274:
 8361 24fe 00BF     		.align	2
 8362              	.L273:
 8363 2500 7F7FFFFF 		.word	-32897
 8364              		.cfi_endproc
 8365              	.LFE173:
 8367              		.section	.text.hrtim_enable_cb,"ax",%progbits
 8368              		.align	1
 8369              		.p2align 4,,15
 8370              		.global	hrtim_enable_cb
 8371              		.syntax unified
 8372              		.thumb
 8373              		.thumb_func
 8375              	hrtim_enable_cb:
 8376              	.LFB174:
1386:C:/StellarStudio-7.0/SDKS/StellarESDK-1.7.0/Modules/Drivers/Timers/HRTIM/src\hrtim.c **** 
1387:C:/StellarStudio-7.0/SDKS/StellarESDK-1.7.0/Modules/Drivers/Timers/HRTIM/src\hrtim.c **** void hrtim_enable_cb(hrtim_driver_t *hdp, hrtim_cb_ops_t cb_op, uint8_t event) {
 8377              		.loc 1 1387 80
 8378              		.cfi_startproc
 8379              		@ args = 0, pretend = 0, frame = 16
 8380              		@ frame_needed = 0, uses_anonymous_args = 0
 8381              		@ link register save eliminated.
 8382 0000 84B0     		sub	sp, sp, #16
 8383              		.cfi_def_cfa_offset 16
 8384 0002 0190     		str	r0, [sp, #4]
 8385 0004 0B46     		mov	r3, r1
 8386 0006 8DF80330 		strb	r3, [sp, #3]
 8387 000a 1346     		mov	r3, r2
 8388 000c 8DF80230 		strb	r3, [sp, #2]
1388:C:/StellarStudio-7.0/SDKS/StellarESDK-1.7.0/Modules/Drivers/Timers/HRTIM/src\hrtim.c **** 
1389:C:/StellarStudio-7.0/SDKS/StellarESDK-1.7.0/Modules/Drivers/Timers/HRTIM/src\hrtim.c ****     uint32_t ier;
1390:C:/StellarStudio-7.0/SDKS/StellarESDK-1.7.0/Modules/Drivers/Timers/HRTIM/src\hrtim.c **** 
1391:C:/StellarStudio-7.0/SDKS/StellarESDK-1.7.0/Modules/Drivers/Timers/HRTIM/src\hrtim.c ****     if (hdp->is_enable == true) {
 8389              		.loc 1 1391 12
 8390 0010 019B     		ldr	r3, [sp, #4]
 8391 0012 1B79     		ldrb	r3, [r3, #4]	@ zero_extendqisi2
 8392              		.loc 1 1391 8
 8393 0014 002B     		cmp	r3, #0
 8394 0016 69D0     		beq	.L279
1392:C:/StellarStudio-7.0/SDKS/StellarESDK-1.7.0/Modules/Drivers/Timers/HRTIM/src\hrtim.c ****         if (cb_op == HRTIM_CB_MASTER) {
 8395              		.loc 1 1392 12
 8396 0018 9DF80330 		ldrb	r3, [sp, #3]	@ zero_extendqisi2
 8397 001c 062B     		cmp	r3, #6
 8398 001e 1AD1     		bne	.L277
1393:C:/StellarStudio-7.0/SDKS/StellarESDK-1.7.0/Modules/Drivers/Timers/HRTIM/src\hrtim.c ****             ier = hdp->hrtim->sMasterRegs.MDIER;
 8399              		.loc 1 1393 22
 8400 0020 019B     		ldr	r3, [sp, #4]
 8401 0022 1B68     		ldr	r3, [r3]
 8402              		.loc 1 1393 17
 8403 0024 DB68     		ldr	r3, [r3, #12]
 8404 0026 0393     		str	r3, [sp, #12]
1394:C:/StellarStudio-7.0/SDKS/StellarESDK-1.7.0/Modules/Drivers/Timers/HRTIM/src\hrtim.c ****             if ((ier & (1UL << (event))) == 0U) {
 8405              		.loc 1 1394 42
 8406 0028 9DF80230 		ldrb	r3, [sp, #2]	@ zero_extendqisi2
 8407 002c 039A     		ldr	r2, [sp, #12]
 8408 002e 22FA03F3 		lsr	r3, r2, r3
 8409 0032 03F00103 		and	r3, r3, #1
 8410              		.loc 1 1394 16
 8411 0036 002B     		cmp	r3, #0
 8412 0038 58D1     		bne	.L279
1395:C:/StellarStudio-7.0/SDKS/StellarESDK-1.7.0/Modules/Drivers/Timers/HRTIM/src\hrtim.c ****                 hdp->hrtim->sMasterRegs.MICR  = ~(event);
 8413              		.loc 1 1395 49
 8414 003a 9DF80230 		ldrb	r3, [sp, #2]	@ zero_extendqisi2
 8415 003e DA43     		mvns	r2, r3
 8416              		.loc 1 1395 20
 8417 0040 019B     		ldr	r3, [sp, #4]
 8418 0042 1B68     		ldr	r3, [r3]
 8419              		.loc 1 1395 47
 8420 0044 9A60     		str	r2, [r3, #8]
1396:C:/StellarStudio-7.0/SDKS/StellarESDK-1.7.0/Modules/Drivers/Timers/HRTIM/src\hrtim.c ****                 hdp->hrtim->sMasterRegs.MDIER =  (event) | ier;
 8421              		.loc 1 1396 58
 8422 0046 9DF80210 		ldrb	r1, [sp, #2]	@ zero_extendqisi2
 8423              		.loc 1 1396 20
 8424 004a 019B     		ldr	r3, [sp, #4]
 8425 004c 1B68     		ldr	r3, [r3]
 8426              		.loc 1 1396 58
 8427 004e 039A     		ldr	r2, [sp, #12]
 8428 0050 0A43     		orrs	r2, r2, r1
 8429              		.loc 1 1396 47
 8430 0052 DA60     		str	r2, [r3, #12]
1397:C:/StellarStudio-7.0/SDKS/StellarESDK-1.7.0/Modules/Drivers/Timers/HRTIM/src\hrtim.c ****             }
1398:C:/StellarStudio-7.0/SDKS/StellarESDK-1.7.0/Modules/Drivers/Timers/HRTIM/src\hrtim.c ****         } else if (cb_op == HRTIM_CB_FAULT) {
1399:C:/StellarStudio-7.0/SDKS/StellarESDK-1.7.0/Modules/Drivers/Timers/HRTIM/src\hrtim.c ****             ier = hdp->hrtim->sCommonRegs.IER;
1400:C:/StellarStudio-7.0/SDKS/StellarESDK-1.7.0/Modules/Drivers/Timers/HRTIM/src\hrtim.c ****             if ((ier & (1UL << (event))) == 0U) {
1401:C:/StellarStudio-7.0/SDKS/StellarESDK-1.7.0/Modules/Drivers/Timers/HRTIM/src\hrtim.c ****                 hdp->hrtim->sCommonRegs.ICR = ~(event);
1402:C:/StellarStudio-7.0/SDKS/StellarESDK-1.7.0/Modules/Drivers/Timers/HRTIM/src\hrtim.c ****                 hdp->hrtim->sCommonRegs.IER =  (event) | ier;
1403:C:/StellarStudio-7.0/SDKS/StellarESDK-1.7.0/Modules/Drivers/Timers/HRTIM/src\hrtim.c ****             }
1404:C:/StellarStudio-7.0/SDKS/StellarESDK-1.7.0/Modules/Drivers/Timers/HRTIM/src\hrtim.c ****         } else {
1405:C:/StellarStudio-7.0/SDKS/StellarESDK-1.7.0/Modules/Drivers/Timers/HRTIM/src\hrtim.c ****             ier = hdp->hrtim->sTimerxRegs[cb_op].TIMxDIER;
1406:C:/StellarStudio-7.0/SDKS/StellarESDK-1.7.0/Modules/Drivers/Timers/HRTIM/src\hrtim.c ****             if ((ier & (1UL << (event))) == 0U) {
1407:C:/StellarStudio-7.0/SDKS/StellarESDK-1.7.0/Modules/Drivers/Timers/HRTIM/src\hrtim.c ****                 hdp->hrtim->sTimerxRegs[cb_op].TIMxICR  = ~(event);
1408:C:/StellarStudio-7.0/SDKS/StellarESDK-1.7.0/Modules/Drivers/Timers/HRTIM/src\hrtim.c ****                 hdp->hrtim->sTimerxRegs[cb_op].TIMxDIER =  (event) | ier;
1409:C:/StellarStudio-7.0/SDKS/StellarESDK-1.7.0/Modules/Drivers/Timers/HRTIM/src\hrtim.c ****             }
1410:C:/StellarStudio-7.0/SDKS/StellarESDK-1.7.0/Modules/Drivers/Timers/HRTIM/src\hrtim.c ****         }
1411:C:/StellarStudio-7.0/SDKS/StellarESDK-1.7.0/Modules/Drivers/Timers/HRTIM/src\hrtim.c ****     }
1412:C:/StellarStudio-7.0/SDKS/StellarESDK-1.7.0/Modules/Drivers/Timers/HRTIM/src\hrtim.c **** }
 8431              		.loc 1 1412 1
 8432 0054 4AE0     		b	.L279
 8433              	.L277:
1398:C:/StellarStudio-7.0/SDKS/StellarESDK-1.7.0/Modules/Drivers/Timers/HRTIM/src\hrtim.c ****             ier = hdp->hrtim->sCommonRegs.IER;
 8434              		.loc 1 1398 19
 8435 0056 9DF80330 		ldrb	r3, [sp, #3]	@ zero_extendqisi2
 8436 005a 072B     		cmp	r3, #7
 8437 005c 1DD1     		bne	.L278
1399:C:/StellarStudio-7.0/SDKS/StellarESDK-1.7.0/Modules/Drivers/Timers/HRTIM/src\hrtim.c ****             if ((ier & (1UL << (event))) == 0U) {
 8438              		.loc 1 1399 22
 8439 005e 019B     		ldr	r3, [sp, #4]
 8440 0060 1B68     		ldr	r3, [r3]
1399:C:/StellarStudio-7.0/SDKS/StellarESDK-1.7.0/Modules/Drivers/Timers/HRTIM/src\hrtim.c ****             if ((ier & (1UL << (event))) == 0U) {
 8441              		.loc 1 1399 17
 8442 0062 D3F89033 		ldr	r3, [r3, #912]
 8443 0066 0393     		str	r3, [sp, #12]
1400:C:/StellarStudio-7.0/SDKS/StellarESDK-1.7.0/Modules/Drivers/Timers/HRTIM/src\hrtim.c ****                 hdp->hrtim->sCommonRegs.ICR = ~(event);
 8444              		.loc 1 1400 42
 8445 0068 9DF80230 		ldrb	r3, [sp, #2]	@ zero_extendqisi2
 8446 006c 039A     		ldr	r2, [sp, #12]
 8447 006e 22FA03F3 		lsr	r3, r2, r3
 8448 0072 03F00103 		and	r3, r3, #1
1400:C:/StellarStudio-7.0/SDKS/StellarESDK-1.7.0/Modules/Drivers/Timers/HRTIM/src\hrtim.c ****                 hdp->hrtim->sCommonRegs.ICR = ~(event);
 8449              		.loc 1 1400 16
 8450 0076 002B     		cmp	r3, #0
 8451 0078 38D1     		bne	.L279
1401:C:/StellarStudio-7.0/SDKS/StellarESDK-1.7.0/Modules/Drivers/Timers/HRTIM/src\hrtim.c ****                 hdp->hrtim->sCommonRegs.IER =  (event) | ier;
 8452              		.loc 1 1401 47
 8453 007a 9DF80230 		ldrb	r3, [sp, #2]	@ zero_extendqisi2
 8454 007e DA43     		mvns	r2, r3
1401:C:/StellarStudio-7.0/SDKS/StellarESDK-1.7.0/Modules/Drivers/Timers/HRTIM/src\hrtim.c ****                 hdp->hrtim->sCommonRegs.IER =  (event) | ier;
 8455              		.loc 1 1401 20
 8456 0080 019B     		ldr	r3, [sp, #4]
 8457 0082 1B68     		ldr	r3, [r3]
1401:C:/StellarStudio-7.0/SDKS/StellarESDK-1.7.0/Modules/Drivers/Timers/HRTIM/src\hrtim.c ****                 hdp->hrtim->sCommonRegs.IER =  (event) | ier;
 8458              		.loc 1 1401 45
 8459 0084 C3F88C23 		str	r2, [r3, #908]
1402:C:/StellarStudio-7.0/SDKS/StellarESDK-1.7.0/Modules/Drivers/Timers/HRTIM/src\hrtim.c ****             }
 8460              		.loc 1 1402 56
 8461 0088 9DF80210 		ldrb	r1, [sp, #2]	@ zero_extendqisi2
1402:C:/StellarStudio-7.0/SDKS/StellarESDK-1.7.0/Modules/Drivers/Timers/HRTIM/src\hrtim.c ****             }
 8462              		.loc 1 1402 20
 8463 008c 019B     		ldr	r3, [sp, #4]
 8464 008e 1B68     		ldr	r3, [r3]
1402:C:/StellarStudio-7.0/SDKS/StellarESDK-1.7.0/Modules/Drivers/Timers/HRTIM/src\hrtim.c ****             }
 8465              		.loc 1 1402 56
 8466 0090 039A     		ldr	r2, [sp, #12]
 8467 0092 0A43     		orrs	r2, r2, r1
1402:C:/StellarStudio-7.0/SDKS/StellarESDK-1.7.0/Modules/Drivers/Timers/HRTIM/src\hrtim.c ****             }
 8468              		.loc 1 1402 45
 8469 0094 C3F89023 		str	r2, [r3, #912]
 8470              		.loc 1 1412 1
 8471 0098 28E0     		b	.L279
 8472              	.L278:
1405:C:/StellarStudio-7.0/SDKS/StellarESDK-1.7.0/Modules/Drivers/Timers/HRTIM/src\hrtim.c ****             if ((ier & (1UL << (event))) == 0U) {
 8473              		.loc 1 1405 22
 8474 009a 019B     		ldr	r3, [sp, #4]
 8475 009c 1A68     		ldr	r2, [r3]
1405:C:/StellarStudio-7.0/SDKS/StellarESDK-1.7.0/Modules/Drivers/Timers/HRTIM/src\hrtim.c ****             if ((ier & (1UL << (event))) == 0U) {
 8476              		.loc 1 1405 49
 8477 009e 9DF80330 		ldrb	r3, [sp, #3]	@ zero_extendqisi2
1405:C:/StellarStudio-7.0/SDKS/StellarESDK-1.7.0/Modules/Drivers/Timers/HRTIM/src\hrtim.c ****             if ((ier & (1UL << (event))) == 0U) {
 8478              		.loc 1 1405 17
 8479 00a2 DB01     		lsls	r3, r3, #7
 8480 00a4 1344     		add	r3, r3, r2
 8481 00a6 8C33     		adds	r3, r3, #140
 8482 00a8 1B68     		ldr	r3, [r3]
 8483 00aa 0393     		str	r3, [sp, #12]
1406:C:/StellarStudio-7.0/SDKS/StellarESDK-1.7.0/Modules/Drivers/Timers/HRTIM/src\hrtim.c ****                 hdp->hrtim->sTimerxRegs[cb_op].TIMxICR  = ~(event);
 8484              		.loc 1 1406 42
 8485 00ac 9DF80230 		ldrb	r3, [sp, #2]	@ zero_extendqisi2
 8486 00b0 039A     		ldr	r2, [sp, #12]
 8487 00b2 22FA03F3 		lsr	r3, r2, r3
 8488 00b6 03F00103 		and	r3, r3, #1
1406:C:/StellarStudio-7.0/SDKS/StellarESDK-1.7.0/Modules/Drivers/Timers/HRTIM/src\hrtim.c ****                 hdp->hrtim->sTimerxRegs[cb_op].TIMxICR  = ~(event);
 8489              		.loc 1 1406 16
 8490 00ba 002B     		cmp	r3, #0
 8491 00bc 16D1     		bne	.L279
1407:C:/StellarStudio-7.0/SDKS/StellarESDK-1.7.0/Modules/Drivers/Timers/HRTIM/src\hrtim.c ****                 hdp->hrtim->sTimerxRegs[cb_op].TIMxDIER =  (event) | ier;
 8492              		.loc 1 1407 59
 8493 00be 9DF80230 		ldrb	r3, [sp, #2]	@ zero_extendqisi2
 8494 00c2 D943     		mvns	r1, r3
1407:C:/StellarStudio-7.0/SDKS/StellarESDK-1.7.0/Modules/Drivers/Timers/HRTIM/src\hrtim.c ****                 hdp->hrtim->sTimerxRegs[cb_op].TIMxDIER =  (event) | ier;
 8495              		.loc 1 1407 20
 8496 00c4 019B     		ldr	r3, [sp, #4]
 8497 00c6 1A68     		ldr	r2, [r3]
1407:C:/StellarStudio-7.0/SDKS/StellarESDK-1.7.0/Modules/Drivers/Timers/HRTIM/src\hrtim.c ****                 hdp->hrtim->sTimerxRegs[cb_op].TIMxDIER =  (event) | ier;
 8498              		.loc 1 1407 47
 8499 00c8 9DF80330 		ldrb	r3, [sp, #3]	@ zero_extendqisi2
1407:C:/StellarStudio-7.0/SDKS/StellarESDK-1.7.0/Modules/Drivers/Timers/HRTIM/src\hrtim.c ****                 hdp->hrtim->sTimerxRegs[cb_op].TIMxDIER =  (event) | ier;
 8500              		.loc 1 1407 57
 8501 00cc DB01     		lsls	r3, r3, #7
 8502 00ce 1344     		add	r3, r3, r2
 8503 00d0 8833     		adds	r3, r3, #136
 8504 00d2 1960     		str	r1, [r3]
1408:C:/StellarStudio-7.0/SDKS/StellarESDK-1.7.0/Modules/Drivers/Timers/HRTIM/src\hrtim.c ****             }
 8505              		.loc 1 1408 68
 8506 00d4 9DF80200 		ldrb	r0, [sp, #2]	@ zero_extendqisi2
1408:C:/StellarStudio-7.0/SDKS/StellarESDK-1.7.0/Modules/Drivers/Timers/HRTIM/src\hrtim.c ****             }
 8507              		.loc 1 1408 20
 8508 00d8 019B     		ldr	r3, [sp, #4]
 8509 00da 1968     		ldr	r1, [r3]
1408:C:/StellarStudio-7.0/SDKS/StellarESDK-1.7.0/Modules/Drivers/Timers/HRTIM/src\hrtim.c ****             }
 8510              		.loc 1 1408 47
 8511 00dc 9DF80330 		ldrb	r3, [sp, #3]	@ zero_extendqisi2
1408:C:/StellarStudio-7.0/SDKS/StellarESDK-1.7.0/Modules/Drivers/Timers/HRTIM/src\hrtim.c ****             }
 8512              		.loc 1 1408 68
 8513 00e0 039A     		ldr	r2, [sp, #12]
 8514 00e2 0243     		orrs	r2, r2, r0
1408:C:/StellarStudio-7.0/SDKS/StellarESDK-1.7.0/Modules/Drivers/Timers/HRTIM/src\hrtim.c ****             }
 8515              		.loc 1 1408 57
 8516 00e4 DB01     		lsls	r3, r3, #7
 8517 00e6 0B44     		add	r3, r3, r1
 8518 00e8 8C33     		adds	r3, r3, #140
 8519 00ea 1A60     		str	r2, [r3]
 8520              	.L279:
 8521              		.loc 1 1412 1
 8522 00ec 00BF     		nop
 8523 00ee 04B0     		add	sp, sp, #16
 8524              		.cfi_def_cfa_offset 0
 8525              		@ sp needed
 8526 00f0 7047     		bx	lr
 8527              		.cfi_endproc
 8528              	.LFE174:
 8530 00f2 00BF     		.section	.text.hrtim_disable_cb,"ax",%progbits
 8531              		.align	1
 8532              		.p2align 4,,15
 8533              		.global	hrtim_disable_cb
 8534              		.syntax unified
 8535              		.thumb
 8536              		.thumb_func
 8538              	hrtim_disable_cb:
 8539              	.LFB175:
1413:C:/StellarStudio-7.0/SDKS/StellarESDK-1.7.0/Modules/Drivers/Timers/HRTIM/src\hrtim.c **** 
1414:C:/StellarStudio-7.0/SDKS/StellarESDK-1.7.0/Modules/Drivers/Timers/HRTIM/src\hrtim.c **** void hrtim_disable_cb(hrtim_driver_t *hdp, hrtim_cb_ops_t cb_op, uint8_t event) {
 8540              		.loc 1 1414 81
 8541              		.cfi_startproc
 8542              		@ args = 0, pretend = 0, frame = 16
 8543              		@ frame_needed = 0, uses_anonymous_args = 0
 8544              		@ link register save eliminated.
 8545 0000 84B0     		sub	sp, sp, #16
 8546              		.cfi_def_cfa_offset 16
 8547 0002 0190     		str	r0, [sp, #4]
 8548 0004 0B46     		mov	r3, r1
 8549 0006 8DF80330 		strb	r3, [sp, #3]
 8550 000a 1346     		mov	r3, r2
 8551 000c 8DF80230 		strb	r3, [sp, #2]
1415:C:/StellarStudio-7.0/SDKS/StellarESDK-1.7.0/Modules/Drivers/Timers/HRTIM/src\hrtim.c **** 
1416:C:/StellarStudio-7.0/SDKS/StellarESDK-1.7.0/Modules/Drivers/Timers/HRTIM/src\hrtim.c ****     uint32_t ier;
1417:C:/StellarStudio-7.0/SDKS/StellarESDK-1.7.0/Modules/Drivers/Timers/HRTIM/src\hrtim.c **** 
1418:C:/StellarStudio-7.0/SDKS/StellarESDK-1.7.0/Modules/Drivers/Timers/HRTIM/src\hrtim.c ****     if (hdp->is_enable == true) {
 8552              		.loc 1 1418 12
 8553 0010 019B     		ldr	r3, [sp, #4]
 8554 0012 1B79     		ldrb	r3, [r3, #4]	@ zero_extendqisi2
 8555              		.loc 1 1418 8
 8556 0014 002B     		cmp	r3, #0
 8557 0016 6FD0     		beq	.L284
1419:C:/StellarStudio-7.0/SDKS/StellarESDK-1.7.0/Modules/Drivers/Timers/HRTIM/src\hrtim.c ****         if (cb_op == HRTIM_CB_MASTER) {
 8558              		.loc 1 1419 12
 8559 0018 9DF80330 		ldrb	r3, [sp, #3]	@ zero_extendqisi2
 8560 001c 062B     		cmp	r3, #6
 8561 001e 1CD1     		bne	.L282
1420:C:/StellarStudio-7.0/SDKS/StellarESDK-1.7.0/Modules/Drivers/Timers/HRTIM/src\hrtim.c ****             ier = hdp->hrtim->sMasterRegs.MDIER;
 8562              		.loc 1 1420 22
 8563 0020 019B     		ldr	r3, [sp, #4]
 8564 0022 1B68     		ldr	r3, [r3]
 8565              		.loc 1 1420 17
 8566 0024 DB68     		ldr	r3, [r3, #12]
 8567 0026 0393     		str	r3, [sp, #12]
1421:C:/StellarStudio-7.0/SDKS/StellarESDK-1.7.0/Modules/Drivers/Timers/HRTIM/src\hrtim.c ****             if ((ier & (1UL << (event))) != 0U) {
 8568              		.loc 1 1421 42
 8569 0028 9DF80230 		ldrb	r3, [sp, #2]	@ zero_extendqisi2
 8570 002c 039A     		ldr	r2, [sp, #12]
 8571 002e 22FA03F3 		lsr	r3, r2, r3
 8572 0032 03F00103 		and	r3, r3, #1
 8573              		.loc 1 1421 16
 8574 0036 002B     		cmp	r3, #0
 8575 0038 5ED0     		beq	.L284
1422:C:/StellarStudio-7.0/SDKS/StellarESDK-1.7.0/Modules/Drivers/Timers/HRTIM/src\hrtim.c ****                 hdp->hrtim->sMasterRegs.MICR  = ~(event);
 8576              		.loc 1 1422 49
 8577 003a 9DF80230 		ldrb	r3, [sp, #2]	@ zero_extendqisi2
 8578 003e DA43     		mvns	r2, r3
 8579              		.loc 1 1422 20
 8580 0040 019B     		ldr	r3, [sp, #4]
 8581 0042 1B68     		ldr	r3, [r3]
 8582              		.loc 1 1422 47
 8583 0044 9A60     		str	r2, [r3, #8]
1423:C:/StellarStudio-7.0/SDKS/StellarESDK-1.7.0/Modules/Drivers/Timers/HRTIM/src\hrtim.c ****                 hdp->hrtim->sMasterRegs.MDIER = ~(event) & ier;
 8584              		.loc 1 1423 49
 8585 0046 9DF80230 		ldrb	r3, [sp, #2]	@ zero_extendqisi2
 8586 004a DB43     		mvns	r3, r3
 8587 004c 1946     		mov	r1, r3
 8588              		.loc 1 1423 20
 8589 004e 019B     		ldr	r3, [sp, #4]
 8590 0050 1B68     		ldr	r3, [r3]
 8591              		.loc 1 1423 58
 8592 0052 039A     		ldr	r2, [sp, #12]
 8593 0054 0A40     		ands	r2, r2, r1
 8594              		.loc 1 1423 47
 8595 0056 DA60     		str	r2, [r3, #12]
1424:C:/StellarStudio-7.0/SDKS/StellarESDK-1.7.0/Modules/Drivers/Timers/HRTIM/src\hrtim.c ****             }
1425:C:/StellarStudio-7.0/SDKS/StellarESDK-1.7.0/Modules/Drivers/Timers/HRTIM/src\hrtim.c ****         } else if (cb_op == HRTIM_CB_FAULT) {
1426:C:/StellarStudio-7.0/SDKS/StellarESDK-1.7.0/Modules/Drivers/Timers/HRTIM/src\hrtim.c ****             ier = hdp->hrtim->sCommonRegs.IER;
1427:C:/StellarStudio-7.0/SDKS/StellarESDK-1.7.0/Modules/Drivers/Timers/HRTIM/src\hrtim.c ****             if ((ier & (1UL << (event))) != 0U) {
1428:C:/StellarStudio-7.0/SDKS/StellarESDK-1.7.0/Modules/Drivers/Timers/HRTIM/src\hrtim.c ****                 hdp->hrtim->sCommonRegs.ICR = ~(event);
1429:C:/StellarStudio-7.0/SDKS/StellarESDK-1.7.0/Modules/Drivers/Timers/HRTIM/src\hrtim.c ****                 hdp->hrtim->sCommonRegs.IER = ~(event) & ier;
1430:C:/StellarStudio-7.0/SDKS/StellarESDK-1.7.0/Modules/Drivers/Timers/HRTIM/src\hrtim.c ****             }
1431:C:/StellarStudio-7.0/SDKS/StellarESDK-1.7.0/Modules/Drivers/Timers/HRTIM/src\hrtim.c ****         } else {
1432:C:/StellarStudio-7.0/SDKS/StellarESDK-1.7.0/Modules/Drivers/Timers/HRTIM/src\hrtim.c ****             ier = hdp->hrtim->sTimerxRegs[cb_op].TIMxDIER;
1433:C:/StellarStudio-7.0/SDKS/StellarESDK-1.7.0/Modules/Drivers/Timers/HRTIM/src\hrtim.c ****             if ((ier & (1UL << (event))) != 0U) {
1434:C:/StellarStudio-7.0/SDKS/StellarESDK-1.7.0/Modules/Drivers/Timers/HRTIM/src\hrtim.c ****                 hdp->hrtim->sTimerxRegs[cb_op].TIMxICR  = ~(event);
1435:C:/StellarStudio-7.0/SDKS/StellarESDK-1.7.0/Modules/Drivers/Timers/HRTIM/src\hrtim.c ****                 hdp->hrtim->sTimerxRegs[cb_op].TIMxDIER = ~(event) & ier;
1436:C:/StellarStudio-7.0/SDKS/StellarESDK-1.7.0/Modules/Drivers/Timers/HRTIM/src\hrtim.c ****             }
1437:C:/StellarStudio-7.0/SDKS/StellarESDK-1.7.0/Modules/Drivers/Timers/HRTIM/src\hrtim.c ****         }
1438:C:/StellarStudio-7.0/SDKS/StellarESDK-1.7.0/Modules/Drivers/Timers/HRTIM/src\hrtim.c ****     }
1439:C:/StellarStudio-7.0/SDKS/StellarESDK-1.7.0/Modules/Drivers/Timers/HRTIM/src\hrtim.c **** }
 8596              		.loc 1 1439 1
 8597 0058 4EE0     		b	.L284
 8598              	.L282:
1425:C:/StellarStudio-7.0/SDKS/StellarESDK-1.7.0/Modules/Drivers/Timers/HRTIM/src\hrtim.c ****             ier = hdp->hrtim->sCommonRegs.IER;
 8599              		.loc 1 1425 19
 8600 005a 9DF80330 		ldrb	r3, [sp, #3]	@ zero_extendqisi2
 8601 005e 072B     		cmp	r3, #7
 8602 0060 1FD1     		bne	.L283
1426:C:/StellarStudio-7.0/SDKS/StellarESDK-1.7.0/Modules/Drivers/Timers/HRTIM/src\hrtim.c ****             if ((ier & (1UL << (event))) != 0U) {
 8603              		.loc 1 1426 22
 8604 0062 019B     		ldr	r3, [sp, #4]
 8605 0064 1B68     		ldr	r3, [r3]
1426:C:/StellarStudio-7.0/SDKS/StellarESDK-1.7.0/Modules/Drivers/Timers/HRTIM/src\hrtim.c ****             if ((ier & (1UL << (event))) != 0U) {
 8606              		.loc 1 1426 17
 8607 0066 D3F89033 		ldr	r3, [r3, #912]
 8608 006a 0393     		str	r3, [sp, #12]
1427:C:/StellarStudio-7.0/SDKS/StellarESDK-1.7.0/Modules/Drivers/Timers/HRTIM/src\hrtim.c ****                 hdp->hrtim->sCommonRegs.ICR = ~(event);
 8609              		.loc 1 1427 42
 8610 006c 9DF80230 		ldrb	r3, [sp, #2]	@ zero_extendqisi2
 8611 0070 039A     		ldr	r2, [sp, #12]
 8612 0072 22FA03F3 		lsr	r3, r2, r3
 8613 0076 03F00103 		and	r3, r3, #1
1427:C:/StellarStudio-7.0/SDKS/StellarESDK-1.7.0/Modules/Drivers/Timers/HRTIM/src\hrtim.c ****                 hdp->hrtim->sCommonRegs.ICR = ~(event);
 8614              		.loc 1 1427 16
 8615 007a 002B     		cmp	r3, #0
 8616 007c 3CD0     		beq	.L284
1428:C:/StellarStudio-7.0/SDKS/StellarESDK-1.7.0/Modules/Drivers/Timers/HRTIM/src\hrtim.c ****                 hdp->hrtim->sCommonRegs.IER = ~(event) & ier;
 8617              		.loc 1 1428 47
 8618 007e 9DF80230 		ldrb	r3, [sp, #2]	@ zero_extendqisi2
 8619 0082 DA43     		mvns	r2, r3
1428:C:/StellarStudio-7.0/SDKS/StellarESDK-1.7.0/Modules/Drivers/Timers/HRTIM/src\hrtim.c ****                 hdp->hrtim->sCommonRegs.IER = ~(event) & ier;
 8620              		.loc 1 1428 20
 8621 0084 019B     		ldr	r3, [sp, #4]
 8622 0086 1B68     		ldr	r3, [r3]
1428:C:/StellarStudio-7.0/SDKS/StellarESDK-1.7.0/Modules/Drivers/Timers/HRTIM/src\hrtim.c ****                 hdp->hrtim->sCommonRegs.IER = ~(event) & ier;
 8623              		.loc 1 1428 45
 8624 0088 C3F88C23 		str	r2, [r3, #908]
1429:C:/StellarStudio-7.0/SDKS/StellarESDK-1.7.0/Modules/Drivers/Timers/HRTIM/src\hrtim.c ****             }
 8625              		.loc 1 1429 47
 8626 008c 9DF80230 		ldrb	r3, [sp, #2]	@ zero_extendqisi2
 8627 0090 DB43     		mvns	r3, r3
 8628 0092 1946     		mov	r1, r3
1429:C:/StellarStudio-7.0/SDKS/StellarESDK-1.7.0/Modules/Drivers/Timers/HRTIM/src\hrtim.c ****             }
 8629              		.loc 1 1429 20
 8630 0094 019B     		ldr	r3, [sp, #4]
 8631 0096 1B68     		ldr	r3, [r3]
1429:C:/StellarStudio-7.0/SDKS/StellarESDK-1.7.0/Modules/Drivers/Timers/HRTIM/src\hrtim.c ****             }
 8632              		.loc 1 1429 56
 8633 0098 039A     		ldr	r2, [sp, #12]
 8634 009a 0A40     		ands	r2, r2, r1
1429:C:/StellarStudio-7.0/SDKS/StellarESDK-1.7.0/Modules/Drivers/Timers/HRTIM/src\hrtim.c ****             }
 8635              		.loc 1 1429 45
 8636 009c C3F89023 		str	r2, [r3, #912]
 8637              		.loc 1 1439 1
 8638 00a0 2AE0     		b	.L284
 8639              	.L283:
1432:C:/StellarStudio-7.0/SDKS/StellarESDK-1.7.0/Modules/Drivers/Timers/HRTIM/src\hrtim.c ****             if ((ier & (1UL << (event))) != 0U) {
 8640              		.loc 1 1432 22
 8641 00a2 019B     		ldr	r3, [sp, #4]
 8642 00a4 1A68     		ldr	r2, [r3]
1432:C:/StellarStudio-7.0/SDKS/StellarESDK-1.7.0/Modules/Drivers/Timers/HRTIM/src\hrtim.c ****             if ((ier & (1UL << (event))) != 0U) {
 8643              		.loc 1 1432 49
 8644 00a6 9DF80330 		ldrb	r3, [sp, #3]	@ zero_extendqisi2
1432:C:/StellarStudio-7.0/SDKS/StellarESDK-1.7.0/Modules/Drivers/Timers/HRTIM/src\hrtim.c ****             if ((ier & (1UL << (event))) != 0U) {
 8645              		.loc 1 1432 17
 8646 00aa DB01     		lsls	r3, r3, #7
 8647 00ac 1344     		add	r3, r3, r2
 8648 00ae 8C33     		adds	r3, r3, #140
 8649 00b0 1B68     		ldr	r3, [r3]
 8650 00b2 0393     		str	r3, [sp, #12]
1433:C:/StellarStudio-7.0/SDKS/StellarESDK-1.7.0/Modules/Drivers/Timers/HRTIM/src\hrtim.c ****                 hdp->hrtim->sTimerxRegs[cb_op].TIMxICR  = ~(event);
 8651              		.loc 1 1433 42
 8652 00b4 9DF80230 		ldrb	r3, [sp, #2]	@ zero_extendqisi2
 8653 00b8 039A     		ldr	r2, [sp, #12]
 8654 00ba 22FA03F3 		lsr	r3, r2, r3
 8655 00be 03F00103 		and	r3, r3, #1
1433:C:/StellarStudio-7.0/SDKS/StellarESDK-1.7.0/Modules/Drivers/Timers/HRTIM/src\hrtim.c ****                 hdp->hrtim->sTimerxRegs[cb_op].TIMxICR  = ~(event);
 8656              		.loc 1 1433 16
 8657 00c2 002B     		cmp	r3, #0
 8658 00c4 18D0     		beq	.L284
1434:C:/StellarStudio-7.0/SDKS/StellarESDK-1.7.0/Modules/Drivers/Timers/HRTIM/src\hrtim.c ****                 hdp->hrtim->sTimerxRegs[cb_op].TIMxDIER = ~(event) & ier;
 8659              		.loc 1 1434 59
 8660 00c6 9DF80230 		ldrb	r3, [sp, #2]	@ zero_extendqisi2
 8661 00ca D943     		mvns	r1, r3
1434:C:/StellarStudio-7.0/SDKS/StellarESDK-1.7.0/Modules/Drivers/Timers/HRTIM/src\hrtim.c ****                 hdp->hrtim->sTimerxRegs[cb_op].TIMxDIER = ~(event) & ier;
 8662              		.loc 1 1434 20
 8663 00cc 019B     		ldr	r3, [sp, #4]
 8664 00ce 1A68     		ldr	r2, [r3]
1434:C:/StellarStudio-7.0/SDKS/StellarESDK-1.7.0/Modules/Drivers/Timers/HRTIM/src\hrtim.c ****                 hdp->hrtim->sTimerxRegs[cb_op].TIMxDIER = ~(event) & ier;
 8665              		.loc 1 1434 47
 8666 00d0 9DF80330 		ldrb	r3, [sp, #3]	@ zero_extendqisi2
1434:C:/StellarStudio-7.0/SDKS/StellarESDK-1.7.0/Modules/Drivers/Timers/HRTIM/src\hrtim.c ****                 hdp->hrtim->sTimerxRegs[cb_op].TIMxDIER = ~(event) & ier;
 8667              		.loc 1 1434 57
 8668 00d4 DB01     		lsls	r3, r3, #7
 8669 00d6 1344     		add	r3, r3, r2
 8670 00d8 8833     		adds	r3, r3, #136
 8671 00da 1960     		str	r1, [r3]
1435:C:/StellarStudio-7.0/SDKS/StellarESDK-1.7.0/Modules/Drivers/Timers/HRTIM/src\hrtim.c ****             }
 8672              		.loc 1 1435 59
 8673 00dc 9DF80230 		ldrb	r3, [sp, #2]	@ zero_extendqisi2
 8674 00e0 DB43     		mvns	r3, r3
 8675 00e2 1846     		mov	r0, r3
1435:C:/StellarStudio-7.0/SDKS/StellarESDK-1.7.0/Modules/Drivers/Timers/HRTIM/src\hrtim.c ****             }
 8676              		.loc 1 1435 20
 8677 00e4 019B     		ldr	r3, [sp, #4]
 8678 00e6 1968     		ldr	r1, [r3]
1435:C:/StellarStudio-7.0/SDKS/StellarESDK-1.7.0/Modules/Drivers/Timers/HRTIM/src\hrtim.c ****             }
 8679              		.loc 1 1435 47
 8680 00e8 9DF80330 		ldrb	r3, [sp, #3]	@ zero_extendqisi2
1435:C:/StellarStudio-7.0/SDKS/StellarESDK-1.7.0/Modules/Drivers/Timers/HRTIM/src\hrtim.c ****             }
 8681              		.loc 1 1435 68
 8682 00ec 039A     		ldr	r2, [sp, #12]
 8683 00ee 0240     		ands	r2, r2, r0
1435:C:/StellarStudio-7.0/SDKS/StellarESDK-1.7.0/Modules/Drivers/Timers/HRTIM/src\hrtim.c ****             }
 8684              		.loc 1 1435 57
 8685 00f0 DB01     		lsls	r3, r3, #7
 8686 00f2 0B44     		add	r3, r3, r1
 8687 00f4 8C33     		adds	r3, r3, #140
 8688 00f6 1A60     		str	r2, [r3]
 8689              	.L284:
 8690              		.loc 1 1439 1
 8691 00f8 00BF     		nop
 8692 00fa 04B0     		add	sp, sp, #16
 8693              		.cfi_def_cfa_offset 0
 8694              		@ sp needed
 8695 00fc 7047     		bx	lr
 8696              		.cfi_endproc
 8697              	.LFE175:
 8699 00fe 00BF     		.section	.text.hrtim_timer_enable_output,"ax",%progbits
 8700              		.align	1
 8701              		.p2align 4,,15
 8702              		.global	hrtim_timer_enable_output
 8703              		.syntax unified
 8704              		.thumb
 8705              		.thumb_func
 8707              	hrtim_timer_enable_output:
 8708              	.LFB176:
1440:C:/StellarStudio-7.0/SDKS/StellarESDK-1.7.0/Modules/Drivers/Timers/HRTIM/src\hrtim.c **** 
1441:C:/StellarStudio-7.0/SDKS/StellarESDK-1.7.0/Modules/Drivers/Timers/HRTIM/src\hrtim.c **** void hrtim_timer_enable_output(hrtim_driver_t *hdp,  uint16_t omask) {
 8709              		.loc 1 1441 70
 8710              		.cfi_startproc
 8711              		@ args = 0, pretend = 0, frame = 8
 8712              		@ frame_needed = 0, uses_anonymous_args = 0
 8713              		@ link register save eliminated.
 8714 0000 82B0     		sub	sp, sp, #8
 8715              		.cfi_def_cfa_offset 8
 8716 0002 0190     		str	r0, [sp, #4]
 8717 0004 0B46     		mov	r3, r1
 8718 0006 ADF80230 		strh	r3, [sp, #2]	@ movhi
1442:C:/StellarStudio-7.0/SDKS/StellarESDK-1.7.0/Modules/Drivers/Timers/HRTIM/src\hrtim.c **** 
1443:C:/StellarStudio-7.0/SDKS/StellarESDK-1.7.0/Modules/Drivers/Timers/HRTIM/src\hrtim.c ****     hdp->hrtim->sCommonRegs.OENR = (0xFFFUL & omask);
 8719              		.loc 1 1443 45
 8720 000a BDF80220 		ldrh	r2, [sp, #2]
 8721              		.loc 1 1443 8
 8722 000e 019B     		ldr	r3, [sp, #4]
 8723 0010 1B68     		ldr	r3, [r3]
 8724              		.loc 1 1443 45
 8725 0012 C2F30B02 		ubfx	r2, r2, #0, #12
 8726              		.loc 1 1443 34
 8727 0016 C3F89423 		str	r2, [r3, #916]
1444:C:/StellarStudio-7.0/SDKS/StellarESDK-1.7.0/Modules/Drivers/Timers/HRTIM/src\hrtim.c **** }
 8728              		.loc 1 1444 1
 8729 001a 00BF     		nop
 8730 001c 02B0     		add	sp, sp, #8
 8731              		.cfi_def_cfa_offset 0
 8732              		@ sp needed
 8733 001e 7047     		bx	lr
 8734              		.cfi_endproc
 8735              	.LFE176:
 8737              		.section	.text.hrtim_timer_disable_output,"ax",%progbits
 8738              		.align	1
 8739              		.p2align 4,,15
 8740              		.global	hrtim_timer_disable_output
 8741              		.syntax unified
 8742              		.thumb
 8743              		.thumb_func
 8745              	hrtim_timer_disable_output:
 8746              	.LFB177:
1445:C:/StellarStudio-7.0/SDKS/StellarESDK-1.7.0/Modules/Drivers/Timers/HRTIM/src\hrtim.c **** 
1446:C:/StellarStudio-7.0/SDKS/StellarESDK-1.7.0/Modules/Drivers/Timers/HRTIM/src\hrtim.c **** void hrtim_timer_disable_output(hrtim_driver_t *hdp, uint16_t omask) {
 8747              		.loc 1 1446 70
 8748              		.cfi_startproc
 8749              		@ args = 0, pretend = 0, frame = 8
 8750              		@ frame_needed = 0, uses_anonymous_args = 0
 8751              		@ link register save eliminated.
 8752 0000 82B0     		sub	sp, sp, #8
 8753              		.cfi_def_cfa_offset 8
 8754 0002 0190     		str	r0, [sp, #4]
 8755 0004 0B46     		mov	r3, r1
 8756 0006 ADF80230 		strh	r3, [sp, #2]	@ movhi
1447:C:/StellarStudio-7.0/SDKS/StellarESDK-1.7.0/Modules/Drivers/Timers/HRTIM/src\hrtim.c **** 
1448:C:/StellarStudio-7.0/SDKS/StellarESDK-1.7.0/Modules/Drivers/Timers/HRTIM/src\hrtim.c ****     hdp->hrtim->sCommonRegs.ODISR = (0xFFFUL & omask);
 8757              		.loc 1 1448 46
 8758 000a BDF80220 		ldrh	r2, [sp, #2]
 8759              		.loc 1 1448 8
 8760 000e 019B     		ldr	r3, [sp, #4]
 8761 0010 1B68     		ldr	r3, [r3]
 8762              		.loc 1 1448 46
 8763 0012 C2F30B02 		ubfx	r2, r2, #0, #12
 8764              		.loc 1 1448 35
 8765 0016 C3F89823 		str	r2, [r3, #920]
1449:C:/StellarStudio-7.0/SDKS/StellarESDK-1.7.0/Modules/Drivers/Timers/HRTIM/src\hrtim.c **** }
 8766              		.loc 1 1449 1
 8767 001a 00BF     		nop
 8768 001c 02B0     		add	sp, sp, #8
 8769              		.cfi_def_cfa_offset 0
 8770              		@ sp needed
 8771 001e 7047     		bx	lr
 8772              		.cfi_endproc
 8773              	.LFE177:
 8775              		.section	.text.hrtim_timer_enable,"ax",%progbits
 8776              		.align	1
 8777              		.p2align 4,,15
 8778              		.global	hrtim_timer_enable
 8779              		.syntax unified
 8780              		.thumb
 8781              		.thumb_func
 8783              	hrtim_timer_enable:
 8784              	.LFB178:
1450:C:/StellarStudio-7.0/SDKS/StellarESDK-1.7.0/Modules/Drivers/Timers/HRTIM/src\hrtim.c **** 
1451:C:/StellarStudio-7.0/SDKS/StellarESDK-1.7.0/Modules/Drivers/Timers/HRTIM/src\hrtim.c **** void hrtim_timer_enable(hrtim_driver_t *hdp, uint8_t tmask) {
 8785              		.loc 1 1451 61
 8786              		.cfi_startproc
 8787              		@ args = 0, pretend = 0, frame = 8
 8788              		@ frame_needed = 0, uses_anonymous_args = 0
 8789              		@ link register save eliminated.
 8790 0000 82B0     		sub	sp, sp, #8
 8791              		.cfi_def_cfa_offset 8
 8792 0002 0190     		str	r0, [sp, #4]
 8793 0004 0B46     		mov	r3, r1
 8794 0006 8DF80330 		strb	r3, [sp, #3]
1452:C:/StellarStudio-7.0/SDKS/StellarESDK-1.7.0/Modules/Drivers/Timers/HRTIM/src\hrtim.c **** 
1453:C:/StellarStudio-7.0/SDKS/StellarESDK-1.7.0/Modules/Drivers/Timers/HRTIM/src\hrtim.c ****     if (hdp->is_enable == true) {
 8795              		.loc 1 1453 12
 8796 000a 019B     		ldr	r3, [sp, #4]
 8797 000c 1B79     		ldrb	r3, [r3, #4]	@ zero_extendqisi2
 8798              		.loc 1 1453 8
 8799 000e 002B     		cmp	r3, #0
 8800 0010 09D0     		beq	.L289
1454:C:/StellarStudio-7.0/SDKS/StellarESDK-1.7.0/Modules/Drivers/Timers/HRTIM/src\hrtim.c ****         hdp->hrtim->sMasterRegs.MCR |= (((uint32_t)tmask) << HRTIM_MCR_MCEN_Pos);
 8801              		.loc 1 1454 12
 8802 0012 019B     		ldr	r3, [sp, #4]
 8803 0014 1B68     		ldr	r3, [r3]
 8804              		.loc 1 1454 37
 8805 0016 1968     		ldr	r1, [r3]
 8806              		.loc 1 1454 42
 8807 0018 9DF80330 		ldrb	r3, [sp, #3]	@ zero_extendqisi2
 8808              		.loc 1 1454 59
 8809 001c 1A04     		lsls	r2, r3, #16
 8810              		.loc 1 1454 12
 8811 001e 019B     		ldr	r3, [sp, #4]
 8812 0020 1B68     		ldr	r3, [r3]
 8813              		.loc 1 1454 37
 8814 0022 0A43     		orrs	r2, r2, r1
 8815 0024 1A60     		str	r2, [r3]
 8816              	.L289:
1455:C:/StellarStudio-7.0/SDKS/StellarESDK-1.7.0/Modules/Drivers/Timers/HRTIM/src\hrtim.c ****     }
1456:C:/StellarStudio-7.0/SDKS/StellarESDK-1.7.0/Modules/Drivers/Timers/HRTIM/src\hrtim.c **** }
 8817              		.loc 1 1456 1
 8818 0026 00BF     		nop
 8819 0028 02B0     		add	sp, sp, #8
 8820              		.cfi_def_cfa_offset 0
 8821              		@ sp needed
 8822 002a 7047     		bx	lr
 8823              		.cfi_endproc
 8824              	.LFE178:
 8826              		.section	.text.hrtim_timer_disable,"ax",%progbits
 8827              		.align	1
 8828              		.p2align 4,,15
 8829              		.global	hrtim_timer_disable
 8830              		.syntax unified
 8831              		.thumb
 8832              		.thumb_func
 8834              	hrtim_timer_disable:
 8835              	.LFB179:
1457:C:/StellarStudio-7.0/SDKS/StellarESDK-1.7.0/Modules/Drivers/Timers/HRTIM/src\hrtim.c **** 
1458:C:/StellarStudio-7.0/SDKS/StellarESDK-1.7.0/Modules/Drivers/Timers/HRTIM/src\hrtim.c **** void hrtim_timer_disable(hrtim_driver_t *hdp, uint8_t tmask) {
 8836              		.loc 1 1458 62
 8837              		.cfi_startproc
 8838              		@ args = 0, pretend = 0, frame = 8
 8839              		@ frame_needed = 0, uses_anonymous_args = 0
 8840              		@ link register save eliminated.
 8841 0000 82B0     		sub	sp, sp, #8
 8842              		.cfi_def_cfa_offset 8
 8843 0002 0190     		str	r0, [sp, #4]
 8844 0004 0B46     		mov	r3, r1
 8845 0006 8DF80330 		strb	r3, [sp, #3]
1459:C:/StellarStudio-7.0/SDKS/StellarESDK-1.7.0/Modules/Drivers/Timers/HRTIM/src\hrtim.c **** 
1460:C:/StellarStudio-7.0/SDKS/StellarESDK-1.7.0/Modules/Drivers/Timers/HRTIM/src\hrtim.c ****     if (hdp->is_enable == true) {
 8846              		.loc 1 1460 12
 8847 000a 019B     		ldr	r3, [sp, #4]
 8848 000c 1B79     		ldrb	r3, [r3, #4]	@ zero_extendqisi2
 8849              		.loc 1 1460 8
 8850 000e 002B     		cmp	r3, #0
 8851 0010 0AD0     		beq	.L292
1461:C:/StellarStudio-7.0/SDKS/StellarESDK-1.7.0/Modules/Drivers/Timers/HRTIM/src\hrtim.c ****         hdp->hrtim->sMasterRegs.MCR &= ~(((uint32_t)tmask) << HRTIM_MCR_MCEN_Pos);
 8852              		.loc 1 1461 12
 8853 0012 019B     		ldr	r3, [sp, #4]
 8854 0014 1B68     		ldr	r3, [r3]
 8855              		.loc 1 1461 37
 8856 0016 1968     		ldr	r1, [r3]
 8857              		.loc 1 1461 43
 8858 0018 9DF80330 		ldrb	r3, [sp, #3]	@ zero_extendqisi2
 8859              		.loc 1 1461 60
 8860 001c 1B04     		lsls	r3, r3, #16
 8861              		.loc 1 1461 40
 8862 001e DA43     		mvns	r2, r3
 8863              		.loc 1 1461 12
 8864 0020 019B     		ldr	r3, [sp, #4]
 8865 0022 1B68     		ldr	r3, [r3]
 8866              		.loc 1 1461 37
 8867 0024 0A40     		ands	r2, r2, r1
 8868 0026 1A60     		str	r2, [r3]
 8869              	.L292:
1462:C:/StellarStudio-7.0/SDKS/StellarESDK-1.7.0/Modules/Drivers/Timers/HRTIM/src\hrtim.c ****     }
1463:C:/StellarStudio-7.0/SDKS/StellarESDK-1.7.0/Modules/Drivers/Timers/HRTIM/src\hrtim.c **** }
 8870              		.loc 1 1463 1
 8871 0028 00BF     		nop
 8872 002a 02B0     		add	sp, sp, #8
 8873              		.cfi_def_cfa_offset 0
 8874              		@ sp needed
 8875 002c 7047     		bx	lr
 8876              		.cfi_endproc
 8877              	.LFE179:
 8879 002e 00BF     		.section	.text.hrtim_timer_set_counter,"ax",%progbits
 8880              		.align	1
 8881              		.p2align 4,,15
 8882              		.global	hrtim_timer_set_counter
 8883              		.syntax unified
 8884              		.thumb
 8885              		.thumb_func
 8887              	hrtim_timer_set_counter:
 8888              	.LFB180:
1464:C:/StellarStudio-7.0/SDKS/StellarESDK-1.7.0/Modules/Drivers/Timers/HRTIM/src\hrtim.c **** 
1465:C:/StellarStudio-7.0/SDKS/StellarESDK-1.7.0/Modules/Drivers/Timers/HRTIM/src\hrtim.c **** void hrtim_timer_set_counter(hrtim_driver_t *hdp, hrtim_timer_t timer,
1466:C:/StellarStudio-7.0/SDKS/StellarESDK-1.7.0/Modules/Drivers/Timers/HRTIM/src\hrtim.c ****                              uint16_t value) {
 8889              		.loc 1 1466 46
 8890              		.cfi_startproc
 8891              		@ args = 0, pretend = 0, frame = 8
 8892              		@ frame_needed = 0, uses_anonymous_args = 0
 8893              		@ link register save eliminated.
 8894 0000 82B0     		sub	sp, sp, #8
 8895              		.cfi_def_cfa_offset 8
 8896 0002 0190     		str	r0, [sp, #4]
 8897 0004 0B46     		mov	r3, r1
 8898 0006 8DF80330 		strb	r3, [sp, #3]
 8899 000a 1346     		mov	r3, r2	@ movhi
 8900 000c ADF80030 		strh	r3, [sp]	@ movhi
1467:C:/StellarStudio-7.0/SDKS/StellarESDK-1.7.0/Modules/Drivers/Timers/HRTIM/src\hrtim.c **** 
1468:C:/StellarStudio-7.0/SDKS/StellarESDK-1.7.0/Modules/Drivers/Timers/HRTIM/src\hrtim.c ****     if (hdp->is_enable == true) {
 8901              		.loc 1 1468 12
 8902 0010 019B     		ldr	r3, [sp, #4]
 8903 0012 1B79     		ldrb	r3, [r3, #4]	@ zero_extendqisi2
 8904              		.loc 1 1468 8
 8905 0014 002B     		cmp	r3, #0
 8906 0016 13D0     		beq	.L296
1469:C:/StellarStudio-7.0/SDKS/StellarESDK-1.7.0/Modules/Drivers/Timers/HRTIM/src\hrtim.c ****         if (timer == HRTIM_TIMER_MASTER) {
 8907              		.loc 1 1469 12
 8908 0018 9DF80330 		ldrb	r3, [sp, #3]	@ zero_extendqisi2
 8909 001c 062B     		cmp	r3, #6
 8910 001e 05D1     		bne	.L295
1470:C:/StellarStudio-7.0/SDKS/StellarESDK-1.7.0/Modules/Drivers/Timers/HRTIM/src\hrtim.c ****             hdp->hrtim->sMasterRegs.MCNTR = (uint32_t)value;
 8911              		.loc 1 1470 16
 8912 0020 019B     		ldr	r3, [sp, #4]
 8913 0022 1B68     		ldr	r3, [r3]
 8914              		.loc 1 1470 45
 8915 0024 BDF80020 		ldrh	r2, [sp]
 8916              		.loc 1 1470 43
 8917 0028 1A61     		str	r2, [r3, #16]
1471:C:/StellarStudio-7.0/SDKS/StellarESDK-1.7.0/Modules/Drivers/Timers/HRTIM/src\hrtim.c ****         } else {
1472:C:/StellarStudio-7.0/SDKS/StellarESDK-1.7.0/Modules/Drivers/Timers/HRTIM/src\hrtim.c ****             hdp->hrtim->sTimerxRegs[timer].CNTxR = (uint32_t)value;
1473:C:/StellarStudio-7.0/SDKS/StellarESDK-1.7.0/Modules/Drivers/Timers/HRTIM/src\hrtim.c ****         }
1474:C:/StellarStudio-7.0/SDKS/StellarESDK-1.7.0/Modules/Drivers/Timers/HRTIM/src\hrtim.c ****     }
1475:C:/StellarStudio-7.0/SDKS/StellarESDK-1.7.0/Modules/Drivers/Timers/HRTIM/src\hrtim.c **** }
 8918              		.loc 1 1475 1
 8919 002a 09E0     		b	.L296
 8920              	.L295:
1472:C:/StellarStudio-7.0/SDKS/StellarESDK-1.7.0/Modules/Drivers/Timers/HRTIM/src\hrtim.c ****         }
 8921              		.loc 1 1472 16
 8922 002c 019B     		ldr	r3, [sp, #4]
 8923 002e 1968     		ldr	r1, [r3]
1472:C:/StellarStudio-7.0/SDKS/StellarESDK-1.7.0/Modules/Drivers/Timers/HRTIM/src\hrtim.c ****         }
 8924              		.loc 1 1472 43
 8925 0030 9DF80330 		ldrb	r3, [sp, #3]	@ zero_extendqisi2
1472:C:/StellarStudio-7.0/SDKS/StellarESDK-1.7.0/Modules/Drivers/Timers/HRTIM/src\hrtim.c ****         }
 8926              		.loc 1 1472 52
 8927 0034 BDF80020 		ldrh	r2, [sp]
1472:C:/StellarStudio-7.0/SDKS/StellarESDK-1.7.0/Modules/Drivers/Timers/HRTIM/src\hrtim.c ****         }
 8928              		.loc 1 1472 50
 8929 0038 DB01     		lsls	r3, r3, #7
 8930 003a 0B44     		add	r3, r3, r1
 8931 003c 9033     		adds	r3, r3, #144
 8932 003e 1A60     		str	r2, [r3]
 8933              	.L296:
 8934              		.loc 1 1475 1
 8935 0040 00BF     		nop
 8936 0042 02B0     		add	sp, sp, #8
 8937              		.cfi_def_cfa_offset 0
 8938              		@ sp needed
 8939 0044 7047     		bx	lr
 8940              		.cfi_endproc
 8941              	.LFE180:
 8943 0046 00BF     		.section	.text.hrtim_timer_get_counter,"ax",%progbits
 8944              		.align	1
 8945              		.p2align 4,,15
 8946              		.global	hrtim_timer_get_counter
 8947              		.syntax unified
 8948              		.thumb
 8949              		.thumb_func
 8951              	hrtim_timer_get_counter:
 8952              	.LFB181:
1476:C:/StellarStudio-7.0/SDKS/StellarESDK-1.7.0/Modules/Drivers/Timers/HRTIM/src\hrtim.c **** 
1477:C:/StellarStudio-7.0/SDKS/StellarESDK-1.7.0/Modules/Drivers/Timers/HRTIM/src\hrtim.c **** uint16_t hrtim_timer_get_counter(hrtim_driver_t *hdp, hrtim_timer_t timer) {
 8953              		.loc 1 1477 76
 8954              		.cfi_startproc
 8955              		@ args = 0, pretend = 0, frame = 8
 8956              		@ frame_needed = 0, uses_anonymous_args = 0
 8957              		@ link register save eliminated.
 8958 0000 82B0     		sub	sp, sp, #8
 8959              		.cfi_def_cfa_offset 8
 8960 0002 0190     		str	r0, [sp, #4]
 8961 0004 0B46     		mov	r3, r1
 8962 0006 8DF80330 		strb	r3, [sp, #3]
1478:C:/StellarStudio-7.0/SDKS/StellarESDK-1.7.0/Modules/Drivers/Timers/HRTIM/src\hrtim.c **** 
1479:C:/StellarStudio-7.0/SDKS/StellarESDK-1.7.0/Modules/Drivers/Timers/HRTIM/src\hrtim.c ****     if (hdp->is_enable == true) {
 8963              		.loc 1 1479 12
 8964 000a 019B     		ldr	r3, [sp, #4]
 8965 000c 1B79     		ldrb	r3, [r3, #4]	@ zero_extendqisi2
 8966              		.loc 1 1479 8
 8967 000e 002B     		cmp	r3, #0
 8968 0010 12D0     		beq	.L298
1480:C:/StellarStudio-7.0/SDKS/StellarESDK-1.7.0/Modules/Drivers/Timers/HRTIM/src\hrtim.c ****         if (timer == HRTIM_TIMER_MASTER) {
 8969              		.loc 1 1480 12
 8970 0012 9DF80330 		ldrb	r3, [sp, #3]	@ zero_extendqisi2
 8971 0016 062B     		cmp	r3, #6
 8972 0018 04D1     		bne	.L299
1481:C:/StellarStudio-7.0/SDKS/StellarESDK-1.7.0/Modules/Drivers/Timers/HRTIM/src\hrtim.c ****             return (uint16_t)(hdp->hrtim->sMasterRegs.MCNTR);
 8973              		.loc 1 1481 34
 8974 001a 019B     		ldr	r3, [sp, #4]
 8975 001c 1B68     		ldr	r3, [r3]
 8976              		.loc 1 1481 54
 8977 001e 1B69     		ldr	r3, [r3, #16]
 8978              		.loc 1 1481 20
 8979 0020 9BB2     		uxth	r3, r3
 8980 0022 0AE0     		b	.L300
 8981              	.L299:
1482:C:/StellarStudio-7.0/SDKS/StellarESDK-1.7.0/Modules/Drivers/Timers/HRTIM/src\hrtim.c ****         } else {
1483:C:/StellarStudio-7.0/SDKS/StellarESDK-1.7.0/Modules/Drivers/Timers/HRTIM/src\hrtim.c ****             return (uint16_t)hdp->hrtim->sTimerxRegs[timer].CNTxR;
 8982              		.loc 1 1483 33
 8983 0024 019B     		ldr	r3, [sp, #4]
 8984 0026 1A68     		ldr	r2, [r3]
 8985              		.loc 1 1483 60
 8986 0028 9DF80330 		ldrb	r3, [sp, #3]	@ zero_extendqisi2
 8987 002c DB01     		lsls	r3, r3, #7
 8988 002e 1344     		add	r3, r3, r2
 8989 0030 9033     		adds	r3, r3, #144
 8990 0032 1B68     		ldr	r3, [r3]
 8991              		.loc 1 1483 20
 8992 0034 9BB2     		uxth	r3, r3
 8993 0036 00E0     		b	.L300
 8994              	.L298:
1484:C:/StellarStudio-7.0/SDKS/StellarESDK-1.7.0/Modules/Drivers/Timers/HRTIM/src\hrtim.c ****         }
1485:C:/StellarStudio-7.0/SDKS/StellarESDK-1.7.0/Modules/Drivers/Timers/HRTIM/src\hrtim.c ****     } else {
1486:C:/StellarStudio-7.0/SDKS/StellarESDK-1.7.0/Modules/Drivers/Timers/HRTIM/src\hrtim.c ****         return 0U;
 8995              		.loc 1 1486 16
 8996 0038 0023     		movs	r3, #0
 8997              	.L300:
1487:C:/StellarStudio-7.0/SDKS/StellarESDK-1.7.0/Modules/Drivers/Timers/HRTIM/src\hrtim.c ****     }
1488:C:/StellarStudio-7.0/SDKS/StellarESDK-1.7.0/Modules/Drivers/Timers/HRTIM/src\hrtim.c **** }
 8998              		.loc 1 1488 1
 8999 003a 1846     		mov	r0, r3
 9000 003c 02B0     		add	sp, sp, #8
 9001              		.cfi_def_cfa_offset 0
 9002              		@ sp needed
 9003 003e 7047     		bx	lr
 9004              		.cfi_endproc
 9005              	.LFE181:
 9007              		.section	.text.hrtim_timer_set_repetition,"ax",%progbits
 9008              		.align	1
 9009              		.p2align 4,,15
 9010              		.global	hrtim_timer_set_repetition
 9011              		.syntax unified
 9012              		.thumb
 9013              		.thumb_func
 9015              	hrtim_timer_set_repetition:
 9016              	.LFB182:
1489:C:/StellarStudio-7.0/SDKS/StellarESDK-1.7.0/Modules/Drivers/Timers/HRTIM/src\hrtim.c **** 
1490:C:/StellarStudio-7.0/SDKS/StellarESDK-1.7.0/Modules/Drivers/Timers/HRTIM/src\hrtim.c **** void hrtim_timer_set_repetition(hrtim_driver_t *hdp, hrtim_timer_t timer,
1491:C:/StellarStudio-7.0/SDKS/StellarESDK-1.7.0/Modules/Drivers/Timers/HRTIM/src\hrtim.c ****                                 uint8_t value) {
 9017              		.loc 1 1491 48
 9018              		.cfi_startproc
 9019              		@ args = 0, pretend = 0, frame = 8
 9020              		@ frame_needed = 0, uses_anonymous_args = 0
 9021              		@ link register save eliminated.
 9022 0000 82B0     		sub	sp, sp, #8
 9023              		.cfi_def_cfa_offset 8
 9024 0002 0190     		str	r0, [sp, #4]
 9025 0004 0B46     		mov	r3, r1
 9026 0006 8DF80330 		strb	r3, [sp, #3]
 9027 000a 1346     		mov	r3, r2
 9028 000c 8DF80230 		strb	r3, [sp, #2]
1492:C:/StellarStudio-7.0/SDKS/StellarESDK-1.7.0/Modules/Drivers/Timers/HRTIM/src\hrtim.c **** 
1493:C:/StellarStudio-7.0/SDKS/StellarESDK-1.7.0/Modules/Drivers/Timers/HRTIM/src\hrtim.c ****     if (hdp->is_enable == true) {
 9029              		.loc 1 1493 12
 9030 0010 019B     		ldr	r3, [sp, #4]
 9031 0012 1B79     		ldrb	r3, [r3, #4]	@ zero_extendqisi2
 9032              		.loc 1 1493 8
 9033 0014 002B     		cmp	r3, #0
 9034 0016 13D0     		beq	.L304
1494:C:/StellarStudio-7.0/SDKS/StellarESDK-1.7.0/Modules/Drivers/Timers/HRTIM/src\hrtim.c ****         if (timer == HRTIM_TIMER_MASTER) {
 9035              		.loc 1 1494 12
 9036 0018 9DF80330 		ldrb	r3, [sp, #3]	@ zero_extendqisi2
 9037 001c 062B     		cmp	r3, #6
 9038 001e 05D1     		bne	.L303
1495:C:/StellarStudio-7.0/SDKS/StellarESDK-1.7.0/Modules/Drivers/Timers/HRTIM/src\hrtim.c ****             hdp->hrtim->sMasterRegs.MREP = (uint32_t)value;
 9039              		.loc 1 1495 16
 9040 0020 019B     		ldr	r3, [sp, #4]
 9041 0022 1B68     		ldr	r3, [r3]
 9042              		.loc 1 1495 44
 9043 0024 9DF80220 		ldrb	r2, [sp, #2]	@ zero_extendqisi2
 9044              		.loc 1 1495 42
 9045 0028 9A61     		str	r2, [r3, #24]
1496:C:/StellarStudio-7.0/SDKS/StellarESDK-1.7.0/Modules/Drivers/Timers/HRTIM/src\hrtim.c ****         } else {
1497:C:/StellarStudio-7.0/SDKS/StellarESDK-1.7.0/Modules/Drivers/Timers/HRTIM/src\hrtim.c ****             hdp->hrtim->sTimerxRegs[timer].REPxR = (uint32_t)value;
1498:C:/StellarStudio-7.0/SDKS/StellarESDK-1.7.0/Modules/Drivers/Timers/HRTIM/src\hrtim.c ****         }
1499:C:/StellarStudio-7.0/SDKS/StellarESDK-1.7.0/Modules/Drivers/Timers/HRTIM/src\hrtim.c ****     }
1500:C:/StellarStudio-7.0/SDKS/StellarESDK-1.7.0/Modules/Drivers/Timers/HRTIM/src\hrtim.c **** }
 9046              		.loc 1 1500 1
 9047 002a 09E0     		b	.L304
 9048              	.L303:
1497:C:/StellarStudio-7.0/SDKS/StellarESDK-1.7.0/Modules/Drivers/Timers/HRTIM/src\hrtim.c ****         }
 9049              		.loc 1 1497 16
 9050 002c 019B     		ldr	r3, [sp, #4]
 9051 002e 1968     		ldr	r1, [r3]
1497:C:/StellarStudio-7.0/SDKS/StellarESDK-1.7.0/Modules/Drivers/Timers/HRTIM/src\hrtim.c ****         }
 9052              		.loc 1 1497 43
 9053 0030 9DF80330 		ldrb	r3, [sp, #3]	@ zero_extendqisi2
1497:C:/StellarStudio-7.0/SDKS/StellarESDK-1.7.0/Modules/Drivers/Timers/HRTIM/src\hrtim.c ****         }
 9054              		.loc 1 1497 52
 9055 0034 9DF80220 		ldrb	r2, [sp, #2]	@ zero_extendqisi2
1497:C:/StellarStudio-7.0/SDKS/StellarESDK-1.7.0/Modules/Drivers/Timers/HRTIM/src\hrtim.c ****         }
 9056              		.loc 1 1497 50
 9057 0038 DB01     		lsls	r3, r3, #7
 9058 003a 0B44     		add	r3, r3, r1
 9059 003c 9833     		adds	r3, r3, #152
 9060 003e 1A60     		str	r2, [r3]
 9061              	.L304:
 9062              		.loc 1 1500 1
 9063 0040 00BF     		nop
 9064 0042 02B0     		add	sp, sp, #8
 9065              		.cfi_def_cfa_offset 0
 9066              		@ sp needed
 9067 0044 7047     		bx	lr
 9068              		.cfi_endproc
 9069              	.LFE182:
 9071 0046 00BF     		.section	.text.hrtim_timer_get_repetition,"ax",%progbits
 9072              		.align	1
 9073              		.p2align 4,,15
 9074              		.global	hrtim_timer_get_repetition
 9075              		.syntax unified
 9076              		.thumb
 9077              		.thumb_func
 9079              	hrtim_timer_get_repetition:
 9080              	.LFB183:
1501:C:/StellarStudio-7.0/SDKS/StellarESDK-1.7.0/Modules/Drivers/Timers/HRTIM/src\hrtim.c **** 
1502:C:/StellarStudio-7.0/SDKS/StellarESDK-1.7.0/Modules/Drivers/Timers/HRTIM/src\hrtim.c **** uint8_t hrtim_timer_get_repetition(hrtim_driver_t *hdp, hrtim_timer_t timer) {
 9081              		.loc 1 1502 78
 9082              		.cfi_startproc
 9083              		@ args = 0, pretend = 0, frame = 8
 9084              		@ frame_needed = 0, uses_anonymous_args = 0
 9085              		@ link register save eliminated.
 9086 0000 82B0     		sub	sp, sp, #8
 9087              		.cfi_def_cfa_offset 8
 9088 0002 0190     		str	r0, [sp, #4]
 9089 0004 0B46     		mov	r3, r1
 9090 0006 8DF80330 		strb	r3, [sp, #3]
1503:C:/StellarStudio-7.0/SDKS/StellarESDK-1.7.0/Modules/Drivers/Timers/HRTIM/src\hrtim.c **** 
1504:C:/StellarStudio-7.0/SDKS/StellarESDK-1.7.0/Modules/Drivers/Timers/HRTIM/src\hrtim.c ****     if (hdp->is_enable == true) {
 9091              		.loc 1 1504 12
 9092 000a 019B     		ldr	r3, [sp, #4]
 9093 000c 1B79     		ldrb	r3, [r3, #4]	@ zero_extendqisi2
 9094              		.loc 1 1504 8
 9095 000e 002B     		cmp	r3, #0
 9096 0010 12D0     		beq	.L306
1505:C:/StellarStudio-7.0/SDKS/StellarESDK-1.7.0/Modules/Drivers/Timers/HRTIM/src\hrtim.c ****         if (timer == HRTIM_TIMER_MASTER) {
 9097              		.loc 1 1505 12
 9098 0012 9DF80330 		ldrb	r3, [sp, #3]	@ zero_extendqisi2
 9099 0016 062B     		cmp	r3, #6
 9100 0018 04D1     		bne	.L307
1506:C:/StellarStudio-7.0/SDKS/StellarESDK-1.7.0/Modules/Drivers/Timers/HRTIM/src\hrtim.c ****             return (uint8_t)(hdp->hrtim->sMasterRegs.MREP);
 9101              		.loc 1 1506 33
 9102 001a 019B     		ldr	r3, [sp, #4]
 9103 001c 1B68     		ldr	r3, [r3]
 9104              		.loc 1 1506 53
 9105 001e 9B69     		ldr	r3, [r3, #24]
 9106              		.loc 1 1506 20
 9107 0020 DBB2     		uxtb	r3, r3
 9108 0022 0AE0     		b	.L308
 9109              	.L307:
1507:C:/StellarStudio-7.0/SDKS/StellarESDK-1.7.0/Modules/Drivers/Timers/HRTIM/src\hrtim.c ****         } else {
1508:C:/StellarStudio-7.0/SDKS/StellarESDK-1.7.0/Modules/Drivers/Timers/HRTIM/src\hrtim.c ****             return (uint8_t)(hdp->hrtim->sTimerxRegs[timer].REPxR);
 9110              		.loc 1 1508 33
 9111 0024 019B     		ldr	r3, [sp, #4]
 9112 0026 1A68     		ldr	r2, [r3]
 9113              		.loc 1 1508 60
 9114 0028 9DF80330 		ldrb	r3, [sp, #3]	@ zero_extendqisi2
 9115 002c DB01     		lsls	r3, r3, #7
 9116 002e 1344     		add	r3, r3, r2
 9117 0030 9833     		adds	r3, r3, #152
 9118 0032 1B68     		ldr	r3, [r3]
 9119              		.loc 1 1508 20
 9120 0034 DBB2     		uxtb	r3, r3
 9121 0036 00E0     		b	.L308
 9122              	.L306:
1509:C:/StellarStudio-7.0/SDKS/StellarESDK-1.7.0/Modules/Drivers/Timers/HRTIM/src\hrtim.c ****         }
1510:C:/StellarStudio-7.0/SDKS/StellarESDK-1.7.0/Modules/Drivers/Timers/HRTIM/src\hrtim.c ****     } else {
1511:C:/StellarStudio-7.0/SDKS/StellarESDK-1.7.0/Modules/Drivers/Timers/HRTIM/src\hrtim.c ****         return 0U;
 9123              		.loc 1 1511 16
 9124 0038 0023     		movs	r3, #0
 9125              	.L308:
1512:C:/StellarStudio-7.0/SDKS/StellarESDK-1.7.0/Modules/Drivers/Timers/HRTIM/src\hrtim.c ****     }
1513:C:/StellarStudio-7.0/SDKS/StellarESDK-1.7.0/Modules/Drivers/Timers/HRTIM/src\hrtim.c **** }
 9126              		.loc 1 1513 1
 9127 003a 1846     		mov	r0, r3
 9128 003c 02B0     		add	sp, sp, #8
 9129              		.cfi_def_cfa_offset 0
 9130              		@ sp needed
 9131 003e 7047     		bx	lr
 9132              		.cfi_endproc
 9133              	.LFE183:
 9135              		.section	.text.hrtim_timer_get_cpt,"ax",%progbits
 9136              		.align	1
 9137              		.p2align 4,,15
 9138              		.global	hrtim_timer_get_cpt
 9139              		.syntax unified
 9140              		.thumb
 9141              		.thumb_func
 9143              	hrtim_timer_get_cpt:
 9144              	.LFB184:
1514:C:/StellarStudio-7.0/SDKS/StellarESDK-1.7.0/Modules/Drivers/Timers/HRTIM/src\hrtim.c **** 
1515:C:/StellarStudio-7.0/SDKS/StellarESDK-1.7.0/Modules/Drivers/Timers/HRTIM/src\hrtim.c **** hrtim_cpt_value_t hrtim_timer_get_cpt(hrtim_driver_t *hdp,
1516:C:/StellarStudio-7.0/SDKS/StellarESDK-1.7.0/Modules/Drivers/Timers/HRTIM/src\hrtim.c ****                                       hrtim_timer_t timer,
1517:C:/StellarStudio-7.0/SDKS/StellarESDK-1.7.0/Modules/Drivers/Timers/HRTIM/src\hrtim.c ****                                       hrtim_cpt_t cpt_idx) {
 9145              		.loc 1 1517 60
 9146              		.cfi_startproc
 9147              		@ args = 0, pretend = 0, frame = 32
 9148              		@ frame_needed = 0, uses_anonymous_args = 0
 9149              		@ link register save eliminated.
 9150 0000 88B0     		sub	sp, sp, #32
 9151              		.cfi_def_cfa_offset 32
 9152 0002 0390     		str	r0, [sp, #12]
 9153 0004 0291     		str	r1, [sp, #8]
 9154 0006 1146     		mov	r1, r2
 9155 0008 1A46     		mov	r2, r3
 9156 000a 0B46     		mov	r3, r1
 9157 000c 8DF80730 		strb	r3, [sp, #7]
 9158 0010 1346     		mov	r3, r2
 9159 0012 8DF80630 		strb	r3, [sp, #6]
1518:C:/StellarStudio-7.0/SDKS/StellarESDK-1.7.0/Modules/Drivers/Timers/HRTIM/src\hrtim.c **** 
1519:C:/StellarStudio-7.0/SDKS/StellarESDK-1.7.0/Modules/Drivers/Timers/HRTIM/src\hrtim.c ****     uint32_t tmp;
1520:C:/StellarStudio-7.0/SDKS/StellarESDK-1.7.0/Modules/Drivers/Timers/HRTIM/src\hrtim.c ****     hrtim_cpt_value_t captured;
1521:C:/StellarStudio-7.0/SDKS/StellarESDK-1.7.0/Modules/Drivers/Timers/HRTIM/src\hrtim.c **** 
1522:C:/StellarStudio-7.0/SDKS/StellarESDK-1.7.0/Modules/Drivers/Timers/HRTIM/src\hrtim.c ****     if (cpt_idx == HRTIM_CAPTUREUNIT_1) {
 9160              		.loc 1 1522 8
 9161 0016 9DF80630 		ldrb	r3, [sp, #6]	@ zero_extendqisi2
 9162 001a 002B     		cmp	r3, #0
 9163 001c 11D1     		bne	.L310
1523:C:/StellarStudio-7.0/SDKS/StellarESDK-1.7.0/Modules/Drivers/Timers/HRTIM/src\hrtim.c ****         tmp = hdp->hrtim->sTimerxRegs[timer].CPT1xR;
 9164              		.loc 1 1523 18
 9165 001e 029B     		ldr	r3, [sp, #8]
 9166 0020 1A68     		ldr	r2, [r3]
 9167              		.loc 1 1523 45
 9168 0022 9DF80730 		ldrb	r3, [sp, #7]	@ zero_extendqisi2
 9169              		.loc 1 1523 13
 9170 0026 DB01     		lsls	r3, r3, #7
 9171 0028 1344     		add	r3, r3, r2
 9172 002a B033     		adds	r3, r3, #176
 9173 002c 1B68     		ldr	r3, [r3]
 9174 002e 0793     		str	r3, [sp, #28]
1524:C:/StellarStudio-7.0/SDKS/StellarESDK-1.7.0/Modules/Drivers/Timers/HRTIM/src\hrtim.c ****         captured.value = tmp & 0x0000FFFFUL;
 9175              		.loc 1 1524 30
 9176 0030 079B     		ldr	r3, [sp, #28]
 9177 0032 9BB2     		uxth	r3, r3
 9178              		.loc 1 1524 24
 9179 0034 0593     		str	r3, [sp, #20]
1525:C:/StellarStudio-7.0/SDKS/StellarESDK-1.7.0/Modules/Drivers/Timers/HRTIM/src\hrtim.c ****         captured.dir = (((tmp & 0x00010000UL) == 0x00010000UL)?1UL:0UL);
 9180              		.loc 1 1525 67
 9181 0036 079B     		ldr	r3, [sp, #28]
 9182 0038 1B0C     		lsrs	r3, r3, #16
 9183 003a 03F00103 		and	r3, r3, #1
 9184              		.loc 1 1525 22
 9185 003e 0693     		str	r3, [sp, #24]
 9186 0040 10E0     		b	.L311
 9187              	.L310:
1526:C:/StellarStudio-7.0/SDKS/StellarESDK-1.7.0/Modules/Drivers/Timers/HRTIM/src\hrtim.c ****     } else {
1527:C:/StellarStudio-7.0/SDKS/StellarESDK-1.7.0/Modules/Drivers/Timers/HRTIM/src\hrtim.c ****         tmp = hdp->hrtim->sTimerxRegs[timer].CPT2xR;
 9188              		.loc 1 1527 18
 9189 0042 029B     		ldr	r3, [sp, #8]
 9190 0044 1A68     		ldr	r2, [r3]
 9191              		.loc 1 1527 45
 9192 0046 9DF80730 		ldrb	r3, [sp, #7]	@ zero_extendqisi2
 9193              		.loc 1 1527 13
 9194 004a DB01     		lsls	r3, r3, #7
 9195 004c 1344     		add	r3, r3, r2
 9196 004e B433     		adds	r3, r3, #180
 9197 0050 1B68     		ldr	r3, [r3]
 9198 0052 0793     		str	r3, [sp, #28]
1528:C:/StellarStudio-7.0/SDKS/StellarESDK-1.7.0/Modules/Drivers/Timers/HRTIM/src\hrtim.c ****         captured.value = tmp & 0x0000FFFFUL;
 9199              		.loc 1 1528 30
 9200 0054 079B     		ldr	r3, [sp, #28]
 9201 0056 9BB2     		uxth	r3, r3
 9202              		.loc 1 1528 24
 9203 0058 0593     		str	r3, [sp, #20]
1529:C:/StellarStudio-7.0/SDKS/StellarESDK-1.7.0/Modules/Drivers/Timers/HRTIM/src\hrtim.c ****         captured.dir = (((tmp & 0x00010000UL) == 0x00010000UL)?1UL:0UL);
 9204              		.loc 1 1529 67
 9205 005a 079B     		ldr	r3, [sp, #28]
 9206 005c 1B0C     		lsrs	r3, r3, #16
 9207 005e 03F00103 		and	r3, r3, #1
 9208              		.loc 1 1529 22
 9209 0062 0693     		str	r3, [sp, #24]
 9210              	.L311:
1530:C:/StellarStudio-7.0/SDKS/StellarESDK-1.7.0/Modules/Drivers/Timers/HRTIM/src\hrtim.c ****     }
1531:C:/StellarStudio-7.0/SDKS/StellarESDK-1.7.0/Modules/Drivers/Timers/HRTIM/src\hrtim.c ****    
1532:C:/StellarStudio-7.0/SDKS/StellarESDK-1.7.0/Modules/Drivers/Timers/HRTIM/src\hrtim.c ****     return captured;
 9211              		.loc 1 1532 12
 9212 0064 039B     		ldr	r3, [sp, #12]
 9213 0066 1A46     		mov	r2, r3
 9214 0068 05AB     		add	r3, sp, #20
 9215 006a 93E80300 		ldm	r3, {r0, r1}
 9216 006e 82E80300 		stm	r2, {r0, r1}
1533:C:/StellarStudio-7.0/SDKS/StellarESDK-1.7.0/Modules/Drivers/Timers/HRTIM/src\hrtim.c **** }
 9217              		.loc 1 1533 1
 9218 0072 0398     		ldr	r0, [sp, #12]
 9219 0074 08B0     		add	sp, sp, #32
 9220              		.cfi_def_cfa_offset 0
 9221              		@ sp needed
 9222 0076 7047     		bx	lr
 9223              		.cfi_endproc
 9224              	.LFE184:
 9226              		.section	.text.hrtim_timer_set_counter_reset_event,"ax",%progbits
 9227              		.align	1
 9228              		.p2align 4,,15
 9229              		.global	hrtim_timer_set_counter_reset_event
 9230              		.syntax unified
 9231              		.thumb
 9232              		.thumb_func
 9234              	hrtim_timer_set_counter_reset_event:
 9235              	.LFB185:
1534:C:/StellarStudio-7.0/SDKS/StellarESDK-1.7.0/Modules/Drivers/Timers/HRTIM/src\hrtim.c **** 
1535:C:/StellarStudio-7.0/SDKS/StellarESDK-1.7.0/Modules/Drivers/Timers/HRTIM/src\hrtim.c **** uint32_t hrtim_timer_set_counter_reset_event(hrtim_driver_t *hdp, 
1536:C:/StellarStudio-7.0/SDKS/StellarESDK-1.7.0/Modules/Drivers/Timers/HRTIM/src\hrtim.c ****                                              hrtim_timer_t timer,
1537:C:/StellarStudio-7.0/SDKS/StellarESDK-1.7.0/Modules/Drivers/Timers/HRTIM/src\hrtim.c ****                                              uint32_t event) {
 9236              		.loc 1 1537 62
 9237              		.cfi_startproc
 9238              		@ args = 0, pretend = 0, frame = 24
 9239              		@ frame_needed = 0, uses_anonymous_args = 0
 9240              		@ link register save eliminated.
 9241 0000 86B0     		sub	sp, sp, #24
 9242              		.cfi_def_cfa_offset 24
 9243 0002 0390     		str	r0, [sp, #12]
 9244 0004 0B46     		mov	r3, r1
 9245 0006 0192     		str	r2, [sp, #4]
 9246 0008 8DF80B30 		strb	r3, [sp, #11]
1538:C:/StellarStudio-7.0/SDKS/StellarESDK-1.7.0/Modules/Drivers/Timers/HRTIM/src\hrtim.c **** 
1539:C:/StellarStudio-7.0/SDKS/StellarESDK-1.7.0/Modules/Drivers/Timers/HRTIM/src\hrtim.c ****     uint32_t prev_event = hdp->timer_cntr_rst_event[timer];
 9247              		.loc 1 1539 52
 9248 000c 9DF80B30 		ldrb	r3, [sp, #11]	@ zero_extendqisi2
 9249              		.loc 1 1539 14
 9250 0010 039A     		ldr	r2, [sp, #12]
 9251 0012 B633     		adds	r3, r3, #182
 9252 0014 9B00     		lsls	r3, r3, #2
 9253 0016 1344     		add	r3, r3, r2
 9254 0018 5B68     		ldr	r3, [r3, #4]
 9255 001a 0593     		str	r3, [sp, #20]
1540:C:/StellarStudio-7.0/SDKS/StellarESDK-1.7.0/Modules/Drivers/Timers/HRTIM/src\hrtim.c **** 
1541:C:/StellarStudio-7.0/SDKS/StellarESDK-1.7.0/Modules/Drivers/Timers/HRTIM/src\hrtim.c ****     if (timer != HRTIM_TIMER_MASTER) {
 9256              		.loc 1 1541 8
 9257 001c 9DF80B30 		ldrb	r3, [sp, #11]	@ zero_extendqisi2
 9258 0020 062B     		cmp	r3, #6
 9259 0022 14D0     		beq	.L314
1542:C:/StellarStudio-7.0/SDKS/StellarESDK-1.7.0/Modules/Drivers/Timers/HRTIM/src\hrtim.c ****         hdp->timer_cntr_rst_event[timer] = event;
 9260              		.loc 1 1542 34
 9261 0024 9DF80B30 		ldrb	r3, [sp, #11]	@ zero_extendqisi2
 9262              		.loc 1 1542 42
 9263 0028 039A     		ldr	r2, [sp, #12]
 9264 002a B633     		adds	r3, r3, #182
 9265 002c 9B00     		lsls	r3, r3, #2
 9266 002e 1344     		add	r3, r3, r2
 9267 0030 019A     		ldr	r2, [sp, #4]
 9268 0032 5A60     		str	r2, [r3, #4]
1543:C:/StellarStudio-7.0/SDKS/StellarESDK-1.7.0/Modules/Drivers/Timers/HRTIM/src\hrtim.c **** 
1544:C:/StellarStudio-7.0/SDKS/StellarESDK-1.7.0/Modules/Drivers/Timers/HRTIM/src\hrtim.c ****         /* Update on-fly.*/
1545:C:/StellarStudio-7.0/SDKS/StellarESDK-1.7.0/Modules/Drivers/Timers/HRTIM/src\hrtim.c ****         if (hdp->is_enable == true) {
 9269              		.loc 1 1545 16
 9270 0034 039B     		ldr	r3, [sp, #12]
 9271 0036 1B79     		ldrb	r3, [r3, #4]	@ zero_extendqisi2
 9272              		.loc 1 1545 12
 9273 0038 002B     		cmp	r3, #0
 9274 003a 08D0     		beq	.L314
1546:C:/StellarStudio-7.0/SDKS/StellarESDK-1.7.0/Modules/Drivers/Timers/HRTIM/src\hrtim.c ****             hdp->hrtim->sTimerxRegs[timer].RSTxR = event;
 9275              		.loc 1 1546 16
 9276 003c 039B     		ldr	r3, [sp, #12]
 9277 003e 1A68     		ldr	r2, [r3]
 9278              		.loc 1 1546 43
 9279 0040 9DF80B30 		ldrb	r3, [sp, #11]	@ zero_extendqisi2
 9280              		.loc 1 1546 50
 9281 0044 DB01     		lsls	r3, r3, #7
 9282 0046 1344     		add	r3, r3, r2
 9283 0048 D433     		adds	r3, r3, #212
 9284 004a 019A     		ldr	r2, [sp, #4]
 9285 004c 1A60     		str	r2, [r3]
 9286              	.L314:
1547:C:/StellarStudio-7.0/SDKS/StellarESDK-1.7.0/Modules/Drivers/Timers/HRTIM/src\hrtim.c ****         }    
1548:C:/StellarStudio-7.0/SDKS/StellarESDK-1.7.0/Modules/Drivers/Timers/HRTIM/src\hrtim.c ****     }
1549:C:/StellarStudio-7.0/SDKS/StellarESDK-1.7.0/Modules/Drivers/Timers/HRTIM/src\hrtim.c **** 
1550:C:/StellarStudio-7.0/SDKS/StellarESDK-1.7.0/Modules/Drivers/Timers/HRTIM/src\hrtim.c ****     return prev_event;
 9287              		.loc 1 1550 12
 9288 004e 059B     		ldr	r3, [sp, #20]
1551:C:/StellarStudio-7.0/SDKS/StellarESDK-1.7.0/Modules/Drivers/Timers/HRTIM/src\hrtim.c **** }
 9289              		.loc 1 1551 1
 9290 0050 1846     		mov	r0, r3
 9291 0052 06B0     		add	sp, sp, #24
 9292              		.cfi_def_cfa_offset 0
 9293              		@ sp needed
 9294 0054 7047     		bx	lr
 9295              		.cfi_endproc
 9296              	.LFE185:
 9298 0056 00BF     		.section	.text.hrtim_timer_clear_counter_reset_event,"ax",%progbits
 9299              		.align	1
 9300              		.p2align 4,,15
 9301              		.global	hrtim_timer_clear_counter_reset_event
 9302              		.syntax unified
 9303              		.thumb
 9304              		.thumb_func
 9306              	hrtim_timer_clear_counter_reset_event:
 9307              	.LFB186:
1552:C:/StellarStudio-7.0/SDKS/StellarESDK-1.7.0/Modules/Drivers/Timers/HRTIM/src\hrtim.c **** 
1553:C:/StellarStudio-7.0/SDKS/StellarESDK-1.7.0/Modules/Drivers/Timers/HRTIM/src\hrtim.c **** uint32_t hrtim_timer_clear_counter_reset_event(hrtim_driver_t *hdp, 
1554:C:/StellarStudio-7.0/SDKS/StellarESDK-1.7.0/Modules/Drivers/Timers/HRTIM/src\hrtim.c ****                                                hrtim_timer_t timer,
1555:C:/StellarStudio-7.0/SDKS/StellarESDK-1.7.0/Modules/Drivers/Timers/HRTIM/src\hrtim.c ****                                                uint32_t event) {
 9308              		.loc 1 1555 64
 9309              		.cfi_startproc
 9310              		@ args = 0, pretend = 0, frame = 24
 9311              		@ frame_needed = 0, uses_anonymous_args = 0
 9312              		@ link register save eliminated.
 9313 0000 86B0     		sub	sp, sp, #24
 9314              		.cfi_def_cfa_offset 24
 9315 0002 0390     		str	r0, [sp, #12]
 9316 0004 0B46     		mov	r3, r1
 9317 0006 0192     		str	r2, [sp, #4]
 9318 0008 8DF80B30 		strb	r3, [sp, #11]
1556:C:/StellarStudio-7.0/SDKS/StellarESDK-1.7.0/Modules/Drivers/Timers/HRTIM/src\hrtim.c **** 
1557:C:/StellarStudio-7.0/SDKS/StellarESDK-1.7.0/Modules/Drivers/Timers/HRTIM/src\hrtim.c ****     uint32_t prev_event = hdp->timer_cntr_rst_event[timer];
 9319              		.loc 1 1557 52
 9320 000c 9DF80B30 		ldrb	r3, [sp, #11]	@ zero_extendqisi2
 9321              		.loc 1 1557 14
 9322 0010 039A     		ldr	r2, [sp, #12]
 9323 0012 B633     		adds	r3, r3, #182
 9324 0014 9B00     		lsls	r3, r3, #2
 9325 0016 1344     		add	r3, r3, r2
 9326 0018 5B68     		ldr	r3, [r3, #4]
 9327 001a 0593     		str	r3, [sp, #20]
1558:C:/StellarStudio-7.0/SDKS/StellarESDK-1.7.0/Modules/Drivers/Timers/HRTIM/src\hrtim.c **** 
1559:C:/StellarStudio-7.0/SDKS/StellarESDK-1.7.0/Modules/Drivers/Timers/HRTIM/src\hrtim.c ****     if (timer != HRTIM_TIMER_MASTER) {
 9328              		.loc 1 1559 8
 9329 001c 9DF80B30 		ldrb	r3, [sp, #11]	@ zero_extendqisi2
 9330 0020 062B     		cmp	r3, #6
 9331 0022 27D0     		beq	.L317
1560:C:/StellarStudio-7.0/SDKS/StellarESDK-1.7.0/Modules/Drivers/Timers/HRTIM/src\hrtim.c ****         hdp->timer_cntr_rst_event[timer] &= ~(event);
 9332              		.loc 1 1560 42
 9333 0024 9DF80B30 		ldrb	r3, [sp, #11]	@ zero_extendqisi2
 9334 0028 039A     		ldr	r2, [sp, #12]
 9335 002a B633     		adds	r3, r3, #182
 9336 002c 9B00     		lsls	r3, r3, #2
 9337 002e 1344     		add	r3, r3, r2
 9338 0030 5968     		ldr	r1, [r3, #4]
 9339              		.loc 1 1560 45
 9340 0032 019B     		ldr	r3, [sp, #4]
 9341 0034 DA43     		mvns	r2, r3
 9342              		.loc 1 1560 42
 9343 0036 9DF80B30 		ldrb	r3, [sp, #11]	@ zero_extendqisi2
 9344 003a 0A40     		ands	r2, r2, r1
 9345 003c 0399     		ldr	r1, [sp, #12]
 9346 003e B633     		adds	r3, r3, #182
 9347 0040 9B00     		lsls	r3, r3, #2
 9348 0042 0B44     		add	r3, r3, r1
 9349 0044 5A60     		str	r2, [r3, #4]
1561:C:/StellarStudio-7.0/SDKS/StellarESDK-1.7.0/Modules/Drivers/Timers/HRTIM/src\hrtim.c **** 
1562:C:/StellarStudio-7.0/SDKS/StellarESDK-1.7.0/Modules/Drivers/Timers/HRTIM/src\hrtim.c ****         /* Update on-fly.*/
1563:C:/StellarStudio-7.0/SDKS/StellarESDK-1.7.0/Modules/Drivers/Timers/HRTIM/src\hrtim.c ****         if (hdp->is_enable == true) {
 9350              		.loc 1 1563 16
 9351 0046 039B     		ldr	r3, [sp, #12]
 9352 0048 1B79     		ldrb	r3, [r3, #4]	@ zero_extendqisi2
 9353              		.loc 1 1563 12
 9354 004a 002B     		cmp	r3, #0
 9355 004c 12D0     		beq	.L317
1564:C:/StellarStudio-7.0/SDKS/StellarESDK-1.7.0/Modules/Drivers/Timers/HRTIM/src\hrtim.c ****             hdp->hrtim->sTimerxRegs[timer].RSTxR &= ~(event);
 9356              		.loc 1 1564 16
 9357 004e 039B     		ldr	r3, [sp, #12]
 9358 0050 1A68     		ldr	r2, [r3]
 9359              		.loc 1 1564 50
 9360 0052 9DF80B30 		ldrb	r3, [sp, #11]	@ zero_extendqisi2
 9361 0056 DB01     		lsls	r3, r3, #7
 9362 0058 1344     		add	r3, r3, r2
 9363 005a D433     		adds	r3, r3, #212
 9364 005c 1868     		ldr	r0, [r3]
 9365              		.loc 1 1564 53
 9366 005e 019B     		ldr	r3, [sp, #4]
 9367 0060 DA43     		mvns	r2, r3
 9368              		.loc 1 1564 16
 9369 0062 039B     		ldr	r3, [sp, #12]
 9370 0064 1968     		ldr	r1, [r3]
 9371              		.loc 1 1564 50
 9372 0066 9DF80B30 		ldrb	r3, [sp, #11]	@ zero_extendqisi2
 9373 006a 0240     		ands	r2, r2, r0
 9374 006c DB01     		lsls	r3, r3, #7
 9375 006e 0B44     		add	r3, r3, r1
 9376 0070 D433     		adds	r3, r3, #212
 9377 0072 1A60     		str	r2, [r3]
 9378              	.L317:
1565:C:/StellarStudio-7.0/SDKS/StellarESDK-1.7.0/Modules/Drivers/Timers/HRTIM/src\hrtim.c ****         }
1566:C:/StellarStudio-7.0/SDKS/StellarESDK-1.7.0/Modules/Drivers/Timers/HRTIM/src\hrtim.c ****     }
1567:C:/StellarStudio-7.0/SDKS/StellarESDK-1.7.0/Modules/Drivers/Timers/HRTIM/src\hrtim.c **** 
1568:C:/StellarStudio-7.0/SDKS/StellarESDK-1.7.0/Modules/Drivers/Timers/HRTIM/src\hrtim.c ****     return prev_event;
 9379              		.loc 1 1568 12
 9380 0074 059B     		ldr	r3, [sp, #20]
1569:C:/StellarStudio-7.0/SDKS/StellarESDK-1.7.0/Modules/Drivers/Timers/HRTIM/src\hrtim.c **** }
 9381              		.loc 1 1569 1
 9382 0076 1846     		mov	r0, r3
 9383 0078 06B0     		add	sp, sp, #24
 9384              		.cfi_def_cfa_offset 0
 9385              		@ sp needed
 9386 007a 7047     		bx	lr
 9387              		.cfi_endproc
 9388              	.LFE186:
 9390              		.section	.text.hrtim_timer_set_preload_update,"ax",%progbits
 9391              		.align	1
 9392              		.p2align 4,,15
 9393              		.global	hrtim_timer_set_preload_update
 9394              		.syntax unified
 9395              		.thumb
 9396              		.thumb_func
 9398              	hrtim_timer_set_preload_update:
 9399              	.LFB187:
1570:C:/StellarStudio-7.0/SDKS/StellarESDK-1.7.0/Modules/Drivers/Timers/HRTIM/src\hrtim.c **** 
1571:C:/StellarStudio-7.0/SDKS/StellarESDK-1.7.0/Modules/Drivers/Timers/HRTIM/src\hrtim.c **** void hrtim_timer_set_preload_update(hrtim_driver_t *hdp,
1572:C:/StellarStudio-7.0/SDKS/StellarESDK-1.7.0/Modules/Drivers/Timers/HRTIM/src\hrtim.c ****                                     hrtim_timer_t timer,
1573:C:/StellarStudio-7.0/SDKS/StellarESDK-1.7.0/Modules/Drivers/Timers/HRTIM/src\hrtim.c ****                                     uint32_t preload,
1574:C:/StellarStudio-7.0/SDKS/StellarESDK-1.7.0/Modules/Drivers/Timers/HRTIM/src\hrtim.c ****                                     uint32_t update_src) {
 9400              		.loc 1 1574 58
 9401              		.cfi_startproc
 9402              		@ args = 0, pretend = 0, frame = 16
 9403              		@ frame_needed = 0, uses_anonymous_args = 0
 9404              		@ link register save eliminated.
 9405 0000 84B0     		sub	sp, sp, #16
 9406              		.cfi_def_cfa_offset 16
 9407 0002 0390     		str	r0, [sp, #12]
 9408 0004 0192     		str	r2, [sp, #4]
 9409 0006 0093     		str	r3, [sp]
 9410 0008 0B46     		mov	r3, r1
 9411 000a 8DF80B30 		strb	r3, [sp, #11]
1575:C:/StellarStudio-7.0/SDKS/StellarESDK-1.7.0/Modules/Drivers/Timers/HRTIM/src\hrtim.c **** 
1576:C:/StellarStudio-7.0/SDKS/StellarESDK-1.7.0/Modules/Drivers/Timers/HRTIM/src\hrtim.c ****     if (timer == HRTIM_TIMER_MASTER) {
 9412              		.loc 1 1576 8
 9413 000e 9DF80B30 		ldrb	r3, [sp, #11]	@ zero_extendqisi2
 9414 0012 062B     		cmp	r3, #6
 9415 0014 08D1     		bne	.L320
1577:C:/StellarStudio-7.0/SDKS/StellarESDK-1.7.0/Modules/Drivers/Timers/HRTIM/src\hrtim.c ****         hdp->master_preload.enable = preload;
 9416              		.loc 1 1577 36
 9417 0016 039B     		ldr	r3, [sp, #12]
 9418 0018 019A     		ldr	r2, [sp, #4]
 9419 001a C3F82423 		str	r2, [r3, #804]
1578:C:/StellarStudio-7.0/SDKS/StellarESDK-1.7.0/Modules/Drivers/Timers/HRTIM/src\hrtim.c ****         hdp->master_preload.update_event = (uint32_t)update_src;
 9420              		.loc 1 1578 42
 9421 001e 039B     		ldr	r3, [sp, #12]
 9422 0020 009A     		ldr	r2, [sp]
 9423 0022 C3F82823 		str	r2, [r3, #808]
 9424 0026 1FE0     		b	.L321
 9425              	.L320:
1579:C:/StellarStudio-7.0/SDKS/StellarESDK-1.7.0/Modules/Drivers/Timers/HRTIM/src\hrtim.c ****     } else {
1580:C:/StellarStudio-7.0/SDKS/StellarESDK-1.7.0/Modules/Drivers/Timers/HRTIM/src\hrtim.c ****         hdp->timer_preload[timer].enable |= preload;
 9426              		.loc 1 1580 42
 9427 0028 9DF80B30 		ldrb	r3, [sp, #11]	@ zero_extendqisi2
 9428 002c 039A     		ldr	r2, [sp, #12]
 9429 002e 5E33     		adds	r3, r3, #94
 9430 0030 DB00     		lsls	r3, r3, #3
 9431 0032 1344     		add	r3, r3, r2
 9432 0034 5968     		ldr	r1, [r3, #4]
 9433 0036 9DF80B30 		ldrb	r3, [sp, #11]	@ zero_extendqisi2
 9434 003a 019A     		ldr	r2, [sp, #4]
 9435 003c 0A43     		orrs	r2, r2, r1
 9436 003e 0399     		ldr	r1, [sp, #12]
 9437 0040 5E33     		adds	r3, r3, #94
 9438 0042 DB00     		lsls	r3, r3, #3
 9439 0044 0B44     		add	r3, r3, r1
 9440 0046 5A60     		str	r2, [r3, #4]
1581:C:/StellarStudio-7.0/SDKS/StellarESDK-1.7.0/Modules/Drivers/Timers/HRTIM/src\hrtim.c ****         hdp->timer_preload[timer].update_event |= update_src;
 9441              		.loc 1 1581 48
 9442 0048 9DF80B30 		ldrb	r3, [sp, #11]	@ zero_extendqisi2
 9443 004c 039A     		ldr	r2, [sp, #12]
 9444 004e 5E33     		adds	r3, r3, #94
 9445 0050 DB00     		lsls	r3, r3, #3
 9446 0052 1344     		add	r3, r3, r2
 9447 0054 9968     		ldr	r1, [r3, #8]
 9448 0056 9DF80B30 		ldrb	r3, [sp, #11]	@ zero_extendqisi2
 9449 005a 009A     		ldr	r2, [sp]
 9450 005c 0A43     		orrs	r2, r2, r1
 9451 005e 0399     		ldr	r1, [sp, #12]
 9452 0060 5E33     		adds	r3, r3, #94
 9453 0062 DB00     		lsls	r3, r3, #3
 9454 0064 0B44     		add	r3, r3, r1
 9455 0066 9A60     		str	r2, [r3, #8]
 9456              	.L321:
1582:C:/StellarStudio-7.0/SDKS/StellarESDK-1.7.0/Modules/Drivers/Timers/HRTIM/src\hrtim.c ****     }
1583:C:/StellarStudio-7.0/SDKS/StellarESDK-1.7.0/Modules/Drivers/Timers/HRTIM/src\hrtim.c **** 
1584:C:/StellarStudio-7.0/SDKS/StellarESDK-1.7.0/Modules/Drivers/Timers/HRTIM/src\hrtim.c ****     /* Update on-fly.*/
1585:C:/StellarStudio-7.0/SDKS/StellarESDK-1.7.0/Modules/Drivers/Timers/HRTIM/src\hrtim.c ****     if (hdp->is_enable == true) {
 9457              		.loc 1 1585 12
 9458 0068 039B     		ldr	r3, [sp, #12]
 9459 006a 1B79     		ldrb	r3, [r3, #4]	@ zero_extendqisi2
 9460              		.loc 1 1585 8
 9461 006c 002B     		cmp	r3, #0
 9462 006e 38D0     		beq	.L324
1586:C:/StellarStudio-7.0/SDKS/StellarESDK-1.7.0/Modules/Drivers/Timers/HRTIM/src\hrtim.c ****         if (timer == HRTIM_TIMER_MASTER) {
 9463              		.loc 1 1586 12
 9464 0070 9DF80B30 		ldrb	r3, [sp, #11]	@ zero_extendqisi2
 9465 0074 062B     		cmp	r3, #6
 9466 0076 10D1     		bne	.L323
1587:C:/StellarStudio-7.0/SDKS/StellarESDK-1.7.0/Modules/Drivers/Timers/HRTIM/src\hrtim.c ****             hdp->hrtim->sMasterRegs.MCR |= ((uint32_t)preload);
 9467              		.loc 1 1587 16
 9468 0078 039B     		ldr	r3, [sp, #12]
 9469 007a 1B68     		ldr	r3, [r3]
 9470              		.loc 1 1587 41
 9471 007c 1968     		ldr	r1, [r3]
 9472              		.loc 1 1587 16
 9473 007e 039B     		ldr	r3, [sp, #12]
 9474 0080 1B68     		ldr	r3, [r3]
 9475              		.loc 1 1587 41
 9476 0082 019A     		ldr	r2, [sp, #4]
 9477 0084 0A43     		orrs	r2, r2, r1
 9478 0086 1A60     		str	r2, [r3]
1588:C:/StellarStudio-7.0/SDKS/StellarESDK-1.7.0/Modules/Drivers/Timers/HRTIM/src\hrtim.c ****             hdp->hrtim->sMasterRegs.MCR |= ((uint32_t)update_src);
 9479              		.loc 1 1588 16
 9480 0088 039B     		ldr	r3, [sp, #12]
 9481 008a 1B68     		ldr	r3, [r3]
 9482              		.loc 1 1588 41
 9483 008c 1968     		ldr	r1, [r3]
 9484              		.loc 1 1588 16
 9485 008e 039B     		ldr	r3, [sp, #12]
 9486 0090 1B68     		ldr	r3, [r3]
 9487              		.loc 1 1588 41
 9488 0092 009A     		ldr	r2, [sp]
 9489 0094 0A43     		orrs	r2, r2, r1
 9490 0096 1A60     		str	r2, [r3]
1589:C:/StellarStudio-7.0/SDKS/StellarESDK-1.7.0/Modules/Drivers/Timers/HRTIM/src\hrtim.c ****         } else {
1590:C:/StellarStudio-7.0/SDKS/StellarESDK-1.7.0/Modules/Drivers/Timers/HRTIM/src\hrtim.c ****             hdp->hrtim->sTimerxRegs[timer].TIMxCR |= ((uint32_t)preload);
1591:C:/StellarStudio-7.0/SDKS/StellarESDK-1.7.0/Modules/Drivers/Timers/HRTIM/src\hrtim.c ****             hdp->hrtim->sTimerxRegs[timer].TIMxCR |= ((uint32_t)update_src);
1592:C:/StellarStudio-7.0/SDKS/StellarESDK-1.7.0/Modules/Drivers/Timers/HRTIM/src\hrtim.c ****         }
1593:C:/StellarStudio-7.0/SDKS/StellarESDK-1.7.0/Modules/Drivers/Timers/HRTIM/src\hrtim.c ****     }
1594:C:/StellarStudio-7.0/SDKS/StellarESDK-1.7.0/Modules/Drivers/Timers/HRTIM/src\hrtim.c **** }
 9491              		.loc 1 1594 1
 9492 0098 23E0     		b	.L324
 9493              	.L323:
1590:C:/StellarStudio-7.0/SDKS/StellarESDK-1.7.0/Modules/Drivers/Timers/HRTIM/src\hrtim.c ****             hdp->hrtim->sTimerxRegs[timer].TIMxCR |= ((uint32_t)update_src);
 9494              		.loc 1 1590 16
 9495 009a 039B     		ldr	r3, [sp, #12]
 9496 009c 1A68     		ldr	r2, [r3]
1590:C:/StellarStudio-7.0/SDKS/StellarESDK-1.7.0/Modules/Drivers/Timers/HRTIM/src\hrtim.c ****             hdp->hrtim->sTimerxRegs[timer].TIMxCR |= ((uint32_t)update_src);
 9497              		.loc 1 1590 51
 9498 009e 9DF80B30 		ldrb	r3, [sp, #11]	@ zero_extendqisi2
 9499 00a2 0133     		adds	r3, r3, #1
 9500 00a4 DB01     		lsls	r3, r3, #7
 9501 00a6 1344     		add	r3, r3, r2
 9502 00a8 1868     		ldr	r0, [r3]
1590:C:/StellarStudio-7.0/SDKS/StellarESDK-1.7.0/Modules/Drivers/Timers/HRTIM/src\hrtim.c ****             hdp->hrtim->sTimerxRegs[timer].TIMxCR |= ((uint32_t)update_src);
 9503              		.loc 1 1590 16
 9504 00aa 039B     		ldr	r3, [sp, #12]
 9505 00ac 1968     		ldr	r1, [r3]
1590:C:/StellarStudio-7.0/SDKS/StellarESDK-1.7.0/Modules/Drivers/Timers/HRTIM/src\hrtim.c ****             hdp->hrtim->sTimerxRegs[timer].TIMxCR |= ((uint32_t)update_src);
 9506              		.loc 1 1590 51
 9507 00ae 9DF80B30 		ldrb	r3, [sp, #11]	@ zero_extendqisi2
 9508 00b2 019A     		ldr	r2, [sp, #4]
 9509 00b4 0243     		orrs	r2, r2, r0
 9510 00b6 0133     		adds	r3, r3, #1
 9511 00b8 DB01     		lsls	r3, r3, #7
 9512 00ba 0B44     		add	r3, r3, r1
 9513 00bc 1A60     		str	r2, [r3]
1591:C:/StellarStudio-7.0/SDKS/StellarESDK-1.7.0/Modules/Drivers/Timers/HRTIM/src\hrtim.c ****         }
 9514              		.loc 1 1591 16
 9515 00be 039B     		ldr	r3, [sp, #12]
 9516 00c0 1A68     		ldr	r2, [r3]
1591:C:/StellarStudio-7.0/SDKS/StellarESDK-1.7.0/Modules/Drivers/Timers/HRTIM/src\hrtim.c ****         }
 9517              		.loc 1 1591 51
 9518 00c2 9DF80B30 		ldrb	r3, [sp, #11]	@ zero_extendqisi2
 9519 00c6 0133     		adds	r3, r3, #1
 9520 00c8 DB01     		lsls	r3, r3, #7
 9521 00ca 1344     		add	r3, r3, r2
 9522 00cc 1868     		ldr	r0, [r3]
1591:C:/StellarStudio-7.0/SDKS/StellarESDK-1.7.0/Modules/Drivers/Timers/HRTIM/src\hrtim.c ****         }
 9523              		.loc 1 1591 16
 9524 00ce 039B     		ldr	r3, [sp, #12]
 9525 00d0 1968     		ldr	r1, [r3]
1591:C:/StellarStudio-7.0/SDKS/StellarESDK-1.7.0/Modules/Drivers/Timers/HRTIM/src\hrtim.c ****         }
 9526              		.loc 1 1591 51
 9527 00d2 9DF80B30 		ldrb	r3, [sp, #11]	@ zero_extendqisi2
 9528 00d6 009A     		ldr	r2, [sp]
 9529 00d8 0243     		orrs	r2, r2, r0
 9530 00da 0133     		adds	r3, r3, #1
 9531 00dc DB01     		lsls	r3, r3, #7
 9532 00de 0B44     		add	r3, r3, r1
 9533 00e0 1A60     		str	r2, [r3]
 9534              	.L324:
 9535              		.loc 1 1594 1
 9536 00e2 00BF     		nop
 9537 00e4 04B0     		add	sp, sp, #16
 9538              		.cfi_def_cfa_offset 0
 9539              		@ sp needed
 9540 00e6 7047     		bx	lr
 9541              		.cfi_endproc
 9542              	.LFE187:
 9544              		.section	.text.hrtim_timer_clear_preload_update,"ax",%progbits
 9545              		.align	1
 9546              		.p2align 4,,15
 9547              		.global	hrtim_timer_clear_preload_update
 9548              		.syntax unified
 9549              		.thumb
 9550              		.thumb_func
 9552              	hrtim_timer_clear_preload_update:
 9553              	.LFB188:
1595:C:/StellarStudio-7.0/SDKS/StellarESDK-1.7.0/Modules/Drivers/Timers/HRTIM/src\hrtim.c **** 
1596:C:/StellarStudio-7.0/SDKS/StellarESDK-1.7.0/Modules/Drivers/Timers/HRTIM/src\hrtim.c **** void hrtim_timer_clear_preload_update(hrtim_driver_t *hdp,
1597:C:/StellarStudio-7.0/SDKS/StellarESDK-1.7.0/Modules/Drivers/Timers/HRTIM/src\hrtim.c ****                                       hrtim_timer_t timer,
1598:C:/StellarStudio-7.0/SDKS/StellarESDK-1.7.0/Modules/Drivers/Timers/HRTIM/src\hrtim.c ****                                       uint32_t preload,
1599:C:/StellarStudio-7.0/SDKS/StellarESDK-1.7.0/Modules/Drivers/Timers/HRTIM/src\hrtim.c ****                                       uint32_t update_src) {
 9554              		.loc 1 1599 60
 9555              		.cfi_startproc
 9556              		@ args = 0, pretend = 0, frame = 16
 9557              		@ frame_needed = 0, uses_anonymous_args = 0
 9558              		@ link register save eliminated.
 9559 0000 84B0     		sub	sp, sp, #16
 9560              		.cfi_def_cfa_offset 16
 9561 0002 0390     		str	r0, [sp, #12]
 9562 0004 0192     		str	r2, [sp, #4]
 9563 0006 0093     		str	r3, [sp]
 9564 0008 0B46     		mov	r3, r1
 9565 000a 8DF80B30 		strb	r3, [sp, #11]
1600:C:/StellarStudio-7.0/SDKS/StellarESDK-1.7.0/Modules/Drivers/Timers/HRTIM/src\hrtim.c **** 
1601:C:/StellarStudio-7.0/SDKS/StellarESDK-1.7.0/Modules/Drivers/Timers/HRTIM/src\hrtim.c ****     if (timer == HRTIM_TIMER_MASTER) {
 9566              		.loc 1 1601 8
 9567 000e 9DF80B30 		ldrb	r3, [sp, #11]	@ zero_extendqisi2
 9568 0012 062B     		cmp	r3, #6
 9569 0014 12D1     		bne	.L326
1602:C:/StellarStudio-7.0/SDKS/StellarESDK-1.7.0/Modules/Drivers/Timers/HRTIM/src\hrtim.c ****         hdp->master_preload.enable &= ~(preload);
 9570              		.loc 1 1602 36
 9571 0016 039B     		ldr	r3, [sp, #12]
 9572 0018 D3F82423 		ldr	r2, [r3, #804]
 9573              		.loc 1 1602 39
 9574 001c 019B     		ldr	r3, [sp, #4]
 9575 001e DB43     		mvns	r3, r3
 9576              		.loc 1 1602 36
 9577 0020 1A40     		ands	r2, r2, r3
 9578 0022 039B     		ldr	r3, [sp, #12]
 9579 0024 C3F82423 		str	r2, [r3, #804]
1603:C:/StellarStudio-7.0/SDKS/StellarESDK-1.7.0/Modules/Drivers/Timers/HRTIM/src\hrtim.c ****         hdp->master_preload.update_event &= ~(update_src);
 9580              		.loc 1 1603 42
 9581 0028 039B     		ldr	r3, [sp, #12]
 9582 002a D3F82823 		ldr	r2, [r3, #808]
 9583              		.loc 1 1603 45
 9584 002e 009B     		ldr	r3, [sp]
 9585 0030 DB43     		mvns	r3, r3
 9586              		.loc 1 1603 42
 9587 0032 1A40     		ands	r2, r2, r3
 9588 0034 039B     		ldr	r3, [sp, #12]
 9589 0036 C3F82823 		str	r2, [r3, #808]
 9590 003a 21E0     		b	.L327
 9591              	.L326:
1604:C:/StellarStudio-7.0/SDKS/StellarESDK-1.7.0/Modules/Drivers/Timers/HRTIM/src\hrtim.c ****     } else {
1605:C:/StellarStudio-7.0/SDKS/StellarESDK-1.7.0/Modules/Drivers/Timers/HRTIM/src\hrtim.c ****         hdp->timer_preload[timer].enable &= ~(preload);
 9592              		.loc 1 1605 42
 9593 003c 9DF80B30 		ldrb	r3, [sp, #11]	@ zero_extendqisi2
 9594 0040 039A     		ldr	r2, [sp, #12]
 9595 0042 5E33     		adds	r3, r3, #94
 9596 0044 DB00     		lsls	r3, r3, #3
 9597 0046 1344     		add	r3, r3, r2
 9598 0048 5968     		ldr	r1, [r3, #4]
 9599              		.loc 1 1605 45
 9600 004a 019B     		ldr	r3, [sp, #4]
 9601 004c DA43     		mvns	r2, r3
 9602              		.loc 1 1605 42
 9603 004e 9DF80B30 		ldrb	r3, [sp, #11]	@ zero_extendqisi2
 9604 0052 0A40     		ands	r2, r2, r1
 9605 0054 0399     		ldr	r1, [sp, #12]
 9606 0056 5E33     		adds	r3, r3, #94
 9607 0058 DB00     		lsls	r3, r3, #3
 9608 005a 0B44     		add	r3, r3, r1
 9609 005c 5A60     		str	r2, [r3, #4]
1606:C:/StellarStudio-7.0/SDKS/StellarESDK-1.7.0/Modules/Drivers/Timers/HRTIM/src\hrtim.c ****         hdp->timer_preload[timer].update_event &= ~(update_src);
 9610              		.loc 1 1606 48
 9611 005e 9DF80B30 		ldrb	r3, [sp, #11]	@ zero_extendqisi2
 9612 0062 039A     		ldr	r2, [sp, #12]
 9613 0064 5E33     		adds	r3, r3, #94
 9614 0066 DB00     		lsls	r3, r3, #3
 9615 0068 1344     		add	r3, r3, r2
 9616 006a 9968     		ldr	r1, [r3, #8]
 9617              		.loc 1 1606 51
 9618 006c 009B     		ldr	r3, [sp]
 9619 006e DA43     		mvns	r2, r3
 9620              		.loc 1 1606 48
 9621 0070 9DF80B30 		ldrb	r3, [sp, #11]	@ zero_extendqisi2
 9622 0074 0A40     		ands	r2, r2, r1
 9623 0076 0399     		ldr	r1, [sp, #12]
 9624 0078 5E33     		adds	r3, r3, #94
 9625 007a DB00     		lsls	r3, r3, #3
 9626 007c 0B44     		add	r3, r3, r1
 9627 007e 9A60     		str	r2, [r3, #8]
 9628              	.L327:
1607:C:/StellarStudio-7.0/SDKS/StellarESDK-1.7.0/Modules/Drivers/Timers/HRTIM/src\hrtim.c ****     }
1608:C:/StellarStudio-7.0/SDKS/StellarESDK-1.7.0/Modules/Drivers/Timers/HRTIM/src\hrtim.c **** 
1609:C:/StellarStudio-7.0/SDKS/StellarESDK-1.7.0/Modules/Drivers/Timers/HRTIM/src\hrtim.c ****     /* Update on-fly.*/
1610:C:/StellarStudio-7.0/SDKS/StellarESDK-1.7.0/Modules/Drivers/Timers/HRTIM/src\hrtim.c ****     if (hdp->is_enable == true) {
 9629              		.loc 1 1610 12
 9630 0080 039B     		ldr	r3, [sp, #12]
 9631 0082 1B79     		ldrb	r3, [r3, #4]	@ zero_extendqisi2
 9632              		.loc 1 1610 8
 9633 0084 002B     		cmp	r3, #0
 9634 0086 3CD0     		beq	.L330
1611:C:/StellarStudio-7.0/SDKS/StellarESDK-1.7.0/Modules/Drivers/Timers/HRTIM/src\hrtim.c ****         if (timer == HRTIM_TIMER_MASTER) {
 9635              		.loc 1 1611 12
 9636 0088 9DF80B30 		ldrb	r3, [sp, #11]	@ zero_extendqisi2
 9637 008c 062B     		cmp	r3, #6
 9638 008e 12D1     		bne	.L329
1612:C:/StellarStudio-7.0/SDKS/StellarESDK-1.7.0/Modules/Drivers/Timers/HRTIM/src\hrtim.c ****             hdp->hrtim->sMasterRegs.MCR &= ~((uint32_t)preload);
 9639              		.loc 1 1612 16
 9640 0090 039B     		ldr	r3, [sp, #12]
 9641 0092 1B68     		ldr	r3, [r3]
 9642              		.loc 1 1612 41
 9643 0094 1968     		ldr	r1, [r3]
 9644              		.loc 1 1612 44
 9645 0096 019B     		ldr	r3, [sp, #4]
 9646 0098 DA43     		mvns	r2, r3
 9647              		.loc 1 1612 16
 9648 009a 039B     		ldr	r3, [sp, #12]
 9649 009c 1B68     		ldr	r3, [r3]
 9650              		.loc 1 1612 41
 9651 009e 0A40     		ands	r2, r2, r1
 9652 00a0 1A60     		str	r2, [r3]
1613:C:/StellarStudio-7.0/SDKS/StellarESDK-1.7.0/Modules/Drivers/Timers/HRTIM/src\hrtim.c ****             hdp->hrtim->sMasterRegs.MCR &= ~((uint32_t)update_src);
 9653              		.loc 1 1613 16
 9654 00a2 039B     		ldr	r3, [sp, #12]
 9655 00a4 1B68     		ldr	r3, [r3]
 9656              		.loc 1 1613 41
 9657 00a6 1968     		ldr	r1, [r3]
 9658              		.loc 1 1613 44
 9659 00a8 009B     		ldr	r3, [sp]
 9660 00aa DA43     		mvns	r2, r3
 9661              		.loc 1 1613 16
 9662 00ac 039B     		ldr	r3, [sp, #12]
 9663 00ae 1B68     		ldr	r3, [r3]
 9664              		.loc 1 1613 41
 9665 00b0 0A40     		ands	r2, r2, r1
 9666 00b2 1A60     		str	r2, [r3]
1614:C:/StellarStudio-7.0/SDKS/StellarESDK-1.7.0/Modules/Drivers/Timers/HRTIM/src\hrtim.c ****         } else { 
1615:C:/StellarStudio-7.0/SDKS/StellarESDK-1.7.0/Modules/Drivers/Timers/HRTIM/src\hrtim.c ****             hdp->hrtim->sTimerxRegs[timer].TIMxCR &= ~((uint32_t)preload);
1616:C:/StellarStudio-7.0/SDKS/StellarESDK-1.7.0/Modules/Drivers/Timers/HRTIM/src\hrtim.c ****             hdp->hrtim->sTimerxRegs[timer].TIMxCR &= ~((uint32_t)update_src);
1617:C:/StellarStudio-7.0/SDKS/StellarESDK-1.7.0/Modules/Drivers/Timers/HRTIM/src\hrtim.c ****         }
1618:C:/StellarStudio-7.0/SDKS/StellarESDK-1.7.0/Modules/Drivers/Timers/HRTIM/src\hrtim.c ****     }
1619:C:/StellarStudio-7.0/SDKS/StellarESDK-1.7.0/Modules/Drivers/Timers/HRTIM/src\hrtim.c **** }
 9667              		.loc 1 1619 1
 9668 00b4 25E0     		b	.L330
 9669              	.L329:
1615:C:/StellarStudio-7.0/SDKS/StellarESDK-1.7.0/Modules/Drivers/Timers/HRTIM/src\hrtim.c ****             hdp->hrtim->sTimerxRegs[timer].TIMxCR &= ~((uint32_t)update_src);
 9670              		.loc 1 1615 16
 9671 00b6 039B     		ldr	r3, [sp, #12]
 9672 00b8 1A68     		ldr	r2, [r3]
1615:C:/StellarStudio-7.0/SDKS/StellarESDK-1.7.0/Modules/Drivers/Timers/HRTIM/src\hrtim.c ****             hdp->hrtim->sTimerxRegs[timer].TIMxCR &= ~((uint32_t)update_src);
 9673              		.loc 1 1615 51
 9674 00ba 9DF80B30 		ldrb	r3, [sp, #11]	@ zero_extendqisi2
 9675 00be 0133     		adds	r3, r3, #1
 9676 00c0 DB01     		lsls	r3, r3, #7
 9677 00c2 1344     		add	r3, r3, r2
 9678 00c4 1868     		ldr	r0, [r3]
1615:C:/StellarStudio-7.0/SDKS/StellarESDK-1.7.0/Modules/Drivers/Timers/HRTIM/src\hrtim.c ****             hdp->hrtim->sTimerxRegs[timer].TIMxCR &= ~((uint32_t)update_src);
 9679              		.loc 1 1615 54
 9680 00c6 019B     		ldr	r3, [sp, #4]
 9681 00c8 DA43     		mvns	r2, r3
1615:C:/StellarStudio-7.0/SDKS/StellarESDK-1.7.0/Modules/Drivers/Timers/HRTIM/src\hrtim.c ****             hdp->hrtim->sTimerxRegs[timer].TIMxCR &= ~((uint32_t)update_src);
 9682              		.loc 1 1615 16
 9683 00ca 039B     		ldr	r3, [sp, #12]
 9684 00cc 1968     		ldr	r1, [r3]
1615:C:/StellarStudio-7.0/SDKS/StellarESDK-1.7.0/Modules/Drivers/Timers/HRTIM/src\hrtim.c ****             hdp->hrtim->sTimerxRegs[timer].TIMxCR &= ~((uint32_t)update_src);
 9685              		.loc 1 1615 51
 9686 00ce 9DF80B30 		ldrb	r3, [sp, #11]	@ zero_extendqisi2
 9687 00d2 0240     		ands	r2, r2, r0
 9688 00d4 0133     		adds	r3, r3, #1
 9689 00d6 DB01     		lsls	r3, r3, #7
 9690 00d8 0B44     		add	r3, r3, r1
 9691 00da 1A60     		str	r2, [r3]
1616:C:/StellarStudio-7.0/SDKS/StellarESDK-1.7.0/Modules/Drivers/Timers/HRTIM/src\hrtim.c ****         }
 9692              		.loc 1 1616 16
 9693 00dc 039B     		ldr	r3, [sp, #12]
 9694 00de 1A68     		ldr	r2, [r3]
1616:C:/StellarStudio-7.0/SDKS/StellarESDK-1.7.0/Modules/Drivers/Timers/HRTIM/src\hrtim.c ****         }
 9695              		.loc 1 1616 51
 9696 00e0 9DF80B30 		ldrb	r3, [sp, #11]	@ zero_extendqisi2
 9697 00e4 0133     		adds	r3, r3, #1
 9698 00e6 DB01     		lsls	r3, r3, #7
 9699 00e8 1344     		add	r3, r3, r2
 9700 00ea 1868     		ldr	r0, [r3]
1616:C:/StellarStudio-7.0/SDKS/StellarESDK-1.7.0/Modules/Drivers/Timers/HRTIM/src\hrtim.c ****         }
 9701              		.loc 1 1616 54
 9702 00ec 009B     		ldr	r3, [sp]
 9703 00ee DA43     		mvns	r2, r3
1616:C:/StellarStudio-7.0/SDKS/StellarESDK-1.7.0/Modules/Drivers/Timers/HRTIM/src\hrtim.c ****         }
 9704              		.loc 1 1616 16
 9705 00f0 039B     		ldr	r3, [sp, #12]
 9706 00f2 1968     		ldr	r1, [r3]
1616:C:/StellarStudio-7.0/SDKS/StellarESDK-1.7.0/Modules/Drivers/Timers/HRTIM/src\hrtim.c ****         }
 9707              		.loc 1 1616 51
 9708 00f4 9DF80B30 		ldrb	r3, [sp, #11]	@ zero_extendqisi2
 9709 00f8 0240     		ands	r2, r2, r0
 9710 00fa 0133     		adds	r3, r3, #1
 9711 00fc DB01     		lsls	r3, r3, #7
 9712 00fe 0B44     		add	r3, r3, r1
 9713 0100 1A60     		str	r2, [r3]
 9714              	.L330:
 9715              		.loc 1 1619 1
 9716 0102 00BF     		nop
 9717 0104 04B0     		add	sp, sp, #16
 9718              		.cfi_def_cfa_offset 0
 9719              		@ sp needed
 9720 0106 7047     		bx	lr
 9721              		.cfi_endproc
 9722              	.LFE188:
 9724              		.section	.text.hrtim_timer_set_half_intlvd_mode,"ax",%progbits
 9725              		.align	1
 9726              		.p2align 4,,15
 9727              		.global	hrtim_timer_set_half_intlvd_mode
 9728              		.syntax unified
 9729              		.thumb
 9730              		.thumb_func
 9732              	hrtim_timer_set_half_intlvd_mode:
 9733              	.LFB189:
1620:C:/StellarStudio-7.0/SDKS/StellarESDK-1.7.0/Modules/Drivers/Timers/HRTIM/src\hrtim.c **** 
1621:C:/StellarStudio-7.0/SDKS/StellarESDK-1.7.0/Modules/Drivers/Timers/HRTIM/src\hrtim.c **** hrtim_mode_tpg_t hrtim_timer_set_half_intlvd_mode(hrtim_driver_t *hdp,
1622:C:/StellarStudio-7.0/SDKS/StellarESDK-1.7.0/Modules/Drivers/Timers/HRTIM/src\hrtim.c ****                                                   hrtim_timer_t timer,
1623:C:/StellarStudio-7.0/SDKS/StellarESDK-1.7.0/Modules/Drivers/Timers/HRTIM/src\hrtim.c ****                                                   hrtim_mode_tpg_t mode) {
 9734              		.loc 1 1623 74
 9735              		.cfi_startproc
 9736              		@ args = 0, pretend = 0, frame = 16
 9737              		@ frame_needed = 0, uses_anonymous_args = 0
 9738              		@ link register save eliminated.
 9739 0000 84B0     		sub	sp, sp, #16
 9740              		.cfi_def_cfa_offset 16
 9741 0002 0190     		str	r0, [sp, #4]
 9742 0004 0B46     		mov	r3, r1
 9743 0006 8DF80330 		strb	r3, [sp, #3]
 9744 000a 1346     		mov	r3, r2
 9745 000c 8DF80230 		strb	r3, [sp, #2]
1624:C:/StellarStudio-7.0/SDKS/StellarESDK-1.7.0/Modules/Drivers/Timers/HRTIM/src\hrtim.c **** 
1625:C:/StellarStudio-7.0/SDKS/StellarESDK-1.7.0/Modules/Drivers/Timers/HRTIM/src\hrtim.c ****     hrtim_mode_tpg_t  prev_mode;
1626:C:/StellarStudio-7.0/SDKS/StellarESDK-1.7.0/Modules/Drivers/Timers/HRTIM/src\hrtim.c **** 
1627:C:/StellarStudio-7.0/SDKS/StellarESDK-1.7.0/Modules/Drivers/Timers/HRTIM/src\hrtim.c ****     if (timer == HRTIM_TIMER_MASTER) {
 9746              		.loc 1 1627 8
 9747 0010 9DF80330 		ldrb	r3, [sp, #3]	@ zero_extendqisi2
 9748 0014 062B     		cmp	r3, #6
 9749 0016 0AD1     		bne	.L332
1628:C:/StellarStudio-7.0/SDKS/StellarESDK-1.7.0/Modules/Drivers/Timers/HRTIM/src\hrtim.c ****         prev_mode = hdp->master_mode_tpg;
 9750              		.loc 1 1628 19
 9751 0018 019B     		ldr	r3, [sp, #4]
 9752 001a 93F82C33 		ldrb	r3, [r3, #812]
 9753 001e 8DF80F30 		strb	r3, [sp, #15]
1629:C:/StellarStudio-7.0/SDKS/StellarESDK-1.7.0/Modules/Drivers/Timers/HRTIM/src\hrtim.c ****         hdp->master_mode_tpg = mode;
 9754              		.loc 1 1629 30
 9755 0022 019B     		ldr	r3, [sp, #4]
 9756 0024 9DF80220 		ldrb	r2, [sp, #2]
 9757 0028 83F82C23 		strb	r2, [r3, #812]
 9758 002c 0FE0     		b	.L333
 9759              	.L332:
1630:C:/StellarStudio-7.0/SDKS/StellarESDK-1.7.0/Modules/Drivers/Timers/HRTIM/src\hrtim.c ****     } else {
1631:C:/StellarStudio-7.0/SDKS/StellarESDK-1.7.0/Modules/Drivers/Timers/HRTIM/src\hrtim.c ****         prev_mode = hdp->timer_mode_tpg[timer];
 9760              		.loc 1 1631 40
 9761 002e 9DF80330 		ldrb	r3, [sp, #3]	@ zero_extendqisi2
 9762              		.loc 1 1631 19
 9763 0032 019A     		ldr	r2, [sp, #4]
 9764 0034 1344     		add	r3, r3, r2
 9765 0036 93F8D033 		ldrb	r3, [r3, #976]
 9766 003a 8DF80F30 		strb	r3, [sp, #15]
1632:C:/StellarStudio-7.0/SDKS/StellarESDK-1.7.0/Modules/Drivers/Timers/HRTIM/src\hrtim.c ****         hdp->timer_mode_tpg[timer] = mode;
 9767              		.loc 1 1632 28
 9768 003e 9DF80330 		ldrb	r3, [sp, #3]	@ zero_extendqisi2
 9769              		.loc 1 1632 36
 9770 0042 019A     		ldr	r2, [sp, #4]
 9771 0044 1344     		add	r3, r3, r2
 9772 0046 9DF80220 		ldrb	r2, [sp, #2]
 9773 004a 83F8D023 		strb	r2, [r3, #976]
 9774              	.L333:
1633:C:/StellarStudio-7.0/SDKS/StellarESDK-1.7.0/Modules/Drivers/Timers/HRTIM/src\hrtim.c ****     }    
1634:C:/StellarStudio-7.0/SDKS/StellarESDK-1.7.0/Modules/Drivers/Timers/HRTIM/src\hrtim.c **** 
1635:C:/StellarStudio-7.0/SDKS/StellarESDK-1.7.0/Modules/Drivers/Timers/HRTIM/src\hrtim.c ****     return prev_mode;
 9775              		.loc 1 1635 12
 9776 004e 9DF80F30 		ldrb	r3, [sp, #15]	@ zero_extendqisi2
1636:C:/StellarStudio-7.0/SDKS/StellarESDK-1.7.0/Modules/Drivers/Timers/HRTIM/src\hrtim.c **** }
 9777              		.loc 1 1636 1
 9778 0052 1846     		mov	r0, r3
 9779 0054 04B0     		add	sp, sp, #16
 9780              		.cfi_def_cfa_offset 0
 9781              		@ sp needed
 9782 0056 7047     		bx	lr
 9783              		.cfi_endproc
 9784              	.LFE189:
 9786              		.section	.text.hrtim_timer_set_up_down_mode,"ax",%progbits
 9787              		.align	1
 9788              		.p2align 4,,15
 9789              		.global	hrtim_timer_set_up_down_mode
 9790              		.syntax unified
 9791              		.thumb
 9792              		.thumb_func
 9794              	hrtim_timer_set_up_down_mode:
 9795              	.LFB190:
1637:C:/StellarStudio-7.0/SDKS/StellarESDK-1.7.0/Modules/Drivers/Timers/HRTIM/src\hrtim.c **** 
1638:C:/StellarStudio-7.0/SDKS/StellarESDK-1.7.0/Modules/Drivers/Timers/HRTIM/src\hrtim.c **** uint32_t hrtim_timer_set_up_down_mode(hrtim_driver_t *hdp,
1639:C:/StellarStudio-7.0/SDKS/StellarESDK-1.7.0/Modules/Drivers/Timers/HRTIM/src\hrtim.c ****                                       hrtim_timer_t timer,
1640:C:/StellarStudio-7.0/SDKS/StellarESDK-1.7.0/Modules/Drivers/Timers/HRTIM/src\hrtim.c ****                                       uint32_t up_mode){
 9796              		.loc 1 1640 56
 9797              		.cfi_startproc
 9798              		@ args = 0, pretend = 0, frame = 24
 9799              		@ frame_needed = 0, uses_anonymous_args = 0
 9800              		@ link register save eliminated.
 9801 0000 86B0     		sub	sp, sp, #24
 9802              		.cfi_def_cfa_offset 24
 9803 0002 0390     		str	r0, [sp, #12]
 9804 0004 0B46     		mov	r3, r1
 9805 0006 0192     		str	r2, [sp, #4]
 9806 0008 8DF80B30 		strb	r3, [sp, #11]
1641:C:/StellarStudio-7.0/SDKS/StellarESDK-1.7.0/Modules/Drivers/Timers/HRTIM/src\hrtim.c **** 
1642:C:/StellarStudio-7.0/SDKS/StellarESDK-1.7.0/Modules/Drivers/Timers/HRTIM/src\hrtim.c ****     uint32_t prev_up_mode = hdp->timer_count_mode[timer].up_down_mode;
 9807              		.loc 1 1642 57
 9808 000c 9DF80B20 		ldrb	r2, [sp, #11]	@ zero_extendqisi2
 9809              		.loc 1 1642 14
 9810 0010 0399     		ldr	r1, [sp, #12]
 9811 0012 1346     		mov	r3, r2
 9812 0014 9B00     		lsls	r3, r3, #2
 9813 0016 1344     		add	r3, r3, r2
 9814 0018 9B00     		lsls	r3, r3, #2
 9815 001a 0B44     		add	r3, r3, r1
 9816 001c 03F57773 		add	r3, r3, #988
 9817 0020 1B68     		ldr	r3, [r3]
 9818 0022 0593     		str	r3, [sp, #20]
1643:C:/StellarStudio-7.0/SDKS/StellarESDK-1.7.0/Modules/Drivers/Timers/HRTIM/src\hrtim.c **** 
1644:C:/StellarStudio-7.0/SDKS/StellarESDK-1.7.0/Modules/Drivers/Timers/HRTIM/src\hrtim.c ****     if (timer != HRTIM_TIMER_MASTER) {
 9819              		.loc 1 1644 8
 9820 0024 9DF80B30 		ldrb	r3, [sp, #11]	@ zero_extendqisi2
 9821 0028 062B     		cmp	r3, #6
 9822 002a 0BD0     		beq	.L336
1645:C:/StellarStudio-7.0/SDKS/StellarESDK-1.7.0/Modules/Drivers/Timers/HRTIM/src\hrtim.c ****         hdp->timer_count_mode[timer].up_down_mode = (uint32_t)up_mode;
 9823              		.loc 1 1645 37
 9824 002c 9DF80B20 		ldrb	r2, [sp, #11]	@ zero_extendqisi2
 9825              		.loc 1 1645 51
 9826 0030 0399     		ldr	r1, [sp, #12]
 9827 0032 1346     		mov	r3, r2
 9828 0034 9B00     		lsls	r3, r3, #2
 9829 0036 1344     		add	r3, r3, r2
 9830 0038 9B00     		lsls	r3, r3, #2
 9831 003a 0B44     		add	r3, r3, r1
 9832 003c 03F57773 		add	r3, r3, #988
 9833 0040 019A     		ldr	r2, [sp, #4]
 9834 0042 1A60     		str	r2, [r3]
 9835              	.L336:
1646:C:/StellarStudio-7.0/SDKS/StellarESDK-1.7.0/Modules/Drivers/Timers/HRTIM/src\hrtim.c ****     }
1647:C:/StellarStudio-7.0/SDKS/StellarESDK-1.7.0/Modules/Drivers/Timers/HRTIM/src\hrtim.c **** 
1648:C:/StellarStudio-7.0/SDKS/StellarESDK-1.7.0/Modules/Drivers/Timers/HRTIM/src\hrtim.c ****     return prev_up_mode;
 9836              		.loc 1 1648 12
 9837 0044 059B     		ldr	r3, [sp, #20]
1649:C:/StellarStudio-7.0/SDKS/StellarESDK-1.7.0/Modules/Drivers/Timers/HRTIM/src\hrtim.c **** }
 9838              		.loc 1 1649 1
 9839 0046 1846     		mov	r0, r3
 9840 0048 06B0     		add	sp, sp, #24
 9841              		.cfi_def_cfa_offset 0
 9842              		@ sp needed
 9843 004a 7047     		bx	lr
 9844              		.cfi_endproc
 9845              	.LFE190:
 9847              		.section	.text.hrtim_timer_set_sw_update,"ax",%progbits
 9848              		.align	1
 9849              		.p2align 4,,15
 9850              		.global	hrtim_timer_set_sw_update
 9851              		.syntax unified
 9852              		.thumb
 9853              		.thumb_func
 9855              	hrtim_timer_set_sw_update:
 9856              	.LFB191:
1650:C:/StellarStudio-7.0/SDKS/StellarESDK-1.7.0/Modules/Drivers/Timers/HRTIM/src\hrtim.c **** 
1651:C:/StellarStudio-7.0/SDKS/StellarESDK-1.7.0/Modules/Drivers/Timers/HRTIM/src\hrtim.c **** 
1652:C:/StellarStudio-7.0/SDKS/StellarESDK-1.7.0/Modules/Drivers/Timers/HRTIM/src\hrtim.c **** void hrtim_timer_set_sw_update(hrtim_driver_t *hdp,
1653:C:/StellarStudio-7.0/SDKS/StellarESDK-1.7.0/Modules/Drivers/Timers/HRTIM/src\hrtim.c ****                                hrtim_timer_t timer) {
 9857              		.loc 1 1653 53
 9858              		.cfi_startproc
 9859              		@ args = 0, pretend = 0, frame = 8
 9860              		@ frame_needed = 0, uses_anonymous_args = 0
 9861              		@ link register save eliminated.
 9862 0000 82B0     		sub	sp, sp, #8
 9863              		.cfi_def_cfa_offset 8
 9864 0002 0190     		str	r0, [sp, #4]
 9865 0004 0B46     		mov	r3, r1
 9866 0006 8DF80330 		strb	r3, [sp, #3]
1654:C:/StellarStudio-7.0/SDKS/StellarESDK-1.7.0/Modules/Drivers/Timers/HRTIM/src\hrtim.c ****  
1655:C:/StellarStudio-7.0/SDKS/StellarESDK-1.7.0/Modules/Drivers/Timers/HRTIM/src\hrtim.c ****     /* Update on-fly.*/
1656:C:/StellarStudio-7.0/SDKS/StellarESDK-1.7.0/Modules/Drivers/Timers/HRTIM/src\hrtim.c ****     if (hdp->is_enable == true)  {
 9867              		.loc 1 1656 12
 9868 000a 019B     		ldr	r3, [sp, #4]
 9869 000c 1B79     		ldrb	r3, [r3, #4]	@ zero_extendqisi2
 9870              		.loc 1 1656 8
 9871 000e 002B     		cmp	r3, #0
 9872 0010 1BD0     		beq	.L341
1657:C:/StellarStudio-7.0/SDKS/StellarESDK-1.7.0/Modules/Drivers/Timers/HRTIM/src\hrtim.c ****         if (timer == HRTIM_TIMER_MASTER) {
 9873              		.loc 1 1657 12
 9874 0012 9DF80330 		ldrb	r3, [sp, #3]	@ zero_extendqisi2
 9875 0016 062B     		cmp	r3, #6
 9876 0018 0AD1     		bne	.L340
1658:C:/StellarStudio-7.0/SDKS/StellarESDK-1.7.0/Modules/Drivers/Timers/HRTIM/src\hrtim.c ****             hdp->hrtim->sCommonRegs.CR2 |= HRTIM_CR2_MSWU;
 9877              		.loc 1 1658 16
 9878 001a 019B     		ldr	r3, [sp, #4]
 9879 001c 1B68     		ldr	r3, [r3]
 9880              		.loc 1 1658 41
 9881 001e D3F88423 		ldr	r2, [r3, #900]
 9882              		.loc 1 1658 16
 9883 0022 019B     		ldr	r3, [sp, #4]
 9884 0024 1B68     		ldr	r3, [r3]
 9885              		.loc 1 1658 41
 9886 0026 42F00102 		orr	r2, r2, #1
 9887 002a C3F88423 		str	r2, [r3, #900]
1659:C:/StellarStudio-7.0/SDKS/StellarESDK-1.7.0/Modules/Drivers/Timers/HRTIM/src\hrtim.c ****         } else {
1660:C:/StellarStudio-7.0/SDKS/StellarESDK-1.7.0/Modules/Drivers/Timers/HRTIM/src\hrtim.c ****             hdp->hrtim->sCommonRegs.CR2 |= (HRTIM_CR2_TASWU << (uint32_t)timer);
1661:C:/StellarStudio-7.0/SDKS/StellarESDK-1.7.0/Modules/Drivers/Timers/HRTIM/src\hrtim.c ****         }
1662:C:/StellarStudio-7.0/SDKS/StellarESDK-1.7.0/Modules/Drivers/Timers/HRTIM/src\hrtim.c ****     }
1663:C:/StellarStudio-7.0/SDKS/StellarESDK-1.7.0/Modules/Drivers/Timers/HRTIM/src\hrtim.c **** }
 9888              		.loc 1 1663 1
 9889 002e 0CE0     		b	.L341
 9890              	.L340:
1660:C:/StellarStudio-7.0/SDKS/StellarESDK-1.7.0/Modules/Drivers/Timers/HRTIM/src\hrtim.c ****         }
 9891              		.loc 1 1660 16
 9892 0030 019B     		ldr	r3, [sp, #4]
 9893 0032 1B68     		ldr	r3, [r3]
1660:C:/StellarStudio-7.0/SDKS/StellarESDK-1.7.0/Modules/Drivers/Timers/HRTIM/src\hrtim.c ****         }
 9894              		.loc 1 1660 41
 9895 0034 D3F88413 		ldr	r1, [r3, #900]
1660:C:/StellarStudio-7.0/SDKS/StellarESDK-1.7.0/Modules/Drivers/Timers/HRTIM/src\hrtim.c ****         }
 9896              		.loc 1 1660 64
 9897 0038 9DF80330 		ldrb	r3, [sp, #3]	@ zero_extendqisi2
1660:C:/StellarStudio-7.0/SDKS/StellarESDK-1.7.0/Modules/Drivers/Timers/HRTIM/src\hrtim.c ****         }
 9898              		.loc 1 1660 61
 9899 003c 0222     		movs	r2, #2
 9900 003e 9A40     		lsls	r2, r2, r3
1660:C:/StellarStudio-7.0/SDKS/StellarESDK-1.7.0/Modules/Drivers/Timers/HRTIM/src\hrtim.c ****         }
 9901              		.loc 1 1660 16
 9902 0040 019B     		ldr	r3, [sp, #4]
 9903 0042 1B68     		ldr	r3, [r3]
1660:C:/StellarStudio-7.0/SDKS/StellarESDK-1.7.0/Modules/Drivers/Timers/HRTIM/src\hrtim.c ****         }
 9904              		.loc 1 1660 41
 9905 0044 0A43     		orrs	r2, r2, r1
 9906 0046 C3F88423 		str	r2, [r3, #900]
 9907              	.L341:
 9908              		.loc 1 1663 1
 9909 004a 00BF     		nop
 9910 004c 02B0     		add	sp, sp, #8
 9911              		.cfi_def_cfa_offset 0
 9912              		@ sp needed
 9913 004e 7047     		bx	lr
 9914              		.cfi_endproc
 9915              	.LFE191:
 9917              		.section	.text.hrtim_timer_enable_update,"ax",%progbits
 9918              		.align	1
 9919              		.p2align 4,,15
 9920              		.global	hrtim_timer_enable_update
 9921              		.syntax unified
 9922              		.thumb
 9923              		.thumb_func
 9925              	hrtim_timer_enable_update:
 9926              	.LFB192:
1664:C:/StellarStudio-7.0/SDKS/StellarESDK-1.7.0/Modules/Drivers/Timers/HRTIM/src\hrtim.c **** 
1665:C:/StellarStudio-7.0/SDKS/StellarESDK-1.7.0/Modules/Drivers/Timers/HRTIM/src\hrtim.c **** void hrtim_timer_enable_update(hrtim_driver_t *hdp, uint8_t tmask) {
 9927              		.loc 1 1665 68
 9928              		.cfi_startproc
 9929              		@ args = 0, pretend = 0, frame = 8
 9930              		@ frame_needed = 0, uses_anonymous_args = 0
 9931              		@ link register save eliminated.
 9932 0000 82B0     		sub	sp, sp, #8
 9933              		.cfi_def_cfa_offset 8
 9934 0002 0190     		str	r0, [sp, #4]
 9935 0004 0B46     		mov	r3, r1
 9936 0006 8DF80330 		strb	r3, [sp, #3]
1666:C:/StellarStudio-7.0/SDKS/StellarESDK-1.7.0/Modules/Drivers/Timers/HRTIM/src\hrtim.c **** 
1667:C:/StellarStudio-7.0/SDKS/StellarESDK-1.7.0/Modules/Drivers/Timers/HRTIM/src\hrtim.c ****     /* Update on-fly.*/
1668:C:/StellarStudio-7.0/SDKS/StellarESDK-1.7.0/Modules/Drivers/Timers/HRTIM/src\hrtim.c ****     if (hdp->is_enable == true)  {
 9937              		.loc 1 1668 12
 9938 000a 019B     		ldr	r3, [sp, #4]
 9939 000c 1B79     		ldrb	r3, [r3, #4]	@ zero_extendqisi2
 9940              		.loc 1 1668 8
 9941 000e 002B     		cmp	r3, #0
 9942 0010 0BD0     		beq	.L344
1669:C:/StellarStudio-7.0/SDKS/StellarESDK-1.7.0/Modules/Drivers/Timers/HRTIM/src\hrtim.c ****         hdp->hrtim->sCommonRegs.CR1 &= ~(((uint32_t)tmask) << HRTIM_CR1_MUDIS_Pos);
 9943              		.loc 1 1669 12
 9944 0012 019B     		ldr	r3, [sp, #4]
 9945 0014 1B68     		ldr	r3, [r3]
 9946              		.loc 1 1669 37
 9947 0016 D3F88013 		ldr	r1, [r3, #896]
 9948              		.loc 1 1669 60
 9949 001a 9DF80330 		ldrb	r3, [sp, #3]	@ zero_extendqisi2
 9950              		.loc 1 1669 40
 9951 001e DA43     		mvns	r2, r3
 9952              		.loc 1 1669 12
 9953 0020 019B     		ldr	r3, [sp, #4]
 9954 0022 1B68     		ldr	r3, [r3]
 9955              		.loc 1 1669 37
 9956 0024 0A40     		ands	r2, r2, r1
 9957 0026 C3F88023 		str	r2, [r3, #896]
 9958              	.L344:
1670:C:/StellarStudio-7.0/SDKS/StellarESDK-1.7.0/Modules/Drivers/Timers/HRTIM/src\hrtim.c ****     }
1671:C:/StellarStudio-7.0/SDKS/StellarESDK-1.7.0/Modules/Drivers/Timers/HRTIM/src\hrtim.c **** }
 9959              		.loc 1 1671 1
 9960 002a 00BF     		nop
 9961 002c 02B0     		add	sp, sp, #8
 9962              		.cfi_def_cfa_offset 0
 9963              		@ sp needed
 9964 002e 7047     		bx	lr
 9965              		.cfi_endproc
 9966              	.LFE192:
 9968              		.section	.text.hrtim_timer_disable_update,"ax",%progbits
 9969              		.align	1
 9970              		.p2align 4,,15
 9971              		.global	hrtim_timer_disable_update
 9972              		.syntax unified
 9973              		.thumb
 9974              		.thumb_func
 9976              	hrtim_timer_disable_update:
 9977              	.LFB193:
1672:C:/StellarStudio-7.0/SDKS/StellarESDK-1.7.0/Modules/Drivers/Timers/HRTIM/src\hrtim.c **** 
1673:C:/StellarStudio-7.0/SDKS/StellarESDK-1.7.0/Modules/Drivers/Timers/HRTIM/src\hrtim.c **** void hrtim_timer_disable_update(hrtim_driver_t *hdp, uint8_t tmask) {
 9978              		.loc 1 1673 69
 9979              		.cfi_startproc
 9980              		@ args = 0, pretend = 0, frame = 8
 9981              		@ frame_needed = 0, uses_anonymous_args = 0
 9982              		@ link register save eliminated.
 9983 0000 82B0     		sub	sp, sp, #8
 9984              		.cfi_def_cfa_offset 8
 9985 0002 0190     		str	r0, [sp, #4]
 9986 0004 0B46     		mov	r3, r1
 9987 0006 8DF80330 		strb	r3, [sp, #3]
1674:C:/StellarStudio-7.0/SDKS/StellarESDK-1.7.0/Modules/Drivers/Timers/HRTIM/src\hrtim.c **** 
1675:C:/StellarStudio-7.0/SDKS/StellarESDK-1.7.0/Modules/Drivers/Timers/HRTIM/src\hrtim.c ****     /* Update on-fly.*/
1676:C:/StellarStudio-7.0/SDKS/StellarESDK-1.7.0/Modules/Drivers/Timers/HRTIM/src\hrtim.c ****     if (hdp->is_enable == true)  {
 9988              		.loc 1 1676 12
 9989 000a 019B     		ldr	r3, [sp, #4]
 9990 000c 1B79     		ldrb	r3, [r3, #4]	@ zero_extendqisi2
 9991              		.loc 1 1676 8
 9992 000e 002B     		cmp	r3, #0
 9993 0010 0AD0     		beq	.L347
1677:C:/StellarStudio-7.0/SDKS/StellarESDK-1.7.0/Modules/Drivers/Timers/HRTIM/src\hrtim.c ****         hdp->hrtim->sCommonRegs.CR1 |= (((uint32_t)tmask) << HRTIM_CR1_MUDIS_Pos);
 9994              		.loc 1 1677 12
 9995 0012 019B     		ldr	r3, [sp, #4]
 9996 0014 1B68     		ldr	r3, [r3]
 9997              		.loc 1 1677 37
 9998 0016 D3F88013 		ldr	r1, [r3, #896]
 9999              		.loc 1 1677 59
 10000 001a 9DF80320 		ldrb	r2, [sp, #3]	@ zero_extendqisi2
 10001              		.loc 1 1677 12
 10002 001e 019B     		ldr	r3, [sp, #4]
 10003 0020 1B68     		ldr	r3, [r3]
 10004              		.loc 1 1677 37
 10005 0022 0A43     		orrs	r2, r2, r1
 10006 0024 C3F88023 		str	r2, [r3, #896]
 10007              	.L347:
1678:C:/StellarStudio-7.0/SDKS/StellarESDK-1.7.0/Modules/Drivers/Timers/HRTIM/src\hrtim.c ****     }
1679:C:/StellarStudio-7.0/SDKS/StellarESDK-1.7.0/Modules/Drivers/Timers/HRTIM/src\hrtim.c **** }
 10008              		.loc 1 1679 1
 10009 0028 00BF     		nop
 10010 002a 02B0     		add	sp, sp, #8
 10011              		.cfi_def_cfa_offset 0
 10012              		@ sp needed
 10013 002c 7047     		bx	lr
 10014              		.cfi_endproc
 10015              	.LFE193:
 10017 002e 00BF     		.section	.text.hrtim_timer_set_adc_trigger,"ax",%progbits
 10018              		.align	1
 10019              		.p2align 4,,15
 10020              		.global	hrtim_timer_set_adc_trigger
 10021              		.syntax unified
 10022              		.thumb
 10023              		.thumb_func
 10025              	hrtim_timer_set_adc_trigger:
 10026              	.LFB194:
1680:C:/StellarStudio-7.0/SDKS/StellarESDK-1.7.0/Modules/Drivers/Timers/HRTIM/src\hrtim.c **** 
1681:C:/StellarStudio-7.0/SDKS/StellarESDK-1.7.0/Modules/Drivers/Timers/HRTIM/src\hrtim.c **** void hrtim_timer_set_adc_trigger(hrtim_driver_t *hdp,
1682:C:/StellarStudio-7.0/SDKS/StellarESDK-1.7.0/Modules/Drivers/Timers/HRTIM/src\hrtim.c ****                                  hrtim_timer_adctrigger_t adc_trigger,
1683:C:/StellarStudio-7.0/SDKS/StellarESDK-1.7.0/Modules/Drivers/Timers/HRTIM/src\hrtim.c ****                                  uint32_t event_trigger, 
1684:C:/StellarStudio-7.0/SDKS/StellarESDK-1.7.0/Modules/Drivers/Timers/HRTIM/src\hrtim.c ****                                  uint32_t update_src) { 
 10027              		.loc 1 1684 55
 10028              		.cfi_startproc
 10029              		@ args = 0, pretend = 0, frame = 24
 10030              		@ frame_needed = 0, uses_anonymous_args = 0
 10031              		@ link register save eliminated.
 10032 0000 86B0     		sub	sp, sp, #24
 10033              		.cfi_def_cfa_offset 24
 10034 0002 0390     		str	r0, [sp, #12]
 10035 0004 0192     		str	r2, [sp, #4]
 10036 0006 0093     		str	r3, [sp]
 10037 0008 0B46     		mov	r3, r1
 10038 000a 8DF80B30 		strb	r3, [sp, #11]
1685:C:/StellarStudio-7.0/SDKS/StellarESDK-1.7.0/Modules/Drivers/Timers/HRTIM/src\hrtim.c ****     uint32_t hrtim_cr1;
1686:C:/StellarStudio-7.0/SDKS/StellarESDK-1.7.0/Modules/Drivers/Timers/HRTIM/src\hrtim.c ****     uint32_t hrtim_adcur;
1687:C:/StellarStudio-7.0/SDKS/StellarESDK-1.7.0/Modules/Drivers/Timers/HRTIM/src\hrtim.c **** 
1688:C:/StellarStudio-7.0/SDKS/StellarESDK-1.7.0/Modules/Drivers/Timers/HRTIM/src\hrtim.c ****     hdp->adc_trg[adc_trigger].adc_trigger  = adc_trigger;
 10039              		.loc 1 1688 30
 10040 000e 9DF80B30 		ldrb	r3, [sp, #11]	@ zero_extendqisi2
 10041              		.loc 1 1688 44
 10042 0012 039A     		ldr	r2, [sp, #12]
 10043 0014 3333     		adds	r3, r3, #51
 10044 0016 1B01     		lsls	r3, r3, #4
 10045 0018 1344     		add	r3, r3, r2
 10046 001a 9DF80B20 		ldrb	r2, [sp, #11]
 10047 001e 1A70     		strb	r2, [r3]
1689:C:/StellarStudio-7.0/SDKS/StellarESDK-1.7.0/Modules/Drivers/Timers/HRTIM/src\hrtim.c ****     hdp->adc_trg[adc_trigger].event_trigger = event_trigger;
 10048              		.loc 1 1689 30
 10049 0020 9DF80B30 		ldrb	r3, [sp, #11]	@ zero_extendqisi2
 10050              		.loc 1 1689 45
 10051 0024 039A     		ldr	r2, [sp, #12]
 10052 0026 1B01     		lsls	r3, r3, #4
 10053 0028 1344     		add	r3, r3, r2
 10054 002a 03F54E73 		add	r3, r3, #824
 10055 002e 019A     		ldr	r2, [sp, #4]
 10056 0030 1A60     		str	r2, [r3]
1690:C:/StellarStudio-7.0/SDKS/StellarESDK-1.7.0/Modules/Drivers/Timers/HRTIM/src\hrtim.c ****     hdp->adc_trg[adc_trigger].update_src = update_src;
 10057              		.loc 1 1690 30
 10058 0032 9DF80B30 		ldrb	r3, [sp, #11]	@ zero_extendqisi2
 10059              		.loc 1 1690 42
 10060 0036 039A     		ldr	r2, [sp, #12]
 10061 0038 3333     		adds	r3, r3, #51
 10062 003a 1B01     		lsls	r3, r3, #4
 10063 003c 1344     		add	r3, r3, r2
 10064 003e 0433     		adds	r3, r3, #4
 10065 0040 009A     		ldr	r2, [sp]
 10066 0042 1A60     		str	r2, [r3]
1691:C:/StellarStudio-7.0/SDKS/StellarESDK-1.7.0/Modules/Drivers/Timers/HRTIM/src\hrtim.c **** 
1692:C:/StellarStudio-7.0/SDKS/StellarESDK-1.7.0/Modules/Drivers/Timers/HRTIM/src\hrtim.c ****     /* Update on-fly.*/
1693:C:/StellarStudio-7.0/SDKS/StellarESDK-1.7.0/Modules/Drivers/Timers/HRTIM/src\hrtim.c ****     if (hdp->is_enable == true) {
 10067              		.loc 1 1693 12
 10068 0044 039B     		ldr	r3, [sp, #12]
 10069 0046 1B79     		ldrb	r3, [r3, #4]	@ zero_extendqisi2
 10070              		.loc 1 1693 8
 10071 0048 002B     		cmp	r3, #0
 10072 004a 00F0D781 		beq	.L364
1694:C:/StellarStudio-7.0/SDKS/StellarESDK-1.7.0/Modules/Drivers/Timers/HRTIM/src\hrtim.c ****         /* Set the ADC trigger update source */
1695:C:/StellarStudio-7.0/SDKS/StellarESDK-1.7.0/Modules/Drivers/Timers/HRTIM/src\hrtim.c ****         hrtim_cr1 =  hdp->hrtim->sCommonRegs.CR1;
 10073              		.loc 1 1695 25
 10074 004e 039B     		ldr	r3, [sp, #12]
 10075 0050 1B68     		ldr	r3, [r3]
 10076              		.loc 1 1695 19
 10077 0052 D3F88033 		ldr	r3, [r3, #896]
 10078 0056 0593     		str	r3, [sp, #20]
1696:C:/StellarStudio-7.0/SDKS/StellarESDK-1.7.0/Modules/Drivers/Timers/HRTIM/src\hrtim.c ****         hrtim_adcur = hdp->hrtim->sCommonRegs.ADCUR;
 10079              		.loc 1 1696 26
 10080 0058 039B     		ldr	r3, [sp, #12]
 10081 005a 1B68     		ldr	r3, [r3]
 10082              		.loc 1 1696 21
 10083 005c D3F8FC33 		ldr	r3, [r3, #1020]
 10084 0060 0493     		str	r3, [sp, #16]
1697:C:/StellarStudio-7.0/SDKS/StellarESDK-1.7.0/Modules/Drivers/Timers/HRTIM/src\hrtim.c **** 
1698:C:/StellarStudio-7.0/SDKS/StellarESDK-1.7.0/Modules/Drivers/Timers/HRTIM/src\hrtim.c ****         switch (adc_trigger) {
 10085              		.loc 1 1698 9
 10086 0062 9DF80B30 		ldrb	r3, [sp, #11]	@ zero_extendqisi2
 10087 0066 092B     		cmp	r3, #9
 10088 0068 00F2B881 		bhi	.L365
 10089 006c 01A2     		adr	r2, .L352
 10090 006e 52F823F0 		ldr	pc, [r2, r3, lsl #2]
 10091 0072 00BF     		.p2align 2
 10092              	.L352:
 10093 0074 9D000000 		.word	.L361+1
 10094 0078 DB000000 		.word	.L360+1
 10095 007c 19010000 		.word	.L359+1
 10096 0080 57010000 		.word	.L358+1
 10097 0084 95010000 		.word	.L357+1
 10098 0088 F3010000 		.word	.L356+1
 10099 008c 55020000 		.word	.L355+1
 10100 0090 B7020000 		.word	.L354+1
 10101 0094 19030000 		.word	.L353+1
 10102 0098 7B030000 		.word	.L351+1
 10103              		.p2align 1
 10104              	.L361:
1699:C:/StellarStudio-7.0/SDKS/StellarESDK-1.7.0/Modules/Drivers/Timers/HRTIM/src\hrtim.c ****             case HRTIM_ADCTRIGGER_1:
1700:C:/StellarStudio-7.0/SDKS/StellarESDK-1.7.0/Modules/Drivers/Timers/HRTIM/src\hrtim.c ****                 hrtim_cr1 &= ~(HRTIM_CR1_ADC1USRC_Msk);
 10105              		.loc 1 1700 27
 10106 009c 059B     		ldr	r3, [sp, #20]
 10107 009e 23F4E023 		bic	r3, r3, #458752
 10108 00a2 0593     		str	r3, [sp, #20]
1701:C:/StellarStudio-7.0/SDKS/StellarESDK-1.7.0/Modules/Drivers/Timers/HRTIM/src\hrtim.c ****                 hrtim_cr1 |= ((uint32_t)(hdp->adc_trg[adc_trigger].update_src << HRTIM_CR1_ADC1USRC
 10109              		.loc 1 1701 67
 10110 00a4 9DF80B30 		ldrb	r3, [sp, #11]	@ zero_extendqisi2
 10111 00a8 039A     		ldr	r2, [sp, #12]
 10112 00aa 3333     		adds	r3, r3, #51
 10113 00ac 1B01     		lsls	r3, r3, #4
 10114 00ae 1344     		add	r3, r3, r2
 10115 00b0 0433     		adds	r3, r3, #4
 10116 00b2 1B68     		ldr	r3, [r3]
 10117              		.loc 1 1701 79
 10118 00b4 1B04     		lsls	r3, r3, #16
 10119              		.loc 1 1701 106
 10120 00b6 03F4E023 		and	r3, r3, #458752
 10121              		.loc 1 1701 27
 10122 00ba 059A     		ldr	r2, [sp, #20]
 10123 00bc 1343     		orrs	r3, r3, r2
 10124 00be 0593     		str	r3, [sp, #20]
1702:C:/StellarStudio-7.0/SDKS/StellarESDK-1.7.0/Modules/Drivers/Timers/HRTIM/src\hrtim.c **** 
1703:C:/StellarStudio-7.0/SDKS/StellarESDK-1.7.0/Modules/Drivers/Timers/HRTIM/src\hrtim.c ****                 /* Set the ADC trigger 1 source.*/
1704:C:/StellarStudio-7.0/SDKS/StellarESDK-1.7.0/Modules/Drivers/Timers/HRTIM/src\hrtim.c ****                 hdp->hrtim->sCommonRegs.ADC1R = hdp->adc_trg[adc_trigger].event_trigger;
 10125              		.loc 1 1704 74
 10126 00c0 9DF80B20 		ldrb	r2, [sp, #11]	@ zero_extendqisi2
 10127              		.loc 1 1704 20
 10128 00c4 039B     		ldr	r3, [sp, #12]
 10129 00c6 1B68     		ldr	r3, [r3]
 10130              		.loc 1 1704 74
 10131 00c8 0399     		ldr	r1, [sp, #12]
 10132 00ca 1201     		lsls	r2, r2, #4
 10133 00cc 0A44     		add	r2, r2, r1
 10134 00ce 02F54E72 		add	r2, r2, #824
 10135 00d2 1268     		ldr	r2, [r2]
 10136              		.loc 1 1704 47
 10137 00d4 C3F8BC23 		str	r2, [r3, #956]
1705:C:/StellarStudio-7.0/SDKS/StellarESDK-1.7.0/Modules/Drivers/Timers/HRTIM/src\hrtim.c ****                 break;
 10138              		.loc 1 1705 17
 10139 00d8 81E1     		b	.L362
 10140              	.L360:
1706:C:/StellarStudio-7.0/SDKS/StellarESDK-1.7.0/Modules/Drivers/Timers/HRTIM/src\hrtim.c ****             case HRTIM_ADCTRIGGER_2:
1707:C:/StellarStudio-7.0/SDKS/StellarESDK-1.7.0/Modules/Drivers/Timers/HRTIM/src\hrtim.c ****                 hrtim_cr1 &= ~(HRTIM_CR1_ADC2USRC_Msk);
 10141              		.loc 1 1707 27
 10142 00da 059B     		ldr	r3, [sp, #20]
 10143 00dc 23F46013 		bic	r3, r3, #3670016
 10144 00e0 0593     		str	r3, [sp, #20]
1708:C:/StellarStudio-7.0/SDKS/StellarESDK-1.7.0/Modules/Drivers/Timers/HRTIM/src\hrtim.c ****                 hrtim_cr1 |= ((hdp->adc_trg[adc_trigger].update_src << HRTIM_CR1_ADC2USRC_Pos) & HR
 10145              		.loc 1 1708 57
 10146 00e2 9DF80B30 		ldrb	r3, [sp, #11]	@ zero_extendqisi2
 10147 00e6 039A     		ldr	r2, [sp, #12]
 10148 00e8 3333     		adds	r3, r3, #51
 10149 00ea 1B01     		lsls	r3, r3, #4
 10150 00ec 1344     		add	r3, r3, r2
 10151 00ee 0433     		adds	r3, r3, #4
 10152 00f0 1B68     		ldr	r3, [r3]
 10153              		.loc 1 1708 69
 10154 00f2 DB04     		lsls	r3, r3, #19
 10155              		.loc 1 1708 96
 10156 00f4 03F46013 		and	r3, r3, #3670016
 10157              		.loc 1 1708 27
 10158 00f8 059A     		ldr	r2, [sp, #20]
 10159 00fa 1343     		orrs	r3, r3, r2
 10160 00fc 0593     		str	r3, [sp, #20]
1709:C:/StellarStudio-7.0/SDKS/StellarESDK-1.7.0/Modules/Drivers/Timers/HRTIM/src\hrtim.c **** 
1710:C:/StellarStudio-7.0/SDKS/StellarESDK-1.7.0/Modules/Drivers/Timers/HRTIM/src\hrtim.c ****                 /* Set the ADC trigger 2 source.*/
1711:C:/StellarStudio-7.0/SDKS/StellarESDK-1.7.0/Modules/Drivers/Timers/HRTIM/src\hrtim.c ****                 hdp->hrtim->sCommonRegs.ADC2R = hdp->adc_trg[adc_trigger].event_trigger;
 10161              		.loc 1 1711 74
 10162 00fe 9DF80B20 		ldrb	r2, [sp, #11]	@ zero_extendqisi2
 10163              		.loc 1 1711 20
 10164 0102 039B     		ldr	r3, [sp, #12]
 10165 0104 1B68     		ldr	r3, [r3]
 10166              		.loc 1 1711 74
 10167 0106 0399     		ldr	r1, [sp, #12]
 10168 0108 1201     		lsls	r2, r2, #4
 10169 010a 0A44     		add	r2, r2, r1
 10170 010c 02F54E72 		add	r2, r2, #824
 10171 0110 1268     		ldr	r2, [r2]
 10172              		.loc 1 1711 47
 10173 0112 C3F8C023 		str	r2, [r3, #960]
1712:C:/StellarStudio-7.0/SDKS/StellarESDK-1.7.0/Modules/Drivers/Timers/HRTIM/src\hrtim.c ****                 break;
 10174              		.loc 1 1712 17
 10175 0116 62E1     		b	.L362
 10176              	.L359:
1713:C:/StellarStudio-7.0/SDKS/StellarESDK-1.7.0/Modules/Drivers/Timers/HRTIM/src\hrtim.c ****             case HRTIM_ADCTRIGGER_3:
1714:C:/StellarStudio-7.0/SDKS/StellarESDK-1.7.0/Modules/Drivers/Timers/HRTIM/src\hrtim.c ****                 hrtim_cr1 &= ~(HRTIM_CR1_ADC3USRC_Msk);
 10177              		.loc 1 1714 27
 10178 0118 059B     		ldr	r3, [sp, #20]
 10179 011a 23F0E073 		bic	r3, r3, #29360128
 10180 011e 0593     		str	r3, [sp, #20]
1715:C:/StellarStudio-7.0/SDKS/StellarESDK-1.7.0/Modules/Drivers/Timers/HRTIM/src\hrtim.c ****                 hrtim_cr1 |= ((hdp->adc_trg[adc_trigger].update_src << HRTIM_CR1_ADC3USRC_Pos) & HR
 10181              		.loc 1 1715 57
 10182 0120 9DF80B30 		ldrb	r3, [sp, #11]	@ zero_extendqisi2
 10183 0124 039A     		ldr	r2, [sp, #12]
 10184 0126 3333     		adds	r3, r3, #51
 10185 0128 1B01     		lsls	r3, r3, #4
 10186 012a 1344     		add	r3, r3, r2
 10187 012c 0433     		adds	r3, r3, #4
 10188 012e 1B68     		ldr	r3, [r3]
 10189              		.loc 1 1715 69
 10190 0130 9B05     		lsls	r3, r3, #22
 10191              		.loc 1 1715 96
 10192 0132 03F0E073 		and	r3, r3, #29360128
 10193              		.loc 1 1715 27
 10194 0136 059A     		ldr	r2, [sp, #20]
 10195 0138 1343     		orrs	r3, r3, r2
 10196 013a 0593     		str	r3, [sp, #20]
1716:C:/StellarStudio-7.0/SDKS/StellarESDK-1.7.0/Modules/Drivers/Timers/HRTIM/src\hrtim.c **** 
1717:C:/StellarStudio-7.0/SDKS/StellarESDK-1.7.0/Modules/Drivers/Timers/HRTIM/src\hrtim.c ****                 /* Set the ADC trigger 3 source.*/
1718:C:/StellarStudio-7.0/SDKS/StellarESDK-1.7.0/Modules/Drivers/Timers/HRTIM/src\hrtim.c ****                 hdp->hrtim->sCommonRegs.ADC3R =  hdp->adc_trg[adc_trigger].event_trigger;
 10197              		.loc 1 1718 75
 10198 013c 9DF80B20 		ldrb	r2, [sp, #11]	@ zero_extendqisi2
 10199              		.loc 1 1718 20
 10200 0140 039B     		ldr	r3, [sp, #12]
 10201 0142 1B68     		ldr	r3, [r3]
 10202              		.loc 1 1718 75
 10203 0144 0399     		ldr	r1, [sp, #12]
 10204 0146 1201     		lsls	r2, r2, #4
 10205 0148 0A44     		add	r2, r2, r1
 10206 014a 02F54E72 		add	r2, r2, #824
 10207 014e 1268     		ldr	r2, [r2]
 10208              		.loc 1 1718 47
 10209 0150 C3F8C423 		str	r2, [r3, #964]
1719:C:/StellarStudio-7.0/SDKS/StellarESDK-1.7.0/Modules/Drivers/Timers/HRTIM/src\hrtim.c ****                 break;
 10210              		.loc 1 1719 17
 10211 0154 43E1     		b	.L362
 10212              	.L358:
1720:C:/StellarStudio-7.0/SDKS/StellarESDK-1.7.0/Modules/Drivers/Timers/HRTIM/src\hrtim.c ****             case HRTIM_ADCTRIGGER_4:
1721:C:/StellarStudio-7.0/SDKS/StellarESDK-1.7.0/Modules/Drivers/Timers/HRTIM/src\hrtim.c ****                 hrtim_cr1 &= ~(HRTIM_CR1_ADC4USRC_Msk);
 10213              		.loc 1 1721 27
 10214 0156 059B     		ldr	r3, [sp, #20]
 10215 0158 23F06063 		bic	r3, r3, #234881024
 10216 015c 0593     		str	r3, [sp, #20]
1722:C:/StellarStudio-7.0/SDKS/StellarESDK-1.7.0/Modules/Drivers/Timers/HRTIM/src\hrtim.c ****                 hrtim_cr1 |= ((hdp->adc_trg[adc_trigger].update_src << HRTIM_CR1_ADC4USRC_Pos) & HR
 10217              		.loc 1 1722 57
 10218 015e 9DF80B30 		ldrb	r3, [sp, #11]	@ zero_extendqisi2
 10219 0162 039A     		ldr	r2, [sp, #12]
 10220 0164 3333     		adds	r3, r3, #51
 10221 0166 1B01     		lsls	r3, r3, #4
 10222 0168 1344     		add	r3, r3, r2
 10223 016a 0433     		adds	r3, r3, #4
 10224 016c 1B68     		ldr	r3, [r3]
 10225              		.loc 1 1722 69
 10226 016e 5B06     		lsls	r3, r3, #25
 10227              		.loc 1 1722 96
 10228 0170 03F06063 		and	r3, r3, #234881024
 10229              		.loc 1 1722 27
 10230 0174 059A     		ldr	r2, [sp, #20]
 10231 0176 1343     		orrs	r3, r3, r2
 10232 0178 0593     		str	r3, [sp, #20]
1723:C:/StellarStudio-7.0/SDKS/StellarESDK-1.7.0/Modules/Drivers/Timers/HRTIM/src\hrtim.c **** 
1724:C:/StellarStudio-7.0/SDKS/StellarESDK-1.7.0/Modules/Drivers/Timers/HRTIM/src\hrtim.c ****                 /* Set the ADC trigger 4 source.*/
1725:C:/StellarStudio-7.0/SDKS/StellarESDK-1.7.0/Modules/Drivers/Timers/HRTIM/src\hrtim.c ****                 hdp->hrtim->sCommonRegs.ADC4R = hdp->adc_trg[adc_trigger].event_trigger;
 10233              		.loc 1 1725 74
 10234 017a 9DF80B20 		ldrb	r2, [sp, #11]	@ zero_extendqisi2
 10235              		.loc 1 1725 20
 10236 017e 039B     		ldr	r3, [sp, #12]
 10237 0180 1B68     		ldr	r3, [r3]
 10238              		.loc 1 1725 74
 10239 0182 0399     		ldr	r1, [sp, #12]
 10240 0184 1201     		lsls	r2, r2, #4
 10241 0186 0A44     		add	r2, r2, r1
 10242 0188 02F54E72 		add	r2, r2, #824
 10243 018c 1268     		ldr	r2, [r2]
 10244              		.loc 1 1725 47
 10245 018e C3F8C823 		str	r2, [r3, #968]
1726:C:/StellarStudio-7.0/SDKS/StellarESDK-1.7.0/Modules/Drivers/Timers/HRTIM/src\hrtim.c ****                 break;
 10246              		.loc 1 1726 17
 10247 0192 24E1     		b	.L362
 10248              	.L357:
1727:C:/StellarStudio-7.0/SDKS/StellarESDK-1.7.0/Modules/Drivers/Timers/HRTIM/src\hrtim.c ****             case HRTIM_ADCTRIGGER_5:
1728:C:/StellarStudio-7.0/SDKS/StellarESDK-1.7.0/Modules/Drivers/Timers/HRTIM/src\hrtim.c ****                 hrtim_adcur &= ~(HRTIM_ADCUR_AD5USRC_Msk);
 10249              		.loc 1 1728 29
 10250 0194 049B     		ldr	r3, [sp, #16]
 10251 0196 23F00703 		bic	r3, r3, #7
 10252 019a 0493     		str	r3, [sp, #16]
1729:C:/StellarStudio-7.0/SDKS/StellarESDK-1.7.0/Modules/Drivers/Timers/HRTIM/src\hrtim.c ****                 hrtim_adcur |= ((hdp->adc_trg[adc_trigger].update_src << HRTIM_ADCUR_AD5USRC_Pos) &
 10253              		.loc 1 1729 71
 10254 019c 9DF80B30 		ldrb	r3, [sp, #11]	@ zero_extendqisi2
 10255 01a0 039A     		ldr	r2, [sp, #12]
 10256 01a2 3333     		adds	r3, r3, #51
 10257 01a4 1B01     		lsls	r3, r3, #4
 10258 01a6 1344     		add	r3, r3, r2
 10259 01a8 0433     		adds	r3, r3, #4
 10260 01aa 1B68     		ldr	r3, [r3]
 10261              		.loc 1 1729 99
 10262 01ac 03F00703 		and	r3, r3, #7
 10263              		.loc 1 1729 29
 10264 01b0 049A     		ldr	r2, [sp, #16]
 10265 01b2 1343     		orrs	r3, r3, r2
 10266 01b4 0493     		str	r3, [sp, #16]
1730:C:/StellarStudio-7.0/SDKS/StellarESDK-1.7.0/Modules/Drivers/Timers/HRTIM/src\hrtim.c **** 
1731:C:/StellarStudio-7.0/SDKS/StellarESDK-1.7.0/Modules/Drivers/Timers/HRTIM/src\hrtim.c ****                 /* Set the ADC trigger 5 source.*/
1732:C:/StellarStudio-7.0/SDKS/StellarESDK-1.7.0/Modules/Drivers/Timers/HRTIM/src\hrtim.c ****                 hdp->hrtim->sCommonRegs.ADCER &= ~(HRTIM_ADCER_AD5TRG);
 10267              		.loc 1 1732 20
 10268 01b6 039B     		ldr	r3, [sp, #12]
 10269 01b8 1B68     		ldr	r3, [r3]
 10270              		.loc 1 1732 47
 10271 01ba D3F8F823 		ldr	r2, [r3, #1016]
 10272              		.loc 1 1732 20
 10273 01be 039B     		ldr	r3, [sp, #12]
 10274 01c0 1B68     		ldr	r3, [r3]
 10275              		.loc 1 1732 47
 10276 01c2 22F01F02 		bic	r2, r2, #31
 10277 01c6 C3F8F823 		str	r2, [r3, #1016]
1733:C:/StellarStudio-7.0/SDKS/StellarESDK-1.7.0/Modules/Drivers/Timers/HRTIM/src\hrtim.c ****                 hdp->hrtim->sCommonRegs.ADCER |= ((hdp->adc_trg[adc_trigger].event_trigger << HRTIM
 10278              		.loc 1 1733 20
 10279 01ca 039B     		ldr	r3, [sp, #12]
 10280 01cc 1B68     		ldr	r3, [r3]
 10281              		.loc 1 1733 47
 10282 01ce D3F8F813 		ldr	r1, [r3, #1016]
 10283              		.loc 1 1733 92
 10284 01d2 9DF80B30 		ldrb	r3, [sp, #11]	@ zero_extendqisi2
 10285 01d6 039A     		ldr	r2, [sp, #12]
 10286 01d8 1B01     		lsls	r3, r3, #4
 10287 01da 1344     		add	r3, r3, r2
 10288 01dc 03F54E73 		add	r3, r3, #824
 10289 01e0 1B68     		ldr	r3, [r3]
 10290              		.loc 1 1733 119
 10291 01e2 03F01F02 		and	r2, r3, #31
 10292              		.loc 1 1733 20
 10293 01e6 039B     		ldr	r3, [sp, #12]
 10294 01e8 1B68     		ldr	r3, [r3]
 10295              		.loc 1 1733 47
 10296 01ea 0A43     		orrs	r2, r2, r1
 10297 01ec C3F8F823 		str	r2, [r3, #1016]
1734:C:/StellarStudio-7.0/SDKS/StellarESDK-1.7.0/Modules/Drivers/Timers/HRTIM/src\hrtim.c ****                 break;
 10298              		.loc 1 1734 17
 10299 01f0 F5E0     		b	.L362
 10300              	.L356:
1735:C:/StellarStudio-7.0/SDKS/StellarESDK-1.7.0/Modules/Drivers/Timers/HRTIM/src\hrtim.c ****             case HRTIM_ADCTRIGGER_6:
1736:C:/StellarStudio-7.0/SDKS/StellarESDK-1.7.0/Modules/Drivers/Timers/HRTIM/src\hrtim.c ****                 hrtim_adcur &= ~(HRTIM_ADCUR_AD6USRC_Msk);
 10301              		.loc 1 1736 29
 10302 01f2 049B     		ldr	r3, [sp, #16]
 10303 01f4 23F07003 		bic	r3, r3, #112
 10304 01f8 0493     		str	r3, [sp, #16]
1737:C:/StellarStudio-7.0/SDKS/StellarESDK-1.7.0/Modules/Drivers/Timers/HRTIM/src\hrtim.c ****                 hrtim_adcur |= ((hdp->adc_trg[adc_trigger].update_src << HRTIM_ADCUR_AD6USRC_Pos) &
 10305              		.loc 1 1737 59
 10306 01fa 9DF80B30 		ldrb	r3, [sp, #11]	@ zero_extendqisi2
 10307 01fe 039A     		ldr	r2, [sp, #12]
 10308 0200 3333     		adds	r3, r3, #51
 10309 0202 1B01     		lsls	r3, r3, #4
 10310 0204 1344     		add	r3, r3, r2
 10311 0206 0433     		adds	r3, r3, #4
 10312 0208 1B68     		ldr	r3, [r3]
 10313              		.loc 1 1737 71
 10314 020a 1B01     		lsls	r3, r3, #4
 10315              		.loc 1 1737 99
 10316 020c 03F07003 		and	r3, r3, #112
 10317              		.loc 1 1737 29
 10318 0210 049A     		ldr	r2, [sp, #16]
 10319 0212 1343     		orrs	r3, r3, r2
 10320 0214 0493     		str	r3, [sp, #16]
1738:C:/StellarStudio-7.0/SDKS/StellarESDK-1.7.0/Modules/Drivers/Timers/HRTIM/src\hrtim.c **** 
1739:C:/StellarStudio-7.0/SDKS/StellarESDK-1.7.0/Modules/Drivers/Timers/HRTIM/src\hrtim.c ****                 /* Set the ADC trigger 6 source.*/
1740:C:/StellarStudio-7.0/SDKS/StellarESDK-1.7.0/Modules/Drivers/Timers/HRTIM/src\hrtim.c ****                 hdp->hrtim->sCommonRegs.ADCER &= ~(HRTIM_ADCER_AD6TRG);
 10321              		.loc 1 1740 20
 10322 0216 039B     		ldr	r3, [sp, #12]
 10323 0218 1B68     		ldr	r3, [r3]
 10324              		.loc 1 1740 47
 10325 021a D3F8F823 		ldr	r2, [r3, #1016]
 10326              		.loc 1 1740 20
 10327 021e 039B     		ldr	r3, [sp, #12]
 10328 0220 1B68     		ldr	r3, [r3]
 10329              		.loc 1 1740 47
 10330 0222 22F47872 		bic	r2, r2, #992
 10331 0226 C3F8F823 		str	r2, [r3, #1016]
1741:C:/StellarStudio-7.0/SDKS/StellarESDK-1.7.0/Modules/Drivers/Timers/HRTIM/src\hrtim.c ****                 hdp->hrtim->sCommonRegs.ADCER |= ((hdp->adc_trg[adc_trigger].event_trigger << HRTIM
 10332              		.loc 1 1741 20
 10333 022a 039B     		ldr	r3, [sp, #12]
 10334 022c 1B68     		ldr	r3, [r3]
 10335              		.loc 1 1741 47
 10336 022e D3F8F813 		ldr	r1, [r3, #1016]
 10337              		.loc 1 1741 77
 10338 0232 9DF80B30 		ldrb	r3, [sp, #11]	@ zero_extendqisi2
 10339 0236 039A     		ldr	r2, [sp, #12]
 10340 0238 1B01     		lsls	r3, r3, #4
 10341 023a 1344     		add	r3, r3, r2
 10342 023c 03F54E73 		add	r3, r3, #824
 10343 0240 1B68     		ldr	r3, [r3]
 10344              		.loc 1 1741 92
 10345 0242 5B01     		lsls	r3, r3, #5
 10346              		.loc 1 1741 119
 10347 0244 03F47872 		and	r2, r3, #992
 10348              		.loc 1 1741 20
 10349 0248 039B     		ldr	r3, [sp, #12]
 10350 024a 1B68     		ldr	r3, [r3]
 10351              		.loc 1 1741 47
 10352 024c 0A43     		orrs	r2, r2, r1
 10353 024e C3F8F823 		str	r2, [r3, #1016]
1742:C:/StellarStudio-7.0/SDKS/StellarESDK-1.7.0/Modules/Drivers/Timers/HRTIM/src\hrtim.c ****                 break;
 10354              		.loc 1 1742 17
 10355 0252 C4E0     		b	.L362
 10356              	.L355:
1743:C:/StellarStudio-7.0/SDKS/StellarESDK-1.7.0/Modules/Drivers/Timers/HRTIM/src\hrtim.c ****             case HRTIM_ADCTRIGGER_7:
1744:C:/StellarStudio-7.0/SDKS/StellarESDK-1.7.0/Modules/Drivers/Timers/HRTIM/src\hrtim.c ****                 hrtim_adcur &= ~(HRTIM_ADCUR_AD7USRC_Msk);
 10357              		.loc 1 1744 29
 10358 0254 049B     		ldr	r3, [sp, #16]
 10359 0256 23F4E063 		bic	r3, r3, #1792
 10360 025a 0493     		str	r3, [sp, #16]
1745:C:/StellarStudio-7.0/SDKS/StellarESDK-1.7.0/Modules/Drivers/Timers/HRTIM/src\hrtim.c ****                 hrtim_adcur |= ((hdp->adc_trg[adc_trigger].update_src << HRTIM_ADCUR_AD7USRC_Pos) &
 10361              		.loc 1 1745 59
 10362 025c 9DF80B30 		ldrb	r3, [sp, #11]	@ zero_extendqisi2
 10363 0260 039A     		ldr	r2, [sp, #12]
 10364 0262 3333     		adds	r3, r3, #51
 10365 0264 1B01     		lsls	r3, r3, #4
 10366 0266 1344     		add	r3, r3, r2
 10367 0268 0433     		adds	r3, r3, #4
 10368 026a 1B68     		ldr	r3, [r3]
 10369              		.loc 1 1745 71
 10370 026c 1B02     		lsls	r3, r3, #8
 10371              		.loc 1 1745 99
 10372 026e 03F4E063 		and	r3, r3, #1792
 10373              		.loc 1 1745 29
 10374 0272 049A     		ldr	r2, [sp, #16]
 10375 0274 1343     		orrs	r3, r3, r2
 10376 0276 0493     		str	r3, [sp, #16]
1746:C:/StellarStudio-7.0/SDKS/StellarESDK-1.7.0/Modules/Drivers/Timers/HRTIM/src\hrtim.c **** 
1747:C:/StellarStudio-7.0/SDKS/StellarESDK-1.7.0/Modules/Drivers/Timers/HRTIM/src\hrtim.c ****                 /* Set the ADC trigger 7 source.*/
1748:C:/StellarStudio-7.0/SDKS/StellarESDK-1.7.0/Modules/Drivers/Timers/HRTIM/src\hrtim.c ****                 hdp->hrtim->sCommonRegs.ADCER &= ~(HRTIM_ADCER_AD7TRG);
 10377              		.loc 1 1748 20
 10378 0278 039B     		ldr	r3, [sp, #12]
 10379 027a 1B68     		ldr	r3, [r3]
 10380              		.loc 1 1748 47
 10381 027c D3F8F823 		ldr	r2, [r3, #1016]
 10382              		.loc 1 1748 20
 10383 0280 039B     		ldr	r3, [sp, #12]
 10384 0282 1B68     		ldr	r3, [r3]
 10385              		.loc 1 1748 47
 10386 0284 22F4F842 		bic	r2, r2, #31744
 10387 0288 C3F8F823 		str	r2, [r3, #1016]
1749:C:/StellarStudio-7.0/SDKS/StellarESDK-1.7.0/Modules/Drivers/Timers/HRTIM/src\hrtim.c ****                 hdp->hrtim->sCommonRegs.ADCER |= ((hdp->adc_trg[adc_trigger].event_trigger << HRTIM
 10388              		.loc 1 1749 20
 10389 028c 039B     		ldr	r3, [sp, #12]
 10390 028e 1B68     		ldr	r3, [r3]
 10391              		.loc 1 1749 47
 10392 0290 D3F8F813 		ldr	r1, [r3, #1016]
 10393              		.loc 1 1749 77
 10394 0294 9DF80B30 		ldrb	r3, [sp, #11]	@ zero_extendqisi2
 10395 0298 039A     		ldr	r2, [sp, #12]
 10396 029a 1B01     		lsls	r3, r3, #4
 10397 029c 1344     		add	r3, r3, r2
 10398 029e 03F54E73 		add	r3, r3, #824
 10399 02a2 1B68     		ldr	r3, [r3]
 10400              		.loc 1 1749 92
 10401 02a4 9B02     		lsls	r3, r3, #10
 10402              		.loc 1 1749 119
 10403 02a6 03F4F842 		and	r2, r3, #31744
 10404              		.loc 1 1749 20
 10405 02aa 039B     		ldr	r3, [sp, #12]
 10406 02ac 1B68     		ldr	r3, [r3]
 10407              		.loc 1 1749 47
 10408 02ae 0A43     		orrs	r2, r2, r1
 10409 02b0 C3F8F823 		str	r2, [r3, #1016]
1750:C:/StellarStudio-7.0/SDKS/StellarESDK-1.7.0/Modules/Drivers/Timers/HRTIM/src\hrtim.c ****                 break;
 10410              		.loc 1 1750 17
 10411 02b4 93E0     		b	.L362
 10412              	.L354:
1751:C:/StellarStudio-7.0/SDKS/StellarESDK-1.7.0/Modules/Drivers/Timers/HRTIM/src\hrtim.c ****             case HRTIM_ADCTRIGGER_8:
1752:C:/StellarStudio-7.0/SDKS/StellarESDK-1.7.0/Modules/Drivers/Timers/HRTIM/src\hrtim.c ****                 hrtim_adcur &= ~(HRTIM_ADCUR_AD8USRC_Msk);
 10413              		.loc 1 1752 29
 10414 02b6 049B     		ldr	r3, [sp, #16]
 10415 02b8 23F4E043 		bic	r3, r3, #28672
 10416 02bc 0493     		str	r3, [sp, #16]
1753:C:/StellarStudio-7.0/SDKS/StellarESDK-1.7.0/Modules/Drivers/Timers/HRTIM/src\hrtim.c ****                 hrtim_adcur |= ((hdp->adc_trg[adc_trigger].update_src << HRTIM_ADCUR_AD8USRC_Pos) &
 10417              		.loc 1 1753 59
 10418 02be 9DF80B30 		ldrb	r3, [sp, #11]	@ zero_extendqisi2
 10419 02c2 039A     		ldr	r2, [sp, #12]
 10420 02c4 3333     		adds	r3, r3, #51
 10421 02c6 1B01     		lsls	r3, r3, #4
 10422 02c8 1344     		add	r3, r3, r2
 10423 02ca 0433     		adds	r3, r3, #4
 10424 02cc 1B68     		ldr	r3, [r3]
 10425              		.loc 1 1753 71
 10426 02ce 1B03     		lsls	r3, r3, #12
 10427              		.loc 1 1753 99
 10428 02d0 03F4E043 		and	r3, r3, #28672
 10429              		.loc 1 1753 29
 10430 02d4 049A     		ldr	r2, [sp, #16]
 10431 02d6 1343     		orrs	r3, r3, r2
 10432 02d8 0493     		str	r3, [sp, #16]
1754:C:/StellarStudio-7.0/SDKS/StellarESDK-1.7.0/Modules/Drivers/Timers/HRTIM/src\hrtim.c **** 
1755:C:/StellarStudio-7.0/SDKS/StellarESDK-1.7.0/Modules/Drivers/Timers/HRTIM/src\hrtim.c ****                 /* Set the ADC trigger 8 source.*/
1756:C:/StellarStudio-7.0/SDKS/StellarESDK-1.7.0/Modules/Drivers/Timers/HRTIM/src\hrtim.c ****                 hdp->hrtim->sCommonRegs.ADCER &= ~(HRTIM_ADCER_AD8TRG);
 10433              		.loc 1 1756 20
 10434 02da 039B     		ldr	r3, [sp, #12]
 10435 02dc 1B68     		ldr	r3, [r3]
 10436              		.loc 1 1756 47
 10437 02de D3F8F823 		ldr	r2, [r3, #1016]
 10438              		.loc 1 1756 20
 10439 02e2 039B     		ldr	r3, [sp, #12]
 10440 02e4 1B68     		ldr	r3, [r3]
 10441              		.loc 1 1756 47
 10442 02e6 22F4F812 		bic	r2, r2, #2031616
 10443 02ea C3F8F823 		str	r2, [r3, #1016]
1757:C:/StellarStudio-7.0/SDKS/StellarESDK-1.7.0/Modules/Drivers/Timers/HRTIM/src\hrtim.c ****                 hdp->hrtim->sCommonRegs.ADCER |= ((hdp->adc_trg[adc_trigger].event_trigger << HRTIM
 10444              		.loc 1 1757 20
 10445 02ee 039B     		ldr	r3, [sp, #12]
 10446 02f0 1B68     		ldr	r3, [r3]
 10447              		.loc 1 1757 47
 10448 02f2 D3F8F813 		ldr	r1, [r3, #1016]
 10449              		.loc 1 1757 77
 10450 02f6 9DF80B30 		ldrb	r3, [sp, #11]	@ zero_extendqisi2
 10451 02fa 039A     		ldr	r2, [sp, #12]
 10452 02fc 1B01     		lsls	r3, r3, #4
 10453 02fe 1344     		add	r3, r3, r2
 10454 0300 03F54E73 		add	r3, r3, #824
 10455 0304 1B68     		ldr	r3, [r3]
 10456              		.loc 1 1757 92
 10457 0306 1B04     		lsls	r3, r3, #16
 10458              		.loc 1 1757 119
 10459 0308 03F4F812 		and	r2, r3, #2031616
 10460              		.loc 1 1757 20
 10461 030c 039B     		ldr	r3, [sp, #12]
 10462 030e 1B68     		ldr	r3, [r3]
 10463              		.loc 1 1757 47
 10464 0310 0A43     		orrs	r2, r2, r1
 10465 0312 C3F8F823 		str	r2, [r3, #1016]
1758:C:/StellarStudio-7.0/SDKS/StellarESDK-1.7.0/Modules/Drivers/Timers/HRTIM/src\hrtim.c ****                 break;
 10466              		.loc 1 1758 17
 10467 0316 62E0     		b	.L362
 10468              	.L353:
1759:C:/StellarStudio-7.0/SDKS/StellarESDK-1.7.0/Modules/Drivers/Timers/HRTIM/src\hrtim.c ****             case HRTIM_ADCTRIGGER_9:
1760:C:/StellarStudio-7.0/SDKS/StellarESDK-1.7.0/Modules/Drivers/Timers/HRTIM/src\hrtim.c ****                 hrtim_adcur &= ~(HRTIM_ADCUR_AD9USRC_Msk);
 10469              		.loc 1 1760 29
 10470 0318 049B     		ldr	r3, [sp, #16]
 10471 031a 23F4E023 		bic	r3, r3, #458752
 10472 031e 0493     		str	r3, [sp, #16]
1761:C:/StellarStudio-7.0/SDKS/StellarESDK-1.7.0/Modules/Drivers/Timers/HRTIM/src\hrtim.c ****                 hrtim_adcur |= ((hdp->adc_trg[adc_trigger].update_src << HRTIM_ADCUR_AD9USRC_Pos) &
 10473              		.loc 1 1761 59
 10474 0320 9DF80B30 		ldrb	r3, [sp, #11]	@ zero_extendqisi2
 10475 0324 039A     		ldr	r2, [sp, #12]
 10476 0326 3333     		adds	r3, r3, #51
 10477 0328 1B01     		lsls	r3, r3, #4
 10478 032a 1344     		add	r3, r3, r2
 10479 032c 0433     		adds	r3, r3, #4
 10480 032e 1B68     		ldr	r3, [r3]
 10481              		.loc 1 1761 71
 10482 0330 1B04     		lsls	r3, r3, #16
 10483              		.loc 1 1761 99
 10484 0332 03F4E023 		and	r3, r3, #458752
 10485              		.loc 1 1761 29
 10486 0336 049A     		ldr	r2, [sp, #16]
 10487 0338 1343     		orrs	r3, r3, r2
 10488 033a 0493     		str	r3, [sp, #16]
1762:C:/StellarStudio-7.0/SDKS/StellarESDK-1.7.0/Modules/Drivers/Timers/HRTIM/src\hrtim.c **** 
1763:C:/StellarStudio-7.0/SDKS/StellarESDK-1.7.0/Modules/Drivers/Timers/HRTIM/src\hrtim.c ****                 /* Set the ADC trigger 9 source.*/
1764:C:/StellarStudio-7.0/SDKS/StellarESDK-1.7.0/Modules/Drivers/Timers/HRTIM/src\hrtim.c ****                 hdp->hrtim->sCommonRegs.ADCER &= ~(HRTIM_ADCER_AD9TRG);
 10489              		.loc 1 1764 20
 10490 033c 039B     		ldr	r3, [sp, #12]
 10491 033e 1B68     		ldr	r3, [r3]
 10492              		.loc 1 1764 47
 10493 0340 D3F8F823 		ldr	r2, [r3, #1016]
 10494              		.loc 1 1764 20
 10495 0344 039B     		ldr	r3, [sp, #12]
 10496 0346 1B68     		ldr	r3, [r3]
 10497              		.loc 1 1764 47
 10498 0348 22F07872 		bic	r2, r2, #65011712
 10499 034c C3F8F823 		str	r2, [r3, #1016]
1765:C:/StellarStudio-7.0/SDKS/StellarESDK-1.7.0/Modules/Drivers/Timers/HRTIM/src\hrtim.c ****                 hdp->hrtim->sCommonRegs.ADCER |= ((hdp->adc_trg[adc_trigger].event_trigger << HRTIM
 10500              		.loc 1 1765 20
 10501 0350 039B     		ldr	r3, [sp, #12]
 10502 0352 1B68     		ldr	r3, [r3]
 10503              		.loc 1 1765 47
 10504 0354 D3F8F813 		ldr	r1, [r3, #1016]
 10505              		.loc 1 1765 77
 10506 0358 9DF80B30 		ldrb	r3, [sp, #11]	@ zero_extendqisi2
 10507 035c 039A     		ldr	r2, [sp, #12]
 10508 035e 1B01     		lsls	r3, r3, #4
 10509 0360 1344     		add	r3, r3, r2
 10510 0362 03F54E73 		add	r3, r3, #824
 10511 0366 1B68     		ldr	r3, [r3]
 10512              		.loc 1 1765 92
 10513 0368 5B05     		lsls	r3, r3, #21
 10514              		.loc 1 1765 119
 10515 036a 03F07872 		and	r2, r3, #65011712
 10516              		.loc 1 1765 20
 10517 036e 039B     		ldr	r3, [sp, #12]
 10518 0370 1B68     		ldr	r3, [r3]
 10519              		.loc 1 1765 47
 10520 0372 0A43     		orrs	r2, r2, r1
 10521 0374 C3F8F823 		str	r2, [r3, #1016]
1766:C:/StellarStudio-7.0/SDKS/StellarESDK-1.7.0/Modules/Drivers/Timers/HRTIM/src\hrtim.c ****                 break;
 10522              		.loc 1 1766 17
 10523 0378 31E0     		b	.L362
 10524              	.L351:
1767:C:/StellarStudio-7.0/SDKS/StellarESDK-1.7.0/Modules/Drivers/Timers/HRTIM/src\hrtim.c ****             case HRTIM_ADCTRIGGER_10:
1768:C:/StellarStudio-7.0/SDKS/StellarESDK-1.7.0/Modules/Drivers/Timers/HRTIM/src\hrtim.c ****                 hrtim_adcur &= ~(HRTIM_ADCUR_AD10USRC_Msk);
 10525              		.loc 1 1768 29
 10526 037a 049B     		ldr	r3, [sp, #16]
 10527 037c 23F4E003 		bic	r3, r3, #7340032
 10528 0380 0493     		str	r3, [sp, #16]
1769:C:/StellarStudio-7.0/SDKS/StellarESDK-1.7.0/Modules/Drivers/Timers/HRTIM/src\hrtim.c ****                 hrtim_adcur |= ((hdp->adc_trg[adc_trigger].update_src << HRTIM_ADCUR_AD10USRC_Pos) 
 10529              		.loc 1 1769 59
 10530 0382 9DF80B30 		ldrb	r3, [sp, #11]	@ zero_extendqisi2
 10531 0386 039A     		ldr	r2, [sp, #12]
 10532 0388 3333     		adds	r3, r3, #51
 10533 038a 1B01     		lsls	r3, r3, #4
 10534 038c 1344     		add	r3, r3, r2
 10535 038e 0433     		adds	r3, r3, #4
 10536 0390 1B68     		ldr	r3, [r3]
 10537              		.loc 1 1769 71
 10538 0392 1B05     		lsls	r3, r3, #20
 10539              		.loc 1 1769 100
 10540 0394 03F4E003 		and	r3, r3, #7340032
 10541              		.loc 1 1769 29
 10542 0398 049A     		ldr	r2, [sp, #16]
 10543 039a 1343     		orrs	r3, r3, r2
 10544 039c 0493     		str	r3, [sp, #16]
1770:C:/StellarStudio-7.0/SDKS/StellarESDK-1.7.0/Modules/Drivers/Timers/HRTIM/src\hrtim.c **** 
1771:C:/StellarStudio-7.0/SDKS/StellarESDK-1.7.0/Modules/Drivers/Timers/HRTIM/src\hrtim.c ****                 /* Set the ADC trigger 10 source.*/
1772:C:/StellarStudio-7.0/SDKS/StellarESDK-1.7.0/Modules/Drivers/Timers/HRTIM/src\hrtim.c ****                 hdp->hrtim->sCommonRegs.ADCER &= ~(HRTIM_ADCER_AD10TRG);
 10545              		.loc 1 1772 20
 10546 039e 039B     		ldr	r3, [sp, #12]
 10547 03a0 1B68     		ldr	r3, [r3]
 10548              		.loc 1 1772 47
 10549 03a2 D3F8F823 		ldr	r2, [r3, #1016]
 10550              		.loc 1 1772 20
 10551 03a6 039B     		ldr	r3, [sp, #12]
 10552 03a8 1B68     		ldr	r3, [r3]
 10553              		.loc 1 1772 47
 10554 03aa 22F0F842 		bic	r2, r2, #2080374784
 10555 03ae C3F8F823 		str	r2, [r3, #1016]
1773:C:/StellarStudio-7.0/SDKS/StellarESDK-1.7.0/Modules/Drivers/Timers/HRTIM/src\hrtim.c ****                 hdp->hrtim->sCommonRegs.ADCER |= ((hdp->adc_trg[adc_trigger].event_trigger << HRTIM
 10556              		.loc 1 1773 20
 10557 03b2 039B     		ldr	r3, [sp, #12]
 10558 03b4 1B68     		ldr	r3, [r3]
 10559              		.loc 1 1773 47
 10560 03b6 D3F8F813 		ldr	r1, [r3, #1016]
 10561              		.loc 1 1773 77
 10562 03ba 9DF80B30 		ldrb	r3, [sp, #11]	@ zero_extendqisi2
 10563 03be 039A     		ldr	r2, [sp, #12]
 10564 03c0 1B01     		lsls	r3, r3, #4
 10565 03c2 1344     		add	r3, r3, r2
 10566 03c4 03F54E73 		add	r3, r3, #824
 10567 03c8 1B68     		ldr	r3, [r3]
 10568              		.loc 1 1773 92
 10569 03ca 9B06     		lsls	r3, r3, #26
 10570              		.loc 1 1773 120
 10571 03cc 03F0F842 		and	r2, r3, #2080374784
 10572              		.loc 1 1773 20
 10573 03d0 039B     		ldr	r3, [sp, #12]
 10574 03d2 1B68     		ldr	r3, [r3]
 10575              		.loc 1 1773 47
 10576 03d4 0A43     		orrs	r2, r2, r1
 10577 03d6 C3F8F823 		str	r2, [r3, #1016]
1774:C:/StellarStudio-7.0/SDKS/StellarESDK-1.7.0/Modules/Drivers/Timers/HRTIM/src\hrtim.c ****                 break;
 10578              		.loc 1 1774 17
 10579 03da 00E0     		b	.L362
 10580              	.L365:
1775:C:/StellarStudio-7.0/SDKS/StellarESDK-1.7.0/Modules/Drivers/Timers/HRTIM/src\hrtim.c ****             case HRTIM_NO_ADCTRIGGER:
1776:C:/StellarStudio-7.0/SDKS/StellarESDK-1.7.0/Modules/Drivers/Timers/HRTIM/src\hrtim.c ****             default:
1777:C:/StellarStudio-7.0/SDKS/StellarESDK-1.7.0/Modules/Drivers/Timers/HRTIM/src\hrtim.c ****                 /* for MISRA compliance */
1778:C:/StellarStudio-7.0/SDKS/StellarESDK-1.7.0/Modules/Drivers/Timers/HRTIM/src\hrtim.c ****                 break;
 10581              		.loc 1 1778 17
 10582 03dc 00BF     		nop
 10583              	.L362:
1779:C:/StellarStudio-7.0/SDKS/StellarESDK-1.7.0/Modules/Drivers/Timers/HRTIM/src\hrtim.c ****         }
1780:C:/StellarStudio-7.0/SDKS/StellarESDK-1.7.0/Modules/Drivers/Timers/HRTIM/src\hrtim.c **** 
1781:C:/StellarStudio-7.0/SDKS/StellarESDK-1.7.0/Modules/Drivers/Timers/HRTIM/src\hrtim.c ****         /* Update the HRTIM registers.*/
1782:C:/StellarStudio-7.0/SDKS/StellarESDK-1.7.0/Modules/Drivers/Timers/HRTIM/src\hrtim.c ****         if (adc_trigger < HRTIM_ADCTRIGGER_5) {
 10584              		.loc 1 1782 12
 10585 03de 9DF80B30 		ldrb	r3, [sp, #11]	@ zero_extendqisi2
 10586 03e2 032B     		cmp	r3, #3
 10587 03e4 05D8     		bhi	.L363
1783:C:/StellarStudio-7.0/SDKS/StellarESDK-1.7.0/Modules/Drivers/Timers/HRTIM/src\hrtim.c ****             hdp->hrtim->sCommonRegs.CR1 = hrtim_cr1;
 10588              		.loc 1 1783 16
 10589 03e6 039B     		ldr	r3, [sp, #12]
 10590 03e8 1B68     		ldr	r3, [r3]
 10591              		.loc 1 1783 41
 10592 03ea 059A     		ldr	r2, [sp, #20]
 10593 03ec C3F88023 		str	r2, [r3, #896]
1784:C:/StellarStudio-7.0/SDKS/StellarESDK-1.7.0/Modules/Drivers/Timers/HRTIM/src\hrtim.c ****         } else {
1785:C:/StellarStudio-7.0/SDKS/StellarESDK-1.7.0/Modules/Drivers/Timers/HRTIM/src\hrtim.c ****             hdp->hrtim->sCommonRegs.ADCUR = hrtim_adcur;
1786:C:/StellarStudio-7.0/SDKS/StellarESDK-1.7.0/Modules/Drivers/Timers/HRTIM/src\hrtim.c ****         }
1787:C:/StellarStudio-7.0/SDKS/StellarESDK-1.7.0/Modules/Drivers/Timers/HRTIM/src\hrtim.c ****     }
1788:C:/StellarStudio-7.0/SDKS/StellarESDK-1.7.0/Modules/Drivers/Timers/HRTIM/src\hrtim.c **** }
 10594              		.loc 1 1788 1
 10595 03f0 04E0     		b	.L364
 10596              	.L363:
1785:C:/StellarStudio-7.0/SDKS/StellarESDK-1.7.0/Modules/Drivers/Timers/HRTIM/src\hrtim.c ****         }
 10597              		.loc 1 1785 16
 10598 03f2 039B     		ldr	r3, [sp, #12]
 10599 03f4 1B68     		ldr	r3, [r3]
1785:C:/StellarStudio-7.0/SDKS/StellarESDK-1.7.0/Modules/Drivers/Timers/HRTIM/src\hrtim.c ****         }
 10600              		.loc 1 1785 43
 10601 03f6 049A     		ldr	r2, [sp, #16]
 10602 03f8 C3F8FC23 		str	r2, [r3, #1020]
 10603              	.L364:
 10604              		.loc 1 1788 1
 10605 03fc 00BF     		nop
 10606 03fe 06B0     		add	sp, sp, #24
 10607              		.cfi_def_cfa_offset 0
 10608              		@ sp needed
 10609 0400 7047     		bx	lr
 10610              		.cfi_endproc
 10611              	.LFE194:
 10613 0402 00BF     		.section	.text.hrtim_timer_set_adc_post_scaler,"ax",%progbits
 10614              		.align	1
 10615              		.p2align 4,,15
 10616              		.global	hrtim_timer_set_adc_post_scaler
 10617              		.syntax unified
 10618              		.thumb
 10619              		.thumb_func
 10621              	hrtim_timer_set_adc_post_scaler:
 10622              	.LFB195:
1789:C:/StellarStudio-7.0/SDKS/StellarESDK-1.7.0/Modules/Drivers/Timers/HRTIM/src\hrtim.c **** 
1790:C:/StellarStudio-7.0/SDKS/StellarESDK-1.7.0/Modules/Drivers/Timers/HRTIM/src\hrtim.c **** uint32_t hrtim_timer_set_adc_post_scaler(hrtim_driver_t *hdp,
1791:C:/StellarStudio-7.0/SDKS/StellarESDK-1.7.0/Modules/Drivers/Timers/HRTIM/src\hrtim.c ****                                          hrtim_timer_adctrigger_t adc_trigger,
1792:C:/StellarStudio-7.0/SDKS/StellarESDK-1.7.0/Modules/Drivers/Timers/HRTIM/src\hrtim.c ****                                          uint32_t postscaler) {
 10623              		.loc 1 1792 63
 10624              		.cfi_startproc
 10625              		@ args = 0, pretend = 0, frame = 24
 10626              		@ frame_needed = 0, uses_anonymous_args = 0
 10627              		@ link register save eliminated.
 10628 0000 86B0     		sub	sp, sp, #24
 10629              		.cfi_def_cfa_offset 24
 10630 0002 0390     		str	r0, [sp, #12]
 10631 0004 0B46     		mov	r3, r1
 10632 0006 0192     		str	r2, [sp, #4]
 10633 0008 8DF80B30 		strb	r3, [sp, #11]
1793:C:/StellarStudio-7.0/SDKS/StellarESDK-1.7.0/Modules/Drivers/Timers/HRTIM/src\hrtim.c **** 
1794:C:/StellarStudio-7.0/SDKS/StellarESDK-1.7.0/Modules/Drivers/Timers/HRTIM/src\hrtim.c ****     uint32_t prev_postscaler = hdp->adc_trg[adc_trigger].post_scaler_rate;
 10634              		.loc 1 1794 57
 10635 000c 9DF80B30 		ldrb	r3, [sp, #11]	@ zero_extendqisi2
 10636              		.loc 1 1794 14
 10637 0010 039A     		ldr	r2, [sp, #12]
 10638 0012 1B01     		lsls	r3, r3, #4
 10639 0014 1344     		add	r3, r3, r2
 10640 0016 03F54F73 		add	r3, r3, #828
 10641 001a 1B68     		ldr	r3, [r3]
 10642 001c 0593     		str	r3, [sp, #20]
1795:C:/StellarStudio-7.0/SDKS/StellarESDK-1.7.0/Modules/Drivers/Timers/HRTIM/src\hrtim.c **** 
1796:C:/StellarStudio-7.0/SDKS/StellarESDK-1.7.0/Modules/Drivers/Timers/HRTIM/src\hrtim.c ****     hdp->adc_trg[adc_trigger].post_scaler_rate = postscaler;
 10643              		.loc 1 1796 30
 10644 001e 9DF80B30 		ldrb	r3, [sp, #11]	@ zero_extendqisi2
 10645              		.loc 1 1796 48
 10646 0022 039A     		ldr	r2, [sp, #12]
 10647 0024 1B01     		lsls	r3, r3, #4
 10648 0026 1344     		add	r3, r3, r2
 10649 0028 03F54F73 		add	r3, r3, #828
 10650 002c 019A     		ldr	r2, [sp, #4]
 10651 002e 1A60     		str	r2, [r3]
1797:C:/StellarStudio-7.0/SDKS/StellarESDK-1.7.0/Modules/Drivers/Timers/HRTIM/src\hrtim.c **** 
1798:C:/StellarStudio-7.0/SDKS/StellarESDK-1.7.0/Modules/Drivers/Timers/HRTIM/src\hrtim.c ****     /* Update on-fly.*/
1799:C:/StellarStudio-7.0/SDKS/StellarESDK-1.7.0/Modules/Drivers/Timers/HRTIM/src\hrtim.c ****     if (hdp->is_enable == true) {
 10652              		.loc 1 1799 12
 10653 0030 039B     		ldr	r3, [sp, #12]
 10654 0032 1B79     		ldrb	r3, [r3, #4]	@ zero_extendqisi2
 10655              		.loc 1 1799 8
 10656 0034 002B     		cmp	r3, #0
 10657 0036 00F00B81 		beq	.L381
1800:C:/StellarStudio-7.0/SDKS/StellarESDK-1.7.0/Modules/Drivers/Timers/HRTIM/src\hrtim.c ****         switch (adc_trigger) {
 10658              		.loc 1 1800 9
 10659 003a 9DF80B30 		ldrb	r3, [sp, #11]	@ zero_extendqisi2
 10660 003e 092B     		cmp	r3, #9
 10661 0040 00F20881 		bhi	.L382
 10662 0044 01A2     		adr	r2, .L370
 10663 0046 52F823F0 		ldr	pc, [r2, r3, lsl #2]
 10664 004a 00BF     		.p2align 2
 10665              	.L370:
 10666 004c 75000000 		.word	.L379+1
 10667 0050 A3000000 		.word	.L378+1
 10668 0054 D3000000 		.word	.L377+1
 10669 0058 03010000 		.word	.L376+1
 10670 005c 33010000 		.word	.L375+1
 10671 0060 63010000 		.word	.L374+1
 10672 0064 91010000 		.word	.L373+1
 10673 0068 C1010000 		.word	.L372+1
 10674 006c F1010000 		.word	.L371+1
 10675 0070 21020000 		.word	.L369+1
 10676              		.p2align 1
 10677              	.L379:
1801:C:/StellarStudio-7.0/SDKS/StellarESDK-1.7.0/Modules/Drivers/Timers/HRTIM/src\hrtim.c ****             case HRTIM_ADCTRIGGER_1:
1802:C:/StellarStudio-7.0/SDKS/StellarESDK-1.7.0/Modules/Drivers/Timers/HRTIM/src\hrtim.c ****                 hdp->hrtim->sCommonRegs.ADCPS1 &= ~(HRTIM_ADCPS1_AD1PSC);
 10678              		.loc 1 1802 20
 10679 0074 039B     		ldr	r3, [sp, #12]
 10680 0076 1B68     		ldr	r3, [r3]
 10681              		.loc 1 1802 48
 10682 0078 D3F80024 		ldr	r2, [r3, #1024]
 10683              		.loc 1 1802 20
 10684 007c 039B     		ldr	r3, [sp, #12]
 10685 007e 1B68     		ldr	r3, [r3]
 10686              		.loc 1 1802 48
 10687 0080 22F01F02 		bic	r2, r2, #31
 10688 0084 C3F80024 		str	r2, [r3, #1024]
1803:C:/StellarStudio-7.0/SDKS/StellarESDK-1.7.0/Modules/Drivers/Timers/HRTIM/src\hrtim.c ****                 hdp->hrtim->sCommonRegs.ADCPS1 |= ((uint32_t)(postscaler << HRTIM_ADCPS1_AD1PSC_Pos
 10689              		.loc 1 1803 20
 10690 0088 039B     		ldr	r3, [sp, #12]
 10691 008a 1B68     		ldr	r3, [r3]
 10692              		.loc 1 1803 48
 10693 008c D3F80014 		ldr	r1, [r3, #1024]
 10694              		.loc 1 1803 102
 10695 0090 019B     		ldr	r3, [sp, #4]
 10696 0092 03F01F02 		and	r2, r3, #31
 10697              		.loc 1 1803 20
 10698 0096 039B     		ldr	r3, [sp, #12]
 10699 0098 1B68     		ldr	r3, [r3]
 10700              		.loc 1 1803 48
 10701 009a 0A43     		orrs	r2, r2, r1
 10702 009c C3F80024 		str	r2, [r3, #1024]
1804:C:/StellarStudio-7.0/SDKS/StellarESDK-1.7.0/Modules/Drivers/Timers/HRTIM/src\hrtim.c ****                 break;
 10703              		.loc 1 1804 17
 10704 00a0 D9E0     		b	.L367
 10705              	.L378:
1805:C:/StellarStudio-7.0/SDKS/StellarESDK-1.7.0/Modules/Drivers/Timers/HRTIM/src\hrtim.c ****             case HRTIM_ADCTRIGGER_2:
1806:C:/StellarStudio-7.0/SDKS/StellarESDK-1.7.0/Modules/Drivers/Timers/HRTIM/src\hrtim.c ****                 hdp->hrtim->sCommonRegs.ADCPS1 &= ~(HRTIM_ADCPS1_AD2PSC);
 10706              		.loc 1 1806 20
 10707 00a2 039B     		ldr	r3, [sp, #12]
 10708 00a4 1B68     		ldr	r3, [r3]
 10709              		.loc 1 1806 48
 10710 00a6 D3F80024 		ldr	r2, [r3, #1024]
 10711              		.loc 1 1806 20
 10712 00aa 039B     		ldr	r3, [sp, #12]
 10713 00ac 1B68     		ldr	r3, [r3]
 10714              		.loc 1 1806 48
 10715 00ae 22F4F862 		bic	r2, r2, #1984
 10716 00b2 C3F80024 		str	r2, [r3, #1024]
1807:C:/StellarStudio-7.0/SDKS/StellarESDK-1.7.0/Modules/Drivers/Timers/HRTIM/src\hrtim.c ****                 hdp->hrtim->sCommonRegs.ADCPS1 |= ((uint32_t)(postscaler << HRTIM_ADCPS1_AD2PSC_Pos
 10717              		.loc 1 1807 20
 10718 00b6 039B     		ldr	r3, [sp, #12]
 10719 00b8 1B68     		ldr	r3, [r3]
 10720              		.loc 1 1807 48
 10721 00ba D3F80014 		ldr	r1, [r3, #1024]
 10722              		.loc 1 1807 74
 10723 00be 019B     		ldr	r3, [sp, #4]
 10724 00c0 9B01     		lsls	r3, r3, #6
 10725              		.loc 1 1807 102
 10726 00c2 03F4F862 		and	r2, r3, #1984
 10727              		.loc 1 1807 20
 10728 00c6 039B     		ldr	r3, [sp, #12]
 10729 00c8 1B68     		ldr	r3, [r3]
 10730              		.loc 1 1807 48
 10731 00ca 0A43     		orrs	r2, r2, r1
 10732 00cc C3F80024 		str	r2, [r3, #1024]
1808:C:/StellarStudio-7.0/SDKS/StellarESDK-1.7.0/Modules/Drivers/Timers/HRTIM/src\hrtim.c ****                 break;
 10733              		.loc 1 1808 17
 10734 00d0 C1E0     		b	.L367
 10735              	.L377:
1809:C:/StellarStudio-7.0/SDKS/StellarESDK-1.7.0/Modules/Drivers/Timers/HRTIM/src\hrtim.c ****             case HRTIM_ADCTRIGGER_3:
1810:C:/StellarStudio-7.0/SDKS/StellarESDK-1.7.0/Modules/Drivers/Timers/HRTIM/src\hrtim.c ****                 hdp->hrtim->sCommonRegs.ADCPS1 &= ~(HRTIM_ADCPS1_AD3PSC);
 10736              		.loc 1 1810 20
 10737 00d2 039B     		ldr	r3, [sp, #12]
 10738 00d4 1B68     		ldr	r3, [r3]
 10739              		.loc 1 1810 48
 10740 00d6 D3F80024 		ldr	r2, [r3, #1024]
 10741              		.loc 1 1810 20
 10742 00da 039B     		ldr	r3, [sp, #12]
 10743 00dc 1B68     		ldr	r3, [r3]
 10744              		.loc 1 1810 48
 10745 00de 22F4F832 		bic	r2, r2, #126976
 10746 00e2 C3F80024 		str	r2, [r3, #1024]
1811:C:/StellarStudio-7.0/SDKS/StellarESDK-1.7.0/Modules/Drivers/Timers/HRTIM/src\hrtim.c ****                 hdp->hrtim->sCommonRegs.ADCPS1 |= ((uint32_t)(postscaler << HRTIM_ADCPS1_AD3PSC_Pos
 10747              		.loc 1 1811 20
 10748 00e6 039B     		ldr	r3, [sp, #12]
 10749 00e8 1B68     		ldr	r3, [r3]
 10750              		.loc 1 1811 48
 10751 00ea D3F80014 		ldr	r1, [r3, #1024]
 10752              		.loc 1 1811 74
 10753 00ee 019B     		ldr	r3, [sp, #4]
 10754 00f0 1B03     		lsls	r3, r3, #12
 10755              		.loc 1 1811 102
 10756 00f2 03F4F832 		and	r2, r3, #126976
 10757              		.loc 1 1811 20
 10758 00f6 039B     		ldr	r3, [sp, #12]
 10759 00f8 1B68     		ldr	r3, [r3]
 10760              		.loc 1 1811 48
 10761 00fa 0A43     		orrs	r2, r2, r1
 10762 00fc C3F80024 		str	r2, [r3, #1024]
1812:C:/StellarStudio-7.0/SDKS/StellarESDK-1.7.0/Modules/Drivers/Timers/HRTIM/src\hrtim.c ****                 break;
 10763              		.loc 1 1812 17
 10764 0100 A9E0     		b	.L367
 10765              	.L376:
1813:C:/StellarStudio-7.0/SDKS/StellarESDK-1.7.0/Modules/Drivers/Timers/HRTIM/src\hrtim.c ****             case HRTIM_ADCTRIGGER_4:
1814:C:/StellarStudio-7.0/SDKS/StellarESDK-1.7.0/Modules/Drivers/Timers/HRTIM/src\hrtim.c ****                 hdp->hrtim->sCommonRegs.ADCPS1 &= ~(HRTIM_ADCPS1_AD4PSC);
 10766              		.loc 1 1814 20
 10767 0102 039B     		ldr	r3, [sp, #12]
 10768 0104 1B68     		ldr	r3, [r3]
 10769              		.loc 1 1814 48
 10770 0106 D3F80024 		ldr	r2, [r3, #1024]
 10771              		.loc 1 1814 20
 10772 010a 039B     		ldr	r3, [sp, #12]
 10773 010c 1B68     		ldr	r3, [r3]
 10774              		.loc 1 1814 48
 10775 010e 22F4F802 		bic	r2, r2, #8126464
 10776 0112 C3F80024 		str	r2, [r3, #1024]
1815:C:/StellarStudio-7.0/SDKS/StellarESDK-1.7.0/Modules/Drivers/Timers/HRTIM/src\hrtim.c ****                 hdp->hrtim->sCommonRegs.ADCPS1 |= ((uint32_t)(postscaler << HRTIM_ADCPS1_AD4PSC_Pos
 10777              		.loc 1 1815 20
 10778 0116 039B     		ldr	r3, [sp, #12]
 10779 0118 1B68     		ldr	r3, [r3]
 10780              		.loc 1 1815 48
 10781 011a D3F80014 		ldr	r1, [r3, #1024]
 10782              		.loc 1 1815 74
 10783 011e 019B     		ldr	r3, [sp, #4]
 10784 0120 9B04     		lsls	r3, r3, #18
 10785              		.loc 1 1815 102
 10786 0122 03F4F802 		and	r2, r3, #8126464
 10787              		.loc 1 1815 20
 10788 0126 039B     		ldr	r3, [sp, #12]
 10789 0128 1B68     		ldr	r3, [r3]
 10790              		.loc 1 1815 48
 10791 012a 0A43     		orrs	r2, r2, r1
 10792 012c C3F80024 		str	r2, [r3, #1024]
1816:C:/StellarStudio-7.0/SDKS/StellarESDK-1.7.0/Modules/Drivers/Timers/HRTIM/src\hrtim.c ****                 break;
 10793              		.loc 1 1816 17
 10794 0130 91E0     		b	.L367
 10795              	.L375:
1817:C:/StellarStudio-7.0/SDKS/StellarESDK-1.7.0/Modules/Drivers/Timers/HRTIM/src\hrtim.c ****             case HRTIM_ADCTRIGGER_5:
1818:C:/StellarStudio-7.0/SDKS/StellarESDK-1.7.0/Modules/Drivers/Timers/HRTIM/src\hrtim.c ****                 hdp->hrtim->sCommonRegs.ADCPS1 &= ~(HRTIM_ADCPS1_AD5PSC);
 10796              		.loc 1 1818 20
 10797 0132 039B     		ldr	r3, [sp, #12]
 10798 0134 1B68     		ldr	r3, [r3]
 10799              		.loc 1 1818 48
 10800 0136 D3F80024 		ldr	r2, [r3, #1024]
 10801              		.loc 1 1818 20
 10802 013a 039B     		ldr	r3, [sp, #12]
 10803 013c 1B68     		ldr	r3, [r3]
 10804              		.loc 1 1818 48
 10805 013e 22F0F852 		bic	r2, r2, #520093696
 10806 0142 C3F80024 		str	r2, [r3, #1024]
1819:C:/StellarStudio-7.0/SDKS/StellarESDK-1.7.0/Modules/Drivers/Timers/HRTIM/src\hrtim.c ****                 hdp->hrtim->sCommonRegs.ADCPS1 |= ((uint32_t)(postscaler << HRTIM_ADCPS1_AD5PSC_Pos
 10807              		.loc 1 1819 20
 10808 0146 039B     		ldr	r3, [sp, #12]
 10809 0148 1B68     		ldr	r3, [r3]
 10810              		.loc 1 1819 48
 10811 014a D3F80014 		ldr	r1, [r3, #1024]
 10812              		.loc 1 1819 74
 10813 014e 019B     		ldr	r3, [sp, #4]
 10814 0150 1B06     		lsls	r3, r3, #24
 10815              		.loc 1 1819 102
 10816 0152 03F0F852 		and	r2, r3, #520093696
 10817              		.loc 1 1819 20
 10818 0156 039B     		ldr	r3, [sp, #12]
 10819 0158 1B68     		ldr	r3, [r3]
 10820              		.loc 1 1819 48
 10821 015a 0A43     		orrs	r2, r2, r1
 10822 015c C3F80024 		str	r2, [r3, #1024]
1820:C:/StellarStudio-7.0/SDKS/StellarESDK-1.7.0/Modules/Drivers/Timers/HRTIM/src\hrtim.c ****                 break;
 10823              		.loc 1 1820 17
 10824 0160 79E0     		b	.L367
 10825              	.L374:
1821:C:/StellarStudio-7.0/SDKS/StellarESDK-1.7.0/Modules/Drivers/Timers/HRTIM/src\hrtim.c ****             case HRTIM_ADCTRIGGER_6:
1822:C:/StellarStudio-7.0/SDKS/StellarESDK-1.7.0/Modules/Drivers/Timers/HRTIM/src\hrtim.c ****                 hdp->hrtim->sCommonRegs.ADCPS2 &= ~(HRTIM_ADCPS2_AD6PSC);
 10826              		.loc 1 1822 20
 10827 0162 039B     		ldr	r3, [sp, #12]
 10828 0164 1B68     		ldr	r3, [r3]
 10829              		.loc 1 1822 48
 10830 0166 D3F80424 		ldr	r2, [r3, #1028]
 10831              		.loc 1 1822 20
 10832 016a 039B     		ldr	r3, [sp, #12]
 10833 016c 1B68     		ldr	r3, [r3]
 10834              		.loc 1 1822 48
 10835 016e 22F01F02 		bic	r2, r2, #31
 10836 0172 C3F80424 		str	r2, [r3, #1028]
1823:C:/StellarStudio-7.0/SDKS/StellarESDK-1.7.0/Modules/Drivers/Timers/HRTIM/src\hrtim.c ****                 hdp->hrtim->sCommonRegs.ADCPS2 |= ((uint32_t)(postscaler << HRTIM_ADCPS2_AD6PSC_Pos
 10837              		.loc 1 1823 20
 10838 0176 039B     		ldr	r3, [sp, #12]
 10839 0178 1B68     		ldr	r3, [r3]
 10840              		.loc 1 1823 48
 10841 017a D3F80414 		ldr	r1, [r3, #1028]
 10842              		.loc 1 1823 102
 10843 017e 019B     		ldr	r3, [sp, #4]
 10844 0180 03F01F02 		and	r2, r3, #31
 10845              		.loc 1 1823 20
 10846 0184 039B     		ldr	r3, [sp, #12]
 10847 0186 1B68     		ldr	r3, [r3]
 10848              		.loc 1 1823 48
 10849 0188 0A43     		orrs	r2, r2, r1
 10850 018a C3F80424 		str	r2, [r3, #1028]
1824:C:/StellarStudio-7.0/SDKS/StellarESDK-1.7.0/Modules/Drivers/Timers/HRTIM/src\hrtim.c ****                 break;
 10851              		.loc 1 1824 17
 10852 018e 62E0     		b	.L367
 10853              	.L373:
1825:C:/StellarStudio-7.0/SDKS/StellarESDK-1.7.0/Modules/Drivers/Timers/HRTIM/src\hrtim.c ****             case HRTIM_ADCTRIGGER_7:
1826:C:/StellarStudio-7.0/SDKS/StellarESDK-1.7.0/Modules/Drivers/Timers/HRTIM/src\hrtim.c ****                 hdp->hrtim->sCommonRegs.ADCPS2 &= ~(HRTIM_ADCPS2_AD7PSC);
 10854              		.loc 1 1826 20
 10855 0190 039B     		ldr	r3, [sp, #12]
 10856 0192 1B68     		ldr	r3, [r3]
 10857              		.loc 1 1826 48
 10858 0194 D3F80424 		ldr	r2, [r3, #1028]
 10859              		.loc 1 1826 20
 10860 0198 039B     		ldr	r3, [sp, #12]
 10861 019a 1B68     		ldr	r3, [r3]
 10862              		.loc 1 1826 48
 10863 019c 22F4F862 		bic	r2, r2, #1984
 10864 01a0 C3F80424 		str	r2, [r3, #1028]
1827:C:/StellarStudio-7.0/SDKS/StellarESDK-1.7.0/Modules/Drivers/Timers/HRTIM/src\hrtim.c ****                 hdp->hrtim->sCommonRegs.ADCPS2 |= ((uint32_t)(postscaler << HRTIM_ADCPS2_AD7PSC_Pos
 10865              		.loc 1 1827 20
 10866 01a4 039B     		ldr	r3, [sp, #12]
 10867 01a6 1B68     		ldr	r3, [r3]
 10868              		.loc 1 1827 48
 10869 01a8 D3F80414 		ldr	r1, [r3, #1028]
 10870              		.loc 1 1827 74
 10871 01ac 019B     		ldr	r3, [sp, #4]
 10872 01ae 9B01     		lsls	r3, r3, #6
 10873              		.loc 1 1827 102
 10874 01b0 03F4F862 		and	r2, r3, #1984
 10875              		.loc 1 1827 20
 10876 01b4 039B     		ldr	r3, [sp, #12]
 10877 01b6 1B68     		ldr	r3, [r3]
 10878              		.loc 1 1827 48
 10879 01b8 0A43     		orrs	r2, r2, r1
 10880 01ba C3F80424 		str	r2, [r3, #1028]
1828:C:/StellarStudio-7.0/SDKS/StellarESDK-1.7.0/Modules/Drivers/Timers/HRTIM/src\hrtim.c ****                 break;
 10881              		.loc 1 1828 17
 10882 01be 4AE0     		b	.L367
 10883              	.L372:
1829:C:/StellarStudio-7.0/SDKS/StellarESDK-1.7.0/Modules/Drivers/Timers/HRTIM/src\hrtim.c ****             case HRTIM_ADCTRIGGER_8:
1830:C:/StellarStudio-7.0/SDKS/StellarESDK-1.7.0/Modules/Drivers/Timers/HRTIM/src\hrtim.c ****                 hdp->hrtim->sCommonRegs.ADCPS2 &= ~(HRTIM_ADCPS2_AD8PSC);
 10884              		.loc 1 1830 20
 10885 01c0 039B     		ldr	r3, [sp, #12]
 10886 01c2 1B68     		ldr	r3, [r3]
 10887              		.loc 1 1830 48
 10888 01c4 D3F80424 		ldr	r2, [r3, #1028]
 10889              		.loc 1 1830 20
 10890 01c8 039B     		ldr	r3, [sp, #12]
 10891 01ca 1B68     		ldr	r3, [r3]
 10892              		.loc 1 1830 48
 10893 01cc 22F4F832 		bic	r2, r2, #126976
 10894 01d0 C3F80424 		str	r2, [r3, #1028]
1831:C:/StellarStudio-7.0/SDKS/StellarESDK-1.7.0/Modules/Drivers/Timers/HRTIM/src\hrtim.c ****                 hdp->hrtim->sCommonRegs.ADCPS2 |= ((uint32_t)(postscaler << HRTIM_ADCPS2_AD8PSC_Pos
 10895              		.loc 1 1831 20
 10896 01d4 039B     		ldr	r3, [sp, #12]
 10897 01d6 1B68     		ldr	r3, [r3]
 10898              		.loc 1 1831 48
 10899 01d8 D3F80414 		ldr	r1, [r3, #1028]
 10900              		.loc 1 1831 74
 10901 01dc 019B     		ldr	r3, [sp, #4]
 10902 01de 1B03     		lsls	r3, r3, #12
 10903              		.loc 1 1831 102
 10904 01e0 03F4F832 		and	r2, r3, #126976
 10905              		.loc 1 1831 20
 10906 01e4 039B     		ldr	r3, [sp, #12]
 10907 01e6 1B68     		ldr	r3, [r3]
 10908              		.loc 1 1831 48
 10909 01e8 0A43     		orrs	r2, r2, r1
 10910 01ea C3F80424 		str	r2, [r3, #1028]
1832:C:/StellarStudio-7.0/SDKS/StellarESDK-1.7.0/Modules/Drivers/Timers/HRTIM/src\hrtim.c ****                 break;
 10911              		.loc 1 1832 17
 10912 01ee 32E0     		b	.L367
 10913              	.L371:
1833:C:/StellarStudio-7.0/SDKS/StellarESDK-1.7.0/Modules/Drivers/Timers/HRTIM/src\hrtim.c ****             case HRTIM_ADCTRIGGER_9:
1834:C:/StellarStudio-7.0/SDKS/StellarESDK-1.7.0/Modules/Drivers/Timers/HRTIM/src\hrtim.c ****                 hdp->hrtim->sCommonRegs.ADCPS2 &= ~(HRTIM_ADCPS2_AD9PSC);
 10914              		.loc 1 1834 20
 10915 01f0 039B     		ldr	r3, [sp, #12]
 10916 01f2 1B68     		ldr	r3, [r3]
 10917              		.loc 1 1834 48
 10918 01f4 D3F80424 		ldr	r2, [r3, #1028]
 10919              		.loc 1 1834 20
 10920 01f8 039B     		ldr	r3, [sp, #12]
 10921 01fa 1B68     		ldr	r3, [r3]
 10922              		.loc 1 1834 48
 10923 01fc 22F4F802 		bic	r2, r2, #8126464
 10924 0200 C3F80424 		str	r2, [r3, #1028]
1835:C:/StellarStudio-7.0/SDKS/StellarESDK-1.7.0/Modules/Drivers/Timers/HRTIM/src\hrtim.c ****                 hdp->hrtim->sCommonRegs.ADCPS2 |= ((uint32_t)(postscaler << HRTIM_ADCPS2_AD9PSC_Pos
 10925              		.loc 1 1835 20
 10926 0204 039B     		ldr	r3, [sp, #12]
 10927 0206 1B68     		ldr	r3, [r3]
 10928              		.loc 1 1835 48
 10929 0208 D3F80414 		ldr	r1, [r3, #1028]
 10930              		.loc 1 1835 74
 10931 020c 019B     		ldr	r3, [sp, #4]
 10932 020e 9B04     		lsls	r3, r3, #18
 10933              		.loc 1 1835 102
 10934 0210 03F4F802 		and	r2, r3, #8126464
 10935              		.loc 1 1835 20
 10936 0214 039B     		ldr	r3, [sp, #12]
 10937 0216 1B68     		ldr	r3, [r3]
 10938              		.loc 1 1835 48
 10939 0218 0A43     		orrs	r2, r2, r1
 10940 021a C3F80424 		str	r2, [r3, #1028]
1836:C:/StellarStudio-7.0/SDKS/StellarESDK-1.7.0/Modules/Drivers/Timers/HRTIM/src\hrtim.c ****                 break;
 10941              		.loc 1 1836 17
 10942 021e 1AE0     		b	.L367
 10943              	.L369:
1837:C:/StellarStudio-7.0/SDKS/StellarESDK-1.7.0/Modules/Drivers/Timers/HRTIM/src\hrtim.c ****             case HRTIM_ADCTRIGGER_10:
1838:C:/StellarStudio-7.0/SDKS/StellarESDK-1.7.0/Modules/Drivers/Timers/HRTIM/src\hrtim.c ****                 hdp->hrtim->sCommonRegs.ADCPS2 &= ~(HRTIM_ADCPS2_AD10PSC);
 10944              		.loc 1 1838 20
 10945 0220 039B     		ldr	r3, [sp, #12]
 10946 0222 1B68     		ldr	r3, [r3]
 10947              		.loc 1 1838 48
 10948 0224 D3F80424 		ldr	r2, [r3, #1028]
 10949              		.loc 1 1838 20
 10950 0228 039B     		ldr	r3, [sp, #12]
 10951 022a 1B68     		ldr	r3, [r3]
 10952              		.loc 1 1838 48
 10953 022c 22F0F852 		bic	r2, r2, #520093696
 10954 0230 C3F80424 		str	r2, [r3, #1028]
1839:C:/StellarStudio-7.0/SDKS/StellarESDK-1.7.0/Modules/Drivers/Timers/HRTIM/src\hrtim.c ****                 hdp->hrtim->sCommonRegs.ADCPS2 |= ((uint32_t)(postscaler << HRTIM_ADCPS2_AD10PSC_Po
 10955              		.loc 1 1839 20
 10956 0234 039B     		ldr	r3, [sp, #12]
 10957 0236 1B68     		ldr	r3, [r3]
 10958              		.loc 1 1839 48
 10959 0238 D3F80414 		ldr	r1, [r3, #1028]
 10960              		.loc 1 1839 74
 10961 023c 019B     		ldr	r3, [sp, #4]
 10962 023e 1B06     		lsls	r3, r3, #24
 10963              		.loc 1 1839 103
 10964 0240 03F0F852 		and	r2, r3, #520093696
 10965              		.loc 1 1839 20
 10966 0244 039B     		ldr	r3, [sp, #12]
 10967 0246 1B68     		ldr	r3, [r3]
 10968              		.loc 1 1839 48
 10969 0248 0A43     		orrs	r2, r2, r1
 10970 024a C3F80424 		str	r2, [r3, #1028]
1840:C:/StellarStudio-7.0/SDKS/StellarESDK-1.7.0/Modules/Drivers/Timers/HRTIM/src\hrtim.c ****                 break;
 10971              		.loc 1 1840 17
 10972 024e 02E0     		b	.L367
 10973              	.L381:
1841:C:/StellarStudio-7.0/SDKS/StellarESDK-1.7.0/Modules/Drivers/Timers/HRTIM/src\hrtim.c ****             case HRTIM_NO_ADCTRIGGER:
1842:C:/StellarStudio-7.0/SDKS/StellarESDK-1.7.0/Modules/Drivers/Timers/HRTIM/src\hrtim.c ****             default:
1843:C:/StellarStudio-7.0/SDKS/StellarESDK-1.7.0/Modules/Drivers/Timers/HRTIM/src\hrtim.c ****                 /* for MISRA compliance */
1844:C:/StellarStudio-7.0/SDKS/StellarESDK-1.7.0/Modules/Drivers/Timers/HRTIM/src\hrtim.c ****                 break;
1845:C:/StellarStudio-7.0/SDKS/StellarESDK-1.7.0/Modules/Drivers/Timers/HRTIM/src\hrtim.c ****         }
1846:C:/StellarStudio-7.0/SDKS/StellarESDK-1.7.0/Modules/Drivers/Timers/HRTIM/src\hrtim.c ****     }
 10974              		.loc 1 1846 5
 10975 0250 00BF     		nop
 10976 0252 00E0     		b	.L367
 10977              	.L382:
1844:C:/StellarStudio-7.0/SDKS/StellarESDK-1.7.0/Modules/Drivers/Timers/HRTIM/src\hrtim.c ****         }
 10978              		.loc 1 1844 17
 10979 0254 00BF     		nop
 10980              	.L367:
1847:C:/StellarStudio-7.0/SDKS/StellarESDK-1.7.0/Modules/Drivers/Timers/HRTIM/src\hrtim.c **** 
1848:C:/StellarStudio-7.0/SDKS/StellarESDK-1.7.0/Modules/Drivers/Timers/HRTIM/src\hrtim.c ****     return prev_postscaler;
 10981              		.loc 1 1848 12
 10982 0256 059B     		ldr	r3, [sp, #20]
1849:C:/StellarStudio-7.0/SDKS/StellarESDK-1.7.0/Modules/Drivers/Timers/HRTIM/src\hrtim.c **** }
 10983              		.loc 1 1849 1
 10984 0258 1846     		mov	r0, r3
 10985 025a 06B0     		add	sp, sp, #24
 10986              		.cfi_def_cfa_offset 0
 10987              		@ sp needed
 10988 025c 7047     		bx	lr
 10989              		.cfi_endproc
 10990              	.LFE195:
 10992 025e 00BF     		.section	.text.hrtim_set_ex_event,"ax",%progbits
 10993              		.align	1
 10994              		.p2align 4,,15
 10995              		.global	hrtim_set_ex_event
 10996              		.syntax unified
 10997              		.thumb
 10998              		.thumb_func
 11000              	hrtim_set_ex_event:
 11001              	.LFB196:
1850:C:/StellarStudio-7.0/SDKS/StellarESDK-1.7.0/Modules/Drivers/Timers/HRTIM/src\hrtim.c **** 
1851:C:/StellarStudio-7.0/SDKS/StellarESDK-1.7.0/Modules/Drivers/Timers/HRTIM/src\hrtim.c **** void hrtim_set_ex_event(hrtim_driver_t *hdp,
1852:C:/StellarStudio-7.0/SDKS/StellarESDK-1.7.0/Modules/Drivers/Timers/HRTIM/src\hrtim.c ****                         uint8_t  eev_idx,
1853:C:/StellarStudio-7.0/SDKS/StellarESDK-1.7.0/Modules/Drivers/Timers/HRTIM/src\hrtim.c ****                         uint32_t ext_source,
1854:C:/StellarStudio-7.0/SDKS/StellarESDK-1.7.0/Modules/Drivers/Timers/HRTIM/src\hrtim.c ****                         uint32_t ext_polarity,
1855:C:/StellarStudio-7.0/SDKS/StellarESDK-1.7.0/Modules/Drivers/Timers/HRTIM/src\hrtim.c ****                         uint32_t ext_sensitivity,
1856:C:/StellarStudio-7.0/SDKS/StellarESDK-1.7.0/Modules/Drivers/Timers/HRTIM/src\hrtim.c ****                         uint32_t ext_filter,
1857:C:/StellarStudio-7.0/SDKS/StellarESDK-1.7.0/Modules/Drivers/Timers/HRTIM/src\hrtim.c ****                         uint32_t ext_fast_mode) {
 11002              		.loc 1 1857 49
 11003              		.cfi_startproc
 11004              		@ args = 12, pretend = 0, frame = 32
 11005              		@ frame_needed = 0, uses_anonymous_args = 0
 11006              		@ link register save eliminated.
 11007 0000 88B0     		sub	sp, sp, #32
 11008              		.cfi_def_cfa_offset 32
 11009 0002 0390     		str	r0, [sp, #12]
 11010 0004 0192     		str	r2, [sp, #4]
 11011 0006 0093     		str	r3, [sp]
 11012 0008 0B46     		mov	r3, r1
 11013 000a 8DF80B30 		strb	r3, [sp, #11]
1858:C:/StellarStudio-7.0/SDKS/StellarESDK-1.7.0/Modules/Drivers/Timers/HRTIM/src\hrtim.c **** 
1859:C:/StellarStudio-7.0/SDKS/StellarESDK-1.7.0/Modules/Drivers/Timers/HRTIM/src\hrtim.c ****     uint32_t hrtim_eecr1;
1860:C:/StellarStudio-7.0/SDKS/StellarESDK-1.7.0/Modules/Drivers/Timers/HRTIM/src\hrtim.c ****     uint32_t hrtim_eecr2;
1861:C:/StellarStudio-7.0/SDKS/StellarESDK-1.7.0/Modules/Drivers/Timers/HRTIM/src\hrtim.c ****     uint32_t hrtim_eecr3;
1862:C:/StellarStudio-7.0/SDKS/StellarESDK-1.7.0/Modules/Drivers/Timers/HRTIM/src\hrtim.c **** 
1863:C:/StellarStudio-7.0/SDKS/StellarESDK-1.7.0/Modules/Drivers/Timers/HRTIM/src\hrtim.c ****     if (eev_idx != HRTIM_EVENT_NONE) {
 11014              		.loc 1 1863 8
 11015 000e 9DF80B30 		ldrb	r3, [sp, #11]	@ zero_extendqisi2
 11016 0012 002B     		cmp	r3, #0
 11017 0014 40D0     		beq	.L384
1864:C:/StellarStudio-7.0/SDKS/StellarESDK-1.7.0/Modules/Drivers/Timers/HRTIM/src\hrtim.c ****         hdp->eev[eev_idx - 1U].source = ext_source;
 11018              		.loc 1 1864 26
 11019 0016 9DF80B30 		ldrb	r3, [sp, #11]	@ zero_extendqisi2
 11020 001a 5A1E     		subs	r2, r3, #1
 11021              		.loc 1 1864 39
 11022 001c 0399     		ldr	r1, [sp, #12]
 11023 001e 1346     		mov	r3, r2
 11024 0020 9B00     		lsls	r3, r3, #2
 11025 0022 1344     		add	r3, r3, r2
 11026 0024 9B00     		lsls	r3, r3, #2
 11027 0026 0B44     		add	r3, r3, r1
 11028 0028 03F58D63 		add	r3, r3, #1128
 11029 002c 019A     		ldr	r2, [sp, #4]
 11030 002e 1A60     		str	r2, [r3]
1865:C:/StellarStudio-7.0/SDKS/StellarESDK-1.7.0/Modules/Drivers/Timers/HRTIM/src\hrtim.c ****         hdp->eev[eev_idx - 1U].polarity = ext_polarity;
 11031              		.loc 1 1865 26
 11032 0030 9DF80B30 		ldrb	r3, [sp, #11]	@ zero_extendqisi2
 11033 0034 5A1E     		subs	r2, r3, #1
 11034              		.loc 1 1865 41
 11035 0036 0399     		ldr	r1, [sp, #12]
 11036 0038 1346     		mov	r3, r2
 11037 003a 9B00     		lsls	r3, r3, #2
 11038 003c 1344     		add	r3, r3, r2
 11039 003e 9B00     		lsls	r3, r3, #2
 11040 0040 0B44     		add	r3, r3, r1
 11041 0042 03F26C43 		addw	r3, r3, #1132
 11042 0046 009A     		ldr	r2, [sp]
 11043 0048 1A60     		str	r2, [r3]
1866:C:/StellarStudio-7.0/SDKS/StellarESDK-1.7.0/Modules/Drivers/Timers/HRTIM/src\hrtim.c ****         hdp->eev[eev_idx - 1U].sensitivity = ext_sensitivity;
 11044              		.loc 1 1866 26
 11045 004a 9DF80B30 		ldrb	r3, [sp, #11]	@ zero_extendqisi2
 11046 004e 5A1E     		subs	r2, r3, #1
 11047              		.loc 1 1866 44
 11048 0050 0399     		ldr	r1, [sp, #12]
 11049 0052 1346     		mov	r3, r2
 11050 0054 9B00     		lsls	r3, r3, #2
 11051 0056 1344     		add	r3, r3, r2
 11052 0058 9B00     		lsls	r3, r3, #2
 11053 005a 0B44     		add	r3, r3, r1
 11054 005c 03F58E63 		add	r3, r3, #1136
 11055 0060 089A     		ldr	r2, [sp, #32]
 11056 0062 1A60     		str	r2, [r3]
1867:C:/StellarStudio-7.0/SDKS/StellarESDK-1.7.0/Modules/Drivers/Timers/HRTIM/src\hrtim.c ****         hdp->eev[eev_idx - 1U].filter = ext_filter;
 11057              		.loc 1 1867 26
 11058 0064 9DF80B30 		ldrb	r3, [sp, #11]	@ zero_extendqisi2
 11059 0068 5A1E     		subs	r2, r3, #1
 11060              		.loc 1 1867 39
 11061 006a 0399     		ldr	r1, [sp, #12]
 11062 006c 1346     		mov	r3, r2
 11063 006e 9B00     		lsls	r3, r3, #2
 11064 0070 1344     		add	r3, r3, r2
 11065 0072 9B00     		lsls	r3, r3, #2
 11066 0074 0B44     		add	r3, r3, r1
 11067 0076 03F27443 		addw	r3, r3, #1140
 11068 007a 099A     		ldr	r2, [sp, #36]
 11069 007c 1A60     		str	r2, [r3]
1868:C:/StellarStudio-7.0/SDKS/StellarESDK-1.7.0/Modules/Drivers/Timers/HRTIM/src\hrtim.c ****         hdp->eev[eev_idx - 1U].fast_mode = ext_fast_mode;
 11070              		.loc 1 1868 26
 11071 007e 9DF80B30 		ldrb	r3, [sp, #11]	@ zero_extendqisi2
 11072 0082 5A1E     		subs	r2, r3, #1
 11073              		.loc 1 1868 42
 11074 0084 0399     		ldr	r1, [sp, #12]
 11075 0086 1346     		mov	r3, r2
 11076 0088 9B00     		lsls	r3, r3, #2
 11077 008a 1344     		add	r3, r3, r2
 11078 008c 9B00     		lsls	r3, r3, #2
 11079 008e 0B44     		add	r3, r3, r1
 11080 0090 03F58F63 		add	r3, r3, #1144
 11081 0094 0A9A     		ldr	r2, [sp, #40]
 11082 0096 1A60     		str	r2, [r3]
 11083              	.L384:
1869:C:/StellarStudio-7.0/SDKS/StellarESDK-1.7.0/Modules/Drivers/Timers/HRTIM/src\hrtim.c ****     }
1870:C:/StellarStudio-7.0/SDKS/StellarESDK-1.7.0/Modules/Drivers/Timers/HRTIM/src\hrtim.c **** 
1871:C:/StellarStudio-7.0/SDKS/StellarESDK-1.7.0/Modules/Drivers/Timers/HRTIM/src\hrtim.c ****     /* Update on-fly.*/
1872:C:/StellarStudio-7.0/SDKS/StellarESDK-1.7.0/Modules/Drivers/Timers/HRTIM/src\hrtim.c ****     if (hdp->is_enable == true) {
 11084              		.loc 1 1872 12
 11085 0098 039B     		ldr	r3, [sp, #12]
 11086 009a 1B79     		ldrb	r3, [r3, #4]	@ zero_extendqisi2
 11087              		.loc 1 1872 8
 11088 009c 002B     		cmp	r3, #0
 11089 009e 00F05882 		beq	.L399
1873:C:/StellarStudio-7.0/SDKS/StellarESDK-1.7.0/Modules/Drivers/Timers/HRTIM/src\hrtim.c ****         /* Configure external event channel.*/
1874:C:/StellarStudio-7.0/SDKS/StellarESDK-1.7.0/Modules/Drivers/Timers/HRTIM/src\hrtim.c ****         hrtim_eecr1 = hdp->hrtim->sCommonRegs.EECR1;
 11090              		.loc 1 1874 26
 11091 00a2 039B     		ldr	r3, [sp, #12]
 11092 00a4 1B68     		ldr	r3, [r3]
 11093              		.loc 1 1874 21
 11094 00a6 D3F8B033 		ldr	r3, [r3, #944]
 11095 00aa 0793     		str	r3, [sp, #28]
1875:C:/StellarStudio-7.0/SDKS/StellarESDK-1.7.0/Modules/Drivers/Timers/HRTIM/src\hrtim.c ****         hrtim_eecr2 = hdp->hrtim->sCommonRegs.EECR2;
 11096              		.loc 1 1875 26
 11097 00ac 039B     		ldr	r3, [sp, #12]
 11098 00ae 1B68     		ldr	r3, [r3]
 11099              		.loc 1 1875 21
 11100 00b0 D3F8B433 		ldr	r3, [r3, #948]
 11101 00b4 0693     		str	r3, [sp, #24]
1876:C:/StellarStudio-7.0/SDKS/StellarESDK-1.7.0/Modules/Drivers/Timers/HRTIM/src\hrtim.c ****         hrtim_eecr3 = hdp->hrtim->sCommonRegs.EECR3;
 11102              		.loc 1 1876 26
 11103 00b6 039B     		ldr	r3, [sp, #12]
 11104 00b8 1B68     		ldr	r3, [r3]
 11105              		.loc 1 1876 21
 11106 00ba D3F8B833 		ldr	r3, [r3, #952]
 11107 00be 0593     		str	r3, [sp, #20]
1877:C:/StellarStudio-7.0/SDKS/StellarESDK-1.7.0/Modules/Drivers/Timers/HRTIM/src\hrtim.c **** 
1878:C:/StellarStudio-7.0/SDKS/StellarESDK-1.7.0/Modules/Drivers/Timers/HRTIM/src\hrtim.c ****         switch (eev_idx) {
 11108              		.loc 1 1878 9
 11109 00c0 9DF80B30 		ldrb	r3, [sp, #11]	@ zero_extendqisi2
 11110 00c4 0A2B     		cmp	r3, #10
 11111 00c6 00F24682 		bhi	.L400
 11112 00ca 01A2     		adr	r2, .L388
 11113 00cc 52F823F0 		ldr	pc, [r2, r3, lsl #2]
 11114              		.p2align 2
 11115              	.L388:
 11116 00d0 FD000000 		.word	.L398+1
 11117 00d4 1D010000 		.word	.L397+1
 11118 00d8 7F010000 		.word	.L396+1
 11119 00dc E7010000 		.word	.L395+1
 11120 00e0 51020000 		.word	.L394+1
 11121 00e4 BB020000 		.word	.L393+1
 11122 00e8 25030000 		.word	.L392+1
 11123 00ec 8F030000 		.word	.L391+1
 11124 00f0 FF030000 		.word	.L390+1
 11125 00f4 6F040000 		.word	.L389+1
 11126 00f8 E1040000 		.word	.L387+1
 11127              		.p2align 1
 11128              	.L398:
1879:C:/StellarStudio-7.0/SDKS/StellarESDK-1.7.0/Modules/Drivers/Timers/HRTIM/src\hrtim.c ****             case HRTIM_EVENT_NONE:
1880:C:/StellarStudio-7.0/SDKS/StellarESDK-1.7.0/Modules/Drivers/Timers/HRTIM/src\hrtim.c ****                 /* Update the HRTIM registers */
1881:C:/StellarStudio-7.0/SDKS/StellarESDK-1.7.0/Modules/Drivers/Timers/HRTIM/src\hrtim.c ****                 hdp->hrtim->sCommonRegs.EECR1 = 0U;
 11129              		.loc 1 1881 20
 11130 00fc 039B     		ldr	r3, [sp, #12]
 11131 00fe 1B68     		ldr	r3, [r3]
 11132              		.loc 1 1881 47
 11133 0100 0022     		movs	r2, #0
 11134 0102 C3F8B023 		str	r2, [r3, #944]
1882:C:/StellarStudio-7.0/SDKS/StellarESDK-1.7.0/Modules/Drivers/Timers/HRTIM/src\hrtim.c ****                 hdp->hrtim->sCommonRegs.EECR2 = 0U;
 11135              		.loc 1 1882 20
 11136 0106 039B     		ldr	r3, [sp, #12]
 11137 0108 1B68     		ldr	r3, [r3]
 11138              		.loc 1 1882 47
 11139 010a 0022     		movs	r2, #0
 11140 010c C3F8B423 		str	r2, [r3, #948]
1883:C:/StellarStudio-7.0/SDKS/StellarESDK-1.7.0/Modules/Drivers/Timers/HRTIM/src\hrtim.c ****                 hdp->hrtim->sCommonRegs.EECR3 = 0U;
 11141              		.loc 1 1883 20
 11142 0110 039B     		ldr	r3, [sp, #12]
 11143 0112 1B68     		ldr	r3, [r3]
 11144              		.loc 1 1883 47
 11145 0114 0022     		movs	r2, #0
 11146 0116 C3F8B823 		str	r2, [r3, #952]
1884:C:/StellarStudio-7.0/SDKS/StellarESDK-1.7.0/Modules/Drivers/Timers/HRTIM/src\hrtim.c ****                 break;
 11147              		.loc 1 1884 17
 11148 011a 1DE2     		b	.L385
 11149              	.L397:
1885:C:/StellarStudio-7.0/SDKS/StellarESDK-1.7.0/Modules/Drivers/Timers/HRTIM/src\hrtim.c ****             case HRTIM_EVENT_1:
1886:C:/StellarStudio-7.0/SDKS/StellarESDK-1.7.0/Modules/Drivers/Timers/HRTIM/src\hrtim.c ****                 hrtim_eecr1 &= ~(HRTIM_EECR1_EE1SRC | HRTIM_EECR1_EE1POL | HRTIM_EECR1_EE1SNS | HRT
 11150              		.loc 1 1886 29
 11151 011c 079B     		ldr	r3, [sp, #28]
 11152 011e 23F03F03 		bic	r3, r3, #63
 11153 0122 0793     		str	r3, [sp, #28]
1887:C:/StellarStudio-7.0/SDKS/StellarESDK-1.7.0/Modules/Drivers/Timers/HRTIM/src\hrtim.c ****                 hrtim_eecr1 |= ( ext_source & HRTIM_EECR1_EE1SRC);
 11154              		.loc 1 1887 45
 11155 0124 019B     		ldr	r3, [sp, #4]
 11156 0126 03F00303 		and	r3, r3, #3
 11157              		.loc 1 1887 29
 11158 012a 079A     		ldr	r2, [sp, #28]
 11159 012c 1343     		orrs	r3, r3, r2
 11160 012e 0793     		str	r3, [sp, #28]
1888:C:/StellarStudio-7.0/SDKS/StellarESDK-1.7.0/Modules/Drivers/Timers/HRTIM/src\hrtim.c ****                 hrtim_eecr1 |= ( ext_polarity & HRTIM_EECR1_EE1POL);
 11161              		.loc 1 1888 47
 11162 0130 009B     		ldr	r3, [sp]
 11163 0132 03F00403 		and	r3, r3, #4
 11164              		.loc 1 1888 29
 11165 0136 079A     		ldr	r2, [sp, #28]
 11166 0138 1343     		orrs	r3, r3, r2
 11167 013a 0793     		str	r3, [sp, #28]
1889:C:/StellarStudio-7.0/SDKS/StellarESDK-1.7.0/Modules/Drivers/Timers/HRTIM/src\hrtim.c ****                 hrtim_eecr1 |= ( ext_sensitivity & HRTIM_EECR1_EE1SNS);
 11168              		.loc 1 1889 50
 11169 013c 089B     		ldr	r3, [sp, #32]
 11170 013e 03F01803 		and	r3, r3, #24
 11171              		.loc 1 1889 29
 11172 0142 079A     		ldr	r2, [sp, #28]
 11173 0144 1343     		orrs	r3, r3, r2
 11174 0146 0793     		str	r3, [sp, #28]
1890:C:/StellarStudio-7.0/SDKS/StellarESDK-1.7.0/Modules/Drivers/Timers/HRTIM/src\hrtim.c ****                 /* Update the HRTIM registers (all bitfields but EE1FAST bit) */
1891:C:/StellarStudio-7.0/SDKS/StellarESDK-1.7.0/Modules/Drivers/Timers/HRTIM/src\hrtim.c ****                 hdp->hrtim->sCommonRegs.EECR1 |= hrtim_eecr1;
 11175              		.loc 1 1891 20
 11176 0148 039B     		ldr	r3, [sp, #12]
 11177 014a 1B68     		ldr	r3, [r3]
 11178              		.loc 1 1891 47
 11179 014c D3F8B013 		ldr	r1, [r3, #944]
 11180              		.loc 1 1891 20
 11181 0150 039B     		ldr	r3, [sp, #12]
 11182 0152 1B68     		ldr	r3, [r3]
 11183              		.loc 1 1891 47
 11184 0154 079A     		ldr	r2, [sp, #28]
 11185 0156 0A43     		orrs	r2, r2, r1
 11186 0158 C3F8B023 		str	r2, [r3, #944]
1892:C:/StellarStudio-7.0/SDKS/StellarESDK-1.7.0/Modules/Drivers/Timers/HRTIM/src\hrtim.c ****                 /* Update the HRTIM registers (EE1FAST bit) */
1893:C:/StellarStudio-7.0/SDKS/StellarESDK-1.7.0/Modules/Drivers/Timers/HRTIM/src\hrtim.c ****                 hrtim_eecr1 |= ( ext_fast_mode  & HRTIM_EECR1_EE1FAST);
 11187              		.loc 1 1893 49
 11188 015c 0A9B     		ldr	r3, [sp, #40]
 11189 015e 03F02003 		and	r3, r3, #32
 11190              		.loc 1 1893 29
 11191 0162 079A     		ldr	r2, [sp, #28]
 11192 0164 1343     		orrs	r3, r3, r2
 11193 0166 0793     		str	r3, [sp, #28]
1894:C:/StellarStudio-7.0/SDKS/StellarESDK-1.7.0/Modules/Drivers/Timers/HRTIM/src\hrtim.c ****                 hdp->hrtim->sCommonRegs.EECR1 |= hrtim_eecr1;
 11194              		.loc 1 1894 20
 11195 0168 039B     		ldr	r3, [sp, #12]
 11196 016a 1B68     		ldr	r3, [r3]
 11197              		.loc 1 1894 47
 11198 016c D3F8B013 		ldr	r1, [r3, #944]
 11199              		.loc 1 1894 20
 11200 0170 039B     		ldr	r3, [sp, #12]
 11201 0172 1B68     		ldr	r3, [r3]
 11202              		.loc 1 1894 47
 11203 0174 079A     		ldr	r2, [sp, #28]
 11204 0176 0A43     		orrs	r2, r2, r1
 11205 0178 C3F8B023 		str	r2, [r3, #944]
1895:C:/StellarStudio-7.0/SDKS/StellarESDK-1.7.0/Modules/Drivers/Timers/HRTIM/src\hrtim.c ****                 break;
 11206              		.loc 1 1895 17
 11207 017c ECE1     		b	.L385
 11208              	.L396:
1896:C:/StellarStudio-7.0/SDKS/StellarESDK-1.7.0/Modules/Drivers/Timers/HRTIM/src\hrtim.c ****             case HRTIM_EVENT_2:
1897:C:/StellarStudio-7.0/SDKS/StellarESDK-1.7.0/Modules/Drivers/Timers/HRTIM/src\hrtim.c ****                 hrtim_eecr1 &= ~(HRTIM_EECR1_EE2SRC | HRTIM_EECR1_EE2POL | HRTIM_EECR1_EE2SNS | HRT
 11209              		.loc 1 1897 29
 11210 017e 079B     		ldr	r3, [sp, #28]
 11211 0180 23F47C63 		bic	r3, r3, #4032
 11212 0184 0793     		str	r3, [sp, #28]
1898:C:/StellarStudio-7.0/SDKS/StellarESDK-1.7.0/Modules/Drivers/Timers/HRTIM/src\hrtim.c ****                 hrtim_eecr1 |= (( ext_source << 6U) & HRTIM_EECR1_EE2SRC);
 11213              		.loc 1 1898 46
 11214 0186 019B     		ldr	r3, [sp, #4]
 11215 0188 9B01     		lsls	r3, r3, #6
 11216              		.loc 1 1898 53
 11217 018a DBB2     		uxtb	r3, r3
 11218              		.loc 1 1898 29
 11219 018c 079A     		ldr	r2, [sp, #28]
 11220 018e 1343     		orrs	r3, r3, r2
 11221 0190 0793     		str	r3, [sp, #28]
1899:C:/StellarStudio-7.0/SDKS/StellarESDK-1.7.0/Modules/Drivers/Timers/HRTIM/src\hrtim.c ****                 hrtim_eecr1 |= (( ext_polarity << 6U) & HRTIM_EECR1_EE2POL);
 11222              		.loc 1 1899 48
 11223 0192 009B     		ldr	r3, [sp]
 11224 0194 9B01     		lsls	r3, r3, #6
 11225              		.loc 1 1899 55
 11226 0196 03F48073 		and	r3, r3, #256
 11227              		.loc 1 1899 29
 11228 019a 079A     		ldr	r2, [sp, #28]
 11229 019c 1343     		orrs	r3, r3, r2
 11230 019e 0793     		str	r3, [sp, #28]
1900:C:/StellarStudio-7.0/SDKS/StellarESDK-1.7.0/Modules/Drivers/Timers/HRTIM/src\hrtim.c ****                 hrtim_eecr1 |= (( ext_sensitivity << 6U) & HRTIM_EECR1_EE2SNS);
 11231              		.loc 1 1900 51
 11232 01a0 089B     		ldr	r3, [sp, #32]
 11233 01a2 9B01     		lsls	r3, r3, #6
 11234              		.loc 1 1900 58
 11235 01a4 03F4C063 		and	r3, r3, #1536
 11236              		.loc 1 1900 29
 11237 01a8 079A     		ldr	r2, [sp, #28]
 11238 01aa 1343     		orrs	r3, r3, r2
 11239 01ac 0793     		str	r3, [sp, #28]
1901:C:/StellarStudio-7.0/SDKS/StellarESDK-1.7.0/Modules/Drivers/Timers/HRTIM/src\hrtim.c ****                 /* Update the HRTIM registers (all bitfields but EE2FAST bit) */
1902:C:/StellarStudio-7.0/SDKS/StellarESDK-1.7.0/Modules/Drivers/Timers/HRTIM/src\hrtim.c ****                 hdp->hrtim->sCommonRegs.EECR1 |= hrtim_eecr1;
 11240              		.loc 1 1902 20
 11241 01ae 039B     		ldr	r3, [sp, #12]
 11242 01b0 1B68     		ldr	r3, [r3]
 11243              		.loc 1 1902 47
 11244 01b2 D3F8B013 		ldr	r1, [r3, #944]
 11245              		.loc 1 1902 20
 11246 01b6 039B     		ldr	r3, [sp, #12]
 11247 01b8 1B68     		ldr	r3, [r3]
 11248              		.loc 1 1902 47
 11249 01ba 079A     		ldr	r2, [sp, #28]
 11250 01bc 0A43     		orrs	r2, r2, r1
 11251 01be C3F8B023 		str	r2, [r3, #944]
1903:C:/StellarStudio-7.0/SDKS/StellarESDK-1.7.0/Modules/Drivers/Timers/HRTIM/src\hrtim.c ****                 /* Update the HRTIM registers (EE2FAST bit) */
1904:C:/StellarStudio-7.0/SDKS/StellarESDK-1.7.0/Modules/Drivers/Timers/HRTIM/src\hrtim.c ****                 hrtim_eecr1 |= (( ext_fast_mode << 6U) & HRTIM_EECR1_EE2FAST);
 11252              		.loc 1 1904 49
 11253 01c2 0A9B     		ldr	r3, [sp, #40]
 11254 01c4 9B01     		lsls	r3, r3, #6
 11255              		.loc 1 1904 56
 11256 01c6 03F40063 		and	r3, r3, #2048
 11257              		.loc 1 1904 29
 11258 01ca 079A     		ldr	r2, [sp, #28]
 11259 01cc 1343     		orrs	r3, r3, r2
 11260 01ce 0793     		str	r3, [sp, #28]
1905:C:/StellarStudio-7.0/SDKS/StellarESDK-1.7.0/Modules/Drivers/Timers/HRTIM/src\hrtim.c ****                 hdp->hrtim->sCommonRegs.EECR1 |= hrtim_eecr1;
 11261              		.loc 1 1905 20
 11262 01d0 039B     		ldr	r3, [sp, #12]
 11263 01d2 1B68     		ldr	r3, [r3]
 11264              		.loc 1 1905 47
 11265 01d4 D3F8B013 		ldr	r1, [r3, #944]
 11266              		.loc 1 1905 20
 11267 01d8 039B     		ldr	r3, [sp, #12]
 11268 01da 1B68     		ldr	r3, [r3]
 11269              		.loc 1 1905 47
 11270 01dc 079A     		ldr	r2, [sp, #28]
 11271 01de 0A43     		orrs	r2, r2, r1
 11272 01e0 C3F8B023 		str	r2, [r3, #944]
1906:C:/StellarStudio-7.0/SDKS/StellarESDK-1.7.0/Modules/Drivers/Timers/HRTIM/src\hrtim.c ****                 break;
 11273              		.loc 1 1906 17
 11274 01e4 B8E1     		b	.L385
 11275              	.L395:
1907:C:/StellarStudio-7.0/SDKS/StellarESDK-1.7.0/Modules/Drivers/Timers/HRTIM/src\hrtim.c ****             case HRTIM_EVENT_3:
1908:C:/StellarStudio-7.0/SDKS/StellarESDK-1.7.0/Modules/Drivers/Timers/HRTIM/src\hrtim.c ****                 hrtim_eecr1 &= ~(HRTIM_EECR1_EE3SRC | HRTIM_EECR1_EE3POL | HRTIM_EECR1_EE3SNS | HRT
 11276              		.loc 1 1908 29
 11277 01e6 079B     		ldr	r3, [sp, #28]
 11278 01e8 23F47C33 		bic	r3, r3, #258048
 11279 01ec 0793     		str	r3, [sp, #28]
1909:C:/StellarStudio-7.0/SDKS/StellarESDK-1.7.0/Modules/Drivers/Timers/HRTIM/src\hrtim.c ****                 hrtim_eecr1 |= (( ext_source << 12U) & HRTIM_EECR1_EE3SRC);
 11280              		.loc 1 1909 46
 11281 01ee 019B     		ldr	r3, [sp, #4]
 11282 01f0 1B03     		lsls	r3, r3, #12
 11283              		.loc 1 1909 54
 11284 01f2 03F44053 		and	r3, r3, #12288
 11285              		.loc 1 1909 29
 11286 01f6 079A     		ldr	r2, [sp, #28]
 11287 01f8 1343     		orrs	r3, r3, r2
 11288 01fa 0793     		str	r3, [sp, #28]
1910:C:/StellarStudio-7.0/SDKS/StellarESDK-1.7.0/Modules/Drivers/Timers/HRTIM/src\hrtim.c ****                 hrtim_eecr1 |= (( ext_polarity << 12U) & HRTIM_EECR1_EE3POL);
 11289              		.loc 1 1910 48
 11290 01fc 009B     		ldr	r3, [sp]
 11291 01fe 1B03     		lsls	r3, r3, #12
 11292              		.loc 1 1910 56
 11293 0200 03F48043 		and	r3, r3, #16384
 11294              		.loc 1 1910 29
 11295 0204 079A     		ldr	r2, [sp, #28]
 11296 0206 1343     		orrs	r3, r3, r2
 11297 0208 0793     		str	r3, [sp, #28]
1911:C:/StellarStudio-7.0/SDKS/StellarESDK-1.7.0/Modules/Drivers/Timers/HRTIM/src\hrtim.c ****                 hrtim_eecr1 |= (( ext_sensitivity << 12U) & HRTIM_EECR1_EE3SNS);
 11298              		.loc 1 1911 51
 11299 020a 089B     		ldr	r3, [sp, #32]
 11300 020c 1B03     		lsls	r3, r3, #12
 11301              		.loc 1 1911 59
 11302 020e 03F4C033 		and	r3, r3, #98304
 11303              		.loc 1 1911 29
 11304 0212 079A     		ldr	r2, [sp, #28]
 11305 0214 1343     		orrs	r3, r3, r2
 11306 0216 0793     		str	r3, [sp, #28]
1912:C:/StellarStudio-7.0/SDKS/StellarESDK-1.7.0/Modules/Drivers/Timers/HRTIM/src\hrtim.c ****                 /* Update the HRTIM registers (all bitfields but EE3FAST bit) */
1913:C:/StellarStudio-7.0/SDKS/StellarESDK-1.7.0/Modules/Drivers/Timers/HRTIM/src\hrtim.c ****                 hdp->hrtim->sCommonRegs.EECR1 |= hrtim_eecr1;
 11307              		.loc 1 1913 20
 11308 0218 039B     		ldr	r3, [sp, #12]
 11309 021a 1B68     		ldr	r3, [r3]
 11310              		.loc 1 1913 47
 11311 021c D3F8B013 		ldr	r1, [r3, #944]
 11312              		.loc 1 1913 20
 11313 0220 039B     		ldr	r3, [sp, #12]
 11314 0222 1B68     		ldr	r3, [r3]
 11315              		.loc 1 1913 47
 11316 0224 079A     		ldr	r2, [sp, #28]
 11317 0226 0A43     		orrs	r2, r2, r1
 11318 0228 C3F8B023 		str	r2, [r3, #944]
1914:C:/StellarStudio-7.0/SDKS/StellarESDK-1.7.0/Modules/Drivers/Timers/HRTIM/src\hrtim.c ****                 /* Update the HRTIM registers (EE3FAST bit) */
1915:C:/StellarStudio-7.0/SDKS/StellarESDK-1.7.0/Modules/Drivers/Timers/HRTIM/src\hrtim.c ****                 hrtim_eecr1 |= (( ext_fast_mode << 12U) & HRTIM_EECR1_EE3FAST);
 11319              		.loc 1 1915 49
 11320 022c 0A9B     		ldr	r3, [sp, #40]
 11321 022e 1B03     		lsls	r3, r3, #12
 11322              		.loc 1 1915 57
 11323 0230 03F40033 		and	r3, r3, #131072
 11324              		.loc 1 1915 29
 11325 0234 079A     		ldr	r2, [sp, #28]
 11326 0236 1343     		orrs	r3, r3, r2
 11327 0238 0793     		str	r3, [sp, #28]
1916:C:/StellarStudio-7.0/SDKS/StellarESDK-1.7.0/Modules/Drivers/Timers/HRTIM/src\hrtim.c ****                 hdp->hrtim->sCommonRegs.EECR1 |= hrtim_eecr1;
 11328              		.loc 1 1916 20
 11329 023a 039B     		ldr	r3, [sp, #12]
 11330 023c 1B68     		ldr	r3, [r3]
 11331              		.loc 1 1916 47
 11332 023e D3F8B013 		ldr	r1, [r3, #944]
 11333              		.loc 1 1916 20
 11334 0242 039B     		ldr	r3, [sp, #12]
 11335 0244 1B68     		ldr	r3, [r3]
 11336              		.loc 1 1916 47
 11337 0246 079A     		ldr	r2, [sp, #28]
 11338 0248 0A43     		orrs	r2, r2, r1
 11339 024a C3F8B023 		str	r2, [r3, #944]
1917:C:/StellarStudio-7.0/SDKS/StellarESDK-1.7.0/Modules/Drivers/Timers/HRTIM/src\hrtim.c ****                 break;
 11340              		.loc 1 1917 17
 11341 024e 83E1     		b	.L385
 11342              	.L394:
1918:C:/StellarStudio-7.0/SDKS/StellarESDK-1.7.0/Modules/Drivers/Timers/HRTIM/src\hrtim.c ****             case HRTIM_EVENT_4:
1919:C:/StellarStudio-7.0/SDKS/StellarESDK-1.7.0/Modules/Drivers/Timers/HRTIM/src\hrtim.c ****                 hrtim_eecr1 &= ~(HRTIM_EECR1_EE4SRC | HRTIM_EECR1_EE4POL | HRTIM_EECR1_EE4SNS | HRT
 11343              		.loc 1 1919 29
 11344 0250 079B     		ldr	r3, [sp, #28]
 11345 0252 23F47C03 		bic	r3, r3, #16515072
 11346 0256 0793     		str	r3, [sp, #28]
1920:C:/StellarStudio-7.0/SDKS/StellarESDK-1.7.0/Modules/Drivers/Timers/HRTIM/src\hrtim.c ****                 hrtim_eecr1 |= (( ext_source << 18U) & HRTIM_EECR1_EE4SRC);
 11347              		.loc 1 1920 46
 11348 0258 019B     		ldr	r3, [sp, #4]
 11349 025a 9B04     		lsls	r3, r3, #18
 11350              		.loc 1 1920 54
 11351 025c 03F44023 		and	r3, r3, #786432
 11352              		.loc 1 1920 29
 11353 0260 079A     		ldr	r2, [sp, #28]
 11354 0262 1343     		orrs	r3, r3, r2
 11355 0264 0793     		str	r3, [sp, #28]
1921:C:/StellarStudio-7.0/SDKS/StellarESDK-1.7.0/Modules/Drivers/Timers/HRTIM/src\hrtim.c ****                 hrtim_eecr1 |= (( ext_polarity << 18U) & HRTIM_EECR1_EE4POL);
 11356              		.loc 1 1921 48
 11357 0266 009B     		ldr	r3, [sp]
 11358 0268 9B04     		lsls	r3, r3, #18
 11359              		.loc 1 1921 56
 11360 026a 03F48013 		and	r3, r3, #1048576
 11361              		.loc 1 1921 29
 11362 026e 079A     		ldr	r2, [sp, #28]
 11363 0270 1343     		orrs	r3, r3, r2
 11364 0272 0793     		str	r3, [sp, #28]
1922:C:/StellarStudio-7.0/SDKS/StellarESDK-1.7.0/Modules/Drivers/Timers/HRTIM/src\hrtim.c ****                 hrtim_eecr1 |= (( ext_sensitivity << 18U) & HRTIM_EECR1_EE4SNS);
 11365              		.loc 1 1922 51
 11366 0274 089B     		ldr	r3, [sp, #32]
 11367 0276 9B04     		lsls	r3, r3, #18
 11368              		.loc 1 1922 59
 11369 0278 03F4C003 		and	r3, r3, #6291456
 11370              		.loc 1 1922 29
 11371 027c 079A     		ldr	r2, [sp, #28]
 11372 027e 1343     		orrs	r3, r3, r2
 11373 0280 0793     		str	r3, [sp, #28]
1923:C:/StellarStudio-7.0/SDKS/StellarESDK-1.7.0/Modules/Drivers/Timers/HRTIM/src\hrtim.c ****                 /* Update the HRTIM registers (all bitfields but EE4FAST bit) */
1924:C:/StellarStudio-7.0/SDKS/StellarESDK-1.7.0/Modules/Drivers/Timers/HRTIM/src\hrtim.c ****                 hdp->hrtim->sCommonRegs.EECR1 |= hrtim_eecr1;
 11374              		.loc 1 1924 20
 11375 0282 039B     		ldr	r3, [sp, #12]
 11376 0284 1B68     		ldr	r3, [r3]
 11377              		.loc 1 1924 47
 11378 0286 D3F8B013 		ldr	r1, [r3, #944]
 11379              		.loc 1 1924 20
 11380 028a 039B     		ldr	r3, [sp, #12]
 11381 028c 1B68     		ldr	r3, [r3]
 11382              		.loc 1 1924 47
 11383 028e 079A     		ldr	r2, [sp, #28]
 11384 0290 0A43     		orrs	r2, r2, r1
 11385 0292 C3F8B023 		str	r2, [r3, #944]
1925:C:/StellarStudio-7.0/SDKS/StellarESDK-1.7.0/Modules/Drivers/Timers/HRTIM/src\hrtim.c ****                 /* Update the HRTIM registers (EE4FAST bit) */
1926:C:/StellarStudio-7.0/SDKS/StellarESDK-1.7.0/Modules/Drivers/Timers/HRTIM/src\hrtim.c ****                 hrtim_eecr1 |= (( ext_fast_mode << 18U) & HRTIM_EECR1_EE4FAST);
 11386              		.loc 1 1926 49
 11387 0296 0A9B     		ldr	r3, [sp, #40]
 11388 0298 9B04     		lsls	r3, r3, #18
 11389              		.loc 1 1926 57
 11390 029a 03F40003 		and	r3, r3, #8388608
 11391              		.loc 1 1926 29
 11392 029e 079A     		ldr	r2, [sp, #28]
 11393 02a0 1343     		orrs	r3, r3, r2
 11394 02a2 0793     		str	r3, [sp, #28]
1927:C:/StellarStudio-7.0/SDKS/StellarESDK-1.7.0/Modules/Drivers/Timers/HRTIM/src\hrtim.c ****                 hdp->hrtim->sCommonRegs.EECR1 |= hrtim_eecr1;
 11395              		.loc 1 1927 20
 11396 02a4 039B     		ldr	r3, [sp, #12]
 11397 02a6 1B68     		ldr	r3, [r3]
 11398              		.loc 1 1927 47
 11399 02a8 D3F8B013 		ldr	r1, [r3, #944]
 11400              		.loc 1 1927 20
 11401 02ac 039B     		ldr	r3, [sp, #12]
 11402 02ae 1B68     		ldr	r3, [r3]
 11403              		.loc 1 1927 47
 11404 02b0 079A     		ldr	r2, [sp, #28]
 11405 02b2 0A43     		orrs	r2, r2, r1
 11406 02b4 C3F8B023 		str	r2, [r3, #944]
1928:C:/StellarStudio-7.0/SDKS/StellarESDK-1.7.0/Modules/Drivers/Timers/HRTIM/src\hrtim.c ****                 break;
 11407              		.loc 1 1928 17
 11408 02b8 4EE1     		b	.L385
 11409              	.L393:
1929:C:/StellarStudio-7.0/SDKS/StellarESDK-1.7.0/Modules/Drivers/Timers/HRTIM/src\hrtim.c ****             case HRTIM_EVENT_5:
1930:C:/StellarStudio-7.0/SDKS/StellarESDK-1.7.0/Modules/Drivers/Timers/HRTIM/src\hrtim.c ****                 hrtim_eecr1 &= ~(HRTIM_EECR1_EE5SRC | HRTIM_EECR1_EE5POL | HRTIM_EECR1_EE5SNS | HRT
 11410              		.loc 1 1930 29
 11411 02ba 079B     		ldr	r3, [sp, #28]
 11412 02bc 23F07C53 		bic	r3, r3, #1056964608
 11413 02c0 0793     		str	r3, [sp, #28]
1931:C:/StellarStudio-7.0/SDKS/StellarESDK-1.7.0/Modules/Drivers/Timers/HRTIM/src\hrtim.c ****                 hrtim_eecr1 |= (( ext_source << 24U) & HRTIM_EECR1_EE5SRC);
 11414              		.loc 1 1931 46
 11415 02c2 019B     		ldr	r3, [sp, #4]
 11416 02c4 1B06     		lsls	r3, r3, #24
 11417              		.loc 1 1931 54
 11418 02c6 03F04073 		and	r3, r3, #50331648
 11419              		.loc 1 1931 29
 11420 02ca 079A     		ldr	r2, [sp, #28]
 11421 02cc 1343     		orrs	r3, r3, r2
 11422 02ce 0793     		str	r3, [sp, #28]
1932:C:/StellarStudio-7.0/SDKS/StellarESDK-1.7.0/Modules/Drivers/Timers/HRTIM/src\hrtim.c ****                 hrtim_eecr1 |= (( ext_polarity << 24U) & HRTIM_EECR1_EE5POL);
 11423              		.loc 1 1932 48
 11424 02d0 009B     		ldr	r3, [sp]
 11425 02d2 1B06     		lsls	r3, r3, #24
 11426              		.loc 1 1932 56
 11427 02d4 03F08063 		and	r3, r3, #67108864
 11428              		.loc 1 1932 29
 11429 02d8 079A     		ldr	r2, [sp, #28]
 11430 02da 1343     		orrs	r3, r3, r2
 11431 02dc 0793     		str	r3, [sp, #28]
1933:C:/StellarStudio-7.0/SDKS/StellarESDK-1.7.0/Modules/Drivers/Timers/HRTIM/src\hrtim.c ****                 hrtim_eecr1 |= (( ext_sensitivity << 24U) & HRTIM_EECR1_EE5SNS);
 11432              		.loc 1 1933 51
 11433 02de 089B     		ldr	r3, [sp, #32]
 11434 02e0 1B06     		lsls	r3, r3, #24
 11435              		.loc 1 1933 59
 11436 02e2 03F0C053 		and	r3, r3, #402653184
 11437              		.loc 1 1933 29
 11438 02e6 079A     		ldr	r2, [sp, #28]
 11439 02e8 1343     		orrs	r3, r3, r2
 11440 02ea 0793     		str	r3, [sp, #28]
1934:C:/StellarStudio-7.0/SDKS/StellarESDK-1.7.0/Modules/Drivers/Timers/HRTIM/src\hrtim.c ****                 /* Update the HRTIM registers (all bitfields but EE5FAST bit) */
1935:C:/StellarStudio-7.0/SDKS/StellarESDK-1.7.0/Modules/Drivers/Timers/HRTIM/src\hrtim.c ****                 hdp->hrtim->sCommonRegs.EECR1 |= hrtim_eecr1;
 11441              		.loc 1 1935 20
 11442 02ec 039B     		ldr	r3, [sp, #12]
 11443 02ee 1B68     		ldr	r3, [r3]
 11444              		.loc 1 1935 47
 11445 02f0 D3F8B013 		ldr	r1, [r3, #944]
 11446              		.loc 1 1935 20
 11447 02f4 039B     		ldr	r3, [sp, #12]
 11448 02f6 1B68     		ldr	r3, [r3]
 11449              		.loc 1 1935 47
 11450 02f8 079A     		ldr	r2, [sp, #28]
 11451 02fa 0A43     		orrs	r2, r2, r1
 11452 02fc C3F8B023 		str	r2, [r3, #944]
1936:C:/StellarStudio-7.0/SDKS/StellarESDK-1.7.0/Modules/Drivers/Timers/HRTIM/src\hrtim.c ****                 /* Update the HRTIM registers (EE5FAST bit) */
1937:C:/StellarStudio-7.0/SDKS/StellarESDK-1.7.0/Modules/Drivers/Timers/HRTIM/src\hrtim.c ****                 hrtim_eecr1 |= (( ext_fast_mode << 24U) & HRTIM_EECR1_EE5FAST);
 11453              		.loc 1 1937 49
 11454 0300 0A9B     		ldr	r3, [sp, #40]
 11455 0302 1B06     		lsls	r3, r3, #24
 11456              		.loc 1 1937 57
 11457 0304 03F00053 		and	r3, r3, #536870912
 11458              		.loc 1 1937 29
 11459 0308 079A     		ldr	r2, [sp, #28]
 11460 030a 1343     		orrs	r3, r3, r2
 11461 030c 0793     		str	r3, [sp, #28]
1938:C:/StellarStudio-7.0/SDKS/StellarESDK-1.7.0/Modules/Drivers/Timers/HRTIM/src\hrtim.c ****                 hdp->hrtim->sCommonRegs.EECR1 |= hrtim_eecr1;
 11462              		.loc 1 1938 20
 11463 030e 039B     		ldr	r3, [sp, #12]
 11464 0310 1B68     		ldr	r3, [r3]
 11465              		.loc 1 1938 47
 11466 0312 D3F8B013 		ldr	r1, [r3, #944]
 11467              		.loc 1 1938 20
 11468 0316 039B     		ldr	r3, [sp, #12]
 11469 0318 1B68     		ldr	r3, [r3]
 11470              		.loc 1 1938 47
 11471 031a 079A     		ldr	r2, [sp, #28]
 11472 031c 0A43     		orrs	r2, r2, r1
 11473 031e C3F8B023 		str	r2, [r3, #944]
1939:C:/StellarStudio-7.0/SDKS/StellarESDK-1.7.0/Modules/Drivers/Timers/HRTIM/src\hrtim.c ****                 break;
 11474              		.loc 1 1939 17
 11475 0322 19E1     		b	.L385
 11476              	.L392:
1940:C:/StellarStudio-7.0/SDKS/StellarESDK-1.7.0/Modules/Drivers/Timers/HRTIM/src\hrtim.c ****             case HRTIM_EVENT_6:
1941:C:/StellarStudio-7.0/SDKS/StellarESDK-1.7.0/Modules/Drivers/Timers/HRTIM/src\hrtim.c ****                 hrtim_eecr2 &= ~(HRTIM_EECR2_EE6SRC | HRTIM_EECR2_EE6POL | HRTIM_EECR2_EE6SNS);
 11477              		.loc 1 1941 29
 11478 0324 069B     		ldr	r3, [sp, #24]
 11479 0326 23F01F03 		bic	r3, r3, #31
 11480 032a 0693     		str	r3, [sp, #24]
1942:C:/StellarStudio-7.0/SDKS/StellarESDK-1.7.0/Modules/Drivers/Timers/HRTIM/src\hrtim.c ****                 hrtim_eecr2 |= ( ext_source & HRTIM_EECR2_EE6SRC);
 11481              		.loc 1 1942 45
 11482 032c 019B     		ldr	r3, [sp, #4]
 11483 032e 03F00303 		and	r3, r3, #3
 11484              		.loc 1 1942 29
 11485 0332 069A     		ldr	r2, [sp, #24]
 11486 0334 1343     		orrs	r3, r3, r2
 11487 0336 0693     		str	r3, [sp, #24]
1943:C:/StellarStudio-7.0/SDKS/StellarESDK-1.7.0/Modules/Drivers/Timers/HRTIM/src\hrtim.c ****                 hrtim_eecr2 |= ( ext_polarity & HRTIM_EECR2_EE6POL);
 11488              		.loc 1 1943 47
 11489 0338 009B     		ldr	r3, [sp]
 11490 033a 03F00403 		and	r3, r3, #4
 11491              		.loc 1 1943 29
 11492 033e 069A     		ldr	r2, [sp, #24]
 11493 0340 1343     		orrs	r3, r3, r2
 11494 0342 0693     		str	r3, [sp, #24]
1944:C:/StellarStudio-7.0/SDKS/StellarESDK-1.7.0/Modules/Drivers/Timers/HRTIM/src\hrtim.c ****                 hrtim_eecr2 |= ( ext_sensitivity & HRTIM_EECR2_EE6SNS);
 11495              		.loc 1 1944 50
 11496 0344 089B     		ldr	r3, [sp, #32]
 11497 0346 03F01803 		and	r3, r3, #24
 11498              		.loc 1 1944 29
 11499 034a 069A     		ldr	r2, [sp, #24]
 11500 034c 1343     		orrs	r3, r3, r2
 11501 034e 0693     		str	r3, [sp, #24]
1945:C:/StellarStudio-7.0/SDKS/StellarESDK-1.7.0/Modules/Drivers/Timers/HRTIM/src\hrtim.c ****                 hrtim_eecr3 &= ~(HRTIM_EECR3_EE6F);
 11502              		.loc 1 1945 29
 11503 0350 059B     		ldr	r3, [sp, #20]
 11504 0352 23F00F03 		bic	r3, r3, #15
 11505 0356 0593     		str	r3, [sp, #20]
1946:C:/StellarStudio-7.0/SDKS/StellarESDK-1.7.0/Modules/Drivers/Timers/HRTIM/src\hrtim.c ****                 hrtim_eecr3 |= ( ext_filter & HRTIM_EECR3_EE6F);
 11506              		.loc 1 1946 45
 11507 0358 099B     		ldr	r3, [sp, #36]
 11508 035a 03F00F03 		and	r3, r3, #15
 11509              		.loc 1 1946 29
 11510 035e 059A     		ldr	r2, [sp, #20]
 11511 0360 1343     		orrs	r3, r3, r2
 11512 0362 0593     		str	r3, [sp, #20]
1947:C:/StellarStudio-7.0/SDKS/StellarESDK-1.7.0/Modules/Drivers/Timers/HRTIM/src\hrtim.c ****                 /* Update the HRTIM registers */
1948:C:/StellarStudio-7.0/SDKS/StellarESDK-1.7.0/Modules/Drivers/Timers/HRTIM/src\hrtim.c ****                 hdp->hrtim->sCommonRegs.EECR2 |= hrtim_eecr2;
 11513              		.loc 1 1948 20
 11514 0364 039B     		ldr	r3, [sp, #12]
 11515 0366 1B68     		ldr	r3, [r3]
 11516              		.loc 1 1948 47
 11517 0368 D3F8B413 		ldr	r1, [r3, #948]
 11518              		.loc 1 1948 20
 11519 036c 039B     		ldr	r3, [sp, #12]
 11520 036e 1B68     		ldr	r3, [r3]
 11521              		.loc 1 1948 47
 11522 0370 069A     		ldr	r2, [sp, #24]
 11523 0372 0A43     		orrs	r2, r2, r1
 11524 0374 C3F8B423 		str	r2, [r3, #948]
1949:C:/StellarStudio-7.0/SDKS/StellarESDK-1.7.0/Modules/Drivers/Timers/HRTIM/src\hrtim.c ****                 hdp->hrtim->sCommonRegs.EECR3 |= hrtim_eecr3;
 11525              		.loc 1 1949 20
 11526 0378 039B     		ldr	r3, [sp, #12]
 11527 037a 1B68     		ldr	r3, [r3]
 11528              		.loc 1 1949 47
 11529 037c D3F8B813 		ldr	r1, [r3, #952]
 11530              		.loc 1 1949 20
 11531 0380 039B     		ldr	r3, [sp, #12]
 11532 0382 1B68     		ldr	r3, [r3]
 11533              		.loc 1 1949 47
 11534 0384 059A     		ldr	r2, [sp, #20]
 11535 0386 0A43     		orrs	r2, r2, r1
 11536 0388 C3F8B823 		str	r2, [r3, #952]
1950:C:/StellarStudio-7.0/SDKS/StellarESDK-1.7.0/Modules/Drivers/Timers/HRTIM/src\hrtim.c ****                 break;
 11537              		.loc 1 1950 17
 11538 038c E4E0     		b	.L385
 11539              	.L391:
1951:C:/StellarStudio-7.0/SDKS/StellarESDK-1.7.0/Modules/Drivers/Timers/HRTIM/src\hrtim.c ****             case HRTIM_EVENT_7:
1952:C:/StellarStudio-7.0/SDKS/StellarESDK-1.7.0/Modules/Drivers/Timers/HRTIM/src\hrtim.c ****                 hrtim_eecr2 &= ~(HRTIM_EECR2_EE7SRC | HRTIM_EECR2_EE7POL | HRTIM_EECR2_EE7SNS);
 11540              		.loc 1 1952 29
 11541 038e 069B     		ldr	r3, [sp, #24]
 11542 0390 23F4F863 		bic	r3, r3, #1984
 11543 0394 0693     		str	r3, [sp, #24]
1953:C:/StellarStudio-7.0/SDKS/StellarESDK-1.7.0/Modules/Drivers/Timers/HRTIM/src\hrtim.c ****                 hrtim_eecr2 |= (( ext_source << 6U) & HRTIM_EECR2_EE7SRC);
 11544              		.loc 1 1953 46
 11545 0396 019B     		ldr	r3, [sp, #4]
 11546 0398 9B01     		lsls	r3, r3, #6
 11547              		.loc 1 1953 53
 11548 039a DBB2     		uxtb	r3, r3
 11549              		.loc 1 1953 29
 11550 039c 069A     		ldr	r2, [sp, #24]
 11551 039e 1343     		orrs	r3, r3, r2
 11552 03a0 0693     		str	r3, [sp, #24]
1954:C:/StellarStudio-7.0/SDKS/StellarESDK-1.7.0/Modules/Drivers/Timers/HRTIM/src\hrtim.c ****                 hrtim_eecr2 |= (( ext_polarity << 6U) & HRTIM_EECR2_EE7POL);
 11553              		.loc 1 1954 48
 11554 03a2 009B     		ldr	r3, [sp]
 11555 03a4 9B01     		lsls	r3, r3, #6
 11556              		.loc 1 1954 55
 11557 03a6 03F48073 		and	r3, r3, #256
 11558              		.loc 1 1954 29
 11559 03aa 069A     		ldr	r2, [sp, #24]
 11560 03ac 1343     		orrs	r3, r3, r2
 11561 03ae 0693     		str	r3, [sp, #24]
1955:C:/StellarStudio-7.0/SDKS/StellarESDK-1.7.0/Modules/Drivers/Timers/HRTIM/src\hrtim.c ****                 hrtim_eecr2 |= (( ext_sensitivity << 6U) & HRTIM_EECR2_EE7SNS);
 11562              		.loc 1 1955 51
 11563 03b0 089B     		ldr	r3, [sp, #32]
 11564 03b2 9B01     		lsls	r3, r3, #6
 11565              		.loc 1 1955 58
 11566 03b4 03F4C063 		and	r3, r3, #1536
 11567              		.loc 1 1955 29
 11568 03b8 069A     		ldr	r2, [sp, #24]
 11569 03ba 1343     		orrs	r3, r3, r2
 11570 03bc 0693     		str	r3, [sp, #24]
1956:C:/StellarStudio-7.0/SDKS/StellarESDK-1.7.0/Modules/Drivers/Timers/HRTIM/src\hrtim.c ****                 hrtim_eecr3 &= ~(HRTIM_EECR3_EE7F);
 11571              		.loc 1 1956 29
 11572 03be 059B     		ldr	r3, [sp, #20]
 11573 03c0 23F47073 		bic	r3, r3, #960
 11574 03c4 0593     		str	r3, [sp, #20]
1957:C:/StellarStudio-7.0/SDKS/StellarESDK-1.7.0/Modules/Drivers/Timers/HRTIM/src\hrtim.c ****                 hrtim_eecr3 |= (( ext_filter << 6U) & HRTIM_EECR3_EE7F);
 11575              		.loc 1 1957 46
 11576 03c6 099B     		ldr	r3, [sp, #36]
 11577 03c8 9B01     		lsls	r3, r3, #6
 11578              		.loc 1 1957 53
 11579 03ca 03F47073 		and	r3, r3, #960
 11580              		.loc 1 1957 29
 11581 03ce 059A     		ldr	r2, [sp, #20]
 11582 03d0 1343     		orrs	r3, r3, r2
 11583 03d2 0593     		str	r3, [sp, #20]
1958:C:/StellarStudio-7.0/SDKS/StellarESDK-1.7.0/Modules/Drivers/Timers/HRTIM/src\hrtim.c ****                 /* Update the HRTIM registers */
1959:C:/StellarStudio-7.0/SDKS/StellarESDK-1.7.0/Modules/Drivers/Timers/HRTIM/src\hrtim.c ****                 hdp->hrtim->sCommonRegs.EECR2 |= hrtim_eecr2;
 11584              		.loc 1 1959 20
 11585 03d4 039B     		ldr	r3, [sp, #12]
 11586 03d6 1B68     		ldr	r3, [r3]
 11587              		.loc 1 1959 47
 11588 03d8 D3F8B413 		ldr	r1, [r3, #948]
 11589              		.loc 1 1959 20
 11590 03dc 039B     		ldr	r3, [sp, #12]
 11591 03de 1B68     		ldr	r3, [r3]
 11592              		.loc 1 1959 47
 11593 03e0 069A     		ldr	r2, [sp, #24]
 11594 03e2 0A43     		orrs	r2, r2, r1
 11595 03e4 C3F8B423 		str	r2, [r3, #948]
1960:C:/StellarStudio-7.0/SDKS/StellarESDK-1.7.0/Modules/Drivers/Timers/HRTIM/src\hrtim.c ****                 hdp->hrtim->sCommonRegs.EECR3 |= hrtim_eecr3;
 11596              		.loc 1 1960 20
 11597 03e8 039B     		ldr	r3, [sp, #12]
 11598 03ea 1B68     		ldr	r3, [r3]
 11599              		.loc 1 1960 47
 11600 03ec D3F8B813 		ldr	r1, [r3, #952]
 11601              		.loc 1 1960 20
 11602 03f0 039B     		ldr	r3, [sp, #12]
 11603 03f2 1B68     		ldr	r3, [r3]
 11604              		.loc 1 1960 47
 11605 03f4 059A     		ldr	r2, [sp, #20]
 11606 03f6 0A43     		orrs	r2, r2, r1
 11607 03f8 C3F8B823 		str	r2, [r3, #952]
1961:C:/StellarStudio-7.0/SDKS/StellarESDK-1.7.0/Modules/Drivers/Timers/HRTIM/src\hrtim.c ****                 break;
 11608              		.loc 1 1961 17
 11609 03fc ACE0     		b	.L385
 11610              	.L390:
1962:C:/StellarStudio-7.0/SDKS/StellarESDK-1.7.0/Modules/Drivers/Timers/HRTIM/src\hrtim.c ****             case HRTIM_EVENT_8:
1963:C:/StellarStudio-7.0/SDKS/StellarESDK-1.7.0/Modules/Drivers/Timers/HRTIM/src\hrtim.c ****                 hrtim_eecr2 &= ~(HRTIM_EECR2_EE8SRC | HRTIM_EECR2_EE8POL | HRTIM_EECR2_EE8SNS);
 11611              		.loc 1 1963 29
 11612 03fe 069B     		ldr	r3, [sp, #24]
 11613 0400 23F4F833 		bic	r3, r3, #126976
 11614 0404 0693     		str	r3, [sp, #24]
1964:C:/StellarStudio-7.0/SDKS/StellarESDK-1.7.0/Modules/Drivers/Timers/HRTIM/src\hrtim.c ****                 hrtim_eecr2 |= (( ext_source << 12U) & HRTIM_EECR2_EE8SRC);
 11615              		.loc 1 1964 46
 11616 0406 019B     		ldr	r3, [sp, #4]
 11617 0408 1B03     		lsls	r3, r3, #12
 11618              		.loc 1 1964 54
 11619 040a 03F44053 		and	r3, r3, #12288
 11620              		.loc 1 1964 29
 11621 040e 069A     		ldr	r2, [sp, #24]
 11622 0410 1343     		orrs	r3, r3, r2
 11623 0412 0693     		str	r3, [sp, #24]
1965:C:/StellarStudio-7.0/SDKS/StellarESDK-1.7.0/Modules/Drivers/Timers/HRTIM/src\hrtim.c ****                 hrtim_eecr2 |= (( ext_polarity << 12U) & HRTIM_EECR2_EE8POL);
 11624              		.loc 1 1965 48
 11625 0414 009B     		ldr	r3, [sp]
 11626 0416 1B03     		lsls	r3, r3, #12
 11627              		.loc 1 1965 56
 11628 0418 03F48043 		and	r3, r3, #16384
 11629              		.loc 1 1965 29
 11630 041c 069A     		ldr	r2, [sp, #24]
 11631 041e 1343     		orrs	r3, r3, r2
 11632 0420 0693     		str	r3, [sp, #24]
1966:C:/StellarStudio-7.0/SDKS/StellarESDK-1.7.0/Modules/Drivers/Timers/HRTIM/src\hrtim.c ****                 hrtim_eecr2 |= (( ext_sensitivity << 12U) & HRTIM_EECR2_EE8SNS);
 11633              		.loc 1 1966 51
 11634 0422 089B     		ldr	r3, [sp, #32]
 11635 0424 1B03     		lsls	r3, r3, #12
 11636              		.loc 1 1966 59
 11637 0426 03F4C033 		and	r3, r3, #98304
 11638              		.loc 1 1966 29
 11639 042a 069A     		ldr	r2, [sp, #24]
 11640 042c 1343     		orrs	r3, r3, r2
 11641 042e 0693     		str	r3, [sp, #24]
1967:C:/StellarStudio-7.0/SDKS/StellarESDK-1.7.0/Modules/Drivers/Timers/HRTIM/src\hrtim.c ****                 hrtim_eecr3 &= ~(HRTIM_EECR3_EE8F);
 11642              		.loc 1 1967 29
 11643 0430 059B     		ldr	r3, [sp, #20]
 11644 0432 23F47043 		bic	r3, r3, #61440
 11645 0436 0593     		str	r3, [sp, #20]
1968:C:/StellarStudio-7.0/SDKS/StellarESDK-1.7.0/Modules/Drivers/Timers/HRTIM/src\hrtim.c ****                 hrtim_eecr3 |= (( ext_filter << 12U) & HRTIM_EECR3_EE8F );
 11646              		.loc 1 1968 46
 11647 0438 099B     		ldr	r3, [sp, #36]
 11648 043a 1B03     		lsls	r3, r3, #12
 11649              		.loc 1 1968 54
 11650 043c 9BB2     		uxth	r3, r3
 11651              		.loc 1 1968 29
 11652 043e 059A     		ldr	r2, [sp, #20]
 11653 0440 1343     		orrs	r3, r3, r2
 11654 0442 0593     		str	r3, [sp, #20]
1969:C:/StellarStudio-7.0/SDKS/StellarESDK-1.7.0/Modules/Drivers/Timers/HRTIM/src\hrtim.c ****                 /* Update the HRTIM registers */
1970:C:/StellarStudio-7.0/SDKS/StellarESDK-1.7.0/Modules/Drivers/Timers/HRTIM/src\hrtim.c ****                 hdp->hrtim->sCommonRegs.EECR2 |= hrtim_eecr2;
 11655              		.loc 1 1970 20
 11656 0444 039B     		ldr	r3, [sp, #12]
 11657 0446 1B68     		ldr	r3, [r3]
 11658              		.loc 1 1970 47
 11659 0448 D3F8B413 		ldr	r1, [r3, #948]
 11660              		.loc 1 1970 20
 11661 044c 039B     		ldr	r3, [sp, #12]
 11662 044e 1B68     		ldr	r3, [r3]
 11663              		.loc 1 1970 47
 11664 0450 069A     		ldr	r2, [sp, #24]
 11665 0452 0A43     		orrs	r2, r2, r1
 11666 0454 C3F8B423 		str	r2, [r3, #948]
1971:C:/StellarStudio-7.0/SDKS/StellarESDK-1.7.0/Modules/Drivers/Timers/HRTIM/src\hrtim.c ****                 hdp->hrtim->sCommonRegs.EECR3 |= hrtim_eecr3;
 11667              		.loc 1 1971 20
 11668 0458 039B     		ldr	r3, [sp, #12]
 11669 045a 1B68     		ldr	r3, [r3]
 11670              		.loc 1 1971 47
 11671 045c D3F8B813 		ldr	r1, [r3, #952]
 11672              		.loc 1 1971 20
 11673 0460 039B     		ldr	r3, [sp, #12]
 11674 0462 1B68     		ldr	r3, [r3]
 11675              		.loc 1 1971 47
 11676 0464 059A     		ldr	r2, [sp, #20]
 11677 0466 0A43     		orrs	r2, r2, r1
 11678 0468 C3F8B823 		str	r2, [r3, #952]
1972:C:/StellarStudio-7.0/SDKS/StellarESDK-1.7.0/Modules/Drivers/Timers/HRTIM/src\hrtim.c ****                 break;
 11679              		.loc 1 1972 17
 11680 046c 74E0     		b	.L385
 11681              	.L389:
1973:C:/StellarStudio-7.0/SDKS/StellarESDK-1.7.0/Modules/Drivers/Timers/HRTIM/src\hrtim.c ****             case HRTIM_EVENT_9:
1974:C:/StellarStudio-7.0/SDKS/StellarESDK-1.7.0/Modules/Drivers/Timers/HRTIM/src\hrtim.c ****                 hrtim_eecr2 &= ~(HRTIM_EECR2_EE9SRC | HRTIM_EECR2_EE9POL | HRTIM_EECR2_EE9SNS);
 11682              		.loc 1 1974 29
 11683 046e 069B     		ldr	r3, [sp, #24]
 11684 0470 23F4F803 		bic	r3, r3, #8126464
 11685 0474 0693     		str	r3, [sp, #24]
1975:C:/StellarStudio-7.0/SDKS/StellarESDK-1.7.0/Modules/Drivers/Timers/HRTIM/src\hrtim.c ****                 hrtim_eecr2 |= (( ext_source << 18U) & HRTIM_EECR2_EE9SRC);
 11686              		.loc 1 1975 46
 11687 0476 019B     		ldr	r3, [sp, #4]
 11688 0478 9B04     		lsls	r3, r3, #18
 11689              		.loc 1 1975 54
 11690 047a 03F44023 		and	r3, r3, #786432
 11691              		.loc 1 1975 29
 11692 047e 069A     		ldr	r2, [sp, #24]
 11693 0480 1343     		orrs	r3, r3, r2
 11694 0482 0693     		str	r3, [sp, #24]
1976:C:/StellarStudio-7.0/SDKS/StellarESDK-1.7.0/Modules/Drivers/Timers/HRTIM/src\hrtim.c ****                 hrtim_eecr2 |= (( ext_polarity << 18U) & HRTIM_EECR2_EE9POL);
 11695              		.loc 1 1976 48
 11696 0484 009B     		ldr	r3, [sp]
 11697 0486 9B04     		lsls	r3, r3, #18
 11698              		.loc 1 1976 56
 11699 0488 03F48013 		and	r3, r3, #1048576
 11700              		.loc 1 1976 29
 11701 048c 069A     		ldr	r2, [sp, #24]
 11702 048e 1343     		orrs	r3, r3, r2
 11703 0490 0693     		str	r3, [sp, #24]
1977:C:/StellarStudio-7.0/SDKS/StellarESDK-1.7.0/Modules/Drivers/Timers/HRTIM/src\hrtim.c ****                 hrtim_eecr2 |= (( ext_sensitivity << 18U) & HRTIM_EECR2_EE9SNS);
 11704              		.loc 1 1977 51
 11705 0492 089B     		ldr	r3, [sp, #32]
 11706 0494 9B04     		lsls	r3, r3, #18
 11707              		.loc 1 1977 59
 11708 0496 03F4C003 		and	r3, r3, #6291456
 11709              		.loc 1 1977 29
 11710 049a 069A     		ldr	r2, [sp, #24]
 11711 049c 1343     		orrs	r3, r3, r2
 11712 049e 0693     		str	r3, [sp, #24]
1978:C:/StellarStudio-7.0/SDKS/StellarESDK-1.7.0/Modules/Drivers/Timers/HRTIM/src\hrtim.c ****                 hrtim_eecr3 &= ~(HRTIM_EECR3_EE9F);
 11713              		.loc 1 1978 29
 11714 04a0 059B     		ldr	r3, [sp, #20]
 11715 04a2 23F47013 		bic	r3, r3, #3932160
 11716 04a6 0593     		str	r3, [sp, #20]
1979:C:/StellarStudio-7.0/SDKS/StellarESDK-1.7.0/Modules/Drivers/Timers/HRTIM/src\hrtim.c ****                 hrtim_eecr3 |= (( ext_filter << 18U) & HRTIM_EECR3_EE9F);
 11717              		.loc 1 1979 46
 11718 04a8 099B     		ldr	r3, [sp, #36]
 11719 04aa 9B04     		lsls	r3, r3, #18
 11720              		.loc 1 1979 54
 11721 04ac 03F47013 		and	r3, r3, #3932160
 11722              		.loc 1 1979 29
 11723 04b0 059A     		ldr	r2, [sp, #20]
 11724 04b2 1343     		orrs	r3, r3, r2
 11725 04b4 0593     		str	r3, [sp, #20]
1980:C:/StellarStudio-7.0/SDKS/StellarESDK-1.7.0/Modules/Drivers/Timers/HRTIM/src\hrtim.c ****                 /* Update the HRTIM registers */
1981:C:/StellarStudio-7.0/SDKS/StellarESDK-1.7.0/Modules/Drivers/Timers/HRTIM/src\hrtim.c ****                 hdp->hrtim->sCommonRegs.EECR2 |= hrtim_eecr2;
 11726              		.loc 1 1981 20
 11727 04b6 039B     		ldr	r3, [sp, #12]
 11728 04b8 1B68     		ldr	r3, [r3]
 11729              		.loc 1 1981 47
 11730 04ba D3F8B413 		ldr	r1, [r3, #948]
 11731              		.loc 1 1981 20
 11732 04be 039B     		ldr	r3, [sp, #12]
 11733 04c0 1B68     		ldr	r3, [r3]
 11734              		.loc 1 1981 47
 11735 04c2 069A     		ldr	r2, [sp, #24]
 11736 04c4 0A43     		orrs	r2, r2, r1
 11737 04c6 C3F8B423 		str	r2, [r3, #948]
1982:C:/StellarStudio-7.0/SDKS/StellarESDK-1.7.0/Modules/Drivers/Timers/HRTIM/src\hrtim.c ****                 hdp->hrtim->sCommonRegs.EECR3 |= hrtim_eecr3;
 11738              		.loc 1 1982 20
 11739 04ca 039B     		ldr	r3, [sp, #12]
 11740 04cc 1B68     		ldr	r3, [r3]
 11741              		.loc 1 1982 47
 11742 04ce D3F8B813 		ldr	r1, [r3, #952]
 11743              		.loc 1 1982 20
 11744 04d2 039B     		ldr	r3, [sp, #12]
 11745 04d4 1B68     		ldr	r3, [r3]
 11746              		.loc 1 1982 47
 11747 04d6 059A     		ldr	r2, [sp, #20]
 11748 04d8 0A43     		orrs	r2, r2, r1
 11749 04da C3F8B823 		str	r2, [r3, #952]
1983:C:/StellarStudio-7.0/SDKS/StellarESDK-1.7.0/Modules/Drivers/Timers/HRTIM/src\hrtim.c ****                 break;
 11750              		.loc 1 1983 17
 11751 04de 3BE0     		b	.L385
 11752              	.L387:
1984:C:/StellarStudio-7.0/SDKS/StellarESDK-1.7.0/Modules/Drivers/Timers/HRTIM/src\hrtim.c ****             case HRTIM_EVENT_10:
1985:C:/StellarStudio-7.0/SDKS/StellarESDK-1.7.0/Modules/Drivers/Timers/HRTIM/src\hrtim.c ****                 hrtim_eecr2 &= ~(HRTIM_EECR2_EE10SRC | HRTIM_EECR2_EE10POL | HRTIM_EECR2_EE10SNS);
 11753              		.loc 1 1985 29
 11754 04e0 069B     		ldr	r3, [sp, #24]
 11755 04e2 23F0F853 		bic	r3, r3, #520093696
 11756 04e6 0693     		str	r3, [sp, #24]
1986:C:/StellarStudio-7.0/SDKS/StellarESDK-1.7.0/Modules/Drivers/Timers/HRTIM/src\hrtim.c ****                 hrtim_eecr2 |= (( ext_source << 24U) & HRTIM_EECR2_EE10SRC);
 11757              		.loc 1 1986 46
 11758 04e8 019B     		ldr	r3, [sp, #4]
 11759 04ea 1B06     		lsls	r3, r3, #24
 11760              		.loc 1 1986 54
 11761 04ec 03F04073 		and	r3, r3, #50331648
 11762              		.loc 1 1986 29
 11763 04f0 069A     		ldr	r2, [sp, #24]
 11764 04f2 1343     		orrs	r3, r3, r2
 11765 04f4 0693     		str	r3, [sp, #24]
1987:C:/StellarStudio-7.0/SDKS/StellarESDK-1.7.0/Modules/Drivers/Timers/HRTIM/src\hrtim.c ****                 hrtim_eecr2 |= (( ext_polarity << 24U) & HRTIM_EECR2_EE10POL);
 11766              		.loc 1 1987 48
 11767 04f6 009B     		ldr	r3, [sp]
 11768 04f8 1B06     		lsls	r3, r3, #24
 11769              		.loc 1 1987 56
 11770 04fa 03F08063 		and	r3, r3, #67108864
 11771              		.loc 1 1987 29
 11772 04fe 069A     		ldr	r2, [sp, #24]
 11773 0500 1343     		orrs	r3, r3, r2
 11774 0502 0693     		str	r3, [sp, #24]
1988:C:/StellarStudio-7.0/SDKS/StellarESDK-1.7.0/Modules/Drivers/Timers/HRTIM/src\hrtim.c ****                 hrtim_eecr2 |= (( ext_sensitivity << 24U) & HRTIM_EECR2_EE10SNS);
 11775              		.loc 1 1988 51
 11776 0504 089B     		ldr	r3, [sp, #32]
 11777 0506 1B06     		lsls	r3, r3, #24
 11778              		.loc 1 1988 59
 11779 0508 03F0C053 		and	r3, r3, #402653184
 11780              		.loc 1 1988 29
 11781 050c 069A     		ldr	r2, [sp, #24]
 11782 050e 1343     		orrs	r3, r3, r2
 11783 0510 0693     		str	r3, [sp, #24]
1989:C:/StellarStudio-7.0/SDKS/StellarESDK-1.7.0/Modules/Drivers/Timers/HRTIM/src\hrtim.c ****                 hrtim_eecr3 &= ~(HRTIM_EECR3_EE10F);
 11784              		.loc 1 1989 29
 11785 0512 059B     		ldr	r3, [sp, #20]
 11786 0514 23F07063 		bic	r3, r3, #251658240
 11787 0518 0593     		str	r3, [sp, #20]
1990:C:/StellarStudio-7.0/SDKS/StellarESDK-1.7.0/Modules/Drivers/Timers/HRTIM/src\hrtim.c ****                 hrtim_eecr3 |= (( ext_filter << 24U) & HRTIM_EECR3_EE10F);
 11788              		.loc 1 1990 46
 11789 051a 099B     		ldr	r3, [sp, #36]
 11790 051c 1B06     		lsls	r3, r3, #24
 11791              		.loc 1 1990 54
 11792 051e 03F07063 		and	r3, r3, #251658240
 11793              		.loc 1 1990 29
 11794 0522 059A     		ldr	r2, [sp, #20]
 11795 0524 1343     		orrs	r3, r3, r2
 11796 0526 0593     		str	r3, [sp, #20]
1991:C:/StellarStudio-7.0/SDKS/StellarESDK-1.7.0/Modules/Drivers/Timers/HRTIM/src\hrtim.c ****                 /* Update the HRTIM registers */
1992:C:/StellarStudio-7.0/SDKS/StellarESDK-1.7.0/Modules/Drivers/Timers/HRTIM/src\hrtim.c ****                 hdp->hrtim->sCommonRegs.EECR2 |= hrtim_eecr2;
 11797              		.loc 1 1992 20
 11798 0528 039B     		ldr	r3, [sp, #12]
 11799 052a 1B68     		ldr	r3, [r3]
 11800              		.loc 1 1992 47
 11801 052c D3F8B413 		ldr	r1, [r3, #948]
 11802              		.loc 1 1992 20
 11803 0530 039B     		ldr	r3, [sp, #12]
 11804 0532 1B68     		ldr	r3, [r3]
 11805              		.loc 1 1992 47
 11806 0534 069A     		ldr	r2, [sp, #24]
 11807 0536 0A43     		orrs	r2, r2, r1
 11808 0538 C3F8B423 		str	r2, [r3, #948]
1993:C:/StellarStudio-7.0/SDKS/StellarESDK-1.7.0/Modules/Drivers/Timers/HRTIM/src\hrtim.c ****                 hdp->hrtim->sCommonRegs.EECR3 |= hrtim_eecr3;
 11809              		.loc 1 1993 20
 11810 053c 039B     		ldr	r3, [sp, #12]
 11811 053e 1B68     		ldr	r3, [r3]
 11812              		.loc 1 1993 47
 11813 0540 D3F8B813 		ldr	r1, [r3, #952]
 11814              		.loc 1 1993 20
 11815 0544 039B     		ldr	r3, [sp, #12]
 11816 0546 1B68     		ldr	r3, [r3]
 11817              		.loc 1 1993 47
 11818 0548 059A     		ldr	r2, [sp, #20]
 11819 054a 0A43     		orrs	r2, r2, r1
 11820 054c C3F8B823 		str	r2, [r3, #952]
1994:C:/StellarStudio-7.0/SDKS/StellarESDK-1.7.0/Modules/Drivers/Timers/HRTIM/src\hrtim.c ****                 break;
 11821              		.loc 1 1994 17
 11822 0550 02E0     		b	.L385
 11823              	.L399:
1995:C:/StellarStudio-7.0/SDKS/StellarESDK-1.7.0/Modules/Drivers/Timers/HRTIM/src\hrtim.c ****             default:
1996:C:/StellarStudio-7.0/SDKS/StellarESDK-1.7.0/Modules/Drivers/Timers/HRTIM/src\hrtim.c ****                 /* for MISRA compliance */
1997:C:/StellarStudio-7.0/SDKS/StellarESDK-1.7.0/Modules/Drivers/Timers/HRTIM/src\hrtim.c ****                 break;
1998:C:/StellarStudio-7.0/SDKS/StellarESDK-1.7.0/Modules/Drivers/Timers/HRTIM/src\hrtim.c ****         }
1999:C:/StellarStudio-7.0/SDKS/StellarESDK-1.7.0/Modules/Drivers/Timers/HRTIM/src\hrtim.c ****     }
 11824              		.loc 1 1999 5
 11825 0552 00BF     		nop
 11826 0554 00E0     		b	.L401
 11827              	.L400:
1997:C:/StellarStudio-7.0/SDKS/StellarESDK-1.7.0/Modules/Drivers/Timers/HRTIM/src\hrtim.c ****         }
 11828              		.loc 1 1997 17
 11829 0556 00BF     		nop
 11830              	.L385:
 11831              	.L401:
2000:C:/StellarStudio-7.0/SDKS/StellarESDK-1.7.0/Modules/Drivers/Timers/HRTIM/src\hrtim.c **** }
 11832              		.loc 1 2000 1
 11833 0558 00BF     		nop
 11834 055a 08B0     		add	sp, sp, #32
 11835              		.cfi_def_cfa_offset 0
 11836              		@ sp needed
 11837 055c 7047     		bx	lr
 11838              		.cfi_endproc
 11839              	.LFE196:
 11841 055e 00BF     		.section	.text.hrtim_set_event_prescaler,"ax",%progbits
 11842              		.align	1
 11843              		.p2align 4,,15
 11844              		.global	hrtim_set_event_prescaler
 11845              		.syntax unified
 11846              		.thumb
 11847              		.thumb_func
 11849              	hrtim_set_event_prescaler:
 11850              	.LFB197:
2001:C:/StellarStudio-7.0/SDKS/StellarESDK-1.7.0/Modules/Drivers/Timers/HRTIM/src\hrtim.c **** 
2002:C:/StellarStudio-7.0/SDKS/StellarESDK-1.7.0/Modules/Drivers/Timers/HRTIM/src\hrtim.c **** hrtim_eev_prsc_t hrtim_set_event_prescaler(hrtim_driver_t *hdp,
2003:C:/StellarStudio-7.0/SDKS/StellarESDK-1.7.0/Modules/Drivers/Timers/HRTIM/src\hrtim.c ****                                            hrtim_eev_prsc_t eev_prsc) {
 11851              		.loc 1 2003 71
 11852              		.cfi_startproc
 11853              		@ args = 0, pretend = 0, frame = 16
 11854              		@ frame_needed = 0, uses_anonymous_args = 0
 11855              		@ link register save eliminated.
 11856 0000 84B0     		sub	sp, sp, #16
 11857              		.cfi_def_cfa_offset 16
 11858 0002 0190     		str	r0, [sp, #4]
 11859 0004 0B46     		mov	r3, r1
 11860 0006 8DF80330 		strb	r3, [sp, #3]
2004:C:/StellarStudio-7.0/SDKS/StellarESDK-1.7.0/Modules/Drivers/Timers/HRTIM/src\hrtim.c ****     hrtim_eev_prsc_t prev_prescaler;
2005:C:/StellarStudio-7.0/SDKS/StellarESDK-1.7.0/Modules/Drivers/Timers/HRTIM/src\hrtim.c **** 
2006:C:/StellarStudio-7.0/SDKS/StellarESDK-1.7.0/Modules/Drivers/Timers/HRTIM/src\hrtim.c ****     prev_prescaler = hdp->eev_prescaler;
 11861              		.loc 1 2006 20
 11862 000a 019B     		ldr	r3, [sp, #4]
 11863 000c 93F8E039 		ldrb	r3, [r3, #2528]
 11864 0010 8DF80F30 		strb	r3, [sp, #15]
2007:C:/StellarStudio-7.0/SDKS/StellarESDK-1.7.0/Modules/Drivers/Timers/HRTIM/src\hrtim.c ****     hdp->eev_prescaler = eev_prsc;
 11865              		.loc 1 2007 24
 11866 0014 019B     		ldr	r3, [sp, #4]
 11867 0016 9DF80320 		ldrb	r2, [sp, #3]
 11868 001a 83F8E029 		strb	r2, [r3, #2528]
2008:C:/StellarStudio-7.0/SDKS/StellarESDK-1.7.0/Modules/Drivers/Timers/HRTIM/src\hrtim.c **** 
2009:C:/StellarStudio-7.0/SDKS/StellarESDK-1.7.0/Modules/Drivers/Timers/HRTIM/src\hrtim.c ****     return prev_prescaler;
 11869              		.loc 1 2009 12
 11870 001e 9DF80F30 		ldrb	r3, [sp, #15]	@ zero_extendqisi2
2010:C:/StellarStudio-7.0/SDKS/StellarESDK-1.7.0/Modules/Drivers/Timers/HRTIM/src\hrtim.c **** }
 11871              		.loc 1 2010 1
 11872 0022 1846     		mov	r0, r3
 11873 0024 04B0     		add	sp, sp, #16
 11874              		.cfi_def_cfa_offset 0
 11875              		@ sp needed
 11876 0026 7047     		bx	lr
 11877              		.cfi_endproc
 11878              	.LFE197:
 11880              		.section	.text.hrtim_timer_set_eev_filtering,"ax",%progbits
 11881              		.align	1
 11882              		.p2align 4,,15
 11883              		.global	hrtim_timer_set_eev_filtering
 11884              		.syntax unified
 11885              		.thumb
 11886              		.thumb_func
 11888              	hrtim_timer_set_eev_filtering:
 11889              	.LFB198:
2011:C:/StellarStudio-7.0/SDKS/StellarESDK-1.7.0/Modules/Drivers/Timers/HRTIM/src\hrtim.c **** 
2012:C:/StellarStudio-7.0/SDKS/StellarESDK-1.7.0/Modules/Drivers/Timers/HRTIM/src\hrtim.c **** void hrtim_timer_set_eev_filtering(hrtim_driver_t *hdp,
2013:C:/StellarStudio-7.0/SDKS/StellarESDK-1.7.0/Modules/Drivers/Timers/HRTIM/src\hrtim.c ****                                    hrtim_timer_t timer,
2014:C:/StellarStudio-7.0/SDKS/StellarESDK-1.7.0/Modules/Drivers/Timers/HRTIM/src\hrtim.c ****                                    uint8_t eev_idx,
2015:C:/StellarStudio-7.0/SDKS/StellarESDK-1.7.0/Modules/Drivers/Timers/HRTIM/src\hrtim.c ****                                    uint32_t filter, 
2016:C:/StellarStudio-7.0/SDKS/StellarESDK-1.7.0/Modules/Drivers/Timers/HRTIM/src\hrtim.c ****                                    uint32_t latch) {
 11890              		.loc 1 2016 52
 11891              		.cfi_startproc
 11892              		@ args = 4, pretend = 0, frame = 16
 11893              		@ frame_needed = 0, uses_anonymous_args = 0
 11894              		@ link register save eliminated.
 11895 0000 84B0     		sub	sp, sp, #16
 11896              		.cfi_def_cfa_offset 16
 11897 0002 0390     		str	r0, [sp, #12]
 11898 0004 0193     		str	r3, [sp, #4]
 11899 0006 0B46     		mov	r3, r1
 11900 0008 8DF80B30 		strb	r3, [sp, #11]
 11901 000c 1346     		mov	r3, r2
 11902 000e 8DF80A30 		strb	r3, [sp, #10]
2017:C:/StellarStudio-7.0/SDKS/StellarESDK-1.7.0/Modules/Drivers/Timers/HRTIM/src\hrtim.c **** 
2018:C:/StellarStudio-7.0/SDKS/StellarESDK-1.7.0/Modules/Drivers/Timers/HRTIM/src\hrtim.c ****     hdp->timer_eev_filter[timer][eev_idx - 1U].filter = (uint32_t)(filter);
 11903              		.loc 1 2018 47
 11904 0012 9DF80B20 		ldrb	r2, [sp, #11]	@ zero_extendqisi2
 11905              		.loc 1 2018 42
 11906 0016 9DF80A30 		ldrb	r3, [sp, #10]	@ zero_extendqisi2
 11907 001a 581E     		subs	r0, r3, #1
 11908              		.loc 1 2018 55
 11909 001c 0399     		ldr	r1, [sp, #12]
 11910 001e 1346     		mov	r3, r2
 11911 0020 9B00     		lsls	r3, r3, #2
 11912 0022 1344     		add	r3, r3, r2
 11913 0024 5B00     		lsls	r3, r3, #1
 11914 0026 0344     		add	r3, r3, r0
 11915 0028 03F58073 		add	r3, r3, #256
 11916 002c 019A     		ldr	r2, [sp, #4]
 11917 002e 41F83320 		str	r2, [r1, r3, lsl #3]
2019:C:/StellarStudio-7.0/SDKS/StellarESDK-1.7.0/Modules/Drivers/Timers/HRTIM/src\hrtim.c ****     hdp->timer_eev_filter[timer][eev_idx - 1U].latch  = (uint32_t)(latch);
 11918              		.loc 1 2019 47
 11919 0032 9DF80B20 		ldrb	r2, [sp, #11]	@ zero_extendqisi2
 11920              		.loc 1 2019 42
 11921 0036 9DF80A30 		ldrb	r3, [sp, #10]	@ zero_extendqisi2
 11922 003a 581E     		subs	r0, r3, #1
 11923              		.loc 1 2019 55
 11924 003c 0399     		ldr	r1, [sp, #12]
 11925 003e 1346     		mov	r3, r2
 11926 0040 9B00     		lsls	r3, r3, #2
 11927 0042 1344     		add	r3, r3, r2
 11928 0044 5B00     		lsls	r3, r3, #1
 11929 0046 0344     		add	r3, r3, r0
 11930 0048 03F58073 		add	r3, r3, #256
 11931 004c DB00     		lsls	r3, r3, #3
 11932 004e 0B44     		add	r3, r3, r1
 11933 0050 049A     		ldr	r2, [sp, #16]
 11934 0052 5A60     		str	r2, [r3, #4]
2020:C:/StellarStudio-7.0/SDKS/StellarESDK-1.7.0/Modules/Drivers/Timers/HRTIM/src\hrtim.c **** }
 11935              		.loc 1 2020 1
 11936 0054 00BF     		nop
 11937 0056 04B0     		add	sp, sp, #16
 11938              		.cfi_def_cfa_offset 0
 11939              		@ sp needed
 11940 0058 7047     		bx	lr
 11941              		.cfi_endproc
 11942              	.LFE198:
 11944 005a 00BF     		.section	.text.hrtim_ext_even_counter_cfg,"ax",%progbits
 11945              		.align	1
 11946              		.p2align 4,,15
 11947              		.global	hrtim_ext_even_counter_cfg
 11948              		.syntax unified
 11949              		.thumb
 11950              		.thumb_func
 11952              	hrtim_ext_even_counter_cfg:
 11953              	.LFB199:
2021:C:/StellarStudio-7.0/SDKS/StellarESDK-1.7.0/Modules/Drivers/Timers/HRTIM/src\hrtim.c **** 
2022:C:/StellarStudio-7.0/SDKS/StellarESDK-1.7.0/Modules/Drivers/Timers/HRTIM/src\hrtim.c **** void hrtim_ext_even_counter_cfg(hrtim_driver_t *hdp,
2023:C:/StellarStudio-7.0/SDKS/StellarESDK-1.7.0/Modules/Drivers/Timers/HRTIM/src\hrtim.c ****                                 hrtim_timer_t timer,
2024:C:/StellarStudio-7.0/SDKS/StellarESDK-1.7.0/Modules/Drivers/Timers/HRTIM/src\hrtim.c ****                                 uint8_t eev_idx,
2025:C:/StellarStudio-7.0/SDKS/StellarESDK-1.7.0/Modules/Drivers/Timers/HRTIM/src\hrtim.c ****                                 uint32_t reset_mode,
2026:C:/StellarStudio-7.0/SDKS/StellarESDK-1.7.0/Modules/Drivers/Timers/HRTIM/src\hrtim.c ****                                 uint32_t source,
2027:C:/StellarStudio-7.0/SDKS/StellarESDK-1.7.0/Modules/Drivers/Timers/HRTIM/src\hrtim.c ****                                 uint32_t counter) {
 11954              		.loc 1 2027 51
 11955              		.cfi_startproc
 11956              		@ args = 8, pretend = 0, frame = 16
 11957              		@ frame_needed = 0, uses_anonymous_args = 0
 11958              		@ link register save eliminated.
 11959 0000 84B0     		sub	sp, sp, #16
 11960              		.cfi_def_cfa_offset 16
 11961 0002 0390     		str	r0, [sp, #12]
 11962 0004 0193     		str	r3, [sp, #4]
 11963 0006 0B46     		mov	r3, r1
 11964 0008 8DF80B30 		strb	r3, [sp, #11]
 11965 000c 1346     		mov	r3, r2
 11966 000e 8DF80A30 		strb	r3, [sp, #10]
2028:C:/StellarStudio-7.0/SDKS/StellarESDK-1.7.0/Modules/Drivers/Timers/HRTIM/src\hrtim.c **** 
2029:C:/StellarStudio-7.0/SDKS/StellarESDK-1.7.0/Modules/Drivers/Timers/HRTIM/src\hrtim.c ****    hdp->eev_counter[timer][eev_idx - 1U].reset_mode = reset_mode;
 11967              		.loc 1 2029 41
 11968 0012 9DF80B10 		ldrb	r1, [sp, #11]	@ zero_extendqisi2
 11969              		.loc 1 2029 36
 11970 0016 9DF80A30 		ldrb	r3, [sp, #10]	@ zero_extendqisi2
 11971 001a 013B     		subs	r3, r3, #1
 11972              		.loc 1 2029 53
 11973 001c 0398     		ldr	r0, [sp, #12]
 11974 001e 1A46     		mov	r2, r3
 11975 0020 5200     		lsls	r2, r2, #1
 11976 0022 1A44     		add	r2, r2, r3
 11977 0024 9300     		lsls	r3, r2, #2
 11978 0026 1A46     		mov	r2, r3
 11979 0028 0B46     		mov	r3, r1
 11980 002a 1B01     		lsls	r3, r3, #4
 11981 002c 5B1A     		subs	r3, r3, r1
 11982 002e DB00     		lsls	r3, r3, #3
 11983 0030 1344     		add	r3, r3, r2
 11984 0032 0344     		add	r3, r3, r0
 11985 0034 03F5A663 		add	r3, r3, #1328
 11986 0038 019A     		ldr	r2, [sp, #4]
 11987 003a 1A60     		str	r2, [r3]
2030:C:/StellarStudio-7.0/SDKS/StellarESDK-1.7.0/Modules/Drivers/Timers/HRTIM/src\hrtim.c ****    hdp->eev_counter[timer][eev_idx - 1U].source = source;
 11988              		.loc 1 2030 41
 11989 003c 9DF80B10 		ldrb	r1, [sp, #11]	@ zero_extendqisi2
 11990              		.loc 1 2030 36
 11991 0040 9DF80A30 		ldrb	r3, [sp, #10]	@ zero_extendqisi2
 11992 0044 013B     		subs	r3, r3, #1
 11993              		.loc 1 2030 49
 11994 0046 0398     		ldr	r0, [sp, #12]
 11995 0048 1A46     		mov	r2, r3
 11996 004a 5200     		lsls	r2, r2, #1
 11997 004c 1A44     		add	r2, r2, r3
 11998 004e 9300     		lsls	r3, r2, #2
 11999 0050 1A46     		mov	r2, r3
 12000 0052 0B46     		mov	r3, r1
 12001 0054 1B01     		lsls	r3, r3, #4
 12002 0056 5B1A     		subs	r3, r3, r1
 12003 0058 DB00     		lsls	r3, r3, #3
 12004 005a 1344     		add	r3, r3, r2
 12005 005c 0344     		add	r3, r3, r0
 12006 005e 03F23453 		addw	r3, r3, #1332
 12007 0062 049A     		ldr	r2, [sp, #16]
 12008 0064 1A60     		str	r2, [r3]
2031:C:/StellarStudio-7.0/SDKS/StellarESDK-1.7.0/Modules/Drivers/Timers/HRTIM/src\hrtim.c ****    hdp->eev_counter[timer][eev_idx - 1U].counter = counter;
 12009              		.loc 1 2031 41
 12010 0066 9DF80B10 		ldrb	r1, [sp, #11]	@ zero_extendqisi2
 12011              		.loc 1 2031 36
 12012 006a 9DF80A30 		ldrb	r3, [sp, #10]	@ zero_extendqisi2
 12013 006e 013B     		subs	r3, r3, #1
 12014              		.loc 1 2031 50
 12015 0070 0398     		ldr	r0, [sp, #12]
 12016 0072 1A46     		mov	r2, r3
 12017 0074 5200     		lsls	r2, r2, #1
 12018 0076 1A44     		add	r2, r2, r3
 12019 0078 9300     		lsls	r3, r2, #2
 12020 007a 1A46     		mov	r2, r3
 12021 007c 0B46     		mov	r3, r1
 12022 007e 1B01     		lsls	r3, r3, #4
 12023 0080 5B1A     		subs	r3, r3, r1
 12024 0082 DB00     		lsls	r3, r3, #3
 12025 0084 1344     		add	r3, r3, r2
 12026 0086 0344     		add	r3, r3, r0
 12027 0088 03F5A763 		add	r3, r3, #1336
 12028 008c 059A     		ldr	r2, [sp, #20]
 12029 008e 1A60     		str	r2, [r3]
2032:C:/StellarStudio-7.0/SDKS/StellarESDK-1.7.0/Modules/Drivers/Timers/HRTIM/src\hrtim.c **** }
 12030              		.loc 1 2032 1
 12031 0090 00BF     		nop
 12032 0092 04B0     		add	sp, sp, #16
 12033              		.cfi_def_cfa_offset 0
 12034              		@ sp needed
 12035 0094 7047     		bx	lr
 12036              		.cfi_endproc
 12037              	.LFE199:
 12039              		.section	.text.hrtim_timer_eev_counter_enable,"ax",%progbits
 12040              		.align	1
 12041              		.p2align 4,,15
 12042              		.global	hrtim_timer_eev_counter_enable
 12043              		.syntax unified
 12044              		.thumb
 12045              		.thumb_func
 12047              	hrtim_timer_eev_counter_enable:
 12048              	.LFB200:
2033:C:/StellarStudio-7.0/SDKS/StellarESDK-1.7.0/Modules/Drivers/Timers/HRTIM/src\hrtim.c **** 
2034:C:/StellarStudio-7.0/SDKS/StellarESDK-1.7.0/Modules/Drivers/Timers/HRTIM/src\hrtim.c **** void hrtim_timer_eev_counter_enable(hrtim_driver_t *hdp, hrtim_timer_t timer) {
 12049              		.loc 1 2034 79
 12050              		.cfi_startproc
 12051              		@ args = 0, pretend = 0, frame = 8
 12052              		@ frame_needed = 0, uses_anonymous_args = 0
 12053              		@ link register save eliminated.
 12054 0000 82B0     		sub	sp, sp, #8
 12055              		.cfi_def_cfa_offset 8
 12056 0002 0190     		str	r0, [sp, #4]
 12057 0004 0B46     		mov	r3, r1
 12058 0006 8DF80330 		strb	r3, [sp, #3]
2035:C:/StellarStudio-7.0/SDKS/StellarESDK-1.7.0/Modules/Drivers/Timers/HRTIM/src\hrtim.c **** 
2036:C:/StellarStudio-7.0/SDKS/StellarESDK-1.7.0/Modules/Drivers/Timers/HRTIM/src\hrtim.c ****     if (hdp->is_enable == true) {
 12059              		.loc 1 2036 12
 12060 000a 019B     		ldr	r3, [sp, #4]
 12061 000c 1B79     		ldrb	r3, [r3, #4]	@ zero_extendqisi2
 12062              		.loc 1 2036 8
 12063 000e 002B     		cmp	r3, #0
 12064 0010 11D0     		beq	.L408
2037:C:/StellarStudio-7.0/SDKS/StellarESDK-1.7.0/Modules/Drivers/Timers/HRTIM/src\hrtim.c ****         hdp->hrtim->sTimerxRegs[timer].EEFxR3 |= HRTIM_EEFxR3_EEVACE;
 12065              		.loc 1 2037 12
 12066 0012 019B     		ldr	r3, [sp, #4]
 12067 0014 1A68     		ldr	r2, [r3]
 12068              		.loc 1 2037 47
 12069 0016 9DF80330 		ldrb	r3, [sp, #3]	@ zero_extendqisi2
 12070 001a DB01     		lsls	r3, r3, #7
 12071 001c 1344     		add	r3, r3, r2
 12072 001e F033     		adds	r3, r3, #240
 12073 0020 1A68     		ldr	r2, [r3]
 12074              		.loc 1 2037 12
 12075 0022 019B     		ldr	r3, [sp, #4]
 12076 0024 1968     		ldr	r1, [r3]
 12077              		.loc 1 2037 47
 12078 0026 9DF80330 		ldrb	r3, [sp, #3]	@ zero_extendqisi2
 12079 002a 42F00102 		orr	r2, r2, #1
 12080 002e DB01     		lsls	r3, r3, #7
 12081 0030 0B44     		add	r3, r3, r1
 12082 0032 F033     		adds	r3, r3, #240
 12083 0034 1A60     		str	r2, [r3]
 12084              	.L408:
2038:C:/StellarStudio-7.0/SDKS/StellarESDK-1.7.0/Modules/Drivers/Timers/HRTIM/src\hrtim.c ****     }
2039:C:/StellarStudio-7.0/SDKS/StellarESDK-1.7.0/Modules/Drivers/Timers/HRTIM/src\hrtim.c **** }
 12085              		.loc 1 2039 1
 12086 0036 00BF     		nop
 12087 0038 02B0     		add	sp, sp, #8
 12088              		.cfi_def_cfa_offset 0
 12089              		@ sp needed
 12090 003a 7047     		bx	lr
 12091              		.cfi_endproc
 12092              	.LFE200:
 12094              		.section	.text.hrtim_timer_eev_counter_disable,"ax",%progbits
 12095              		.align	1
 12096              		.p2align 4,,15
 12097              		.global	hrtim_timer_eev_counter_disable
 12098              		.syntax unified
 12099              		.thumb
 12100              		.thumb_func
 12102              	hrtim_timer_eev_counter_disable:
 12103              	.LFB201:
2040:C:/StellarStudio-7.0/SDKS/StellarESDK-1.7.0/Modules/Drivers/Timers/HRTIM/src\hrtim.c **** 
2041:C:/StellarStudio-7.0/SDKS/StellarESDK-1.7.0/Modules/Drivers/Timers/HRTIM/src\hrtim.c **** void hrtim_timer_eev_counter_disable(hrtim_driver_t *hdp, hrtim_timer_t timer) {
 12104              		.loc 1 2041 80
 12105              		.cfi_startproc
 12106              		@ args = 0, pretend = 0, frame = 8
 12107              		@ frame_needed = 0, uses_anonymous_args = 0
 12108              		@ link register save eliminated.
 12109 0000 82B0     		sub	sp, sp, #8
 12110              		.cfi_def_cfa_offset 8
 12111 0002 0190     		str	r0, [sp, #4]
 12112 0004 0B46     		mov	r3, r1
 12113 0006 8DF80330 		strb	r3, [sp, #3]
2042:C:/StellarStudio-7.0/SDKS/StellarESDK-1.7.0/Modules/Drivers/Timers/HRTIM/src\hrtim.c **** 
2043:C:/StellarStudio-7.0/SDKS/StellarESDK-1.7.0/Modules/Drivers/Timers/HRTIM/src\hrtim.c ****     if (hdp->is_enable == true) {
 12114              		.loc 1 2043 12
 12115 000a 019B     		ldr	r3, [sp, #4]
 12116 000c 1B79     		ldrb	r3, [r3, #4]	@ zero_extendqisi2
 12117              		.loc 1 2043 8
 12118 000e 002B     		cmp	r3, #0
 12119 0010 11D0     		beq	.L411
2044:C:/StellarStudio-7.0/SDKS/StellarESDK-1.7.0/Modules/Drivers/Timers/HRTIM/src\hrtim.c ****         hdp->hrtim->sTimerxRegs[timer].EEFxR3 &= ~HRTIM_EEFxR3_EEVACE;
 12120              		.loc 1 2044 12
 12121 0012 019B     		ldr	r3, [sp, #4]
 12122 0014 1A68     		ldr	r2, [r3]
 12123              		.loc 1 2044 47
 12124 0016 9DF80330 		ldrb	r3, [sp, #3]	@ zero_extendqisi2
 12125 001a DB01     		lsls	r3, r3, #7
 12126 001c 1344     		add	r3, r3, r2
 12127 001e F033     		adds	r3, r3, #240
 12128 0020 1A68     		ldr	r2, [r3]
 12129              		.loc 1 2044 12
 12130 0022 019B     		ldr	r3, [sp, #4]
 12131 0024 1968     		ldr	r1, [r3]
 12132              		.loc 1 2044 47
 12133 0026 9DF80330 		ldrb	r3, [sp, #3]	@ zero_extendqisi2
 12134 002a 22F00102 		bic	r2, r2, #1
 12135 002e DB01     		lsls	r3, r3, #7
 12136 0030 0B44     		add	r3, r3, r1
 12137 0032 F033     		adds	r3, r3, #240
 12138 0034 1A60     		str	r2, [r3]
 12139              	.L411:
2045:C:/StellarStudio-7.0/SDKS/StellarESDK-1.7.0/Modules/Drivers/Timers/HRTIM/src\hrtim.c ****     }
2046:C:/StellarStudio-7.0/SDKS/StellarESDK-1.7.0/Modules/Drivers/Timers/HRTIM/src\hrtim.c **** }
 12140              		.loc 1 2046 1
 12141 0036 00BF     		nop
 12142 0038 02B0     		add	sp, sp, #8
 12143              		.cfi_def_cfa_offset 0
 12144              		@ sp needed
 12145 003a 7047     		bx	lr
 12146              		.cfi_endproc
 12147              	.LFE201:
 12149              		.section	.text.hrtim_timer_eev_counter_reset,"ax",%progbits
 12150              		.align	1
 12151              		.p2align 4,,15
 12152              		.global	hrtim_timer_eev_counter_reset
 12153              		.syntax unified
 12154              		.thumb
 12155              		.thumb_func
 12157              	hrtim_timer_eev_counter_reset:
 12158              	.LFB202:
2047:C:/StellarStudio-7.0/SDKS/StellarESDK-1.7.0/Modules/Drivers/Timers/HRTIM/src\hrtim.c **** 
2048:C:/StellarStudio-7.0/SDKS/StellarESDK-1.7.0/Modules/Drivers/Timers/HRTIM/src\hrtim.c **** void hrtim_timer_eev_counter_reset(hrtim_driver_t *hdp, hrtim_timer_t timer) {
 12159              		.loc 1 2048 78
 12160              		.cfi_startproc
 12161              		@ args = 0, pretend = 0, frame = 8
 12162              		@ frame_needed = 0, uses_anonymous_args = 0
 12163              		@ link register save eliminated.
 12164 0000 82B0     		sub	sp, sp, #8
 12165              		.cfi_def_cfa_offset 8
 12166 0002 0190     		str	r0, [sp, #4]
 12167 0004 0B46     		mov	r3, r1
 12168 0006 8DF80330 		strb	r3, [sp, #3]
2049:C:/StellarStudio-7.0/SDKS/StellarESDK-1.7.0/Modules/Drivers/Timers/HRTIM/src\hrtim.c **** 
2050:C:/StellarStudio-7.0/SDKS/StellarESDK-1.7.0/Modules/Drivers/Timers/HRTIM/src\hrtim.c ****     if (hdp->is_enable == true) {
 12169              		.loc 1 2050 12
 12170 000a 019B     		ldr	r3, [sp, #4]
 12171 000c 1B79     		ldrb	r3, [r3, #4]	@ zero_extendqisi2
 12172              		.loc 1 2050 8
 12173 000e 002B     		cmp	r3, #0
 12174 0010 08D0     		beq	.L414
2051:C:/StellarStudio-7.0/SDKS/StellarESDK-1.7.0/Modules/Drivers/Timers/HRTIM/src\hrtim.c ****         hdp->hrtim->sTimerxRegs[timer].EEFxR3 = HRTIM_EEFxR3_EEVACRES;
 12175              		.loc 1 2051 12
 12176 0012 019B     		ldr	r3, [sp, #4]
 12177 0014 1A68     		ldr	r2, [r3]
 12178              		.loc 1 2051 39
 12179 0016 9DF80330 		ldrb	r3, [sp, #3]	@ zero_extendqisi2
 12180              		.loc 1 2051 47
 12181 001a DB01     		lsls	r3, r3, #7
 12182 001c 1344     		add	r3, r3, r2
 12183 001e F033     		adds	r3, r3, #240
 12184 0020 0222     		movs	r2, #2
 12185 0022 1A60     		str	r2, [r3]
 12186              	.L414:
2052:C:/StellarStudio-7.0/SDKS/StellarESDK-1.7.0/Modules/Drivers/Timers/HRTIM/src\hrtim.c ****     }
2053:C:/StellarStudio-7.0/SDKS/StellarESDK-1.7.0/Modules/Drivers/Timers/HRTIM/src\hrtim.c **** }
 12187              		.loc 1 2053 1
 12188 0024 00BF     		nop
 12189 0026 02B0     		add	sp, sp, #8
 12190              		.cfi_def_cfa_offset 0
 12191              		@ sp needed
 12192 0028 7047     		bx	lr
 12193              		.cfi_endproc
 12194              	.LFE202:
 12196 002a 00BF     		.section	.text.hrtim_timer_set_dacsync_trigger,"ax",%progbits
 12197              		.align	1
 12198              		.p2align 4,,15
 12199              		.global	hrtim_timer_set_dacsync_trigger
 12200              		.syntax unified
 12201              		.thumb
 12202              		.thumb_func
 12204              	hrtim_timer_set_dacsync_trigger:
 12205              	.LFB203:
2054:C:/StellarStudio-7.0/SDKS/StellarESDK-1.7.0/Modules/Drivers/Timers/HRTIM/src\hrtim.c **** 
2055:C:/StellarStudio-7.0/SDKS/StellarESDK-1.7.0/Modules/Drivers/Timers/HRTIM/src\hrtim.c **** void hrtim_timer_set_dacsync_trigger(hrtim_driver_t *hdp, 
2056:C:/StellarStudio-7.0/SDKS/StellarESDK-1.7.0/Modules/Drivers/Timers/HRTIM/src\hrtim.c ****                                      hrtim_timer_t timer,
2057:C:/StellarStudio-7.0/SDKS/StellarESDK-1.7.0/Modules/Drivers/Timers/HRTIM/src\hrtim.c ****                                      uint32_t sync_trigger) {
 12206              		.loc 1 2057 61
 12207              		.cfi_startproc
 12208              		@ args = 0, pretend = 0, frame = 16
 12209              		@ frame_needed = 0, uses_anonymous_args = 0
 12210              		@ link register save eliminated.
 12211 0000 84B0     		sub	sp, sp, #16
 12212              		.cfi_def_cfa_offset 16
 12213 0002 0390     		str	r0, [sp, #12]
 12214 0004 0B46     		mov	r3, r1
 12215 0006 0192     		str	r2, [sp, #4]
 12216 0008 8DF80B30 		strb	r3, [sp, #11]
2058:C:/StellarStudio-7.0/SDKS/StellarESDK-1.7.0/Modules/Drivers/Timers/HRTIM/src\hrtim.c **** 
2059:C:/StellarStudio-7.0/SDKS/StellarESDK-1.7.0/Modules/Drivers/Timers/HRTIM/src\hrtim.c ****     if (hdp->is_enable == true) {
 12217              		.loc 1 2059 12
 12218 000c 039B     		ldr	r3, [sp, #12]
 12219 000e 1B79     		ldrb	r3, [r3, #4]	@ zero_extendqisi2
 12220              		.loc 1 2059 8
 12221 0010 002B     		cmp	r3, #0
 12222 0012 22D0     		beq	.L418
2060:C:/StellarStudio-7.0/SDKS/StellarESDK-1.7.0/Modules/Drivers/Timers/HRTIM/src\hrtim.c ****         if (timer == HRTIM_TIMER_MASTER) {
 12223              		.loc 1 2060 12
 12224 0014 9DF80B30 		ldrb	r3, [sp, #11]	@ zero_extendqisi2
 12225 0018 062B     		cmp	r3, #6
 12226 001a 0AD1     		bne	.L417
2061:C:/StellarStudio-7.0/SDKS/StellarESDK-1.7.0/Modules/Drivers/Timers/HRTIM/src\hrtim.c ****             hdp->hrtim->sMasterRegs.MCR = ((hdp->hrtim->sMasterRegs.MCR & (~(HRTIM_MCR_DACSYNC_Msk)
 12227              		.loc 1 2061 48
 12228 001c 039B     		ldr	r3, [sp, #12]
 12229 001e 1B68     		ldr	r3, [r3]
 12230              		.loc 1 2061 68
 12231 0020 1B68     		ldr	r3, [r3]
 12232              		.loc 1 2061 73
 12233 0022 23F0C061 		bic	r1, r3, #100663296
 12234              		.loc 1 2061 16
 12235 0026 039B     		ldr	r3, [sp, #12]
 12236 0028 1B68     		ldr	r3, [r3]
 12237              		.loc 1 2061 104
 12238 002a 019A     		ldr	r2, [sp, #4]
 12239 002c 0A43     		orrs	r2, r2, r1
 12240              		.loc 1 2061 41
 12241 002e 1A60     		str	r2, [r3]
2062:C:/StellarStudio-7.0/SDKS/StellarESDK-1.7.0/Modules/Drivers/Timers/HRTIM/src\hrtim.c ****         } else {
2063:C:/StellarStudio-7.0/SDKS/StellarESDK-1.7.0/Modules/Drivers/Timers/HRTIM/src\hrtim.c ****             hdp->hrtim->sTimerxRegs[timer].TIMxCR = (hdp->hrtim->sTimerxRegs[timer].TIMxCR & (~(HRT
2064:C:/StellarStudio-7.0/SDKS/StellarESDK-1.7.0/Modules/Drivers/Timers/HRTIM/src\hrtim.c ****         }
2065:C:/StellarStudio-7.0/SDKS/StellarESDK-1.7.0/Modules/Drivers/Timers/HRTIM/src\hrtim.c ****     }
2066:C:/StellarStudio-7.0/SDKS/StellarESDK-1.7.0/Modules/Drivers/Timers/HRTIM/src\hrtim.c **** }
 12242              		.loc 1 2066 1
 12243 0030 13E0     		b	.L418
 12244              	.L417:
2063:C:/StellarStudio-7.0/SDKS/StellarESDK-1.7.0/Modules/Drivers/Timers/HRTIM/src\hrtim.c ****         }
 12245              		.loc 1 2063 57
 12246 0032 039B     		ldr	r3, [sp, #12]
 12247 0034 1A68     		ldr	r2, [r3]
2063:C:/StellarStudio-7.0/SDKS/StellarESDK-1.7.0/Modules/Drivers/Timers/HRTIM/src\hrtim.c ****         }
 12248              		.loc 1 2063 84
 12249 0036 9DF80B30 		ldrb	r3, [sp, #11]	@ zero_extendqisi2
 12250 003a 0133     		adds	r3, r3, #1
 12251 003c DB01     		lsls	r3, r3, #7
 12252 003e 1344     		add	r3, r3, r2
 12253 0040 1B68     		ldr	r3, [r3]
2063:C:/StellarStudio-7.0/SDKS/StellarESDK-1.7.0/Modules/Drivers/Timers/HRTIM/src\hrtim.c ****         }
 12254              		.loc 1 2063 92
 12255 0042 23F0C060 		bic	r0, r3, #100663296
2063:C:/StellarStudio-7.0/SDKS/StellarESDK-1.7.0/Modules/Drivers/Timers/HRTIM/src\hrtim.c ****         }
 12256              		.loc 1 2063 16
 12257 0046 039B     		ldr	r3, [sp, #12]
 12258 0048 1968     		ldr	r1, [r3]
2063:C:/StellarStudio-7.0/SDKS/StellarESDK-1.7.0/Modules/Drivers/Timers/HRTIM/src\hrtim.c ****         }
 12259              		.loc 1 2063 43
 12260 004a 9DF80B30 		ldrb	r3, [sp, #11]	@ zero_extendqisi2
2063:C:/StellarStudio-7.0/SDKS/StellarESDK-1.7.0/Modules/Drivers/Timers/HRTIM/src\hrtim.c ****         }
 12261              		.loc 1 2063 125
 12262 004e 019A     		ldr	r2, [sp, #4]
 12263 0050 0243     		orrs	r2, r2, r0
2063:C:/StellarStudio-7.0/SDKS/StellarESDK-1.7.0/Modules/Drivers/Timers/HRTIM/src\hrtim.c ****         }
 12264              		.loc 1 2063 51
 12265 0052 0133     		adds	r3, r3, #1
 12266 0054 DB01     		lsls	r3, r3, #7
 12267 0056 0B44     		add	r3, r3, r1
 12268 0058 1A60     		str	r2, [r3]
 12269              	.L418:
 12270              		.loc 1 2066 1
 12271 005a 00BF     		nop
 12272 005c 04B0     		add	sp, sp, #16
 12273              		.cfi_def_cfa_offset 0
 12274              		@ sp needed
 12275 005e 7047     		bx	lr
 12276              		.cfi_endproc
 12277              	.LFE203:
 12279              		.section	.text.hrtim_timer_enable_dualdac_trigger,"ax",%progbits
 12280              		.align	1
 12281              		.p2align 4,,15
 12282              		.global	hrtim_timer_enable_dualdac_trigger
 12283              		.syntax unified
 12284              		.thumb
 12285              		.thumb_func
 12287              	hrtim_timer_enable_dualdac_trigger:
 12288              	.LFB204:
2067:C:/StellarStudio-7.0/SDKS/StellarESDK-1.7.0/Modules/Drivers/Timers/HRTIM/src\hrtim.c **** void hrtim_timer_enable_dualdac_trigger(hrtim_driver_t *hdp,
2068:C:/StellarStudio-7.0/SDKS/StellarESDK-1.7.0/Modules/Drivers/Timers/HRTIM/src\hrtim.c ****                                         hrtim_timer_t timer) {
 12289              		.loc 1 2068 62
 12290              		.cfi_startproc
 12291              		@ args = 0, pretend = 0, frame = 8
 12292              		@ frame_needed = 0, uses_anonymous_args = 0
 12293              		@ link register save eliminated.
 12294 0000 82B0     		sub	sp, sp, #8
 12295              		.cfi_def_cfa_offset 8
 12296 0002 0190     		str	r0, [sp, #4]
 12297 0004 0B46     		mov	r3, r1
 12298 0006 8DF80330 		strb	r3, [sp, #3]
2069:C:/StellarStudio-7.0/SDKS/StellarESDK-1.7.0/Modules/Drivers/Timers/HRTIM/src\hrtim.c **** 
2070:C:/StellarStudio-7.0/SDKS/StellarESDK-1.7.0/Modules/Drivers/Timers/HRTIM/src\hrtim.c ****     hdp->timer_dualdac_enable[timer] = 1;
 12299              		.loc 1 2070 30
 12300 000a 9DF80330 		ldrb	r3, [sp, #3]	@ zero_extendqisi2
 12301              		.loc 1 2070 38
 12302 000e 019A     		ldr	r2, [sp, #4]
 12303 0010 1344     		add	r3, r3, r2
 12304 0012 0122     		movs	r2, #1
 12305 0014 83F8E129 		strb	r2, [r3, #2529]
2071:C:/StellarStudio-7.0/SDKS/StellarESDK-1.7.0/Modules/Drivers/Timers/HRTIM/src\hrtim.c **** }
 12306              		.loc 1 2071 1
 12307 0018 00BF     		nop
 12308 001a 02B0     		add	sp, sp, #8
 12309              		.cfi_def_cfa_offset 0
 12310              		@ sp needed
 12311 001c 7047     		bx	lr
 12312              		.cfi_endproc
 12313              	.LFE204:
 12315 001e 00BF     		.section	.text.hrtim_timer_set_dualdac_trigger,"ax",%progbits
 12316              		.align	1
 12317              		.p2align 4,,15
 12318              		.global	hrtim_timer_set_dualdac_trigger
 12319              		.syntax unified
 12320              		.thumb
 12321              		.thumb_func
 12323              	hrtim_timer_set_dualdac_trigger:
 12324              	.LFB205:
2072:C:/StellarStudio-7.0/SDKS/StellarESDK-1.7.0/Modules/Drivers/Timers/HRTIM/src\hrtim.c **** 
2073:C:/StellarStudio-7.0/SDKS/StellarESDK-1.7.0/Modules/Drivers/Timers/HRTIM/src\hrtim.c **** void hrtim_timer_set_dualdac_trigger(hrtim_driver_t *hdp,
2074:C:/StellarStudio-7.0/SDKS/StellarESDK-1.7.0/Modules/Drivers/Timers/HRTIM/src\hrtim.c ****                                      hrtim_timer_t timer,
2075:C:/StellarStudio-7.0/SDKS/StellarESDK-1.7.0/Modules/Drivers/Timers/HRTIM/src\hrtim.c ****                                      uint32_t reset_trigger,
2076:C:/StellarStudio-7.0/SDKS/StellarESDK-1.7.0/Modules/Drivers/Timers/HRTIM/src\hrtim.c ****                                      uint32_t step_trigger) {
 12325              		.loc 1 2076 61
 12326              		.cfi_startproc
 12327              		@ args = 0, pretend = 0, frame = 24
 12328              		@ frame_needed = 0, uses_anonymous_args = 0
 12329              		@ link register save eliminated.
 12330 0000 86B0     		sub	sp, sp, #24
 12331              		.cfi_def_cfa_offset 24
 12332 0002 0390     		str	r0, [sp, #12]
 12333 0004 0192     		str	r2, [sp, #4]
 12334 0006 0093     		str	r3, [sp]
 12335 0008 0B46     		mov	r3, r1
 12336 000a 8DF80B30 		strb	r3, [sp, #11]
2077:C:/StellarStudio-7.0/SDKS/StellarESDK-1.7.0/Modules/Drivers/Timers/HRTIM/src\hrtim.c **** 
2078:C:/StellarStudio-7.0/SDKS/StellarESDK-1.7.0/Modules/Drivers/Timers/HRTIM/src\hrtim.c ****     uint32_t timx_cr2;
2079:C:/StellarStudio-7.0/SDKS/StellarESDK-1.7.0/Modules/Drivers/Timers/HRTIM/src\hrtim.c **** 
2080:C:/StellarStudio-7.0/SDKS/StellarESDK-1.7.0/Modules/Drivers/Timers/HRTIM/src\hrtim.c ****     if(hdp->is_enable == true) {
 12337              		.loc 1 2080 11
 12338 000e 039B     		ldr	r3, [sp, #12]
 12339 0010 1B79     		ldrb	r3, [r3, #4]	@ zero_extendqisi2
 12340              		.loc 1 2080 7
 12341 0012 002B     		cmp	r3, #0
 12342 0014 19D0     		beq	.L422
2081:C:/StellarStudio-7.0/SDKS/StellarESDK-1.7.0/Modules/Drivers/Timers/HRTIM/src\hrtim.c ****         timx_cr2 = hdp->hrtim->sTimerxRegs[timer].TIMxCR2 & (~(HRTIM_TIMxCR2_DCDR | HRTIM_TIMxCR2_D
 12343              		.loc 1 2081 23
 12344 0016 039B     		ldr	r3, [sp, #12]
 12345 0018 1A68     		ldr	r2, [r3]
 12346              		.loc 1 2081 50
 12347 001a 9DF80B30 		ldrb	r3, [sp, #11]	@ zero_extendqisi2
 12348 001e DB01     		lsls	r3, r3, #7
 12349 0020 1344     		add	r3, r3, r2
 12350 0022 EC33     		adds	r3, r3, #236
 12351 0024 1B68     		ldr	r3, [r3]
 12352              		.loc 1 2081 18
 12353 0026 23F00603 		bic	r3, r3, #6
 12354 002a 0593     		str	r3, [sp, #20]
2082:C:/StellarStudio-7.0/SDKS/StellarESDK-1.7.0/Modules/Drivers/Timers/HRTIM/src\hrtim.c ****         timx_cr2 |= (reset_trigger | step_trigger);
 12355              		.loc 1 2082 36
 12356 002c 019A     		ldr	r2, [sp, #4]
 12357 002e 009B     		ldr	r3, [sp]
 12358 0030 1343     		orrs	r3, r3, r2
 12359              		.loc 1 2082 18
 12360 0032 059A     		ldr	r2, [sp, #20]
 12361 0034 1343     		orrs	r3, r3, r2
 12362 0036 0593     		str	r3, [sp, #20]
2083:C:/StellarStudio-7.0/SDKS/StellarESDK-1.7.0/Modules/Drivers/Timers/HRTIM/src\hrtim.c ****         hdp->hrtim->sTimerxRegs[timer].TIMxCR2 = timx_cr2;
 12363              		.loc 1 2083 12
 12364 0038 039B     		ldr	r3, [sp, #12]
 12365 003a 1A68     		ldr	r2, [r3]
 12366              		.loc 1 2083 39
 12367 003c 9DF80B30 		ldrb	r3, [sp, #11]	@ zero_extendqisi2
 12368              		.loc 1 2083 48
 12369 0040 DB01     		lsls	r3, r3, #7
 12370 0042 1344     		add	r3, r3, r2
 12371 0044 EC33     		adds	r3, r3, #236
 12372 0046 059A     		ldr	r2, [sp, #20]
 12373 0048 1A60     		str	r2, [r3]
 12374              	.L422:
2084:C:/StellarStudio-7.0/SDKS/StellarESDK-1.7.0/Modules/Drivers/Timers/HRTIM/src\hrtim.c ****     } 
2085:C:/StellarStudio-7.0/SDKS/StellarESDK-1.7.0/Modules/Drivers/Timers/HRTIM/src\hrtim.c **** }
 12375              		.loc 1 2085 1
 12376 004a 00BF     		nop
 12377 004c 06B0     		add	sp, sp, #24
 12378              		.cfi_def_cfa_offset 0
 12379              		@ sp needed
 12380 004e 7047     		bx	lr
 12381              		.cfi_endproc
 12382              	.LFE205:
 12384              		.section	.text.hrtim_timer_set_adc_rollover,"ax",%progbits
 12385              		.align	1
 12386              		.p2align 4,,15
 12387              		.global	hrtim_timer_set_adc_rollover
 12388              		.syntax unified
 12389              		.thumb
 12390              		.thumb_func
 12392              	hrtim_timer_set_adc_rollover:
 12393              	.LFB206:
2086:C:/StellarStudio-7.0/SDKS/StellarESDK-1.7.0/Modules/Drivers/Timers/HRTIM/src\hrtim.c **** 
2087:C:/StellarStudio-7.0/SDKS/StellarESDK-1.7.0/Modules/Drivers/Timers/HRTIM/src\hrtim.c **** uint16_t  hrtim_timer_set_adc_rollover(hrtim_driver_t *hdp,
2088:C:/StellarStudio-7.0/SDKS/StellarESDK-1.7.0/Modules/Drivers/Timers/HRTIM/src\hrtim.c ****                                        hrtim_timer_t timer,
2089:C:/StellarStudio-7.0/SDKS/StellarESDK-1.7.0/Modules/Drivers/Timers/HRTIM/src\hrtim.c ****                                        uint16_t adc_rollover_mode) {
 12394              		.loc 1 2089 68
 12395              		.cfi_startproc
 12396              		@ args = 0, pretend = 0, frame = 16
 12397              		@ frame_needed = 0, uses_anonymous_args = 0
 12398              		@ link register save eliminated.
 12399 0000 84B0     		sub	sp, sp, #16
 12400              		.cfi_def_cfa_offset 16
 12401 0002 0190     		str	r0, [sp, #4]
 12402 0004 0B46     		mov	r3, r1
 12403 0006 8DF80330 		strb	r3, [sp, #3]
 12404 000a 1346     		mov	r3, r2	@ movhi
 12405 000c ADF80030 		strh	r3, [sp]	@ movhi
2090:C:/StellarStudio-7.0/SDKS/StellarESDK-1.7.0/Modules/Drivers/Timers/HRTIM/src\hrtim.c **** 
2091:C:/StellarStudio-7.0/SDKS/StellarESDK-1.7.0/Modules/Drivers/Timers/HRTIM/src\hrtim.c ****     uint16_t prev_rollover_mode;
2092:C:/StellarStudio-7.0/SDKS/StellarESDK-1.7.0/Modules/Drivers/Timers/HRTIM/src\hrtim.c **** 
2093:C:/StellarStudio-7.0/SDKS/StellarESDK-1.7.0/Modules/Drivers/Timers/HRTIM/src\hrtim.c ****     prev_rollover_mode = hdp->timer_count_mode[timer].adc_rollover;
 12406              		.loc 1 2093 54
 12407 0010 9DF80320 		ldrb	r2, [sp, #3]	@ zero_extendqisi2
 12408              		.loc 1 2093 24
 12409 0014 0199     		ldr	r1, [sp, #4]
 12410 0016 1346     		mov	r3, r2
 12411 0018 9B00     		lsls	r3, r3, #2
 12412 001a 1344     		add	r3, r3, r2
 12413 001c 9B00     		lsls	r3, r3, #2
 12414 001e 0B44     		add	r3, r3, r1
 12415 0020 03F57973 		add	r3, r3, #996
 12416 0024 1B88     		ldrh	r3, [r3]	@ movhi
 12417 0026 ADF80E30 		strh	r3, [sp, #14]	@ movhi
2094:C:/StellarStudio-7.0/SDKS/StellarESDK-1.7.0/Modules/Drivers/Timers/HRTIM/src\hrtim.c ****     hdp->timer_count_mode[timer].adc_rollover = adc_rollover_mode;
 12418              		.loc 1 2094 33
 12419 002a 9DF80320 		ldrb	r2, [sp, #3]	@ zero_extendqisi2
 12420              		.loc 1 2094 47
 12421 002e 0199     		ldr	r1, [sp, #4]
 12422 0030 1346     		mov	r3, r2
 12423 0032 9B00     		lsls	r3, r3, #2
 12424 0034 1344     		add	r3, r3, r2
 12425 0036 9B00     		lsls	r3, r3, #2
 12426 0038 0B44     		add	r3, r3, r1
 12427 003a 03F57973 		add	r3, r3, #996
 12428 003e BDF80020 		ldrh	r2, [sp]	@ movhi
 12429 0042 1A80     		strh	r2, [r3]	@ movhi
2095:C:/StellarStudio-7.0/SDKS/StellarESDK-1.7.0/Modules/Drivers/Timers/HRTIM/src\hrtim.c **** 
2096:C:/StellarStudio-7.0/SDKS/StellarESDK-1.7.0/Modules/Drivers/Timers/HRTIM/src\hrtim.c ****     return prev_rollover_mode;
 12430              		.loc 1 2096 12
 12431 0044 BDF80E30 		ldrh	r3, [sp, #14]
2097:C:/StellarStudio-7.0/SDKS/StellarESDK-1.7.0/Modules/Drivers/Timers/HRTIM/src\hrtim.c **** }
 12432              		.loc 1 2097 1
 12433 0048 1846     		mov	r0, r3
 12434 004a 04B0     		add	sp, sp, #16
 12435              		.cfi_def_cfa_offset 0
 12436              		@ sp needed
 12437 004c 7047     		bx	lr
 12438              		.cfi_endproc
 12439              	.LFE206:
 12441 004e 00BF     		.section	.text.hrtim_timer_set_fault_event_rollover,"ax",%progbits
 12442              		.align	1
 12443              		.p2align 4,,15
 12444              		.global	hrtim_timer_set_fault_event_rollover
 12445              		.syntax unified
 12446              		.thumb
 12447              		.thumb_func
 12449              	hrtim_timer_set_fault_event_rollover:
 12450              	.LFB207:
2098:C:/StellarStudio-7.0/SDKS/StellarESDK-1.7.0/Modules/Drivers/Timers/HRTIM/src\hrtim.c **** 
2099:C:/StellarStudio-7.0/SDKS/StellarESDK-1.7.0/Modules/Drivers/Timers/HRTIM/src\hrtim.c **** uint16_t hrtim_timer_set_fault_event_rollover(hrtim_driver_t *hdp,
2100:C:/StellarStudio-7.0/SDKS/StellarESDK-1.7.0/Modules/Drivers/Timers/HRTIM/src\hrtim.c ****                                               hrtim_timer_t timer,
2101:C:/StellarStudio-7.0/SDKS/StellarESDK-1.7.0/Modules/Drivers/Timers/HRTIM/src\hrtim.c ****                                               uint16_t flt_rollover_mode) {
 12451              		.loc 1 2101 75
 12452              		.cfi_startproc
 12453              		@ args = 0, pretend = 0, frame = 16
 12454              		@ frame_needed = 0, uses_anonymous_args = 0
 12455              		@ link register save eliminated.
 12456 0000 84B0     		sub	sp, sp, #16
 12457              		.cfi_def_cfa_offset 16
 12458 0002 0190     		str	r0, [sp, #4]
 12459 0004 0B46     		mov	r3, r1
 12460 0006 8DF80330 		strb	r3, [sp, #3]
 12461 000a 1346     		mov	r3, r2	@ movhi
 12462 000c ADF80030 		strh	r3, [sp]	@ movhi
2102:C:/StellarStudio-7.0/SDKS/StellarESDK-1.7.0/Modules/Drivers/Timers/HRTIM/src\hrtim.c **** 
2103:C:/StellarStudio-7.0/SDKS/StellarESDK-1.7.0/Modules/Drivers/Timers/HRTIM/src\hrtim.c ****     uint16_t prev_rollover_mode;
2104:C:/StellarStudio-7.0/SDKS/StellarESDK-1.7.0/Modules/Drivers/Timers/HRTIM/src\hrtim.c **** 
2105:C:/StellarStudio-7.0/SDKS/StellarESDK-1.7.0/Modules/Drivers/Timers/HRTIM/src\hrtim.c ****     prev_rollover_mode = hdp->timer_count_mode[timer].fault_event_rollover;
 12463              		.loc 1 2105 54
 12464 0010 9DF80320 		ldrb	r2, [sp, #3]	@ zero_extendqisi2
 12465              		.loc 1 2105 24
 12466 0014 0199     		ldr	r1, [sp, #4]
 12467 0016 1346     		mov	r3, r2
 12468 0018 9B00     		lsls	r3, r3, #2
 12469 001a 1344     		add	r3, r3, r2
 12470 001c 9B00     		lsls	r3, r3, #2
 12471 001e 0B44     		add	r3, r3, r1
 12472 0020 03F57A73 		add	r3, r3, #1000
 12473 0024 1B88     		ldrh	r3, [r3]	@ movhi
 12474 0026 ADF80E30 		strh	r3, [sp, #14]	@ movhi
2106:C:/StellarStudio-7.0/SDKS/StellarESDK-1.7.0/Modules/Drivers/Timers/HRTIM/src\hrtim.c ****     hdp->timer_count_mode[timer].fault_event_rollover = flt_rollover_mode;
 12475              		.loc 1 2106 33
 12476 002a 9DF80320 		ldrb	r2, [sp, #3]	@ zero_extendqisi2
 12477              		.loc 1 2106 55
 12478 002e 0199     		ldr	r1, [sp, #4]
 12479 0030 1346     		mov	r3, r2
 12480 0032 9B00     		lsls	r3, r3, #2
 12481 0034 1344     		add	r3, r3, r2
 12482 0036 9B00     		lsls	r3, r3, #2
 12483 0038 0B44     		add	r3, r3, r1
 12484 003a 03F57A73 		add	r3, r3, #1000
 12485 003e BDF80020 		ldrh	r2, [sp]	@ movhi
 12486 0042 1A80     		strh	r2, [r3]	@ movhi
2107:C:/StellarStudio-7.0/SDKS/StellarESDK-1.7.0/Modules/Drivers/Timers/HRTIM/src\hrtim.c **** 
2108:C:/StellarStudio-7.0/SDKS/StellarESDK-1.7.0/Modules/Drivers/Timers/HRTIM/src\hrtim.c ****     return prev_rollover_mode;
 12487              		.loc 1 2108 12
 12488 0044 BDF80E30 		ldrh	r3, [sp, #14]
2109:C:/StellarStudio-7.0/SDKS/StellarESDK-1.7.0/Modules/Drivers/Timers/HRTIM/src\hrtim.c **** }
 12489              		.loc 1 2109 1
 12490 0048 1846     		mov	r0, r3
 12491 004a 04B0     		add	sp, sp, #16
 12492              		.cfi_def_cfa_offset 0
 12493              		@ sp needed
 12494 004c 7047     		bx	lr
 12495              		.cfi_endproc
 12496              	.LFE207:
 12498 004e 00BF     		.section	.text.hrtim_timer_set_out_rollover,"ax",%progbits
 12499              		.align	1
 12500              		.p2align 4,,15
 12501              		.global	hrtim_timer_set_out_rollover
 12502              		.syntax unified
 12503              		.thumb
 12504              		.thumb_func
 12506              	hrtim_timer_set_out_rollover:
 12507              	.LFB208:
2110:C:/StellarStudio-7.0/SDKS/StellarESDK-1.7.0/Modules/Drivers/Timers/HRTIM/src\hrtim.c **** 
2111:C:/StellarStudio-7.0/SDKS/StellarESDK-1.7.0/Modules/Drivers/Timers/HRTIM/src\hrtim.c **** uint16_t hrtim_timer_set_out_rollover(hrtim_driver_t *hdp,
2112:C:/StellarStudio-7.0/SDKS/StellarESDK-1.7.0/Modules/Drivers/Timers/HRTIM/src\hrtim.c ****                                       hrtim_timer_t timer,
2113:C:/StellarStudio-7.0/SDKS/StellarESDK-1.7.0/Modules/Drivers/Timers/HRTIM/src\hrtim.c ****                                       uint16_t out_rollover_mode) {
 12508              		.loc 1 2113 67
 12509              		.cfi_startproc
 12510              		@ args = 0, pretend = 0, frame = 16
 12511              		@ frame_needed = 0, uses_anonymous_args = 0
 12512              		@ link register save eliminated.
 12513 0000 84B0     		sub	sp, sp, #16
 12514              		.cfi_def_cfa_offset 16
 12515 0002 0190     		str	r0, [sp, #4]
 12516 0004 0B46     		mov	r3, r1
 12517 0006 8DF80330 		strb	r3, [sp, #3]
 12518 000a 1346     		mov	r3, r2	@ movhi
 12519 000c ADF80030 		strh	r3, [sp]	@ movhi
2114:C:/StellarStudio-7.0/SDKS/StellarESDK-1.7.0/Modules/Drivers/Timers/HRTIM/src\hrtim.c **** 
2115:C:/StellarStudio-7.0/SDKS/StellarESDK-1.7.0/Modules/Drivers/Timers/HRTIM/src\hrtim.c ****     uint16_t prev_rollover_mode;
2116:C:/StellarStudio-7.0/SDKS/StellarESDK-1.7.0/Modules/Drivers/Timers/HRTIM/src\hrtim.c **** 
2117:C:/StellarStudio-7.0/SDKS/StellarESDK-1.7.0/Modules/Drivers/Timers/HRTIM/src\hrtim.c ****     prev_rollover_mode = hdp->timer_count_mode[timer].out_rollover;
 12520              		.loc 1 2117 54
 12521 0010 9DF80320 		ldrb	r2, [sp, #3]	@ zero_extendqisi2
 12522              		.loc 1 2117 24
 12523 0014 0199     		ldr	r1, [sp, #4]
 12524 0016 1346     		mov	r3, r2
 12525 0018 9B00     		lsls	r3, r3, #2
 12526 001a 1344     		add	r3, r3, r2
 12527 001c 9B00     		lsls	r3, r3, #2
 12528 001e 0B44     		add	r3, r3, r1
 12529 0020 03F2E233 		addw	r3, r3, #994
 12530 0024 1B88     		ldrh	r3, [r3]	@ movhi
 12531 0026 ADF80E30 		strh	r3, [sp, #14]	@ movhi
2118:C:/StellarStudio-7.0/SDKS/StellarESDK-1.7.0/Modules/Drivers/Timers/HRTIM/src\hrtim.c ****     hdp->timer_count_mode[timer].out_rollover = out_rollover_mode;
 12532              		.loc 1 2118 33
 12533 002a 9DF80320 		ldrb	r2, [sp, #3]	@ zero_extendqisi2
 12534              		.loc 1 2118 47
 12535 002e 0199     		ldr	r1, [sp, #4]
 12536 0030 1346     		mov	r3, r2
 12537 0032 9B00     		lsls	r3, r3, #2
 12538 0034 1344     		add	r3, r3, r2
 12539 0036 9B00     		lsls	r3, r3, #2
 12540 0038 0B44     		add	r3, r3, r1
 12541 003a 03F2E233 		addw	r3, r3, #994
 12542 003e BDF80020 		ldrh	r2, [sp]	@ movhi
 12543 0042 1A80     		strh	r2, [r3]	@ movhi
2119:C:/StellarStudio-7.0/SDKS/StellarESDK-1.7.0/Modules/Drivers/Timers/HRTIM/src\hrtim.c **** 
2120:C:/StellarStudio-7.0/SDKS/StellarESDK-1.7.0/Modules/Drivers/Timers/HRTIM/src\hrtim.c ****     return prev_rollover_mode;
 12544              		.loc 1 2120 12
 12545 0044 BDF80E30 		ldrh	r3, [sp, #14]
2121:C:/StellarStudio-7.0/SDKS/StellarESDK-1.7.0/Modules/Drivers/Timers/HRTIM/src\hrtim.c **** }
 12546              		.loc 1 2121 1
 12547 0048 1846     		mov	r0, r3
 12548 004a 04B0     		add	sp, sp, #16
 12549              		.cfi_def_cfa_offset 0
 12550              		@ sp needed
 12551 004c 7047     		bx	lr
 12552              		.cfi_endproc
 12553              	.LFE208:
 12555 004e 00BF     		.section	.text.hrtim_timer_set_burstmode_rollover,"ax",%progbits
 12556              		.align	1
 12557              		.p2align 4,,15
 12558              		.global	hrtim_timer_set_burstmode_rollover
 12559              		.syntax unified
 12560              		.thumb
 12561              		.thumb_func
 12563              	hrtim_timer_set_burstmode_rollover:
 12564              	.LFB209:
2122:C:/StellarStudio-7.0/SDKS/StellarESDK-1.7.0/Modules/Drivers/Timers/HRTIM/src\hrtim.c **** 
2123:C:/StellarStudio-7.0/SDKS/StellarESDK-1.7.0/Modules/Drivers/Timers/HRTIM/src\hrtim.c **** uint16_t hrtim_timer_set_burstmode_rollover(hrtim_driver_t *hdp,
2124:C:/StellarStudio-7.0/SDKS/StellarESDK-1.7.0/Modules/Drivers/Timers/HRTIM/src\hrtim.c ****                                             hrtim_timer_t timer,
2125:C:/StellarStudio-7.0/SDKS/StellarESDK-1.7.0/Modules/Drivers/Timers/HRTIM/src\hrtim.c ****                                             uint16_t brst_rollover_mode) {
 12565              		.loc 1 2125 74
 12566              		.cfi_startproc
 12567              		@ args = 0, pretend = 0, frame = 16
 12568              		@ frame_needed = 0, uses_anonymous_args = 0
 12569              		@ link register save eliminated.
 12570 0000 84B0     		sub	sp, sp, #16
 12571              		.cfi_def_cfa_offset 16
 12572 0002 0190     		str	r0, [sp, #4]
 12573 0004 0B46     		mov	r3, r1
 12574 0006 8DF80330 		strb	r3, [sp, #3]
 12575 000a 1346     		mov	r3, r2	@ movhi
 12576 000c ADF80030 		strh	r3, [sp]	@ movhi
2126:C:/StellarStudio-7.0/SDKS/StellarESDK-1.7.0/Modules/Drivers/Timers/HRTIM/src\hrtim.c **** 
2127:C:/StellarStudio-7.0/SDKS/StellarESDK-1.7.0/Modules/Drivers/Timers/HRTIM/src\hrtim.c ****     uint16_t prerv_rollover;
2128:C:/StellarStudio-7.0/SDKS/StellarESDK-1.7.0/Modules/Drivers/Timers/HRTIM/src\hrtim.c **** 
2129:C:/StellarStudio-7.0/SDKS/StellarESDK-1.7.0/Modules/Drivers/Timers/HRTIM/src\hrtim.c ****     prerv_rollover = hdp->timer_count_mode[timer].burstmode_rollover;
 12577              		.loc 1 2129 50
 12578 0010 9DF80320 		ldrb	r2, [sp, #3]	@ zero_extendqisi2
 12579              		.loc 1 2129 20
 12580 0014 0199     		ldr	r1, [sp, #4]
 12581 0016 1346     		mov	r3, r2
 12582 0018 9B00     		lsls	r3, r3, #2
 12583 001a 1344     		add	r3, r3, r2
 12584 001c 9B00     		lsls	r3, r3, #2
 12585 001e 0B44     		add	r3, r3, r1
 12586 0020 03F2E633 		addw	r3, r3, #998
 12587 0024 1B88     		ldrh	r3, [r3]	@ movhi
 12588 0026 ADF80E30 		strh	r3, [sp, #14]	@ movhi
2130:C:/StellarStudio-7.0/SDKS/StellarESDK-1.7.0/Modules/Drivers/Timers/HRTIM/src\hrtim.c ****     hdp->timer_count_mode[timer].burstmode_rollover = brst_rollover_mode;
 12589              		.loc 1 2130 33
 12590 002a 9DF80320 		ldrb	r2, [sp, #3]	@ zero_extendqisi2
 12591              		.loc 1 2130 53
 12592 002e 0199     		ldr	r1, [sp, #4]
 12593 0030 1346     		mov	r3, r2
 12594 0032 9B00     		lsls	r3, r3, #2
 12595 0034 1344     		add	r3, r3, r2
 12596 0036 9B00     		lsls	r3, r3, #2
 12597 0038 0B44     		add	r3, r3, r1
 12598 003a 03F2E633 		addw	r3, r3, #998
 12599 003e BDF80020 		ldrh	r2, [sp]	@ movhi
 12600 0042 1A80     		strh	r2, [r3]	@ movhi
2131:C:/StellarStudio-7.0/SDKS/StellarESDK-1.7.0/Modules/Drivers/Timers/HRTIM/src\hrtim.c **** 
2132:C:/StellarStudio-7.0/SDKS/StellarESDK-1.7.0/Modules/Drivers/Timers/HRTIM/src\hrtim.c ****     return prerv_rollover;
 12601              		.loc 1 2132 12
 12602 0044 BDF80E30 		ldrh	r3, [sp, #14]
2133:C:/StellarStudio-7.0/SDKS/StellarESDK-1.7.0/Modules/Drivers/Timers/HRTIM/src\hrtim.c **** }
 12603              		.loc 1 2133 1
 12604 0048 1846     		mov	r0, r3
 12605 004a 04B0     		add	sp, sp, #16
 12606              		.cfi_def_cfa_offset 0
 12607              		@ sp needed
 12608 004c 7047     		bx	lr
 12609              		.cfi_endproc
 12610              	.LFE209:
 12612 004e 00BF     		.section	.text.hrtim_timer_set_rollover,"ax",%progbits
 12613              		.align	1
 12614              		.p2align 4,,15
 12615              		.global	hrtim_timer_set_rollover
 12616              		.syntax unified
 12617              		.thumb
 12618              		.thumb_func
 12620              	hrtim_timer_set_rollover:
 12621              	.LFB210:
2134:C:/StellarStudio-7.0/SDKS/StellarESDK-1.7.0/Modules/Drivers/Timers/HRTIM/src\hrtim.c **** 
2135:C:/StellarStudio-7.0/SDKS/StellarESDK-1.7.0/Modules/Drivers/Timers/HRTIM/src\hrtim.c **** uint16_t hrtim_timer_set_rollover(hrtim_driver_t *hdp,
2136:C:/StellarStudio-7.0/SDKS/StellarESDK-1.7.0/Modules/Drivers/Timers/HRTIM/src\hrtim.c ****                                   hrtim_timer_t timer,
2137:C:/StellarStudio-7.0/SDKS/StellarESDK-1.7.0/Modules/Drivers/Timers/HRTIM/src\hrtim.c ****                                   uint16_t rollover_mode) {
 12622              		.loc 1 2137 59
 12623              		.cfi_startproc
 12624              		@ args = 0, pretend = 0, frame = 16
 12625              		@ frame_needed = 0, uses_anonymous_args = 0
 12626              		@ link register save eliminated.
 12627 0000 84B0     		sub	sp, sp, #16
 12628              		.cfi_def_cfa_offset 16
 12629 0002 0190     		str	r0, [sp, #4]
 12630 0004 0B46     		mov	r3, r1
 12631 0006 8DF80330 		strb	r3, [sp, #3]
 12632 000a 1346     		mov	r3, r2	@ movhi
 12633 000c ADF80030 		strh	r3, [sp]	@ movhi
2138:C:/StellarStudio-7.0/SDKS/StellarESDK-1.7.0/Modules/Drivers/Timers/HRTIM/src\hrtim.c **** 
2139:C:/StellarStudio-7.0/SDKS/StellarESDK-1.7.0/Modules/Drivers/Timers/HRTIM/src\hrtim.c ****     uint16_t prev_rollover_mode;
2140:C:/StellarStudio-7.0/SDKS/StellarESDK-1.7.0/Modules/Drivers/Timers/HRTIM/src\hrtim.c **** 
2141:C:/StellarStudio-7.0/SDKS/StellarESDK-1.7.0/Modules/Drivers/Timers/HRTIM/src\hrtim.c ****     prev_rollover_mode = hdp->timer_count_mode[timer].rollover;
 12634              		.loc 1 2141 54
 12635 0010 9DF80320 		ldrb	r2, [sp, #3]	@ zero_extendqisi2
 12636              		.loc 1 2141 24
 12637 0014 0199     		ldr	r1, [sp, #4]
 12638 0016 1346     		mov	r3, r2
 12639 0018 9B00     		lsls	r3, r3, #2
 12640 001a 1344     		add	r3, r3, r2
 12641 001c 9B00     		lsls	r3, r3, #2
 12642 001e 0B44     		add	r3, r3, r1
 12643 0020 03F57873 		add	r3, r3, #992
 12644 0024 1B88     		ldrh	r3, [r3]	@ movhi
 12645 0026 ADF80E30 		strh	r3, [sp, #14]	@ movhi
2142:C:/StellarStudio-7.0/SDKS/StellarESDK-1.7.0/Modules/Drivers/Timers/HRTIM/src\hrtim.c ****     hdp->timer_count_mode[timer].rollover = rollover_mode;
 12646              		.loc 1 2142 33
 12647 002a 9DF80320 		ldrb	r2, [sp, #3]	@ zero_extendqisi2
 12648              		.loc 1 2142 43
 12649 002e 0199     		ldr	r1, [sp, #4]
 12650 0030 1346     		mov	r3, r2
 12651 0032 9B00     		lsls	r3, r3, #2
 12652 0034 1344     		add	r3, r3, r2
 12653 0036 9B00     		lsls	r3, r3, #2
 12654 0038 0B44     		add	r3, r3, r1
 12655 003a 03F57873 		add	r3, r3, #992
 12656 003e BDF80020 		ldrh	r2, [sp]	@ movhi
 12657 0042 1A80     		strh	r2, [r3]	@ movhi
2143:C:/StellarStudio-7.0/SDKS/StellarESDK-1.7.0/Modules/Drivers/Timers/HRTIM/src\hrtim.c **** 
2144:C:/StellarStudio-7.0/SDKS/StellarESDK-1.7.0/Modules/Drivers/Timers/HRTIM/src\hrtim.c ****     return prev_rollover_mode;
 12658              		.loc 1 2144 12
 12659 0044 BDF80E30 		ldrh	r3, [sp, #14]
2145:C:/StellarStudio-7.0/SDKS/StellarESDK-1.7.0/Modules/Drivers/Timers/HRTIM/src\hrtim.c **** }
 12660              		.loc 1 2145 1
 12661 0048 1846     		mov	r0, r3
 12662 004a 04B0     		add	sp, sp, #16
 12663              		.cfi_def_cfa_offset 0
 12664              		@ sp needed
 12665 004c 7047     		bx	lr
 12666              		.cfi_endproc
 12667              	.LFE210:
 12669 004e 00BF     		.section	.text.hrtim_set_fault_cfg,"ax",%progbits
 12670              		.align	1
 12671              		.p2align 4,,15
 12672              		.global	hrtim_set_fault_cfg
 12673              		.syntax unified
 12674              		.thumb
 12675              		.thumb_func
 12677              	hrtim_set_fault_cfg:
 12678              	.LFB211:
2146:C:/StellarStudio-7.0/SDKS/StellarESDK-1.7.0/Modules/Drivers/Timers/HRTIM/src\hrtim.c **** 
2147:C:/StellarStudio-7.0/SDKS/StellarESDK-1.7.0/Modules/Drivers/Timers/HRTIM/src\hrtim.c **** void hrtim_set_fault_cfg(hrtim_driver_t *hdp,
2148:C:/StellarStudio-7.0/SDKS/StellarESDK-1.7.0/Modules/Drivers/Timers/HRTIM/src\hrtim.c ****                          hrtim_fault_t fault_idx,
2149:C:/StellarStudio-7.0/SDKS/StellarESDK-1.7.0/Modules/Drivers/Timers/HRTIM/src\hrtim.c ****                          bool enable,
2150:C:/StellarStudio-7.0/SDKS/StellarESDK-1.7.0/Modules/Drivers/Timers/HRTIM/src\hrtim.c ****                          uint32_t source,
2151:C:/StellarStudio-7.0/SDKS/StellarESDK-1.7.0/Modules/Drivers/Timers/HRTIM/src\hrtim.c ****                          uint32_t polarity,
2152:C:/StellarStudio-7.0/SDKS/StellarESDK-1.7.0/Modules/Drivers/Timers/HRTIM/src\hrtim.c ****                          uint32_t filter,
2153:C:/StellarStudio-7.0/SDKS/StellarESDK-1.7.0/Modules/Drivers/Timers/HRTIM/src\hrtim.c ****                          uint32_t lock) {
 12679              		.loc 1 2153 41
 12680              		.cfi_startproc
 12681              		@ args = 12, pretend = 0, frame = 16
 12682              		@ frame_needed = 0, uses_anonymous_args = 0
 12683              		@ link register save eliminated.
 12684 0000 84B0     		sub	sp, sp, #16
 12685              		.cfi_def_cfa_offset 16
 12686 0002 0390     		str	r0, [sp, #12]
 12687 0004 0193     		str	r3, [sp, #4]
 12688 0006 0B46     		mov	r3, r1
 12689 0008 8DF80B30 		strb	r3, [sp, #11]
 12690 000c 1346     		mov	r3, r2
 12691 000e 8DF80A30 		strb	r3, [sp, #10]
2154:C:/StellarStudio-7.0/SDKS/StellarESDK-1.7.0/Modules/Drivers/Timers/HRTIM/src\hrtim.c **** 
2155:C:/StellarStudio-7.0/SDKS/StellarESDK-1.7.0/Modules/Drivers/Timers/HRTIM/src\hrtim.c ****     hdp->fault[fault_idx].fault_idx = fault_idx;
 12692              		.loc 1 2155 26
 12693 0012 9DF80B20 		ldrb	r2, [sp, #11]	@ zero_extendqisi2
 12694              		.loc 1 2155 37
 12695 0016 0399     		ldr	r1, [sp, #12]
 12696 0018 1346     		mov	r3, r2
 12697 001a 9B00     		lsls	r3, r3, #2
 12698 001c 1344     		add	r3, r3, r2
 12699 001e 9B00     		lsls	r3, r3, #2
 12700 0020 0B44     		add	r3, r3, r1
 12701 0022 03F6E813 		addw	r3, r3, #2536
 12702 0026 9DF80B20 		ldrb	r2, [sp, #11]
 12703 002a 1A70     		strb	r2, [r3]
2156:C:/StellarStudio-7.0/SDKS/StellarESDK-1.7.0/Modules/Drivers/Timers/HRTIM/src\hrtim.c ****     hdp->fault[fault_idx].enable = enable;
 12704              		.loc 1 2156 26
 12705 002c 9DF80B20 		ldrb	r2, [sp, #11]	@ zero_extendqisi2
 12706              		.loc 1 2156 34
 12707 0030 0399     		ldr	r1, [sp, #12]
 12708 0032 1346     		mov	r3, r2
 12709 0034 9B00     		lsls	r3, r3, #2
 12710 0036 1344     		add	r3, r3, r2
 12711 0038 9B00     		lsls	r3, r3, #2
 12712 003a 0B44     		add	r3, r3, r1
 12713 003c 03F6E913 		addw	r3, r3, #2537
 12714 0040 9DF80A20 		ldrb	r2, [sp, #10]
 12715 0044 1A70     		strb	r2, [r3]
2157:C:/StellarStudio-7.0/SDKS/StellarESDK-1.7.0/Modules/Drivers/Timers/HRTIM/src\hrtim.c ****     hdp->fault[fault_idx].source = source;
 12716              		.loc 1 2157 26
 12717 0046 9DF80B20 		ldrb	r2, [sp, #11]	@ zero_extendqisi2
 12718              		.loc 1 2157 34
 12719 004a 0399     		ldr	r1, [sp, #12]
 12720 004c 1346     		mov	r3, r2
 12721 004e 9B00     		lsls	r3, r3, #2
 12722 0050 1344     		add	r3, r3, r2
 12723 0052 9B00     		lsls	r3, r3, #2
 12724 0054 0B44     		add	r3, r3, r1
 12725 0056 03F6EC13 		addw	r3, r3, #2540
 12726 005a 019A     		ldr	r2, [sp, #4]
 12727 005c 1A60     		str	r2, [r3]
2158:C:/StellarStudio-7.0/SDKS/StellarESDK-1.7.0/Modules/Drivers/Timers/HRTIM/src\hrtim.c ****     hdp->fault[fault_idx].polarity = polarity;
 12728              		.loc 1 2158 26
 12729 005e 9DF80B20 		ldrb	r2, [sp, #11]	@ zero_extendqisi2
 12730              		.loc 1 2158 36
 12731 0062 0399     		ldr	r1, [sp, #12]
 12732 0064 1346     		mov	r3, r2
 12733 0066 9B00     		lsls	r3, r3, #2
 12734 0068 1344     		add	r3, r3, r2
 12735 006a 9B00     		lsls	r3, r3, #2
 12736 006c 0B44     		add	r3, r3, r1
 12737 006e 03F51F63 		add	r3, r3, #2544
 12738 0072 049A     		ldr	r2, [sp, #16]
 12739 0074 1A60     		str	r2, [r3]
2159:C:/StellarStudio-7.0/SDKS/StellarESDK-1.7.0/Modules/Drivers/Timers/HRTIM/src\hrtim.c ****     hdp->fault[fault_idx].filter = filter;
 12740              		.loc 1 2159 26
 12741 0076 9DF80B20 		ldrb	r2, [sp, #11]	@ zero_extendqisi2
 12742              		.loc 1 2159 34
 12743 007a 0399     		ldr	r1, [sp, #12]
 12744 007c 1346     		mov	r3, r2
 12745 007e 9B00     		lsls	r3, r3, #2
 12746 0080 1344     		add	r3, r3, r2
 12747 0082 9B00     		lsls	r3, r3, #2
 12748 0084 0B44     		add	r3, r3, r1
 12749 0086 03F6F413 		addw	r3, r3, #2548
 12750 008a 059A     		ldr	r2, [sp, #20]
 12751 008c 1A60     		str	r2, [r3]
2160:C:/StellarStudio-7.0/SDKS/StellarESDK-1.7.0/Modules/Drivers/Timers/HRTIM/src\hrtim.c ****     hdp->fault[fault_idx].lock = lock;
 12752              		.loc 1 2160 26
 12753 008e 9DF80B20 		ldrb	r2, [sp, #11]	@ zero_extendqisi2
 12754              		.loc 1 2160 32
 12755 0092 0399     		ldr	r1, [sp, #12]
 12756 0094 1346     		mov	r3, r2
 12757 0096 9B00     		lsls	r3, r3, #2
 12758 0098 1344     		add	r3, r3, r2
 12759 009a 9B00     		lsls	r3, r3, #2
 12760 009c 0B44     		add	r3, r3, r1
 12761 009e 03F6F813 		addw	r3, r3, #2552
 12762 00a2 069A     		ldr	r2, [sp, #24]
 12763 00a4 1A60     		str	r2, [r3]
2161:C:/StellarStudio-7.0/SDKS/StellarESDK-1.7.0/Modules/Drivers/Timers/HRTIM/src\hrtim.c **** }
 12764              		.loc 1 2161 1
 12765 00a6 00BF     		nop
 12766 00a8 04B0     		add	sp, sp, #16
 12767              		.cfi_def_cfa_offset 0
 12768              		@ sp needed
 12769 00aa 7047     		bx	lr
 12770              		.cfi_endproc
 12771              	.LFE211:
 12773              		.section	.text.hrtim_set_fault_prsc,"ax",%progbits
 12774              		.align	1
 12775              		.p2align 4,,15
 12776              		.global	hrtim_set_fault_prsc
 12777              		.syntax unified
 12778              		.thumb
 12779              		.thumb_func
 12781              	hrtim_set_fault_prsc:
 12782              	.LFB212:
2162:C:/StellarStudio-7.0/SDKS/StellarESDK-1.7.0/Modules/Drivers/Timers/HRTIM/src\hrtim.c **** 
2163:C:/StellarStudio-7.0/SDKS/StellarESDK-1.7.0/Modules/Drivers/Timers/HRTIM/src\hrtim.c **** hrtim_fault_prsc_t hrtim_set_fault_prsc(hrtim_driver_t *hdp,
2164:C:/StellarStudio-7.0/SDKS/StellarESDK-1.7.0/Modules/Drivers/Timers/HRTIM/src\hrtim.c ****                                         hrtim_fault_prsc_t prescaler){
 12783              		.loc 1 2164 70
 12784              		.cfi_startproc
 12785              		@ args = 0, pretend = 0, frame = 16
 12786              		@ frame_needed = 0, uses_anonymous_args = 0
 12787              		@ link register save eliminated.
 12788 0000 84B0     		sub	sp, sp, #16
 12789              		.cfi_def_cfa_offset 16
 12790 0002 0190     		str	r0, [sp, #4]
 12791 0004 0B46     		mov	r3, r1
 12792 0006 8DF80330 		strb	r3, [sp, #3]
2165:C:/StellarStudio-7.0/SDKS/StellarESDK-1.7.0/Modules/Drivers/Timers/HRTIM/src\hrtim.c **** 
2166:C:/StellarStudio-7.0/SDKS/StellarESDK-1.7.0/Modules/Drivers/Timers/HRTIM/src\hrtim.c ****     hrtim_fault_prsc_t prev_fault_prescaler;
2167:C:/StellarStudio-7.0/SDKS/StellarESDK-1.7.0/Modules/Drivers/Timers/HRTIM/src\hrtim.c **** 
2168:C:/StellarStudio-7.0/SDKS/StellarESDK-1.7.0/Modules/Drivers/Timers/HRTIM/src\hrtim.c ****     prev_fault_prescaler = hdp->fault_prescaler;
 12793              		.loc 1 2168 26
 12794 000a 019B     		ldr	r3, [sp, #4]
 12795 000c 93F8603A 		ldrb	r3, [r3, #2656]
 12796 0010 8DF80F30 		strb	r3, [sp, #15]
2169:C:/StellarStudio-7.0/SDKS/StellarESDK-1.7.0/Modules/Drivers/Timers/HRTIM/src\hrtim.c ****     hdp->fault_prescaler = prescaler;
 12797              		.loc 1 2169 26
 12798 0014 019B     		ldr	r3, [sp, #4]
 12799 0016 9DF80320 		ldrb	r2, [sp, #3]
 12800 001a 83F8602A 		strb	r2, [r3, #2656]
2170:C:/StellarStudio-7.0/SDKS/StellarESDK-1.7.0/Modules/Drivers/Timers/HRTIM/src\hrtim.c **** 
2171:C:/StellarStudio-7.0/SDKS/StellarESDK-1.7.0/Modules/Drivers/Timers/HRTIM/src\hrtim.c ****     return prev_fault_prescaler;
 12801              		.loc 1 2171 12
 12802 001e 9DF80F30 		ldrb	r3, [sp, #15]	@ zero_extendqisi2
2172:C:/StellarStudio-7.0/SDKS/StellarESDK-1.7.0/Modules/Drivers/Timers/HRTIM/src\hrtim.c **** }
 12803              		.loc 1 2172 1
 12804 0022 1846     		mov	r0, r3
 12805 0024 04B0     		add	sp, sp, #16
 12806              		.cfi_def_cfa_offset 0
 12807              		@ sp needed
 12808 0026 7047     		bx	lr
 12809              		.cfi_endproc
 12810              	.LFE212:
 12812              		.section	.text.hrtim_set_fault_counter_cfg,"ax",%progbits
 12813              		.align	1
 12814              		.p2align 4,,15
 12815              		.global	hrtim_set_fault_counter_cfg
 12816              		.syntax unified
 12817              		.thumb
 12818              		.thumb_func
 12820              	hrtim_set_fault_counter_cfg:
 12821              	.LFB213:
2173:C:/StellarStudio-7.0/SDKS/StellarESDK-1.7.0/Modules/Drivers/Timers/HRTIM/src\hrtim.c **** 
2174:C:/StellarStudio-7.0/SDKS/StellarESDK-1.7.0/Modules/Drivers/Timers/HRTIM/src\hrtim.c **** void hrtim_set_fault_counter_cfg(hrtim_driver_t *hdp,
2175:C:/StellarStudio-7.0/SDKS/StellarESDK-1.7.0/Modules/Drivers/Timers/HRTIM/src\hrtim.c ****                                  hrtim_fault_t fault_idx,
2176:C:/StellarStudio-7.0/SDKS/StellarESDK-1.7.0/Modules/Drivers/Timers/HRTIM/src\hrtim.c ****                                  uint32_t threshold, 
2177:C:/StellarStudio-7.0/SDKS/StellarESDK-1.7.0/Modules/Drivers/Timers/HRTIM/src\hrtim.c ****                                  uint32_t reset_mode,
2178:C:/StellarStudio-7.0/SDKS/StellarESDK-1.7.0/Modules/Drivers/Timers/HRTIM/src\hrtim.c ****                                  bool blanking_enable,								 
2179:C:/StellarStudio-7.0/SDKS/StellarESDK-1.7.0/Modules/Drivers/Timers/HRTIM/src\hrtim.c ****                                  uint32_t blanking_source) {
 12822              		.loc 1 2179 60
 12823              		.cfi_startproc
 12824              		@ args = 8, pretend = 0, frame = 16
 12825              		@ frame_needed = 0, uses_anonymous_args = 0
 12826              		@ link register save eliminated.
 12827 0000 84B0     		sub	sp, sp, #16
 12828              		.cfi_def_cfa_offset 16
 12829 0002 0390     		str	r0, [sp, #12]
 12830 0004 0192     		str	r2, [sp, #4]
 12831 0006 0093     		str	r3, [sp]
 12832 0008 0B46     		mov	r3, r1
 12833 000a 8DF80B30 		strb	r3, [sp, #11]
2180:C:/StellarStudio-7.0/SDKS/StellarESDK-1.7.0/Modules/Drivers/Timers/HRTIM/src\hrtim.c **** 
2181:C:/StellarStudio-7.0/SDKS/StellarESDK-1.7.0/Modules/Drivers/Timers/HRTIM/src\hrtim.c ****     hdp->fault_blnk[fault_idx].threshold = threshold;
 12834              		.loc 1 2181 31
 12835 000e 9DF80B30 		ldrb	r3, [sp, #11]	@ zero_extendqisi2
 12836              		.loc 1 2181 42
 12837 0012 039A     		ldr	r2, [sp, #12]
 12838 0014 A633     		adds	r3, r3, #166
 12839 0016 1B01     		lsls	r3, r3, #4
 12840 0018 1344     		add	r3, r3, r2
 12841 001a 0433     		adds	r3, r3, #4
 12842 001c 019A     		ldr	r2, [sp, #4]
 12843 001e 1A60     		str	r2, [r3]
2182:C:/StellarStudio-7.0/SDKS/StellarESDK-1.7.0/Modules/Drivers/Timers/HRTIM/src\hrtim.c ****     hdp->fault_blnk[fault_idx].reset_mode = reset_mode;
 12844              		.loc 1 2182 31
 12845 0020 9DF80B30 		ldrb	r3, [sp, #11]	@ zero_extendqisi2
 12846              		.loc 1 2182 43
 12847 0024 039A     		ldr	r2, [sp, #12]
 12848 0026 A633     		adds	r3, r3, #166
 12849 0028 1B01     		lsls	r3, r3, #4
 12850 002a 1344     		add	r3, r3, r2
 12851 002c 0833     		adds	r3, r3, #8
 12852 002e 009A     		ldr	r2, [sp]
 12853 0030 1A60     		str	r2, [r3]
2183:C:/StellarStudio-7.0/SDKS/StellarESDK-1.7.0/Modules/Drivers/Timers/HRTIM/src\hrtim.c ****     hdp->fault_blnk[fault_idx].blanking_enable = blanking_enable;	
 12854              		.loc 1 2183 31
 12855 0032 9DF80B30 		ldrb	r3, [sp, #11]	@ zero_extendqisi2
 12856              		.loc 1 2183 48
 12857 0036 039A     		ldr	r2, [sp, #12]
 12858 0038 1B01     		lsls	r3, r3, #4
 12859 003a 1344     		add	r3, r3, r2
 12860 003c 03F66C23 		addw	r3, r3, #2668
 12861 0040 9DF81020 		ldrb	r2, [sp, #16]
 12862 0044 1A70     		strb	r2, [r3]
2184:C:/StellarStudio-7.0/SDKS/StellarESDK-1.7.0/Modules/Drivers/Timers/HRTIM/src\hrtim.c ****     hdp->fault_blnk[fault_idx].blanking_source = blanking_source;
 12863              		.loc 1 2184 31
 12864 0046 9DF80B30 		ldrb	r3, [sp, #11]	@ zero_extendqisi2
 12865              		.loc 1 2184 48
 12866 004a 039A     		ldr	r2, [sp, #12]
 12867 004c 1B01     		lsls	r3, r3, #4
 12868 004e 1344     		add	r3, r3, r2
 12869 0050 03F52763 		add	r3, r3, #2672
 12870 0054 059A     		ldr	r2, [sp, #20]
 12871 0056 1A60     		str	r2, [r3]
2185:C:/StellarStudio-7.0/SDKS/StellarESDK-1.7.0/Modules/Drivers/Timers/HRTIM/src\hrtim.c **** }
 12872              		.loc 1 2185 1
 12873 0058 00BF     		nop
 12874 005a 04B0     		add	sp, sp, #16
 12875              		.cfi_def_cfa_offset 0
 12876              		@ sp needed
 12877 005c 7047     		bx	lr
 12878              		.cfi_endproc
 12879              	.LFE213:
 12881 005e 00BF     		.section	.text.hrtim_timer_set_output_faultstate,"ax",%progbits
 12882              		.align	1
 12883              		.p2align 4,,15
 12884              		.global	hrtim_timer_set_output_faultstate
 12885              		.syntax unified
 12886              		.thumb
 12887              		.thumb_func
 12889              	hrtim_timer_set_output_faultstate:
 12890              	.LFB214:
2186:C:/StellarStudio-7.0/SDKS/StellarESDK-1.7.0/Modules/Drivers/Timers/HRTIM/src\hrtim.c **** 
2187:C:/StellarStudio-7.0/SDKS/StellarESDK-1.7.0/Modules/Drivers/Timers/HRTIM/src\hrtim.c **** hrtim_out_faultstate_t hrtim_timer_set_output_faultstate(hrtim_driver_t *hdp,
2188:C:/StellarStudio-7.0/SDKS/StellarESDK-1.7.0/Modules/Drivers/Timers/HRTIM/src\hrtim.c ****                                                          hrtim_timer_t timer,
2189:C:/StellarStudio-7.0/SDKS/StellarESDK-1.7.0/Modules/Drivers/Timers/HRTIM/src\hrtim.c ****                                                          hrtim_out_t output,
2190:C:/StellarStudio-7.0/SDKS/StellarESDK-1.7.0/Modules/Drivers/Timers/HRTIM/src\hrtim.c ****                                                          hrtim_out_faultstate_t fault_state) {
 12891              		.loc 1 2190 94
 12892              		.cfi_startproc
 12893              		@ args = 0, pretend = 0, frame = 16
 12894              		@ frame_needed = 0, uses_anonymous_args = 0
 12895              		@ link register save eliminated.
 12896 0000 84B0     		sub	sp, sp, #16
 12897              		.cfi_def_cfa_offset 16
 12898 0002 0190     		str	r0, [sp, #4]
 12899 0004 0846     		mov	r0, r1
 12900 0006 1146     		mov	r1, r2
 12901 0008 1A46     		mov	r2, r3
 12902 000a 0346     		mov	r3, r0
 12903 000c 8DF80330 		strb	r3, [sp, #3]
 12904 0010 0B46     		mov	r3, r1
 12905 0012 8DF80230 		strb	r3, [sp, #2]
 12906 0016 1346     		mov	r3, r2
 12907 0018 8DF80130 		strb	r3, [sp, #1]
2191:C:/StellarStudio-7.0/SDKS/StellarESDK-1.7.0/Modules/Drivers/Timers/HRTIM/src\hrtim.c ****     hrtim_out_faultstate_t prev_fault_state;
2192:C:/StellarStudio-7.0/SDKS/StellarESDK-1.7.0/Modules/Drivers/Timers/HRTIM/src\hrtim.c **** 
2193:C:/StellarStudio-7.0/SDKS/StellarESDK-1.7.0/Modules/Drivers/Timers/HRTIM/src\hrtim.c ****     prev_fault_state =  hdp->fault_state[timer][output];
 12908              		.loc 1 2193 48
 12909 001c 9DF80320 		ldrb	r2, [sp, #3]	@ zero_extendqisi2
 12910 0020 9DF80230 		ldrb	r3, [sp, #2]	@ zero_extendqisi2
 12911              		.loc 1 2193 22
 12912 0024 0199     		ldr	r1, [sp, #4]
 12913 0026 5200     		lsls	r2, r2, #1
 12914 0028 0A44     		add	r2, r2, r1
 12915 002a 1344     		add	r3, r3, r2
 12916 002c 03F6C423 		addw	r3, r3, #2756
 12917 0030 1B78     		ldrb	r3, [r3]
 12918 0032 8DF80F30 		strb	r3, [sp, #15]
2194:C:/StellarStudio-7.0/SDKS/StellarESDK-1.7.0/Modules/Drivers/Timers/HRTIM/src\hrtim.c ****     hdp->fault_state[timer][output] = fault_state;
 12919              		.loc 1 2194 28
 12920 0036 9DF80320 		ldrb	r2, [sp, #3]	@ zero_extendqisi2
 12921 003a 9DF80230 		ldrb	r3, [sp, #2]	@ zero_extendqisi2
 12922              		.loc 1 2194 37
 12923 003e 0199     		ldr	r1, [sp, #4]
 12924 0040 5200     		lsls	r2, r2, #1
 12925 0042 0A44     		add	r2, r2, r1
 12926 0044 1344     		add	r3, r3, r2
 12927 0046 03F6C423 		addw	r3, r3, #2756
 12928 004a 9DF80120 		ldrb	r2, [sp, #1]
 12929 004e 1A70     		strb	r2, [r3]
2195:C:/StellarStudio-7.0/SDKS/StellarESDK-1.7.0/Modules/Drivers/Timers/HRTIM/src\hrtim.c **** 
2196:C:/StellarStudio-7.0/SDKS/StellarESDK-1.7.0/Modules/Drivers/Timers/HRTIM/src\hrtim.c ****     return prev_fault_state;
 12930              		.loc 1 2196 12
 12931 0050 9DF80F30 		ldrb	r3, [sp, #15]	@ zero_extendqisi2
2197:C:/StellarStudio-7.0/SDKS/StellarESDK-1.7.0/Modules/Drivers/Timers/HRTIM/src\hrtim.c **** }
 12932              		.loc 1 2197 1
 12933 0054 1846     		mov	r0, r3
 12934 0056 04B0     		add	sp, sp, #16
 12935              		.cfi_def_cfa_offset 0
 12936              		@ sp needed
 12937 0058 7047     		bx	lr
 12938              		.cfi_endproc
 12939              	.LFE214:
 12941 005a 00BF     		.section	.text.hrtim_timer_set_output_idlestate,"ax",%progbits
 12942              		.align	1
 12943              		.p2align 4,,15
 12944              		.global	hrtim_timer_set_output_idlestate
 12945              		.syntax unified
 12946              		.thumb
 12947              		.thumb_func
 12949              	hrtim_timer_set_output_idlestate:
 12950              	.LFB215:
2198:C:/StellarStudio-7.0/SDKS/StellarESDK-1.7.0/Modules/Drivers/Timers/HRTIM/src\hrtim.c **** 
2199:C:/StellarStudio-7.0/SDKS/StellarESDK-1.7.0/Modules/Drivers/Timers/HRTIM/src\hrtim.c **** hrtim_out_idlestate_t hrtim_timer_set_output_idlestate(hrtim_driver_t *hdp,
2200:C:/StellarStudio-7.0/SDKS/StellarESDK-1.7.0/Modules/Drivers/Timers/HRTIM/src\hrtim.c ****                                                        hrtim_timer_t timer,
2201:C:/StellarStudio-7.0/SDKS/StellarESDK-1.7.0/Modules/Drivers/Timers/HRTIM/src\hrtim.c ****                                                        hrtim_out_t output,
2202:C:/StellarStudio-7.0/SDKS/StellarESDK-1.7.0/Modules/Drivers/Timers/HRTIM/src\hrtim.c ****                                                        hrtim_out_idlestate_t idle_state) {
 12951              		.loc 1 2202 90
 12952              		.cfi_startproc
 12953              		@ args = 0, pretend = 0, frame = 16
 12954              		@ frame_needed = 0, uses_anonymous_args = 0
 12955              		@ link register save eliminated.
 12956 0000 84B0     		sub	sp, sp, #16
 12957              		.cfi_def_cfa_offset 16
 12958 0002 0190     		str	r0, [sp, #4]
 12959 0004 0846     		mov	r0, r1
 12960 0006 1146     		mov	r1, r2
 12961 0008 1A46     		mov	r2, r3
 12962 000a 0346     		mov	r3, r0
 12963 000c 8DF80330 		strb	r3, [sp, #3]
 12964 0010 0B46     		mov	r3, r1
 12965 0012 8DF80230 		strb	r3, [sp, #2]
 12966 0016 1346     		mov	r3, r2
 12967 0018 8DF80130 		strb	r3, [sp, #1]
2203:C:/StellarStudio-7.0/SDKS/StellarESDK-1.7.0/Modules/Drivers/Timers/HRTIM/src\hrtim.c ****     hrtim_out_idlestate_t prev_idle_state;
2204:C:/StellarStudio-7.0/SDKS/StellarESDK-1.7.0/Modules/Drivers/Timers/HRTIM/src\hrtim.c **** 
2205:C:/StellarStudio-7.0/SDKS/StellarESDK-1.7.0/Modules/Drivers/Timers/HRTIM/src\hrtim.c ****     prev_idle_state = hdp->idle_state[timer][output];
 12968              		.loc 1 2205 45
 12969 001c 9DF80320 		ldrb	r2, [sp, #3]	@ zero_extendqisi2
 12970 0020 9DF80230 		ldrb	r3, [sp, #2]	@ zero_extendqisi2
 12971              		.loc 1 2205 21
 12972 0024 0199     		ldr	r1, [sp, #4]
 12973 0026 5200     		lsls	r2, r2, #1
 12974 0028 0A44     		add	r2, r2, r1
 12975 002a 1344     		add	r3, r3, r2
 12976 002c 03F52D63 		add	r3, r3, #2768
 12977 0030 1B78     		ldrb	r3, [r3]
 12978 0032 8DF80F30 		strb	r3, [sp, #15]
2206:C:/StellarStudio-7.0/SDKS/StellarESDK-1.7.0/Modules/Drivers/Timers/HRTIM/src\hrtim.c ****     hdp->idle_state[timer][output] = idle_state;
 12979              		.loc 1 2206 27
 12980 0036 9DF80320 		ldrb	r2, [sp, #3]	@ zero_extendqisi2
 12981 003a 9DF80230 		ldrb	r3, [sp, #2]	@ zero_extendqisi2
 12982              		.loc 1 2206 36
 12983 003e 0199     		ldr	r1, [sp, #4]
 12984 0040 5200     		lsls	r2, r2, #1
 12985 0042 0A44     		add	r2, r2, r1
 12986 0044 1344     		add	r3, r3, r2
 12987 0046 03F52D63 		add	r3, r3, #2768
 12988 004a 9DF80120 		ldrb	r2, [sp, #1]
 12989 004e 1A70     		strb	r2, [r3]
2207:C:/StellarStudio-7.0/SDKS/StellarESDK-1.7.0/Modules/Drivers/Timers/HRTIM/src\hrtim.c **** 
2208:C:/StellarStudio-7.0/SDKS/StellarESDK-1.7.0/Modules/Drivers/Timers/HRTIM/src\hrtim.c ****     return prev_idle_state;
 12990              		.loc 1 2208 12
 12991 0050 9DF80F30 		ldrb	r3, [sp, #15]	@ zero_extendqisi2
2209:C:/StellarStudio-7.0/SDKS/StellarESDK-1.7.0/Modules/Drivers/Timers/HRTIM/src\hrtim.c **** }
 12992              		.loc 1 2209 1
 12993 0054 1846     		mov	r0, r3
 12994 0056 04B0     		add	sp, sp, #16
 12995              		.cfi_def_cfa_offset 0
 12996              		@ sp needed
 12997 0058 7047     		bx	lr
 12998              		.cfi_endproc
 12999              	.LFE215:
 13001 005a 00BF     		.section	.text.hrtim_timer_set_output_polarity,"ax",%progbits
 13002              		.align	1
 13003              		.p2align 4,,15
 13004              		.global	hrtim_timer_set_output_polarity
 13005              		.syntax unified
 13006              		.thumb
 13007              		.thumb_func
 13009              	hrtim_timer_set_output_polarity:
 13010              	.LFB216:
2210:C:/StellarStudio-7.0/SDKS/StellarESDK-1.7.0/Modules/Drivers/Timers/HRTIM/src\hrtim.c **** 
2211:C:/StellarStudio-7.0/SDKS/StellarESDK-1.7.0/Modules/Drivers/Timers/HRTIM/src\hrtim.c **** hrtim_out_polarity_t hrtim_timer_set_output_polarity(hrtim_driver_t *hdp,
2212:C:/StellarStudio-7.0/SDKS/StellarESDK-1.7.0/Modules/Drivers/Timers/HRTIM/src\hrtim.c ****                                                      hrtim_timer_t timer,
2213:C:/StellarStudio-7.0/SDKS/StellarESDK-1.7.0/Modules/Drivers/Timers/HRTIM/src\hrtim.c ****                                                      hrtim_out_t output,
2214:C:/StellarStudio-7.0/SDKS/StellarESDK-1.7.0/Modules/Drivers/Timers/HRTIM/src\hrtim.c ****                                                      hrtim_out_polarity_t polarity) {
 13011              		.loc 1 2214 85
 13012              		.cfi_startproc
 13013              		@ args = 0, pretend = 0, frame = 16
 13014              		@ frame_needed = 0, uses_anonymous_args = 0
 13015              		@ link register save eliminated.
 13016 0000 84B0     		sub	sp, sp, #16
 13017              		.cfi_def_cfa_offset 16
 13018 0002 0190     		str	r0, [sp, #4]
 13019 0004 0846     		mov	r0, r1
 13020 0006 1146     		mov	r1, r2
 13021 0008 1A46     		mov	r2, r3
 13022 000a 0346     		mov	r3, r0
 13023 000c 8DF80330 		strb	r3, [sp, #3]
 13024 0010 0B46     		mov	r3, r1
 13025 0012 8DF80230 		strb	r3, [sp, #2]
 13026 0016 1346     		mov	r3, r2
 13027 0018 8DF80130 		strb	r3, [sp, #1]
2215:C:/StellarStudio-7.0/SDKS/StellarESDK-1.7.0/Modules/Drivers/Timers/HRTIM/src\hrtim.c **** 
2216:C:/StellarStudio-7.0/SDKS/StellarESDK-1.7.0/Modules/Drivers/Timers/HRTIM/src\hrtim.c ****     hrtim_out_polarity_t prev_out_polarity;
2217:C:/StellarStudio-7.0/SDKS/StellarESDK-1.7.0/Modules/Drivers/Timers/HRTIM/src\hrtim.c **** 
2218:C:/StellarStudio-7.0/SDKS/StellarESDK-1.7.0/Modules/Drivers/Timers/HRTIM/src\hrtim.c ****     prev_out_polarity = hdp->out_polarity[timer][output];
 13028              		.loc 1 2218 49
 13029 001c 9DF80320 		ldrb	r2, [sp, #3]	@ zero_extendqisi2
 13030 0020 9DF80230 		ldrb	r3, [sp, #2]	@ zero_extendqisi2
 13031              		.loc 1 2218 23
 13032 0024 0199     		ldr	r1, [sp, #4]
 13033 0026 5200     		lsls	r2, r2, #1
 13034 0028 0A44     		add	r2, r2, r1
 13035 002a 1344     		add	r3, r3, r2
 13036 002c 03F6DC23 		addw	r3, r3, #2780
 13037 0030 1B78     		ldrb	r3, [r3]
 13038 0032 8DF80F30 		strb	r3, [sp, #15]
2219:C:/StellarStudio-7.0/SDKS/StellarESDK-1.7.0/Modules/Drivers/Timers/HRTIM/src\hrtim.c ****     hdp->out_polarity[timer][output] = polarity;
 13039              		.loc 1 2219 29
 13040 0036 9DF80320 		ldrb	r2, [sp, #3]	@ zero_extendqisi2
 13041 003a 9DF80230 		ldrb	r3, [sp, #2]	@ zero_extendqisi2
 13042              		.loc 1 2219 38
 13043 003e 0199     		ldr	r1, [sp, #4]
 13044 0040 5200     		lsls	r2, r2, #1
 13045 0042 0A44     		add	r2, r2, r1
 13046 0044 1344     		add	r3, r3, r2
 13047 0046 03F6DC23 		addw	r3, r3, #2780
 13048 004a 9DF80120 		ldrb	r2, [sp, #1]
 13049 004e 1A70     		strb	r2, [r3]
2220:C:/StellarStudio-7.0/SDKS/StellarESDK-1.7.0/Modules/Drivers/Timers/HRTIM/src\hrtim.c **** 
2221:C:/StellarStudio-7.0/SDKS/StellarESDK-1.7.0/Modules/Drivers/Timers/HRTIM/src\hrtim.c ****     return prev_out_polarity;
 13050              		.loc 1 2221 12
 13051 0050 9DF80F30 		ldrb	r3, [sp, #15]	@ zero_extendqisi2
2222:C:/StellarStudio-7.0/SDKS/StellarESDK-1.7.0/Modules/Drivers/Timers/HRTIM/src\hrtim.c **** }
 13052              		.loc 1 2222 1
 13053 0054 1846     		mov	r0, r3
 13054 0056 04B0     		add	sp, sp, #16
 13055              		.cfi_def_cfa_offset 0
 13056              		@ sp needed
 13057 0058 7047     		bx	lr
 13058              		.cfi_endproc
 13059              	.LFE216:
 13061 005a 00BF     		.section	.text.hrtim_timer_get_output_state,"ax",%progbits
 13062              		.align	1
 13063              		.p2align 4,,15
 13064              		.global	hrtim_timer_get_output_state
 13065              		.syntax unified
 13066              		.thumb
 13067              		.thumb_func
 13069              	hrtim_timer_get_output_state:
 13070              	.LFB217:
2223:C:/StellarStudio-7.0/SDKS/StellarESDK-1.7.0/Modules/Drivers/Timers/HRTIM/src\hrtim.c **** 
2224:C:/StellarStudio-7.0/SDKS/StellarESDK-1.7.0/Modules/Drivers/Timers/HRTIM/src\hrtim.c **** hrtim_output_state_t hrtim_timer_get_output_state(hrtim_driver_t *hdp,
2225:C:/StellarStudio-7.0/SDKS/StellarESDK-1.7.0/Modules/Drivers/Timers/HRTIM/src\hrtim.c ****                                                   hrtim_timer_t timer,
2226:C:/StellarStudio-7.0/SDKS/StellarESDK-1.7.0/Modules/Drivers/Timers/HRTIM/src\hrtim.c ****                                                   hrtim_out_t output) {
 13071              		.loc 1 2226 71
 13072              		.cfi_startproc
 13073              		@ args = 0, pretend = 0, frame = 16
 13074              		@ frame_needed = 0, uses_anonymous_args = 0
 13075              		@ link register save eliminated.
 13076 0000 84B0     		sub	sp, sp, #16
 13077              		.cfi_def_cfa_offset 16
 13078 0002 0190     		str	r0, [sp, #4]
 13079 0004 0B46     		mov	r3, r1
 13080 0006 8DF80330 		strb	r3, [sp, #3]
 13081 000a 1346     		mov	r3, r2
 13082 000c 8DF80230 		strb	r3, [sp, #2]
2227:C:/StellarStudio-7.0/SDKS/StellarESDK-1.7.0/Modules/Drivers/Timers/HRTIM/src\hrtim.c **** 
2228:C:/StellarStudio-7.0/SDKS/StellarESDK-1.7.0/Modules/Drivers/Timers/HRTIM/src\hrtim.c ****     uint32_t output_bit = ((0x01UL << ((uint32_t)output)) << (((uint32_t)timer) * 2U));
 13083              		.loc 1 2228 40
 13084 0010 9DF80230 		ldrb	r3, [sp, #2]	@ zero_extendqisi2
 13085              		.loc 1 2228 36
 13086 0014 0122     		movs	r2, #1
 13087 0016 9A40     		lsls	r2, r2, r3
 13088              		.loc 1 2228 64
 13089 0018 9DF80330 		ldrb	r3, [sp, #3]	@ zero_extendqisi2
 13090              		.loc 1 2228 81
 13091 001c 5B00     		lsls	r3, r3, #1
 13092              		.loc 1 2228 14
 13093 001e 02FA03F3 		lsl	r3, r2, r3
 13094 0022 0393     		str	r3, [sp, #12]
2229:C:/StellarStudio-7.0/SDKS/StellarESDK-1.7.0/Modules/Drivers/Timers/HRTIM/src\hrtim.c **** 
2230:C:/StellarStudio-7.0/SDKS/StellarESDK-1.7.0/Modules/Drivers/Timers/HRTIM/src\hrtim.c ****     if ((hdp->hrtim->sCommonRegs.OENR & output_bit) != 0U) {
 13095              		.loc 1 2230 13
 13096 0024 019B     		ldr	r3, [sp, #4]
 13097 0026 1B68     		ldr	r3, [r3]
 13098              		.loc 1 2230 33
 13099 0028 D3F89423 		ldr	r2, [r3, #916]
 13100              		.loc 1 2230 39
 13101 002c 039B     		ldr	r3, [sp, #12]
 13102 002e 1340     		ands	r3, r3, r2
 13103              		.loc 1 2230 8
 13104 0030 002B     		cmp	r3, #0
 13105 0032 01D0     		beq	.L444
2231:C:/StellarStudio-7.0/SDKS/StellarESDK-1.7.0/Modules/Drivers/Timers/HRTIM/src\hrtim.c ****         return HRTIM_OUTPUT_STATE_RUN;
 13106              		.loc 1 2231 16
 13107 0034 0023     		movs	r3, #0
 13108 0036 0AE0     		b	.L445
 13109              	.L444:
2232:C:/StellarStudio-7.0/SDKS/StellarESDK-1.7.0/Modules/Drivers/Timers/HRTIM/src\hrtim.c ****     } else {
2233:C:/StellarStudio-7.0/SDKS/StellarESDK-1.7.0/Modules/Drivers/Timers/HRTIM/src\hrtim.c ****         if ((hdp->hrtim->sCommonRegs.ODSR & output_bit) != 0U) {
 13110              		.loc 1 2233 17
 13111 0038 019B     		ldr	r3, [sp, #4]
 13112 003a 1B68     		ldr	r3, [r3]
 13113              		.loc 1 2233 37
 13114 003c D3F89C23 		ldr	r2, [r3, #924]
 13115              		.loc 1 2233 43
 13116 0040 039B     		ldr	r3, [sp, #12]
 13117 0042 1340     		ands	r3, r3, r2
 13118              		.loc 1 2233 12
 13119 0044 002B     		cmp	r3, #0
 13120 0046 01D0     		beq	.L446
2234:C:/StellarStudio-7.0/SDKS/StellarESDK-1.7.0/Modules/Drivers/Timers/HRTIM/src\hrtim.c ****             return HRTIM_OUTPUT_STATE_FAULT;
 13121              		.loc 1 2234 20
 13122 0048 0223     		movs	r3, #2
 13123 004a 00E0     		b	.L445
 13124              	.L446:
2235:C:/StellarStudio-7.0/SDKS/StellarESDK-1.7.0/Modules/Drivers/Timers/HRTIM/src\hrtim.c ****         } else {
2236:C:/StellarStudio-7.0/SDKS/StellarESDK-1.7.0/Modules/Drivers/Timers/HRTIM/src\hrtim.c ****             return HRTIM_OUTPUT_STATE_IDLE;
 13125              		.loc 1 2236 20
 13126 004c 0123     		movs	r3, #1
 13127              	.L445:
2237:C:/StellarStudio-7.0/SDKS/StellarESDK-1.7.0/Modules/Drivers/Timers/HRTIM/src\hrtim.c ****         }
2238:C:/StellarStudio-7.0/SDKS/StellarESDK-1.7.0/Modules/Drivers/Timers/HRTIM/src\hrtim.c ****     }
2239:C:/StellarStudio-7.0/SDKS/StellarESDK-1.7.0/Modules/Drivers/Timers/HRTIM/src\hrtim.c **** }
 13128              		.loc 1 2239 1
 13129 004e 1846     		mov	r0, r3
 13130 0050 04B0     		add	sp, sp, #16
 13131              		.cfi_def_cfa_offset 0
 13132              		@ sp needed
 13133 0052 7047     		bx	lr
 13134              		.cfi_endproc
 13135              	.LFE217:
 13137              		.section	.text.hrtim_timer_set_capture_unit,"ax",%progbits
 13138              		.align	1
 13139              		.p2align 4,,15
 13140              		.global	hrtim_timer_set_capture_unit
 13141              		.syntax unified
 13142              		.thumb
 13143              		.thumb_func
 13145              	hrtim_timer_set_capture_unit:
 13146              	.LFB218:
2240:C:/StellarStudio-7.0/SDKS/StellarESDK-1.7.0/Modules/Drivers/Timers/HRTIM/src\hrtim.c **** 
2241:C:/StellarStudio-7.0/SDKS/StellarESDK-1.7.0/Modules/Drivers/Timers/HRTIM/src\hrtim.c **** void hrtim_timer_set_capture_unit(hrtim_driver_t *hdp,
2242:C:/StellarStudio-7.0/SDKS/StellarESDK-1.7.0/Modules/Drivers/Timers/HRTIM/src\hrtim.c ****                                   hrtim_timer_t timer,
2243:C:/StellarStudio-7.0/SDKS/StellarESDK-1.7.0/Modules/Drivers/Timers/HRTIM/src\hrtim.c ****                                   uint32_t cpt1_source,
2244:C:/StellarStudio-7.0/SDKS/StellarESDK-1.7.0/Modules/Drivers/Timers/HRTIM/src\hrtim.c ****                                   uint32_t cpt2_source) {
 13147              		.loc 1 2244 57
 13148              		.cfi_startproc
 13149              		@ args = 0, pretend = 0, frame = 16
 13150              		@ frame_needed = 0, uses_anonymous_args = 0
 13151              		@ link register save eliminated.
 13152 0000 84B0     		sub	sp, sp, #16
 13153              		.cfi_def_cfa_offset 16
 13154 0002 0390     		str	r0, [sp, #12]
 13155 0004 0192     		str	r2, [sp, #4]
 13156 0006 0093     		str	r3, [sp]
 13157 0008 0B46     		mov	r3, r1
 13158 000a 8DF80B30 		strb	r3, [sp, #11]
2245:C:/StellarStudio-7.0/SDKS/StellarESDK-1.7.0/Modules/Drivers/Timers/HRTIM/src\hrtim.c **** 
2246:C:/StellarStudio-7.0/SDKS/StellarESDK-1.7.0/Modules/Drivers/Timers/HRTIM/src\hrtim.c ****     if (timer != HRTIM_TIMER_MASTER) {
 13159              		.loc 1 2246 8
 13160 000e 9DF80B30 		ldrb	r3, [sp, #11]	@ zero_extendqisi2
 13161 0012 062B     		cmp	r3, #6
 13162 0014 10D0     		beq	.L449
2247:C:/StellarStudio-7.0/SDKS/StellarESDK-1.7.0/Modules/Drivers/Timers/HRTIM/src\hrtim.c ****         hdp->cpt_unit[timer].capture_trg_1 = cpt1_source;
 13163              		.loc 1 2247 29
 13164 0016 9DF80B20 		ldrb	r2, [sp, #11]	@ zero_extendqisi2
 13165              		.loc 1 2247 44
 13166 001a 039B     		ldr	r3, [sp, #12]
 13167 001c 02F25D12 		addw	r2, r2, #349
 13168 0020 0199     		ldr	r1, [sp, #4]
 13169 0022 43F83210 		str	r1, [r3, r2, lsl #3]
2248:C:/StellarStudio-7.0/SDKS/StellarESDK-1.7.0/Modules/Drivers/Timers/HRTIM/src\hrtim.c ****         hdp->cpt_unit[timer].capture_trg_2 = cpt2_source;
 13170              		.loc 1 2248 29
 13171 0026 9DF80B30 		ldrb	r3, [sp, #11]	@ zero_extendqisi2
 13172              		.loc 1 2248 44
 13173 002a 039A     		ldr	r2, [sp, #12]
 13174 002c 03F25D13 		addw	r3, r3, #349
 13175 0030 DB00     		lsls	r3, r3, #3
 13176 0032 1344     		add	r3, r3, r2
 13177 0034 009A     		ldr	r2, [sp]
 13178 0036 5A60     		str	r2, [r3, #4]
 13179              	.L449:
2249:C:/StellarStudio-7.0/SDKS/StellarESDK-1.7.0/Modules/Drivers/Timers/HRTIM/src\hrtim.c ****     }
2250:C:/StellarStudio-7.0/SDKS/StellarESDK-1.7.0/Modules/Drivers/Timers/HRTIM/src\hrtim.c **** }
 13180              		.loc 1 2250 1
 13181 0038 00BF     		nop
 13182 003a 04B0     		add	sp, sp, #16
 13183              		.cfi_def_cfa_offset 0
 13184              		@ sp needed
 13185 003c 7047     		bx	lr
 13186              		.cfi_endproc
 13187              	.LFE218:
 13189 003e 00BF     		.section	.text.hrtim_timer_fault_enable,"ax",%progbits
 13190              		.align	1
 13191              		.p2align 4,,15
 13192              		.global	hrtim_timer_fault_enable
 13193              		.syntax unified
 13194              		.thumb
 13195              		.thumb_func
 13197              	hrtim_timer_fault_enable:
 13198              	.LFB219:
2251:C:/StellarStudio-7.0/SDKS/StellarESDK-1.7.0/Modules/Drivers/Timers/HRTIM/src\hrtim.c **** 
2252:C:/StellarStudio-7.0/SDKS/StellarESDK-1.7.0/Modules/Drivers/Timers/HRTIM/src\hrtim.c **** void hrtim_timer_fault_enable(hrtim_driver_t *hdp,
2253:C:/StellarStudio-7.0/SDKS/StellarESDK-1.7.0/Modules/Drivers/Timers/HRTIM/src\hrtim.c ****                               hrtim_timer_t timer,
2254:C:/StellarStudio-7.0/SDKS/StellarESDK-1.7.0/Modules/Drivers/Timers/HRTIM/src\hrtim.c ****                               hrtim_fault_t flt_source,
2255:C:/StellarStudio-7.0/SDKS/StellarESDK-1.7.0/Modules/Drivers/Timers/HRTIM/src\hrtim.c ****                               uint32_t flt_lock) {
 13199              		.loc 1 2255 50
 13200              		.cfi_startproc
 13201              		@ args = 0, pretend = 0, frame = 16
 13202              		@ frame_needed = 0, uses_anonymous_args = 0
 13203              		@ link register save eliminated.
 13204 0000 84B0     		sub	sp, sp, #16
 13205              		.cfi_def_cfa_offset 16
 13206 0002 0390     		str	r0, [sp, #12]
 13207 0004 0193     		str	r3, [sp, #4]
 13208 0006 0B46     		mov	r3, r1
 13209 0008 8DF80B30 		strb	r3, [sp, #11]
 13210 000c 1346     		mov	r3, r2
 13211 000e 8DF80A30 		strb	r3, [sp, #10]
2256:C:/StellarStudio-7.0/SDKS/StellarESDK-1.7.0/Modules/Drivers/Timers/HRTIM/src\hrtim.c **** 
2257:C:/StellarStudio-7.0/SDKS/StellarESDK-1.7.0/Modules/Drivers/Timers/HRTIM/src\hrtim.c ****     if(hdp->is_enable == true) {
 13212              		.loc 1 2257 11
 13213 0012 039B     		ldr	r3, [sp, #12]
 13214 0014 1B79     		ldrb	r3, [r3, #4]	@ zero_extendqisi2
 13215              		.loc 1 2257 7
 13216 0016 002B     		cmp	r3, #0
 13217 0018 26D0     		beq	.L452
2258:C:/StellarStudio-7.0/SDKS/StellarESDK-1.7.0/Modules/Drivers/Timers/HRTIM/src\hrtim.c ****         hdp->hrtim->sTimerxRegs[timer].FLTxR |= (0x01UL << ((uint32_t)flt_source));
 13218              		.loc 1 2258 12
 13219 001a 039B     		ldr	r3, [sp, #12]
 13220 001c 1A68     		ldr	r2, [r3]
 13221              		.loc 1 2258 46
 13222 001e 9DF80B30 		ldrb	r3, [sp, #11]	@ zero_extendqisi2
 13223 0022 DB01     		lsls	r3, r3, #7
 13224 0024 1344     		add	r3, r3, r2
 13225 0026 E833     		adds	r3, r3, #232
 13226 0028 1868     		ldr	r0, [r3]
 13227              		.loc 1 2258 61
 13228 002a 9DF80A30 		ldrb	r3, [sp, #10]	@ zero_extendqisi2
 13229              		.loc 1 2258 57
 13230 002e 0122     		movs	r2, #1
 13231 0030 9A40     		lsls	r2, r2, r3
 13232              		.loc 1 2258 12
 13233 0032 039B     		ldr	r3, [sp, #12]
 13234 0034 1968     		ldr	r1, [r3]
 13235              		.loc 1 2258 46
 13236 0036 9DF80B30 		ldrb	r3, [sp, #11]	@ zero_extendqisi2
 13237 003a 0243     		orrs	r2, r2, r0
 13238 003c DB01     		lsls	r3, r3, #7
 13239 003e 0B44     		add	r3, r3, r1
 13240 0040 E833     		adds	r3, r3, #232
 13241 0042 1A60     		str	r2, [r3]
2259:C:/StellarStudio-7.0/SDKS/StellarESDK-1.7.0/Modules/Drivers/Timers/HRTIM/src\hrtim.c ****         /* The FLTLCK bit(Fault sources lock) is write-once. Once it has been
2260:C:/StellarStudio-7.0/SDKS/StellarESDK-1.7.0/Modules/Drivers/Timers/HRTIM/src\hrtim.c ****            set, it cannot be modified till the next system or IP reset.*/
2261:C:/StellarStudio-7.0/SDKS/StellarESDK-1.7.0/Modules/Drivers/Timers/HRTIM/src\hrtim.c ****         hdp->hrtim->sTimerxRegs[timer].FLTxR |= flt_lock;
 13242              		.loc 1 2261 12
 13243 0044 039B     		ldr	r3, [sp, #12]
 13244 0046 1A68     		ldr	r2, [r3]
 13245              		.loc 1 2261 46
 13246 0048 9DF80B30 		ldrb	r3, [sp, #11]	@ zero_extendqisi2
 13247 004c DB01     		lsls	r3, r3, #7
 13248 004e 1344     		add	r3, r3, r2
 13249 0050 E833     		adds	r3, r3, #232
 13250 0052 1868     		ldr	r0, [r3]
 13251              		.loc 1 2261 12
 13252 0054 039B     		ldr	r3, [sp, #12]
 13253 0056 1968     		ldr	r1, [r3]
 13254              		.loc 1 2261 46
 13255 0058 9DF80B30 		ldrb	r3, [sp, #11]	@ zero_extendqisi2
 13256 005c 019A     		ldr	r2, [sp, #4]
 13257 005e 0243     		orrs	r2, r2, r0
 13258 0060 DB01     		lsls	r3, r3, #7
 13259 0062 0B44     		add	r3, r3, r1
 13260 0064 E833     		adds	r3, r3, #232
 13261 0066 1A60     		str	r2, [r3]
 13262              	.L452:
2262:C:/StellarStudio-7.0/SDKS/StellarESDK-1.7.0/Modules/Drivers/Timers/HRTIM/src\hrtim.c ****     }
2263:C:/StellarStudio-7.0/SDKS/StellarESDK-1.7.0/Modules/Drivers/Timers/HRTIM/src\hrtim.c **** }
 13263              		.loc 1 2263 1
 13264 0068 00BF     		nop
 13265 006a 04B0     		add	sp, sp, #16
 13266              		.cfi_def_cfa_offset 0
 13267              		@ sp needed
 13268 006c 7047     		bx	lr
 13269              		.cfi_endproc
 13270              	.LFE219:
 13272 006e 00BF     		.section	.text.hrtim_set_sync_in,"ax",%progbits
 13273              		.align	1
 13274              		.p2align 4,,15
 13275              		.global	hrtim_set_sync_in
 13276              		.syntax unified
 13277              		.thumb
 13278              		.thumb_func
 13280              	hrtim_set_sync_in:
 13281              	.LFB220:
2264:C:/StellarStudio-7.0/SDKS/StellarESDK-1.7.0/Modules/Drivers/Timers/HRTIM/src\hrtim.c **** 
2265:C:/StellarStudio-7.0/SDKS/StellarESDK-1.7.0/Modules/Drivers/Timers/HRTIM/src\hrtim.c **** hrtim_syncin_t hrtim_set_sync_in(hrtim_driver_t *hdp, hrtim_syncin_t sync_in) {
 13282              		.loc 1 2265 79
 13283              		.cfi_startproc
 13284              		@ args = 0, pretend = 0, frame = 16
 13285              		@ frame_needed = 0, uses_anonymous_args = 0
 13286              		@ link register save eliminated.
 13287 0000 84B0     		sub	sp, sp, #16
 13288              		.cfi_def_cfa_offset 16
 13289 0002 0190     		str	r0, [sp, #4]
 13290 0004 0B46     		mov	r3, r1
 13291 0006 8DF80330 		strb	r3, [sp, #3]
2266:C:/StellarStudio-7.0/SDKS/StellarESDK-1.7.0/Modules/Drivers/Timers/HRTIM/src\hrtim.c **** 
2267:C:/StellarStudio-7.0/SDKS/StellarESDK-1.7.0/Modules/Drivers/Timers/HRTIM/src\hrtim.c ****     hrtim_syncin_t prev_sync_in;
2268:C:/StellarStudio-7.0/SDKS/StellarESDK-1.7.0/Modules/Drivers/Timers/HRTIM/src\hrtim.c **** 
2269:C:/StellarStudio-7.0/SDKS/StellarESDK-1.7.0/Modules/Drivers/Timers/HRTIM/src\hrtim.c ****     prev_sync_in = hdp->sync_in;
 13292              		.loc 1 2269 18
 13293 000a 019B     		ldr	r3, [sp, #4]
 13294 000c 93F8183B 		ldrb	r3, [r3, #2840]
 13295 0010 8DF80F30 		strb	r3, [sp, #15]
2270:C:/StellarStudio-7.0/SDKS/StellarESDK-1.7.0/Modules/Drivers/Timers/HRTIM/src\hrtim.c ****     hdp->sync_in = sync_in;
 13296              		.loc 1 2270 18
 13297 0014 019B     		ldr	r3, [sp, #4]
 13298 0016 9DF80320 		ldrb	r2, [sp, #3]
 13299 001a 83F8182B 		strb	r2, [r3, #2840]
2271:C:/StellarStudio-7.0/SDKS/StellarESDK-1.7.0/Modules/Drivers/Timers/HRTIM/src\hrtim.c **** 
2272:C:/StellarStudio-7.0/SDKS/StellarESDK-1.7.0/Modules/Drivers/Timers/HRTIM/src\hrtim.c ****     return prev_sync_in;
 13300              		.loc 1 2272 12
 13301 001e 9DF80F30 		ldrb	r3, [sp, #15]	@ zero_extendqisi2
2273:C:/StellarStudio-7.0/SDKS/StellarESDK-1.7.0/Modules/Drivers/Timers/HRTIM/src\hrtim.c **** }
 13302              		.loc 1 2273 1
 13303 0022 1846     		mov	r0, r3
 13304 0024 04B0     		add	sp, sp, #16
 13305              		.cfi_def_cfa_offset 0
 13306              		@ sp needed
 13307 0026 7047     		bx	lr
 13308              		.cfi_endproc
 13309              	.LFE220:
 13311              		.section	.text.hrtim_set_sync_out,"ax",%progbits
 13312              		.align	1
 13313              		.p2align 4,,15
 13314              		.global	hrtim_set_sync_out
 13315              		.syntax unified
 13316              		.thumb
 13317              		.thumb_func
 13319              	hrtim_set_sync_out:
 13320              	.LFB221:
2274:C:/StellarStudio-7.0/SDKS/StellarESDK-1.7.0/Modules/Drivers/Timers/HRTIM/src\hrtim.c **** 
2275:C:/StellarStudio-7.0/SDKS/StellarESDK-1.7.0/Modules/Drivers/Timers/HRTIM/src\hrtim.c **** hrtim_syncout_t hrtim_set_sync_out(hrtim_driver_t *hdp,
2276:C:/StellarStudio-7.0/SDKS/StellarESDK-1.7.0/Modules/Drivers/Timers/HRTIM/src\hrtim.c ****                                    hrtim_syncout_t sync_out) {
 13321              		.loc 1 2276 62
 13322              		.cfi_startproc
 13323              		@ args = 0, pretend = 0, frame = 16
 13324              		@ frame_needed = 0, uses_anonymous_args = 0
 13325              		@ link register save eliminated.
 13326 0000 84B0     		sub	sp, sp, #16
 13327              		.cfi_def_cfa_offset 16
 13328 0002 0190     		str	r0, [sp, #4]
 13329 0004 0B46     		mov	r3, r1
 13330 0006 8DF80330 		strb	r3, [sp, #3]
2277:C:/StellarStudio-7.0/SDKS/StellarESDK-1.7.0/Modules/Drivers/Timers/HRTIM/src\hrtim.c **** 
2278:C:/StellarStudio-7.0/SDKS/StellarESDK-1.7.0/Modules/Drivers/Timers/HRTIM/src\hrtim.c ****     hrtim_syncout_t prev_sync_out;
2279:C:/StellarStudio-7.0/SDKS/StellarESDK-1.7.0/Modules/Drivers/Timers/HRTIM/src\hrtim.c **** 
2280:C:/StellarStudio-7.0/SDKS/StellarESDK-1.7.0/Modules/Drivers/Timers/HRTIM/src\hrtim.c ****     prev_sync_out = hdp->sync_out;
 13331              		.loc 1 2280 19
 13332 000a 019B     		ldr	r3, [sp, #4]
 13333 000c 93F8193B 		ldrb	r3, [r3, #2841]
 13334 0010 8DF80F30 		strb	r3, [sp, #15]
2281:C:/StellarStudio-7.0/SDKS/StellarESDK-1.7.0/Modules/Drivers/Timers/HRTIM/src\hrtim.c ****     hdp->sync_out = sync_out;
 13335              		.loc 1 2281 19
 13336 0014 019B     		ldr	r3, [sp, #4]
 13337 0016 9DF80320 		ldrb	r2, [sp, #3]
 13338 001a 83F8192B 		strb	r2, [r3, #2841]
2282:C:/StellarStudio-7.0/SDKS/StellarESDK-1.7.0/Modules/Drivers/Timers/HRTIM/src\hrtim.c **** 
2283:C:/StellarStudio-7.0/SDKS/StellarESDK-1.7.0/Modules/Drivers/Timers/HRTIM/src\hrtim.c ****     return prev_sync_out;
 13339              		.loc 1 2283 12
 13340 001e 9DF80F30 		ldrb	r3, [sp, #15]	@ zero_extendqisi2
2284:C:/StellarStudio-7.0/SDKS/StellarESDK-1.7.0/Modules/Drivers/Timers/HRTIM/src\hrtim.c **** }
 13341              		.loc 1 2284 1
 13342 0022 1846     		mov	r0, r3
 13343 0024 04B0     		add	sp, sp, #16
 13344              		.cfi_def_cfa_offset 0
 13345              		@ sp needed
 13346 0026 7047     		bx	lr
 13347              		.cfi_endproc
 13348              	.LFE221:
 13350              		.section	.text.hrtim_set_sync_src,"ax",%progbits
 13351              		.align	1
 13352              		.p2align 4,,15
 13353              		.global	hrtim_set_sync_src
 13354              		.syntax unified
 13355              		.thumb
 13356              		.thumb_func
 13358              	hrtim_set_sync_src:
 13359              	.LFB222:
2285:C:/StellarStudio-7.0/SDKS/StellarESDK-1.7.0/Modules/Drivers/Timers/HRTIM/src\hrtim.c **** 
2286:C:/StellarStudio-7.0/SDKS/StellarESDK-1.7.0/Modules/Drivers/Timers/HRTIM/src\hrtim.c **** hrtim_syncsrc_t hrtim_set_sync_src(hrtim_driver_t *hdp,
2287:C:/StellarStudio-7.0/SDKS/StellarESDK-1.7.0/Modules/Drivers/Timers/HRTIM/src\hrtim.c ****                                    hrtim_syncsrc_t sync_src) {
 13360              		.loc 1 2287 62
 13361              		.cfi_startproc
 13362              		@ args = 0, pretend = 0, frame = 16
 13363              		@ frame_needed = 0, uses_anonymous_args = 0
 13364              		@ link register save eliminated.
 13365 0000 84B0     		sub	sp, sp, #16
 13366              		.cfi_def_cfa_offset 16
 13367 0002 0190     		str	r0, [sp, #4]
 13368 0004 0B46     		mov	r3, r1
 13369 0006 8DF80330 		strb	r3, [sp, #3]
2288:C:/StellarStudio-7.0/SDKS/StellarESDK-1.7.0/Modules/Drivers/Timers/HRTIM/src\hrtim.c **** 
2289:C:/StellarStudio-7.0/SDKS/StellarESDK-1.7.0/Modules/Drivers/Timers/HRTIM/src\hrtim.c ****     hrtim_syncsrc_t prev_sync_src;
2290:C:/StellarStudio-7.0/SDKS/StellarESDK-1.7.0/Modules/Drivers/Timers/HRTIM/src\hrtim.c **** 
2291:C:/StellarStudio-7.0/SDKS/StellarESDK-1.7.0/Modules/Drivers/Timers/HRTIM/src\hrtim.c ****     prev_sync_src = hdp->sync_src;
 13370              		.loc 1 2291 19
 13371 000a 019B     		ldr	r3, [sp, #4]
 13372 000c 93F81A3B 		ldrb	r3, [r3, #2842]
 13373 0010 8DF80F30 		strb	r3, [sp, #15]
2292:C:/StellarStudio-7.0/SDKS/StellarESDK-1.7.0/Modules/Drivers/Timers/HRTIM/src\hrtim.c ****     hdp->sync_src = sync_src;
 13374              		.loc 1 2292 19
 13375 0014 019B     		ldr	r3, [sp, #4]
 13376 0016 9DF80320 		ldrb	r2, [sp, #3]
 13377 001a 83F81A2B 		strb	r2, [r3, #2842]
2293:C:/StellarStudio-7.0/SDKS/StellarESDK-1.7.0/Modules/Drivers/Timers/HRTIM/src\hrtim.c **** 
2294:C:/StellarStudio-7.0/SDKS/StellarESDK-1.7.0/Modules/Drivers/Timers/HRTIM/src\hrtim.c ****     return prev_sync_src;
 13378              		.loc 1 2294 12
 13379 001e 9DF80F30 		ldrb	r3, [sp, #15]	@ zero_extendqisi2
2295:C:/StellarStudio-7.0/SDKS/StellarESDK-1.7.0/Modules/Drivers/Timers/HRTIM/src\hrtim.c **** }
 13380              		.loc 1 2295 1
 13381 0022 1846     		mov	r0, r3
 13382 0024 04B0     		add	sp, sp, #16
 13383              		.cfi_def_cfa_offset 0
 13384              		@ sp needed
 13385 0026 7047     		bx	lr
 13386              		.cfi_endproc
 13387              	.LFE222:
 13389              		.section	.text.hrtim_enable_sync_start,"ax",%progbits
 13390              		.align	1
 13391              		.p2align 4,,15
 13392              		.global	hrtim_enable_sync_start
 13393              		.syntax unified
 13394              		.thumb
 13395              		.thumb_func
 13397              	hrtim_enable_sync_start:
 13398              	.LFB223:
2296:C:/StellarStudio-7.0/SDKS/StellarESDK-1.7.0/Modules/Drivers/Timers/HRTIM/src\hrtim.c **** 
2297:C:/StellarStudio-7.0/SDKS/StellarESDK-1.7.0/Modules/Drivers/Timers/HRTIM/src\hrtim.c **** bool hrtim_enable_sync_start(hrtim_driver_t *hdp, hrtim_timer_t timer,
2298:C:/StellarStudio-7.0/SDKS/StellarESDK-1.7.0/Modules/Drivers/Timers/HRTIM/src\hrtim.c ****                              bool enable) {
 13399              		.loc 1 2298 43
 13400              		.cfi_startproc
 13401              		@ args = 0, pretend = 0, frame = 16
 13402              		@ frame_needed = 0, uses_anonymous_args = 0
 13403              		@ link register save eliminated.
 13404 0000 84B0     		sub	sp, sp, #16
 13405              		.cfi_def_cfa_offset 16
 13406 0002 0190     		str	r0, [sp, #4]
 13407 0004 0B46     		mov	r3, r1
 13408 0006 8DF80330 		strb	r3, [sp, #3]
 13409 000a 1346     		mov	r3, r2
 13410 000c 8DF80230 		strb	r3, [sp, #2]
2299:C:/StellarStudio-7.0/SDKS/StellarESDK-1.7.0/Modules/Drivers/Timers/HRTIM/src\hrtim.c **** 
2300:C:/StellarStudio-7.0/SDKS/StellarESDK-1.7.0/Modules/Drivers/Timers/HRTIM/src\hrtim.c ****     bool prev_sync_start;
2301:C:/StellarStudio-7.0/SDKS/StellarESDK-1.7.0/Modules/Drivers/Timers/HRTIM/src\hrtim.c **** 
2302:C:/StellarStudio-7.0/SDKS/StellarESDK-1.7.0/Modules/Drivers/Timers/HRTIM/src\hrtim.c ****     if (timer == HRTIM_TIMER_MASTER) {
 13411              		.loc 1 2302 8
 13412 0010 9DF80330 		ldrb	r3, [sp, #3]	@ zero_extendqisi2
 13413 0014 062B     		cmp	r3, #6
 13414 0016 0AD1     		bne	.L460
2303:C:/StellarStudio-7.0/SDKS/StellarESDK-1.7.0/Modules/Drivers/Timers/HRTIM/src\hrtim.c ****         prev_sync_start = hdp->is_master_sync_start;
 13415              		.loc 1 2303 25
 13416 0018 019B     		ldr	r3, [sp, #4]
 13417 001a 93F81B3B 		ldrb	r3, [r3, #2843]
 13418 001e 8DF80F30 		strb	r3, [sp, #15]
2304:C:/StellarStudio-7.0/SDKS/StellarESDK-1.7.0/Modules/Drivers/Timers/HRTIM/src\hrtim.c ****         hdp->is_master_sync_start = enable;
 13419              		.loc 1 2304 35
 13420 0022 019B     		ldr	r3, [sp, #4]
 13421 0024 9DF80220 		ldrb	r2, [sp, #2]
 13422 0028 83F81B2B 		strb	r2, [r3, #2843]
 13423 002c 0FE0     		b	.L461
 13424              	.L460:
2305:C:/StellarStudio-7.0/SDKS/StellarESDK-1.7.0/Modules/Drivers/Timers/HRTIM/src\hrtim.c ****     } else {
2306:C:/StellarStudio-7.0/SDKS/StellarESDK-1.7.0/Modules/Drivers/Timers/HRTIM/src\hrtim.c ****         prev_sync_start = hdp->is_timer_sync_start[timer];
 13425              		.loc 1 2306 51
 13426 002e 9DF80330 		ldrb	r3, [sp, #3]	@ zero_extendqisi2
 13427              		.loc 1 2306 25
 13428 0032 019A     		ldr	r2, [sp, #4]
 13429 0034 1344     		add	r3, r3, r2
 13430 0036 93F81D3B 		ldrb	r3, [r3, #2845]
 13431 003a 8DF80F30 		strb	r3, [sp, #15]
2307:C:/StellarStudio-7.0/SDKS/StellarESDK-1.7.0/Modules/Drivers/Timers/HRTIM/src\hrtim.c ****         hdp->is_timer_sync_start[timer] = enable;
 13432              		.loc 1 2307 33
 13433 003e 9DF80330 		ldrb	r3, [sp, #3]	@ zero_extendqisi2
 13434              		.loc 1 2307 41
 13435 0042 019A     		ldr	r2, [sp, #4]
 13436 0044 1344     		add	r3, r3, r2
 13437 0046 9DF80220 		ldrb	r2, [sp, #2]
 13438 004a 83F81D2B 		strb	r2, [r3, #2845]
 13439              	.L461:
2308:C:/StellarStudio-7.0/SDKS/StellarESDK-1.7.0/Modules/Drivers/Timers/HRTIM/src\hrtim.c ****     }
2309:C:/StellarStudio-7.0/SDKS/StellarESDK-1.7.0/Modules/Drivers/Timers/HRTIM/src\hrtim.c **** 
2310:C:/StellarStudio-7.0/SDKS/StellarESDK-1.7.0/Modules/Drivers/Timers/HRTIM/src\hrtim.c ****     return prev_sync_start;
 13440              		.loc 1 2310 12
 13441 004e 9DF80F30 		ldrb	r3, [sp, #15]	@ zero_extendqisi2
2311:C:/StellarStudio-7.0/SDKS/StellarESDK-1.7.0/Modules/Drivers/Timers/HRTIM/src\hrtim.c **** }
 13442              		.loc 1 2311 1
 13443 0052 1846     		mov	r0, r3
 13444 0054 04B0     		add	sp, sp, #16
 13445              		.cfi_def_cfa_offset 0
 13446              		@ sp needed
 13447 0056 7047     		bx	lr
 13448              		.cfi_endproc
 13449              	.LFE223:
 13451              		.section	.text.hrtim_enable_sync_reset,"ax",%progbits
 13452              		.align	1
 13453              		.p2align 4,,15
 13454              		.global	hrtim_enable_sync_reset
 13455              		.syntax unified
 13456              		.thumb
 13457              		.thumb_func
 13459              	hrtim_enable_sync_reset:
 13460              	.LFB224:
2312:C:/StellarStudio-7.0/SDKS/StellarESDK-1.7.0/Modules/Drivers/Timers/HRTIM/src\hrtim.c **** 
2313:C:/StellarStudio-7.0/SDKS/StellarESDK-1.7.0/Modules/Drivers/Timers/HRTIM/src\hrtim.c **** bool hrtim_enable_sync_reset(hrtim_driver_t *hdp, hrtim_timer_t timer,
2314:C:/StellarStudio-7.0/SDKS/StellarESDK-1.7.0/Modules/Drivers/Timers/HRTIM/src\hrtim.c ****                              bool enable) {
 13461              		.loc 1 2314 43
 13462              		.cfi_startproc
 13463              		@ args = 0, pretend = 0, frame = 16
 13464              		@ frame_needed = 0, uses_anonymous_args = 0
 13465              		@ link register save eliminated.
 13466 0000 84B0     		sub	sp, sp, #16
 13467              		.cfi_def_cfa_offset 16
 13468 0002 0190     		str	r0, [sp, #4]
 13469 0004 0B46     		mov	r3, r1
 13470 0006 8DF80330 		strb	r3, [sp, #3]
 13471 000a 1346     		mov	r3, r2
 13472 000c 8DF80230 		strb	r3, [sp, #2]
2315:C:/StellarStudio-7.0/SDKS/StellarESDK-1.7.0/Modules/Drivers/Timers/HRTIM/src\hrtim.c **** 
2316:C:/StellarStudio-7.0/SDKS/StellarESDK-1.7.0/Modules/Drivers/Timers/HRTIM/src\hrtim.c ****     bool prev_sync_reset;
2317:C:/StellarStudio-7.0/SDKS/StellarESDK-1.7.0/Modules/Drivers/Timers/HRTIM/src\hrtim.c **** 
2318:C:/StellarStudio-7.0/SDKS/StellarESDK-1.7.0/Modules/Drivers/Timers/HRTIM/src\hrtim.c ****     if (timer == HRTIM_TIMER_MASTER) {
 13473              		.loc 1 2318 8
 13474 0010 9DF80330 		ldrb	r3, [sp, #3]	@ zero_extendqisi2
 13475 0014 062B     		cmp	r3, #6
 13476 0016 0AD1     		bne	.L464
2319:C:/StellarStudio-7.0/SDKS/StellarESDK-1.7.0/Modules/Drivers/Timers/HRTIM/src\hrtim.c ****         prev_sync_reset = hdp->is_master_sync_reset;
 13477              		.loc 1 2319 25
 13478 0018 019B     		ldr	r3, [sp, #4]
 13479 001a 93F81C3B 		ldrb	r3, [r3, #2844]
 13480 001e 8DF80F30 		strb	r3, [sp, #15]
2320:C:/StellarStudio-7.0/SDKS/StellarESDK-1.7.0/Modules/Drivers/Timers/HRTIM/src\hrtim.c ****         hdp->is_master_sync_reset = enable;
 13481              		.loc 1 2320 35
 13482 0022 019B     		ldr	r3, [sp, #4]
 13483 0024 9DF80220 		ldrb	r2, [sp, #2]
 13484 0028 83F81C2B 		strb	r2, [r3, #2844]
 13485 002c 0FE0     		b	.L465
 13486              	.L464:
2321:C:/StellarStudio-7.0/SDKS/StellarESDK-1.7.0/Modules/Drivers/Timers/HRTIM/src\hrtim.c ****     } else {
2322:C:/StellarStudio-7.0/SDKS/StellarESDK-1.7.0/Modules/Drivers/Timers/HRTIM/src\hrtim.c ****         prev_sync_reset = hdp->is_timer_sync_reset[timer];
 13487              		.loc 1 2322 51
 13488 002e 9DF80330 		ldrb	r3, [sp, #3]	@ zero_extendqisi2
 13489              		.loc 1 2322 25
 13490 0032 019A     		ldr	r2, [sp, #4]
 13491 0034 1344     		add	r3, r3, r2
 13492 0036 93F8233B 		ldrb	r3, [r3, #2851]
 13493 003a 8DF80F30 		strb	r3, [sp, #15]
2323:C:/StellarStudio-7.0/SDKS/StellarESDK-1.7.0/Modules/Drivers/Timers/HRTIM/src\hrtim.c ****         hdp->is_timer_sync_reset[timer] = enable;
 13494              		.loc 1 2323 33
 13495 003e 9DF80330 		ldrb	r3, [sp, #3]	@ zero_extendqisi2
 13496              		.loc 1 2323 41
 13497 0042 019A     		ldr	r2, [sp, #4]
 13498 0044 1344     		add	r3, r3, r2
 13499 0046 9DF80220 		ldrb	r2, [sp, #2]
 13500 004a 83F8232B 		strb	r2, [r3, #2851]
 13501              	.L465:
2324:C:/StellarStudio-7.0/SDKS/StellarESDK-1.7.0/Modules/Drivers/Timers/HRTIM/src\hrtim.c ****     }
2325:C:/StellarStudio-7.0/SDKS/StellarESDK-1.7.0/Modules/Drivers/Timers/HRTIM/src\hrtim.c **** 
2326:C:/StellarStudio-7.0/SDKS/StellarESDK-1.7.0/Modules/Drivers/Timers/HRTIM/src\hrtim.c ****     return prev_sync_reset;
 13502              		.loc 1 2326 12
 13503 004e 9DF80F30 		ldrb	r3, [sp, #15]	@ zero_extendqisi2
2327:C:/StellarStudio-7.0/SDKS/StellarESDK-1.7.0/Modules/Drivers/Timers/HRTIM/src\hrtim.c **** }
 13504              		.loc 1 2327 1
 13505 0052 1846     		mov	r0, r3
 13506 0054 04B0     		add	sp, sp, #16
 13507              		.cfi_def_cfa_offset 0
 13508              		@ sp needed
 13509 0056 7047     		bx	lr
 13510              		.cfi_endproc
 13511              	.LFE224:
 13513              		.section	.text.hrtim_stop,"ax",%progbits
 13514              		.align	1
 13515              		.p2align 4,,15
 13516              		.global	hrtim_stop
 13517              		.syntax unified
 13518              		.thumb
 13519              		.thumb_func
 13521              	hrtim_stop:
 13522              	.LFB225:
2328:C:/StellarStudio-7.0/SDKS/StellarESDK-1.7.0/Modules/Drivers/Timers/HRTIM/src\hrtim.c **** 
2329:C:/StellarStudio-7.0/SDKS/StellarESDK-1.7.0/Modules/Drivers/Timers/HRTIM/src\hrtim.c **** void hrtim_stop(hrtim_driver_t *hdp) {
 13523              		.loc 1 2329 38
 13524              		.cfi_startproc
 13525              		@ args = 0, pretend = 0, frame = 16
 13526              		@ frame_needed = 0, uses_anonymous_args = 0
 13527 0000 00B5     		push	{lr}
 13528              		.cfi_def_cfa_offset 4
 13529              		.cfi_offset 14, -4
 13530 0002 85B0     		sub	sp, sp, #20
 13531              		.cfi_def_cfa_offset 24
 13532 0004 0190     		str	r0, [sp, #4]
2330:C:/StellarStudio-7.0/SDKS/StellarESDK-1.7.0/Modules/Drivers/Timers/HRTIM/src\hrtim.c **** 
2331:C:/StellarStudio-7.0/SDKS/StellarESDK-1.7.0/Modules/Drivers/Timers/HRTIM/src\hrtim.c ****     uint8_t i;
2332:C:/StellarStudio-7.0/SDKS/StellarESDK-1.7.0/Modules/Drivers/Timers/HRTIM/src\hrtim.c **** 
2333:C:/StellarStudio-7.0/SDKS/StellarESDK-1.7.0/Modules/Drivers/Timers/HRTIM/src\hrtim.c ****     /* Reset register configuration.*/
2334:C:/StellarStudio-7.0/SDKS/StellarESDK-1.7.0/Modules/Drivers/Timers/HRTIM/src\hrtim.c ****     for (i = 0U; i < HRTIM_TIMER_NUM; i++) {
 13533              		.loc 1 2334 12
 13534 0006 0023     		movs	r3, #0
 13535 0008 8DF80F30 		strb	r3, [sp, #15]
 13536              		.loc 1 2334 5
 13537 000c D4E0     		b	.L468
 13538              	.L469:
2335:C:/StellarStudio-7.0/SDKS/StellarESDK-1.7.0/Modules/Drivers/Timers/HRTIM/src\hrtim.c ****         hdp->hrtim->sTimerxRegs[i].TIMxCR    = 0U;
 13539              		.loc 1 2335 12 discriminator 3
 13540 000e 019B     		ldr	r3, [sp, #4]
 13541 0010 1A68     		ldr	r2, [r3]
 13542              		.loc 1 2335 35 discriminator 3
 13543 0012 9DF80F30 		ldrb	r3, [sp, #15]	@ zero_extendqisi2
 13544              		.loc 1 2335 46 discriminator 3
 13545 0016 0133     		adds	r3, r3, #1
 13546 0018 DB01     		lsls	r3, r3, #7
 13547 001a 1344     		add	r3, r3, r2
 13548 001c 0022     		movs	r2, #0
 13549 001e 1A60     		str	r2, [r3]
2336:C:/StellarStudio-7.0/SDKS/StellarESDK-1.7.0/Modules/Drivers/Timers/HRTIM/src\hrtim.c ****         hdp->hrtim->sTimerxRegs[i].TIMxDIER  = 0U;
 13550              		.loc 1 2336 12 discriminator 3
 13551 0020 019B     		ldr	r3, [sp, #4]
 13552 0022 1A68     		ldr	r2, [r3]
 13553              		.loc 1 2336 35 discriminator 3
 13554 0024 9DF80F30 		ldrb	r3, [sp, #15]	@ zero_extendqisi2
 13555              		.loc 1 2336 46 discriminator 3
 13556 0028 DB01     		lsls	r3, r3, #7
 13557 002a 1344     		add	r3, r3, r2
 13558 002c 8C33     		adds	r3, r3, #140
 13559 002e 0022     		movs	r2, #0
 13560 0030 1A60     		str	r2, [r3]
2337:C:/StellarStudio-7.0/SDKS/StellarESDK-1.7.0/Modules/Drivers/Timers/HRTIM/src\hrtim.c ****         hdp->hrtim->sTimerxRegs[i].PERxR     = 0x0000FFDFU;
 13561              		.loc 1 2337 12 discriminator 3
 13562 0032 019B     		ldr	r3, [sp, #4]
 13563 0034 1A68     		ldr	r2, [r3]
 13564              		.loc 1 2337 35 discriminator 3
 13565 0036 9DF80F30 		ldrb	r3, [sp, #15]	@ zero_extendqisi2
 13566              		.loc 1 2337 46 discriminator 3
 13567 003a DB01     		lsls	r3, r3, #7
 13568 003c 1344     		add	r3, r3, r2
 13569 003e 9433     		adds	r3, r3, #148
 13570 0040 4FF6DF72 		movw	r2, #65503
 13571 0044 1A60     		str	r2, [r3]
2338:C:/StellarStudio-7.0/SDKS/StellarESDK-1.7.0/Modules/Drivers/Timers/HRTIM/src\hrtim.c ****         hdp->hrtim->sTimerxRegs[i].REPxR     = 0U;
 13572              		.loc 1 2338 12 discriminator 3
 13573 0046 019B     		ldr	r3, [sp, #4]
 13574 0048 1A68     		ldr	r2, [r3]
 13575              		.loc 1 2338 35 discriminator 3
 13576 004a 9DF80F30 		ldrb	r3, [sp, #15]	@ zero_extendqisi2
 13577              		.loc 1 2338 46 discriminator 3
 13578 004e DB01     		lsls	r3, r3, #7
 13579 0050 1344     		add	r3, r3, r2
 13580 0052 9833     		adds	r3, r3, #152
 13581 0054 0022     		movs	r2, #0
 13582 0056 1A60     		str	r2, [r3]
2339:C:/StellarStudio-7.0/SDKS/StellarESDK-1.7.0/Modules/Drivers/Timers/HRTIM/src\hrtim.c ****         hdp->hrtim->sTimerxRegs[i].CMP1xR    = 0U;
 13583              		.loc 1 2339 12 discriminator 3
 13584 0058 019B     		ldr	r3, [sp, #4]
 13585 005a 1A68     		ldr	r2, [r3]
 13586              		.loc 1 2339 35 discriminator 3
 13587 005c 9DF80F30 		ldrb	r3, [sp, #15]	@ zero_extendqisi2
 13588              		.loc 1 2339 46 discriminator 3
 13589 0060 DB01     		lsls	r3, r3, #7
 13590 0062 1344     		add	r3, r3, r2
 13591 0064 9C33     		adds	r3, r3, #156
 13592 0066 0022     		movs	r2, #0
 13593 0068 1A60     		str	r2, [r3]
2340:C:/StellarStudio-7.0/SDKS/StellarESDK-1.7.0/Modules/Drivers/Timers/HRTIM/src\hrtim.c ****         hdp->hrtim->sTimerxRegs[i].CMP2xR    = 0U;
 13594              		.loc 1 2340 12 discriminator 3
 13595 006a 019B     		ldr	r3, [sp, #4]
 13596 006c 1A68     		ldr	r2, [r3]
 13597              		.loc 1 2340 35 discriminator 3
 13598 006e 9DF80F30 		ldrb	r3, [sp, #15]	@ zero_extendqisi2
 13599              		.loc 1 2340 46 discriminator 3
 13600 0072 DB01     		lsls	r3, r3, #7
 13601 0074 1344     		add	r3, r3, r2
 13602 0076 A433     		adds	r3, r3, #164
 13603 0078 0022     		movs	r2, #0
 13604 007a 1A60     		str	r2, [r3]
2341:C:/StellarStudio-7.0/SDKS/StellarESDK-1.7.0/Modules/Drivers/Timers/HRTIM/src\hrtim.c ****         hdp->hrtim->sTimerxRegs[i].CMP3xR    = 0U;
 13605              		.loc 1 2341 12 discriminator 3
 13606 007c 019B     		ldr	r3, [sp, #4]
 13607 007e 1A68     		ldr	r2, [r3]
 13608              		.loc 1 2341 35 discriminator 3
 13609 0080 9DF80F30 		ldrb	r3, [sp, #15]	@ zero_extendqisi2
 13610              		.loc 1 2341 46 discriminator 3
 13611 0084 DB01     		lsls	r3, r3, #7
 13612 0086 1344     		add	r3, r3, r2
 13613 0088 A833     		adds	r3, r3, #168
 13614 008a 0022     		movs	r2, #0
 13615 008c 1A60     		str	r2, [r3]
2342:C:/StellarStudio-7.0/SDKS/StellarESDK-1.7.0/Modules/Drivers/Timers/HRTIM/src\hrtim.c ****         hdp->hrtim->sTimerxRegs[i].CMP4xR    = 0U;
 13616              		.loc 1 2342 12 discriminator 3
 13617 008e 019B     		ldr	r3, [sp, #4]
 13618 0090 1A68     		ldr	r2, [r3]
 13619              		.loc 1 2342 35 discriminator 3
 13620 0092 9DF80F30 		ldrb	r3, [sp, #15]	@ zero_extendqisi2
 13621              		.loc 1 2342 46 discriminator 3
 13622 0096 DB01     		lsls	r3, r3, #7
 13623 0098 1344     		add	r3, r3, r2
 13624 009a AC33     		adds	r3, r3, #172
 13625 009c 0022     		movs	r2, #0
 13626 009e 1A60     		str	r2, [r3]
2343:C:/StellarStudio-7.0/SDKS/StellarESDK-1.7.0/Modules/Drivers/Timers/HRTIM/src\hrtim.c ****         hdp->hrtim->sTimerxRegs[i].DTxR      = 0U;
 13627              		.loc 1 2343 12 discriminator 3
 13628 00a0 019B     		ldr	r3, [sp, #4]
 13629 00a2 1A68     		ldr	r2, [r3]
 13630              		.loc 1 2343 35 discriminator 3
 13631 00a4 9DF80F30 		ldrb	r3, [sp, #15]	@ zero_extendqisi2
 13632              		.loc 1 2343 46 discriminator 3
 13633 00a8 DB01     		lsls	r3, r3, #7
 13634 00aa 1344     		add	r3, r3, r2
 13635 00ac B833     		adds	r3, r3, #184
 13636 00ae 0022     		movs	r2, #0
 13637 00b0 1A60     		str	r2, [r3]
2344:C:/StellarStudio-7.0/SDKS/StellarESDK-1.7.0/Modules/Drivers/Timers/HRTIM/src\hrtim.c ****         hdp->hrtim->sTimerxRegs[i].SETx1R    = 0U;
 13638              		.loc 1 2344 12 discriminator 3
 13639 00b2 019B     		ldr	r3, [sp, #4]
 13640 00b4 1A68     		ldr	r2, [r3]
 13641              		.loc 1 2344 35 discriminator 3
 13642 00b6 9DF80F30 		ldrb	r3, [sp, #15]	@ zero_extendqisi2
 13643              		.loc 1 2344 46 discriminator 3
 13644 00ba DB01     		lsls	r3, r3, #7
 13645 00bc 1344     		add	r3, r3, r2
 13646 00be BC33     		adds	r3, r3, #188
 13647 00c0 0022     		movs	r2, #0
 13648 00c2 1A60     		str	r2, [r3]
2345:C:/StellarStudio-7.0/SDKS/StellarESDK-1.7.0/Modules/Drivers/Timers/HRTIM/src\hrtim.c ****         hdp->hrtim->sTimerxRegs[i].RSTx1R    = 0U;
 13649              		.loc 1 2345 12 discriminator 3
 13650 00c4 019B     		ldr	r3, [sp, #4]
 13651 00c6 1A68     		ldr	r2, [r3]
 13652              		.loc 1 2345 35 discriminator 3
 13653 00c8 9DF80F30 		ldrb	r3, [sp, #15]	@ zero_extendqisi2
 13654              		.loc 1 2345 46 discriminator 3
 13655 00cc DB01     		lsls	r3, r3, #7
 13656 00ce 1344     		add	r3, r3, r2
 13657 00d0 C033     		adds	r3, r3, #192
 13658 00d2 0022     		movs	r2, #0
 13659 00d4 1A60     		str	r2, [r3]
2346:C:/StellarStudio-7.0/SDKS/StellarESDK-1.7.0/Modules/Drivers/Timers/HRTIM/src\hrtim.c ****         hdp->hrtim->sTimerxRegs[i].SETx2R    = 0U;
 13660              		.loc 1 2346 12 discriminator 3
 13661 00d6 019B     		ldr	r3, [sp, #4]
 13662 00d8 1A68     		ldr	r2, [r3]
 13663              		.loc 1 2346 35 discriminator 3
 13664 00da 9DF80F30 		ldrb	r3, [sp, #15]	@ zero_extendqisi2
 13665              		.loc 1 2346 46 discriminator 3
 13666 00de DB01     		lsls	r3, r3, #7
 13667 00e0 1344     		add	r3, r3, r2
 13668 00e2 C433     		adds	r3, r3, #196
 13669 00e4 0022     		movs	r2, #0
 13670 00e6 1A60     		str	r2, [r3]
2347:C:/StellarStudio-7.0/SDKS/StellarESDK-1.7.0/Modules/Drivers/Timers/HRTIM/src\hrtim.c ****         hdp->hrtim->sTimerxRegs[i].RSTx2R    = 0U;
 13671              		.loc 1 2347 12 discriminator 3
 13672 00e8 019B     		ldr	r3, [sp, #4]
 13673 00ea 1A68     		ldr	r2, [r3]
 13674              		.loc 1 2347 35 discriminator 3
 13675 00ec 9DF80F30 		ldrb	r3, [sp, #15]	@ zero_extendqisi2
 13676              		.loc 1 2347 46 discriminator 3
 13677 00f0 DB01     		lsls	r3, r3, #7
 13678 00f2 1344     		add	r3, r3, r2
 13679 00f4 C833     		adds	r3, r3, #200
 13680 00f6 0022     		movs	r2, #0
 13681 00f8 1A60     		str	r2, [r3]
2348:C:/StellarStudio-7.0/SDKS/StellarESDK-1.7.0/Modules/Drivers/Timers/HRTIM/src\hrtim.c ****         hdp->hrtim->sTimerxRegs[i].EEFxR1    = 0U;
 13682              		.loc 1 2348 12 discriminator 3
 13683 00fa 019B     		ldr	r3, [sp, #4]
 13684 00fc 1A68     		ldr	r2, [r3]
 13685              		.loc 1 2348 35 discriminator 3
 13686 00fe 9DF80F30 		ldrb	r3, [sp, #15]	@ zero_extendqisi2
 13687              		.loc 1 2348 46 discriminator 3
 13688 0102 DB01     		lsls	r3, r3, #7
 13689 0104 1344     		add	r3, r3, r2
 13690 0106 CC33     		adds	r3, r3, #204
 13691 0108 0022     		movs	r2, #0
 13692 010a 1A60     		str	r2, [r3]
2349:C:/StellarStudio-7.0/SDKS/StellarESDK-1.7.0/Modules/Drivers/Timers/HRTIM/src\hrtim.c ****         hdp->hrtim->sTimerxRegs[i].EEFxR2    = 0U;
 13693              		.loc 1 2349 12 discriminator 3
 13694 010c 019B     		ldr	r3, [sp, #4]
 13695 010e 1A68     		ldr	r2, [r3]
 13696              		.loc 1 2349 35 discriminator 3
 13697 0110 9DF80F30 		ldrb	r3, [sp, #15]	@ zero_extendqisi2
 13698              		.loc 1 2349 46 discriminator 3
 13699 0114 DB01     		lsls	r3, r3, #7
 13700 0116 1344     		add	r3, r3, r2
 13701 0118 D033     		adds	r3, r3, #208
 13702 011a 0022     		movs	r2, #0
 13703 011c 1A60     		str	r2, [r3]
2350:C:/StellarStudio-7.0/SDKS/StellarESDK-1.7.0/Modules/Drivers/Timers/HRTIM/src\hrtim.c ****         hdp->hrtim->sTimerxRegs[i].RSTxR     = 0U;
 13704              		.loc 1 2350 12 discriminator 3
 13705 011e 019B     		ldr	r3, [sp, #4]
 13706 0120 1A68     		ldr	r2, [r3]
 13707              		.loc 1 2350 35 discriminator 3
 13708 0122 9DF80F30 		ldrb	r3, [sp, #15]	@ zero_extendqisi2
 13709              		.loc 1 2350 46 discriminator 3
 13710 0126 DB01     		lsls	r3, r3, #7
 13711 0128 1344     		add	r3, r3, r2
 13712 012a D433     		adds	r3, r3, #212
 13713 012c 0022     		movs	r2, #0
 13714 012e 1A60     		str	r2, [r3]
2351:C:/StellarStudio-7.0/SDKS/StellarESDK-1.7.0/Modules/Drivers/Timers/HRTIM/src\hrtim.c ****         hdp->hrtim->sTimerxRegs[i].CHPxR     = 0U;
 13715              		.loc 1 2351 12 discriminator 3
 13716 0130 019B     		ldr	r3, [sp, #4]
 13717 0132 1A68     		ldr	r2, [r3]
 13718              		.loc 1 2351 35 discriminator 3
 13719 0134 9DF80F30 		ldrb	r3, [sp, #15]	@ zero_extendqisi2
 13720              		.loc 1 2351 46 discriminator 3
 13721 0138 DB01     		lsls	r3, r3, #7
 13722 013a 1344     		add	r3, r3, r2
 13723 013c D833     		adds	r3, r3, #216
 13724 013e 0022     		movs	r2, #0
 13725 0140 1A60     		str	r2, [r3]
2352:C:/StellarStudio-7.0/SDKS/StellarESDK-1.7.0/Modules/Drivers/Timers/HRTIM/src\hrtim.c ****         hdp->hrtim->sTimerxRegs[i].CPT1xCR   = 0U;
 13726              		.loc 1 2352 12 discriminator 3
 13727 0142 019B     		ldr	r3, [sp, #4]
 13728 0144 1A68     		ldr	r2, [r3]
 13729              		.loc 1 2352 35 discriminator 3
 13730 0146 9DF80F30 		ldrb	r3, [sp, #15]	@ zero_extendqisi2
 13731              		.loc 1 2352 46 discriminator 3
 13732 014a DB01     		lsls	r3, r3, #7
 13733 014c 1344     		add	r3, r3, r2
 13734 014e DC33     		adds	r3, r3, #220
 13735 0150 0022     		movs	r2, #0
 13736 0152 1A60     		str	r2, [r3]
2353:C:/StellarStudio-7.0/SDKS/StellarESDK-1.7.0/Modules/Drivers/Timers/HRTIM/src\hrtim.c ****         hdp->hrtim->sTimerxRegs[i].CPT2xCR   = 0U;
 13737              		.loc 1 2353 12 discriminator 3
 13738 0154 019B     		ldr	r3, [sp, #4]
 13739 0156 1A68     		ldr	r2, [r3]
 13740              		.loc 1 2353 35 discriminator 3
 13741 0158 9DF80F30 		ldrb	r3, [sp, #15]	@ zero_extendqisi2
 13742              		.loc 1 2353 46 discriminator 3
 13743 015c DB01     		lsls	r3, r3, #7
 13744 015e 1344     		add	r3, r3, r2
 13745 0160 E033     		adds	r3, r3, #224
 13746 0162 0022     		movs	r2, #0
 13747 0164 1A60     		str	r2, [r3]
2354:C:/StellarStudio-7.0/SDKS/StellarESDK-1.7.0/Modules/Drivers/Timers/HRTIM/src\hrtim.c ****         hdp->hrtim->sTimerxRegs[i].OUTxR     = 0U;
 13748              		.loc 1 2354 12 discriminator 3
 13749 0166 019B     		ldr	r3, [sp, #4]
 13750 0168 1A68     		ldr	r2, [r3]
 13751              		.loc 1 2354 35 discriminator 3
 13752 016a 9DF80F30 		ldrb	r3, [sp, #15]	@ zero_extendqisi2
 13753              		.loc 1 2354 46 discriminator 3
 13754 016e DB01     		lsls	r3, r3, #7
 13755 0170 1344     		add	r3, r3, r2
 13756 0172 E433     		adds	r3, r3, #228
 13757 0174 0022     		movs	r2, #0
 13758 0176 1A60     		str	r2, [r3]
2355:C:/StellarStudio-7.0/SDKS/StellarESDK-1.7.0/Modules/Drivers/Timers/HRTIM/src\hrtim.c ****         hdp->hrtim->sTimerxRegs[i].FLTxR     = 0U;
 13759              		.loc 1 2355 12 discriminator 3
 13760 0178 019B     		ldr	r3, [sp, #4]
 13761 017a 1A68     		ldr	r2, [r3]
 13762              		.loc 1 2355 35 discriminator 3
 13763 017c 9DF80F30 		ldrb	r3, [sp, #15]	@ zero_extendqisi2
 13764              		.loc 1 2355 46 discriminator 3
 13765 0180 DB01     		lsls	r3, r3, #7
 13766 0182 1344     		add	r3, r3, r2
 13767 0184 E833     		adds	r3, r3, #232
 13768 0186 0022     		movs	r2, #0
 13769 0188 1A60     		str	r2, [r3]
2356:C:/StellarStudio-7.0/SDKS/StellarESDK-1.7.0/Modules/Drivers/Timers/HRTIM/src\hrtim.c ****         hdp->hrtim->sTimerxRegs[i].TIMxCR2   = 0U;
 13770              		.loc 1 2356 12 discriminator 3
 13771 018a 019B     		ldr	r3, [sp, #4]
 13772 018c 1A68     		ldr	r2, [r3]
 13773              		.loc 1 2356 35 discriminator 3
 13774 018e 9DF80F30 		ldrb	r3, [sp, #15]	@ zero_extendqisi2
 13775              		.loc 1 2356 46 discriminator 3
 13776 0192 DB01     		lsls	r3, r3, #7
 13777 0194 1344     		add	r3, r3, r2
 13778 0196 EC33     		adds	r3, r3, #236
 13779 0198 0022     		movs	r2, #0
 13780 019a 1A60     		str	r2, [r3]
2357:C:/StellarStudio-7.0/SDKS/StellarESDK-1.7.0/Modules/Drivers/Timers/HRTIM/src\hrtim.c ****         hdp->hrtim->sTimerxRegs[i].EEFxR3    = 0U;
 13781              		.loc 1 2357 12 discriminator 3
 13782 019c 019B     		ldr	r3, [sp, #4]
 13783 019e 1A68     		ldr	r2, [r3]
 13784              		.loc 1 2357 35 discriminator 3
 13785 01a0 9DF80F30 		ldrb	r3, [sp, #15]	@ zero_extendqisi2
 13786              		.loc 1 2357 46 discriminator 3
 13787 01a4 DB01     		lsls	r3, r3, #7
 13788 01a6 1344     		add	r3, r3, r2
 13789 01a8 F033     		adds	r3, r3, #240
 13790 01aa 0022     		movs	r2, #0
 13791 01ac 1A60     		str	r2, [r3]
2334:C:/StellarStudio-7.0/SDKS/StellarESDK-1.7.0/Modules/Drivers/Timers/HRTIM/src\hrtim.c ****         hdp->hrtim->sTimerxRegs[i].TIMxCR    = 0U;
 13792              		.loc 1 2334 40 discriminator 3
 13793 01ae 9DF80F30 		ldrb	r3, [sp, #15]	@ zero_extendqisi2
 13794 01b2 0133     		adds	r3, r3, #1
 13795 01b4 8DF80F30 		strb	r3, [sp, #15]
 13796              	.L468:
2334:C:/StellarStudio-7.0/SDKS/StellarESDK-1.7.0/Modules/Drivers/Timers/HRTIM/src\hrtim.c ****         hdp->hrtim->sTimerxRegs[i].TIMxCR    = 0U;
 13797              		.loc 1 2334 5 discriminator 1
 13798 01b8 9DF80F30 		ldrb	r3, [sp, #15]	@ zero_extendqisi2
 13799 01bc 052B     		cmp	r3, #5
 13800 01be 7FF626AF 		bls	.L469
2358:C:/StellarStudio-7.0/SDKS/StellarESDK-1.7.0/Modules/Drivers/Timers/HRTIM/src\hrtim.c ****     }
2359:C:/StellarStudio-7.0/SDKS/StellarESDK-1.7.0/Modules/Drivers/Timers/HRTIM/src\hrtim.c **** 
2360:C:/StellarStudio-7.0/SDKS/StellarESDK-1.7.0/Modules/Drivers/Timers/HRTIM/src\hrtim.c ****     hdp->hrtim->sCommonRegs.CR1     = 0U;
 13801              		.loc 1 2360 8
 13802 01c2 019B     		ldr	r3, [sp, #4]
 13803 01c4 1B68     		ldr	r3, [r3]
 13804              		.loc 1 2360 37
 13805 01c6 0022     		movs	r2, #0
 13806 01c8 C3F88023 		str	r2, [r3, #896]
2361:C:/StellarStudio-7.0/SDKS/StellarESDK-1.7.0/Modules/Drivers/Timers/HRTIM/src\hrtim.c ****     hdp->hrtim->sCommonRegs.CR2     = 0U;
 13807              		.loc 1 2361 8
 13808 01cc 019B     		ldr	r3, [sp, #4]
 13809 01ce 1B68     		ldr	r3, [r3]
 13810              		.loc 1 2361 37
 13811 01d0 0022     		movs	r2, #0
 13812 01d2 C3F88423 		str	r2, [r3, #900]
2362:C:/StellarStudio-7.0/SDKS/StellarESDK-1.7.0/Modules/Drivers/Timers/HRTIM/src\hrtim.c ****     hdp->hrtim->sCommonRegs.IER     = 0U;
 13813              		.loc 1 2362 8
 13814 01d6 019B     		ldr	r3, [sp, #4]
 13815 01d8 1B68     		ldr	r3, [r3]
 13816              		.loc 1 2362 37
 13817 01da 0022     		movs	r2, #0
 13818 01dc C3F89023 		str	r2, [r3, #912]
2363:C:/StellarStudio-7.0/SDKS/StellarESDK-1.7.0/Modules/Drivers/Timers/HRTIM/src\hrtim.c ****     hdp->hrtim->sCommonRegs.BMCR    = 0U;
 13819              		.loc 1 2363 8
 13820 01e0 019B     		ldr	r3, [sp, #4]
 13821 01e2 1B68     		ldr	r3, [r3]
 13822              		.loc 1 2363 37
 13823 01e4 0022     		movs	r2, #0
 13824 01e6 C3F8A023 		str	r2, [r3, #928]
2364:C:/StellarStudio-7.0/SDKS/StellarESDK-1.7.0/Modules/Drivers/Timers/HRTIM/src\hrtim.c ****     hdp->hrtim->sCommonRegs.BMTRGR  = 0U;
 13825              		.loc 1 2364 8
 13826 01ea 019B     		ldr	r3, [sp, #4]
 13827 01ec 1B68     		ldr	r3, [r3]
 13828              		.loc 1 2364 37
 13829 01ee 0022     		movs	r2, #0
 13830 01f0 C3F8A423 		str	r2, [r3, #932]
2365:C:/StellarStudio-7.0/SDKS/StellarESDK-1.7.0/Modules/Drivers/Timers/HRTIM/src\hrtim.c ****     hdp->hrtim->sCommonRegs.BMCMPR  = 0U;
 13831              		.loc 1 2365 8
 13832 01f4 019B     		ldr	r3, [sp, #4]
 13833 01f6 1B68     		ldr	r3, [r3]
 13834              		.loc 1 2365 37
 13835 01f8 0022     		movs	r2, #0
 13836 01fa C3F8A823 		str	r2, [r3, #936]
2366:C:/StellarStudio-7.0/SDKS/StellarESDK-1.7.0/Modules/Drivers/Timers/HRTIM/src\hrtim.c ****     hdp->hrtim->sCommonRegs.BMPER   = 0U;
 13837              		.loc 1 2366 8
 13838 01fe 019B     		ldr	r3, [sp, #4]
 13839 0200 1B68     		ldr	r3, [r3]
 13840              		.loc 1 2366 37
 13841 0202 0022     		movs	r2, #0
 13842 0204 C3F8AC23 		str	r2, [r3, #940]
2367:C:/StellarStudio-7.0/SDKS/StellarESDK-1.7.0/Modules/Drivers/Timers/HRTIM/src\hrtim.c ****     hdp->hrtim->sCommonRegs.EECR1   = 0U;
 13843              		.loc 1 2367 8
 13844 0208 019B     		ldr	r3, [sp, #4]
 13845 020a 1B68     		ldr	r3, [r3]
 13846              		.loc 1 2367 37
 13847 020c 0022     		movs	r2, #0
 13848 020e C3F8B023 		str	r2, [r3, #944]
2368:C:/StellarStudio-7.0/SDKS/StellarESDK-1.7.0/Modules/Drivers/Timers/HRTIM/src\hrtim.c ****     hdp->hrtim->sCommonRegs.EECR2   = 0U;
 13849              		.loc 1 2368 8
 13850 0212 019B     		ldr	r3, [sp, #4]
 13851 0214 1B68     		ldr	r3, [r3]
 13852              		.loc 1 2368 37
 13853 0216 0022     		movs	r2, #0
 13854 0218 C3F8B423 		str	r2, [r3, #948]
2369:C:/StellarStudio-7.0/SDKS/StellarESDK-1.7.0/Modules/Drivers/Timers/HRTIM/src\hrtim.c ****     hdp->hrtim->sCommonRegs.EECR3   = 0U;
 13855              		.loc 1 2369 8
 13856 021c 019B     		ldr	r3, [sp, #4]
 13857 021e 1B68     		ldr	r3, [r3]
 13858              		.loc 1 2369 37
 13859 0220 0022     		movs	r2, #0
 13860 0222 C3F8B823 		str	r2, [r3, #952]
2370:C:/StellarStudio-7.0/SDKS/StellarESDK-1.7.0/Modules/Drivers/Timers/HRTIM/src\hrtim.c ****     hdp->hrtim->sCommonRegs.ADC1R   = 0U;
 13861              		.loc 1 2370 8
 13862 0226 019B     		ldr	r3, [sp, #4]
 13863 0228 1B68     		ldr	r3, [r3]
 13864              		.loc 1 2370 37
 13865 022a 0022     		movs	r2, #0
 13866 022c C3F8BC23 		str	r2, [r3, #956]
2371:C:/StellarStudio-7.0/SDKS/StellarESDK-1.7.0/Modules/Drivers/Timers/HRTIM/src\hrtim.c ****     hdp->hrtim->sCommonRegs.ADC2R   = 0U;
 13867              		.loc 1 2371 8
 13868 0230 019B     		ldr	r3, [sp, #4]
 13869 0232 1B68     		ldr	r3, [r3]
 13870              		.loc 1 2371 37
 13871 0234 0022     		movs	r2, #0
 13872 0236 C3F8C023 		str	r2, [r3, #960]
2372:C:/StellarStudio-7.0/SDKS/StellarESDK-1.7.0/Modules/Drivers/Timers/HRTIM/src\hrtim.c ****     hdp->hrtim->sCommonRegs.ADC3R   = 0U;
 13873              		.loc 1 2372 8
 13874 023a 019B     		ldr	r3, [sp, #4]
 13875 023c 1B68     		ldr	r3, [r3]
 13876              		.loc 1 2372 37
 13877 023e 0022     		movs	r2, #0
 13878 0240 C3F8C423 		str	r2, [r3, #964]
2373:C:/StellarStudio-7.0/SDKS/StellarESDK-1.7.0/Modules/Drivers/Timers/HRTIM/src\hrtim.c ****     hdp->hrtim->sCommonRegs.ADC4R   = 0U;
 13879              		.loc 1 2373 8
 13880 0244 019B     		ldr	r3, [sp, #4]
 13881 0246 1B68     		ldr	r3, [r3]
 13882              		.loc 1 2373 37
 13883 0248 0022     		movs	r2, #0
 13884 024a C3F8C823 		str	r2, [r3, #968]
2374:C:/StellarStudio-7.0/SDKS/StellarESDK-1.7.0/Modules/Drivers/Timers/HRTIM/src\hrtim.c ****     hdp->hrtim->sCommonRegs.DLLCR   = 0U;
 13885              		.loc 1 2374 8
 13886 024e 019B     		ldr	r3, [sp, #4]
 13887 0250 1B68     		ldr	r3, [r3]
 13888              		.loc 1 2374 37
 13889 0252 0022     		movs	r2, #0
 13890 0254 C3F8CC23 		str	r2, [r3, #972]
2375:C:/StellarStudio-7.0/SDKS/StellarESDK-1.7.0/Modules/Drivers/Timers/HRTIM/src\hrtim.c ****     hdp->hrtim->sCommonRegs.FLTINR1 = 0U;
 13891              		.loc 1 2375 8
 13892 0258 019B     		ldr	r3, [sp, #4]
 13893 025a 1B68     		ldr	r3, [r3]
 13894              		.loc 1 2375 37
 13895 025c 0022     		movs	r2, #0
 13896 025e C3F8D023 		str	r2, [r3, #976]
2376:C:/StellarStudio-7.0/SDKS/StellarESDK-1.7.0/Modules/Drivers/Timers/HRTIM/src\hrtim.c ****     hdp->hrtim->sCommonRegs.FLTINR2 = 0U;
 13897              		.loc 1 2376 8
 13898 0262 019B     		ldr	r3, [sp, #4]
 13899 0264 1B68     		ldr	r3, [r3]
 13900              		.loc 1 2376 37
 13901 0266 0022     		movs	r2, #0
 13902 0268 C3F8D423 		str	r2, [r3, #980]
2377:C:/StellarStudio-7.0/SDKS/StellarESDK-1.7.0/Modules/Drivers/Timers/HRTIM/src\hrtim.c ****     hdp->hrtim->sCommonRegs.BDMUPR  = 0U;
 13903              		.loc 1 2377 8
 13904 026c 019B     		ldr	r3, [sp, #4]
 13905 026e 1B68     		ldr	r3, [r3]
 13906              		.loc 1 2377 37
 13907 0270 0022     		movs	r2, #0
 13908 0272 C3F8D823 		str	r2, [r3, #984]
2378:C:/StellarStudio-7.0/SDKS/StellarESDK-1.7.0/Modules/Drivers/Timers/HRTIM/src\hrtim.c ****     hdp->hrtim->sCommonRegs.BDTAUPR = 0U;
 13909              		.loc 1 2378 8
 13910 0276 019B     		ldr	r3, [sp, #4]
 13911 0278 1B68     		ldr	r3, [r3]
 13912              		.loc 1 2378 37
 13913 027a 0022     		movs	r2, #0
 13914 027c C3F8DC23 		str	r2, [r3, #988]
2379:C:/StellarStudio-7.0/SDKS/StellarESDK-1.7.0/Modules/Drivers/Timers/HRTIM/src\hrtim.c ****     hdp->hrtim->sCommonRegs.BDTBUPR = 0U;
 13915              		.loc 1 2379 8
 13916 0280 019B     		ldr	r3, [sp, #4]
 13917 0282 1B68     		ldr	r3, [r3]
 13918              		.loc 1 2379 37
 13919 0284 0022     		movs	r2, #0
 13920 0286 C3F8E023 		str	r2, [r3, #992]
2380:C:/StellarStudio-7.0/SDKS/StellarESDK-1.7.0/Modules/Drivers/Timers/HRTIM/src\hrtim.c ****     hdp->hrtim->sCommonRegs.BDTCUPR = 0U;
 13921              		.loc 1 2380 8
 13922 028a 019B     		ldr	r3, [sp, #4]
 13923 028c 1B68     		ldr	r3, [r3]
 13924              		.loc 1 2380 37
 13925 028e 0022     		movs	r2, #0
 13926 0290 C3F8E423 		str	r2, [r3, #996]
2381:C:/StellarStudio-7.0/SDKS/StellarESDK-1.7.0/Modules/Drivers/Timers/HRTIM/src\hrtim.c ****     hdp->hrtim->sCommonRegs.BDTDUPR = 0U;
 13927              		.loc 1 2381 8
 13928 0294 019B     		ldr	r3, [sp, #4]
 13929 0296 1B68     		ldr	r3, [r3]
 13930              		.loc 1 2381 37
 13931 0298 0022     		movs	r2, #0
 13932 029a C3F8E823 		str	r2, [r3, #1000]
2382:C:/StellarStudio-7.0/SDKS/StellarESDK-1.7.0/Modules/Drivers/Timers/HRTIM/src\hrtim.c ****     hdp->hrtim->sCommonRegs.BDTEUPR = 0U;
 13933              		.loc 1 2382 8
 13934 029e 019B     		ldr	r3, [sp, #4]
 13935 02a0 1B68     		ldr	r3, [r3]
 13936              		.loc 1 2382 37
 13937 02a2 0022     		movs	r2, #0
 13938 02a4 C3F8EC23 		str	r2, [r3, #1004]
2383:C:/StellarStudio-7.0/SDKS/StellarESDK-1.7.0/Modules/Drivers/Timers/HRTIM/src\hrtim.c ****     hdp->hrtim->sCommonRegs.BDTFUPR = 0U;
 13939              		.loc 1 2383 8
 13940 02a8 019B     		ldr	r3, [sp, #4]
 13941 02aa 1B68     		ldr	r3, [r3]
 13942              		.loc 1 2383 37
 13943 02ac 0022     		movs	r2, #0
 13944 02ae C3F8F423 		str	r2, [r3, #1012]
2384:C:/StellarStudio-7.0/SDKS/StellarESDK-1.7.0/Modules/Drivers/Timers/HRTIM/src\hrtim.c ****     hdp->hrtim->sCommonRegs.ADCER   = 0U;
 13945              		.loc 1 2384 8
 13946 02b2 019B     		ldr	r3, [sp, #4]
 13947 02b4 1B68     		ldr	r3, [r3]
 13948              		.loc 1 2384 37
 13949 02b6 0022     		movs	r2, #0
 13950 02b8 C3F8F823 		str	r2, [r3, #1016]
2385:C:/StellarStudio-7.0/SDKS/StellarESDK-1.7.0/Modules/Drivers/Timers/HRTIM/src\hrtim.c ****     hdp->hrtim->sCommonRegs.ADCUR   = 0U;
 13951              		.loc 1 2385 8
 13952 02bc 019B     		ldr	r3, [sp, #4]
 13953 02be 1B68     		ldr	r3, [r3]
 13954              		.loc 1 2385 37
 13955 02c0 0022     		movs	r2, #0
 13956 02c2 C3F8FC23 		str	r2, [r3, #1020]
2386:C:/StellarStudio-7.0/SDKS/StellarESDK-1.7.0/Modules/Drivers/Timers/HRTIM/src\hrtim.c ****     hdp->hrtim->sCommonRegs.ADCPS1  = 0U;
 13957              		.loc 1 2386 8
 13958 02c6 019B     		ldr	r3, [sp, #4]
 13959 02c8 1B68     		ldr	r3, [r3]
 13960              		.loc 1 2386 37
 13961 02ca 0022     		movs	r2, #0
 13962 02cc C3F80024 		str	r2, [r3, #1024]
2387:C:/StellarStudio-7.0/SDKS/StellarESDK-1.7.0/Modules/Drivers/Timers/HRTIM/src\hrtim.c ****     hdp->hrtim->sCommonRegs.ADCPS2  = 0U;
 13963              		.loc 1 2387 8
 13964 02d0 019B     		ldr	r3, [sp, #4]
 13965 02d2 1B68     		ldr	r3, [r3]
 13966              		.loc 1 2387 37
 13967 02d4 0022     		movs	r2, #0
 13968 02d6 C3F80424 		str	r2, [r3, #1028]
2388:C:/StellarStudio-7.0/SDKS/StellarESDK-1.7.0/Modules/Drivers/Timers/HRTIM/src\hrtim.c ****     hdp->hrtim->sCommonRegs.FLTINR3 = 0U;
 13969              		.loc 1 2388 8
 13970 02da 019B     		ldr	r3, [sp, #4]
 13971 02dc 1B68     		ldr	r3, [r3]
 13972              		.loc 1 2388 37
 13973 02de 0022     		movs	r2, #0
 13974 02e0 C3F80824 		str	r2, [r3, #1032]
2389:C:/StellarStudio-7.0/SDKS/StellarESDK-1.7.0/Modules/Drivers/Timers/HRTIM/src\hrtim.c ****     hdp->hrtim->sCommonRegs.FLTINR4 = 0U;
 13975              		.loc 1 2389 8
 13976 02e4 019B     		ldr	r3, [sp, #4]
 13977 02e6 1B68     		ldr	r3, [r3]
 13978              		.loc 1 2389 37
 13979 02e8 0022     		movs	r2, #0
 13980 02ea C3F80C24 		str	r2, [r3, #1036]
2390:C:/StellarStudio-7.0/SDKS/StellarESDK-1.7.0/Modules/Drivers/Timers/HRTIM/src\hrtim.c **** 
2391:C:/StellarStudio-7.0/SDKS/StellarESDK-1.7.0/Modules/Drivers/Timers/HRTIM/src\hrtim.c ****     /* Master registers configuration setup.*/
2392:C:/StellarStudio-7.0/SDKS/StellarESDK-1.7.0/Modules/Drivers/Timers/HRTIM/src\hrtim.c ****     hdp->hrtim->sMasterRegs.MCR    = 0U;
 13981              		.loc 1 2392 8
 13982 02ee 019B     		ldr	r3, [sp, #4]
 13983 02f0 1B68     		ldr	r3, [r3]
 13984              		.loc 1 2392 36
 13985 02f2 0022     		movs	r2, #0
 13986 02f4 1A60     		str	r2, [r3]
2393:C:/StellarStudio-7.0/SDKS/StellarESDK-1.7.0/Modules/Drivers/Timers/HRTIM/src\hrtim.c ****     hdp->hrtim->sMasterRegs.MDIER  = 0U;
 13987              		.loc 1 2393 8
 13988 02f6 019B     		ldr	r3, [sp, #4]
 13989 02f8 1B68     		ldr	r3, [r3]
 13990              		.loc 1 2393 36
 13991 02fa 0022     		movs	r2, #0
 13992 02fc DA60     		str	r2, [r3, #12]
2394:C:/StellarStudio-7.0/SDKS/StellarESDK-1.7.0/Modules/Drivers/Timers/HRTIM/src\hrtim.c ****     hdp->hrtim->sMasterRegs.MPER   = 0x0000FFDFU;
 13993              		.loc 1 2394 8
 13994 02fe 019B     		ldr	r3, [sp, #4]
 13995 0300 1B68     		ldr	r3, [r3]
 13996              		.loc 1 2394 36
 13997 0302 4FF6DF72 		movw	r2, #65503
 13998 0306 5A61     		str	r2, [r3, #20]
2395:C:/StellarStudio-7.0/SDKS/StellarESDK-1.7.0/Modules/Drivers/Timers/HRTIM/src\hrtim.c ****     hdp->hrtim->sMasterRegs.MREP   = 0U;
 13999              		.loc 1 2395 8
 14000 0308 019B     		ldr	r3, [sp, #4]
 14001 030a 1B68     		ldr	r3, [r3]
 14002              		.loc 1 2395 36
 14003 030c 0022     		movs	r2, #0
 14004 030e 9A61     		str	r2, [r3, #24]
2396:C:/StellarStudio-7.0/SDKS/StellarESDK-1.7.0/Modules/Drivers/Timers/HRTIM/src\hrtim.c ****     hdp->hrtim->sMasterRegs.MCMP1R = 0U;
 14005              		.loc 1 2396 8
 14006 0310 019B     		ldr	r3, [sp, #4]
 14007 0312 1B68     		ldr	r3, [r3]
 14008              		.loc 1 2396 36
 14009 0314 0022     		movs	r2, #0
 14010 0316 DA61     		str	r2, [r3, #28]
2397:C:/StellarStudio-7.0/SDKS/StellarESDK-1.7.0/Modules/Drivers/Timers/HRTIM/src\hrtim.c ****     hdp->hrtim->sMasterRegs.MCMP2R = 0U;
 14011              		.loc 1 2397 8
 14012 0318 019B     		ldr	r3, [sp, #4]
 14013 031a 1B68     		ldr	r3, [r3]
 14014              		.loc 1 2397 36
 14015 031c 0022     		movs	r2, #0
 14016 031e 5A62     		str	r2, [r3, #36]
2398:C:/StellarStudio-7.0/SDKS/StellarESDK-1.7.0/Modules/Drivers/Timers/HRTIM/src\hrtim.c ****     hdp->hrtim->sMasterRegs.MCMP3R = 0U;
 14017              		.loc 1 2398 8
 14018 0320 019B     		ldr	r3, [sp, #4]
 14019 0322 1B68     		ldr	r3, [r3]
 14020              		.loc 1 2398 36
 14021 0324 0022     		movs	r2, #0
 14022 0326 9A62     		str	r2, [r3, #40]
2399:C:/StellarStudio-7.0/SDKS/StellarESDK-1.7.0/Modules/Drivers/Timers/HRTIM/src\hrtim.c ****     hdp->hrtim->sMasterRegs.MCMP4R = 0U;
 14023              		.loc 1 2399 8
 14024 0328 019B     		ldr	r3, [sp, #4]
 14025 032a 1B68     		ldr	r3, [r3]
 14026              		.loc 1 2399 36
 14027 032c 0022     		movs	r2, #0
 14028 032e DA62     		str	r2, [r3, #44]
2400:C:/StellarStudio-7.0/SDKS/StellarESDK-1.7.0/Modules/Drivers/Timers/HRTIM/src\hrtim.c **** 
2401:C:/StellarStudio-7.0/SDKS/StellarESDK-1.7.0/Modules/Drivers/Timers/HRTIM/src\hrtim.c ****     /* Clearing interrupt status bits.*/
2402:C:/StellarStudio-7.0/SDKS/StellarESDK-1.7.0/Modules/Drivers/Timers/HRTIM/src\hrtim.c ****     hdp->hrtim->sMasterRegs.MICR = 0xFFFFFFFFU;
 14029              		.loc 1 2402 8
 14030 0330 019B     		ldr	r3, [sp, #4]
 14031 0332 1B68     		ldr	r3, [r3]
 14032              		.loc 1 2402 34
 14033 0334 4FF0FF32 		mov	r2, #-1
 14034 0338 9A60     		str	r2, [r3, #8]
2403:C:/StellarStudio-7.0/SDKS/StellarESDK-1.7.0/Modules/Drivers/Timers/HRTIM/src\hrtim.c ****     hdp->hrtim->sCommonRegs.ICR  = 0xFFFFFFFFU;
 14035              		.loc 1 2403 8
 14036 033a 019B     		ldr	r3, [sp, #4]
 14037 033c 1B68     		ldr	r3, [r3]
 14038              		.loc 1 2403 34
 14039 033e 4FF0FF32 		mov	r2, #-1
 14040 0342 C3F88C23 		str	r2, [r3, #908]
2404:C:/StellarStudio-7.0/SDKS/StellarESDK-1.7.0/Modules/Drivers/Timers/HRTIM/src\hrtim.c ****     for (i = 0U; i < HRTIM_TIMER_NUM; i++) {
 14041              		.loc 1 2404 12
 14042 0346 0023     		movs	r3, #0
 14043 0348 8DF80F30 		strb	r3, [sp, #15]
 14044              		.loc 1 2404 5
 14045 034c 0EE0     		b	.L470
 14046              	.L471:
2405:C:/StellarStudio-7.0/SDKS/StellarESDK-1.7.0/Modules/Drivers/Timers/HRTIM/src\hrtim.c ****         hdp->hrtim->sTimerxRegs[i].TIMxICR = 0xFFFFFFFFU;
 14047              		.loc 1 2405 12 discriminator 3
 14048 034e 019B     		ldr	r3, [sp, #4]
 14049 0350 1A68     		ldr	r2, [r3]
 14050              		.loc 1 2405 35 discriminator 3
 14051 0352 9DF80F30 		ldrb	r3, [sp, #15]	@ zero_extendqisi2
 14052              		.loc 1 2405 44 discriminator 3
 14053 0356 DB01     		lsls	r3, r3, #7
 14054 0358 1344     		add	r3, r3, r2
 14055 035a 8833     		adds	r3, r3, #136
 14056 035c 4FF0FF32 		mov	r2, #-1
 14057 0360 1A60     		str	r2, [r3]
2404:C:/StellarStudio-7.0/SDKS/StellarESDK-1.7.0/Modules/Drivers/Timers/HRTIM/src\hrtim.c ****     for (i = 0U; i < HRTIM_TIMER_NUM; i++) {
 14058              		.loc 1 2404 40 discriminator 3
 14059 0362 9DF80F30 		ldrb	r3, [sp, #15]	@ zero_extendqisi2
 14060 0366 0133     		adds	r3, r3, #1
 14061 0368 8DF80F30 		strb	r3, [sp, #15]
 14062              	.L470:
2404:C:/StellarStudio-7.0/SDKS/StellarESDK-1.7.0/Modules/Drivers/Timers/HRTIM/src\hrtim.c ****     for (i = 0U; i < HRTIM_TIMER_NUM; i++) {
 14063              		.loc 1 2404 5 discriminator 1
 14064 036c 9DF80F30 		ldrb	r3, [sp, #15]	@ zero_extendqisi2
 14065 0370 052B     		cmp	r3, #5
 14066 0372 ECD9     		bls	.L471
2406:C:/StellarStudio-7.0/SDKS/StellarESDK-1.7.0/Modules/Drivers/Timers/HRTIM/src\hrtim.c ****     }
2407:C:/StellarStudio-7.0/SDKS/StellarESDK-1.7.0/Modules/Drivers/Timers/HRTIM/src\hrtim.c **** 
2408:C:/StellarStudio-7.0/SDKS/StellarESDK-1.7.0/Modules/Drivers/Timers/HRTIM/src\hrtim.c ****     /* Disable interrupts.*/
2409:C:/StellarStudio-7.0/SDKS/StellarESDK-1.7.0/Modules/Drivers/Timers/HRTIM/src\hrtim.c ****     hrtim_dev_disable_irq(hdp);
 14067              		.loc 1 2409 5
 14068 0374 0198     		ldr	r0, [sp, #4]
 14069 0376 FFF7FEFF 		bl	hrtim_dev_disable_irq
2410:C:/StellarStudio-7.0/SDKS/StellarESDK-1.7.0/Modules/Drivers/Timers/HRTIM/src\hrtim.c **** 
2411:C:/StellarStudio-7.0/SDKS/StellarESDK-1.7.0/Modules/Drivers/Timers/HRTIM/src\hrtim.c ****     /* Update enable status.*/
2412:C:/StellarStudio-7.0/SDKS/StellarESDK-1.7.0/Modules/Drivers/Timers/HRTIM/src\hrtim.c ****     hdp->is_enable = false;
 14070              		.loc 1 2412 20
 14071 037a 019B     		ldr	r3, [sp, #4]
 14072 037c 0022     		movs	r2, #0
 14073 037e 1A71     		strb	r2, [r3, #4]
2413:C:/StellarStudio-7.0/SDKS/StellarESDK-1.7.0/Modules/Drivers/Timers/HRTIM/src\hrtim.c **** 
2414:C:/StellarStudio-7.0/SDKS/StellarESDK-1.7.0/Modules/Drivers/Timers/HRTIM/src\hrtim.c ****     /* Disable clock.*/
2415:C:/StellarStudio-7.0/SDKS/StellarESDK-1.7.0/Modules/Drivers/Timers/HRTIM/src\hrtim.c ****     hrtim_dev_clock_disable(hdp);
 14074              		.loc 1 2415 5
 14075 0380 0198     		ldr	r0, [sp, #4]
 14076 0382 FFF7FEFF 		bl	hrtim_dev_clock_disable
2416:C:/StellarStudio-7.0/SDKS/StellarESDK-1.7.0/Modules/Drivers/Timers/HRTIM/src\hrtim.c **** 
2417:C:/StellarStudio-7.0/SDKS/StellarESDK-1.7.0/Modules/Drivers/Timers/HRTIM/src\hrtim.c ****     hdp->hrtim = NULL;
 14077              		.loc 1 2417 16
 14078 0386 019B     		ldr	r3, [sp, #4]
 14079 0388 0022     		movs	r2, #0
 14080 038a 1A60     		str	r2, [r3]
2418:C:/StellarStudio-7.0/SDKS/StellarESDK-1.7.0/Modules/Drivers/Timers/HRTIM/src\hrtim.c **** }
 14081              		.loc 1 2418 1
 14082 038c 00BF     		nop
 14083 038e 05B0     		add	sp, sp, #20
 14084              		.cfi_def_cfa_offset 4
 14085              		@ sp needed
 14086 0390 5DF804FB 		ldr	pc, [sp], #4
 14087              		.cfi_endproc
 14088              	.LFE225:
 14090              		.section	.text.hrtim_deinit,"ax",%progbits
 14091              		.align	1
 14092              		.p2align 4,,15
 14093              		.global	hrtim_deinit
 14094              		.syntax unified
 14095              		.thumb
 14096              		.thumb_func
 14098              	hrtim_deinit:
 14099              	.LFB226:
2419:C:/StellarStudio-7.0/SDKS/StellarESDK-1.7.0/Modules/Drivers/Timers/HRTIM/src\hrtim.c **** 
2420:C:/StellarStudio-7.0/SDKS/StellarESDK-1.7.0/Modules/Drivers/Timers/HRTIM/src\hrtim.c **** void hrtim_deinit(hrtim_driver_t *hdp) {
 14100              		.loc 1 2420 40
 14101              		.cfi_startproc
 14102              		@ args = 0, pretend = 0, frame = 8
 14103              		@ frame_needed = 0, uses_anonymous_args = 0
 14104 0000 00B5     		push	{lr}
 14105              		.cfi_def_cfa_offset 4
 14106              		.cfi_offset 14, -4
 14107 0002 83B0     		sub	sp, sp, #12
 14108              		.cfi_def_cfa_offset 16
 14109 0004 0190     		str	r0, [sp, #4]
2421:C:/StellarStudio-7.0/SDKS/StellarESDK-1.7.0/Modules/Drivers/Timers/HRTIM/src\hrtim.c **** 
2422:C:/StellarStudio-7.0/SDKS/StellarESDK-1.7.0/Modules/Drivers/Timers/HRTIM/src\hrtim.c ****    /* Set pointer to HRTIM register block to NULL.*/
2423:C:/StellarStudio-7.0/SDKS/StellarESDK-1.7.0/Modules/Drivers/Timers/HRTIM/src\hrtim.c ****     hdp->hrtim = NULL;
 14110              		.loc 1 2423 16
 14111 0006 019B     		ldr	r3, [sp, #4]
 14112 0008 0022     		movs	r2, #0
 14113 000a 1A60     		str	r2, [r3]
2424:C:/StellarStudio-7.0/SDKS/StellarESDK-1.7.0/Modules/Drivers/Timers/HRTIM/src\hrtim.c **** 
2425:C:/StellarStudio-7.0/SDKS/StellarESDK-1.7.0/Modules/Drivers/Timers/HRTIM/src\hrtim.c ****     /* Set HRTIM clock value to 0.*/
2426:C:/StellarStudio-7.0/SDKS/StellarESDK-1.7.0/Modules/Drivers/Timers/HRTIM/src\hrtim.c ****     hdp->clock = 0U;
 14114              		.loc 1 2426 16
 14115 000c 019B     		ldr	r3, [sp, #4]
 14116 000e 0022     		movs	r2, #0
 14117 0010 9A60     		str	r2, [r3, #8]
2427:C:/StellarStudio-7.0/SDKS/StellarESDK-1.7.0/Modules/Drivers/Timers/HRTIM/src\hrtim.c **** 
2428:C:/StellarStudio-7.0/SDKS/StellarESDK-1.7.0/Modules/Drivers/Timers/HRTIM/src\hrtim.c ****     /* Reset HRTIM parameters.*/
2429:C:/StellarStudio-7.0/SDKS/StellarESDK-1.7.0/Modules/Drivers/Timers/HRTIM/src\hrtim.c ****     hrtim_reset_paramters(hdp);
 14118              		.loc 1 2429 5
 14119 0012 0198     		ldr	r0, [sp, #4]
 14120 0014 FFF7FEFF 		bl	hrtim_reset_paramters
2430:C:/StellarStudio-7.0/SDKS/StellarESDK-1.7.0/Modules/Drivers/Timers/HRTIM/src\hrtim.c **** }
 14121              		.loc 1 2430 1
 14122 0018 00BF     		nop
 14123 001a 03B0     		add	sp, sp, #12
 14124              		.cfi_def_cfa_offset 4
 14125              		@ sp needed
 14126 001c 5DF804FB 		ldr	pc, [sp], #4
 14127              		.cfi_endproc
 14128              	.LFE226:
 14130              		.section	.text.__hrtim_serve_flt_interrupt,"ax",%progbits
 14131              		.align	1
 14132              		.p2align 4,,15
 14133              		.global	__hrtim_serve_flt_interrupt
 14134              		.syntax unified
 14135              		.thumb
 14136              		.thumb_func
 14138              	__hrtim_serve_flt_interrupt:
 14139              	.LFB227:
2431:C:/StellarStudio-7.0/SDKS/StellarESDK-1.7.0/Modules/Drivers/Timers/HRTIM/src\hrtim.c **** 
2432:C:/StellarStudio-7.0/SDKS/StellarESDK-1.7.0/Modules/Drivers/Timers/HRTIM/src\hrtim.c **** void __hrtim_serve_flt_interrupt(hrtim_driver_t *hdp) {
 14140              		.loc 1 2432 55
 14141              		.cfi_startproc
 14142              		@ args = 0, pretend = 0, frame = 24
 14143              		@ frame_needed = 0, uses_anonymous_args = 0
 14144 0000 00B5     		push	{lr}
 14145              		.cfi_def_cfa_offset 4
 14146              		.cfi_offset 14, -4
 14147 0002 87B0     		sub	sp, sp, #28
 14148              		.cfi_def_cfa_offset 32
 14149 0004 0190     		str	r0, [sp, #4]
2433:C:/StellarStudio-7.0/SDKS/StellarESDK-1.7.0/Modules/Drivers/Timers/HRTIM/src\hrtim.c ****     
2434:C:/StellarStudio-7.0/SDKS/StellarESDK-1.7.0/Modules/Drivers/Timers/HRTIM/src\hrtim.c ****     HRTIM_Common_TypeDef *ctp = &hdp->hrtim->sCommonRegs;
 14150              		.loc 1 2434 37
 14151 0006 019B     		ldr	r3, [sp, #4]
 14152 0008 1B68     		ldr	r3, [r3]
 14153              		.loc 1 2434 27
 14154 000a 03F56073 		add	r3, r3, #896
 14155 000e 0593     		str	r3, [sp, #20]
2435:C:/StellarStudio-7.0/SDKS/StellarESDK-1.7.0/Modules/Drivers/Timers/HRTIM/src\hrtim.c ****     uint32_t isr, ier;
2436:C:/StellarStudio-7.0/SDKS/StellarESDK-1.7.0/Modules/Drivers/Timers/HRTIM/src\hrtim.c **** 
2437:C:/StellarStudio-7.0/SDKS/StellarESDK-1.7.0/Modules/Drivers/Timers/HRTIM/src\hrtim.c ****     /* Reading and clearing IRQ sources.*/
2438:C:/StellarStudio-7.0/SDKS/StellarESDK-1.7.0/Modules/Drivers/Timers/HRTIM/src\hrtim.c ****     ier = ctp->IER;
 14156              		.loc 1 2438 9
 14157 0010 059B     		ldr	r3, [sp, #20]
 14158 0012 1B69     		ldr	r3, [r3, #16]
 14159 0014 0493     		str	r3, [sp, #16]
2439:C:/StellarStudio-7.0/SDKS/StellarESDK-1.7.0/Modules/Drivers/Timers/HRTIM/src\hrtim.c ****     isr = ctp->ISR & ier;
 14160              		.loc 1 2439 14
 14161 0016 059B     		ldr	r3, [sp, #20]
 14162 0018 9B68     		ldr	r3, [r3, #8]
 14163              		.loc 1 2439 9
 14164 001a 049A     		ldr	r2, [sp, #16]
 14165 001c 1340     		ands	r3, r3, r2
 14166 001e 0393     		str	r3, [sp, #12]
2440:C:/StellarStudio-7.0/SDKS/StellarESDK-1.7.0/Modules/Drivers/Timers/HRTIM/src\hrtim.c ****     ctp->ICR = isr;
 14167              		.loc 1 2440 14
 14168 0020 059B     		ldr	r3, [sp, #20]
 14169 0022 039A     		ldr	r2, [sp, #12]
 14170 0024 DA60     		str	r2, [r3, #12]
2441:C:/StellarStudio-7.0/SDKS/StellarESDK-1.7.0/Modules/Drivers/Timers/HRTIM/src\hrtim.c **** 
2442:C:/StellarStudio-7.0/SDKS/StellarESDK-1.7.0/Modules/Drivers/Timers/HRTIM/src\hrtim.c ****     if (hdp->cb_flt != NULL) {
 14171              		.loc 1 2442 12
 14172 0026 019B     		ldr	r3, [sp, #4]
 14173 0028 D3F8D832 		ldr	r3, [r3, #728]
 14174              		.loc 1 2442 8
 14175 002c 002B     		cmp	r3, #0
 14176 002e 05D0     		beq	.L475
2443:C:/StellarStudio-7.0/SDKS/StellarESDK-1.7.0/Modules/Drivers/Timers/HRTIM/src\hrtim.c ****         hdp->cb_flt(hdp, isr);
 14177              		.loc 1 2443 12
 14178 0030 019B     		ldr	r3, [sp, #4]
 14179 0032 D3F8D832 		ldr	r3, [r3, #728]
 14180              		.loc 1 2443 9
 14181 0036 0399     		ldr	r1, [sp, #12]
 14182 0038 0198     		ldr	r0, [sp, #4]
 14183 003a 9847     		blx	r3
 14184              	.LVL0:
 14185              	.L475:
2444:C:/StellarStudio-7.0/SDKS/StellarESDK-1.7.0/Modules/Drivers/Timers/HRTIM/src\hrtim.c ****     }
2445:C:/StellarStudio-7.0/SDKS/StellarESDK-1.7.0/Modules/Drivers/Timers/HRTIM/src\hrtim.c **** }
 14186              		.loc 1 2445 1
 14187 003c 00BF     		nop
 14188 003e 07B0     		add	sp, sp, #28
 14189              		.cfi_def_cfa_offset 4
 14190              		@ sp needed
 14191 0040 5DF804FB 		ldr	pc, [sp], #4
 14192              		.cfi_endproc
 14193              	.LFE227:
 14195              		.section	.text.__hrtim_serve_timer_interrupt,"ax",%progbits
 14196              		.align	1
 14197              		.p2align 4,,15
 14198              		.global	__hrtim_serve_timer_interrupt
 14199              		.syntax unified
 14200              		.thumb
 14201              		.thumb_func
 14203              	__hrtim_serve_timer_interrupt:
 14204              	.LFB228:
2446:C:/StellarStudio-7.0/SDKS/StellarESDK-1.7.0/Modules/Drivers/Timers/HRTIM/src\hrtim.c **** 
2447:C:/StellarStudio-7.0/SDKS/StellarESDK-1.7.0/Modules/Drivers/Timers/HRTIM/src\hrtim.c **** void __hrtim_serve_timer_interrupt(hrtim_driver_t *hdp, hrtim_timer_t timer) {
 14205              		.loc 1 2447 78
 14206              		.cfi_startproc
 14207              		@ args = 0, pretend = 0, frame = 16
 14208              		@ frame_needed = 0, uses_anonymous_args = 0
 14209 0000 00B5     		push	{lr}
 14210              		.cfi_def_cfa_offset 4
 14211              		.cfi_offset 14, -4
 14212 0002 85B0     		sub	sp, sp, #20
 14213              		.cfi_def_cfa_offset 24
 14214 0004 0190     		str	r0, [sp, #4]
 14215 0006 0B46     		mov	r3, r1
 14216 0008 8DF80330 		strb	r3, [sp, #3]
2448:C:/StellarStudio-7.0/SDKS/StellarESDK-1.7.0/Modules/Drivers/Timers/HRTIM/src\hrtim.c **** 
2449:C:/StellarStudio-7.0/SDKS/StellarESDK-1.7.0/Modules/Drivers/Timers/HRTIM/src\hrtim.c ****     uint32_t isr, ier;
2450:C:/StellarStudio-7.0/SDKS/StellarESDK-1.7.0/Modules/Drivers/Timers/HRTIM/src\hrtim.c **** 
2451:C:/StellarStudio-7.0/SDKS/StellarESDK-1.7.0/Modules/Drivers/Timers/HRTIM/src\hrtim.c ****     if (timer == HRTIM_TIMER_MASTER) {
 14217              		.loc 1 2451 8
 14218 000c 9DF80330 		ldrb	r3, [sp, #3]	@ zero_extendqisi2
 14219 0010 062B     		cmp	r3, #6
 14220 0012 19D1     		bne	.L477
2452:C:/StellarStudio-7.0/SDKS/StellarESDK-1.7.0/Modules/Drivers/Timers/HRTIM/src\hrtim.c ****         /* Reading and clearing IRQ sources.*/
2453:C:/StellarStudio-7.0/SDKS/StellarESDK-1.7.0/Modules/Drivers/Timers/HRTIM/src\hrtim.c ****         ier = hdp->hrtim->sMasterRegs.MDIER;
 14221              		.loc 1 2453 18
 14222 0014 019B     		ldr	r3, [sp, #4]
 14223 0016 1B68     		ldr	r3, [r3]
 14224              		.loc 1 2453 13
 14225 0018 DB68     		ldr	r3, [r3, #12]
 14226 001a 0393     		str	r3, [sp, #12]
2454:C:/StellarStudio-7.0/SDKS/StellarESDK-1.7.0/Modules/Drivers/Timers/HRTIM/src\hrtim.c ****         isr = (hdp->hrtim->sMasterRegs.MISR) & ier;
 14227              		.loc 1 2454 19
 14228 001c 019B     		ldr	r3, [sp, #4]
 14229 001e 1B68     		ldr	r3, [r3]
 14230              		.loc 1 2454 39
 14231 0020 5B68     		ldr	r3, [r3, #4]
 14232              		.loc 1 2454 13
 14233 0022 039A     		ldr	r2, [sp, #12]
 14234 0024 1340     		ands	r3, r3, r2
 14235 0026 0293     		str	r3, [sp, #8]
2455:C:/StellarStudio-7.0/SDKS/StellarESDK-1.7.0/Modules/Drivers/Timers/HRTIM/src\hrtim.c ****         hdp->hrtim->sMasterRegs.MICR = isr;
 14236              		.loc 1 2455 12
 14237 0028 019B     		ldr	r3, [sp, #4]
 14238 002a 1B68     		ldr	r3, [r3]
 14239              		.loc 1 2455 38
 14240 002c 029A     		ldr	r2, [sp, #8]
 14241 002e 9A60     		str	r2, [r3, #8]
2456:C:/StellarStudio-7.0/SDKS/StellarESDK-1.7.0/Modules/Drivers/Timers/HRTIM/src\hrtim.c **** 
2457:C:/StellarStudio-7.0/SDKS/StellarESDK-1.7.0/Modules/Drivers/Timers/HRTIM/src\hrtim.c ****         if (hdp->cb_mt != NULL) {
 14242              		.loc 1 2457 16
 14243 0030 019B     		ldr	r3, [sp, #4]
 14244 0032 D3F8D432 		ldr	r3, [r3, #724]
 14245              		.loc 1 2457 12
 14246 0036 002B     		cmp	r3, #0
 14247 0038 37D0     		beq	.L479
2458:C:/StellarStudio-7.0/SDKS/StellarESDK-1.7.0/Modules/Drivers/Timers/HRTIM/src\hrtim.c ****             hdp->cb_mt(hdp, isr);
 14248              		.loc 1 2458 16
 14249 003a 019B     		ldr	r3, [sp, #4]
 14250 003c D3F8D432 		ldr	r3, [r3, #724]
 14251              		.loc 1 2458 13
 14252 0040 0299     		ldr	r1, [sp, #8]
 14253 0042 0198     		ldr	r0, [sp, #4]
 14254 0044 9847     		blx	r3
 14255              	.LVL1:
2459:C:/StellarStudio-7.0/SDKS/StellarESDK-1.7.0/Modules/Drivers/Timers/HRTIM/src\hrtim.c ****         }
2460:C:/StellarStudio-7.0/SDKS/StellarESDK-1.7.0/Modules/Drivers/Timers/HRTIM/src\hrtim.c ****     } else {
2461:C:/StellarStudio-7.0/SDKS/StellarESDK-1.7.0/Modules/Drivers/Timers/HRTIM/src\hrtim.c ****         /* Reading and clearing IRQ sources.*/
2462:C:/StellarStudio-7.0/SDKS/StellarESDK-1.7.0/Modules/Drivers/Timers/HRTIM/src\hrtim.c ****         ier = hdp->hrtim->sTimerxRegs[timer].TIMxDIER;
2463:C:/StellarStudio-7.0/SDKS/StellarESDK-1.7.0/Modules/Drivers/Timers/HRTIM/src\hrtim.c ****         isr = (hdp->hrtim->sTimerxRegs[timer].TIMxISR) & ier;
2464:C:/StellarStudio-7.0/SDKS/StellarESDK-1.7.0/Modules/Drivers/Timers/HRTIM/src\hrtim.c ****         hdp->hrtim->sTimerxRegs[timer].TIMxICR = isr;
2465:C:/StellarStudio-7.0/SDKS/StellarESDK-1.7.0/Modules/Drivers/Timers/HRTIM/src\hrtim.c **** 
2466:C:/StellarStudio-7.0/SDKS/StellarESDK-1.7.0/Modules/Drivers/Timers/HRTIM/src\hrtim.c ****         if (hdp->cb[timer] != NULL) {
2467:C:/StellarStudio-7.0/SDKS/StellarESDK-1.7.0/Modules/Drivers/Timers/HRTIM/src\hrtim.c ****             hdp->cb[timer](hdp, isr);
2468:C:/StellarStudio-7.0/SDKS/StellarESDK-1.7.0/Modules/Drivers/Timers/HRTIM/src\hrtim.c ****         }
2469:C:/StellarStudio-7.0/SDKS/StellarESDK-1.7.0/Modules/Drivers/Timers/HRTIM/src\hrtim.c ****     }
2470:C:/StellarStudio-7.0/SDKS/StellarESDK-1.7.0/Modules/Drivers/Timers/HRTIM/src\hrtim.c **** }
 14256              		.loc 1 2470 1
 14257 0046 30E0     		b	.L479
 14258              	.L477:
2462:C:/StellarStudio-7.0/SDKS/StellarESDK-1.7.0/Modules/Drivers/Timers/HRTIM/src\hrtim.c ****         isr = (hdp->hrtim->sTimerxRegs[timer].TIMxISR) & ier;
 14259              		.loc 1 2462 18
 14260 0048 019B     		ldr	r3, [sp, #4]
 14261 004a 1A68     		ldr	r2, [r3]
2462:C:/StellarStudio-7.0/SDKS/StellarESDK-1.7.0/Modules/Drivers/Timers/HRTIM/src\hrtim.c ****         isr = (hdp->hrtim->sTimerxRegs[timer].TIMxISR) & ier;
 14262              		.loc 1 2462 45
 14263 004c 9DF80330 		ldrb	r3, [sp, #3]	@ zero_extendqisi2
2462:C:/StellarStudio-7.0/SDKS/StellarESDK-1.7.0/Modules/Drivers/Timers/HRTIM/src\hrtim.c ****         isr = (hdp->hrtim->sTimerxRegs[timer].TIMxISR) & ier;
 14264              		.loc 1 2462 13
 14265 0050 DB01     		lsls	r3, r3, #7
 14266 0052 1344     		add	r3, r3, r2
 14267 0054 8C33     		adds	r3, r3, #140
 14268 0056 1B68     		ldr	r3, [r3]
 14269 0058 0393     		str	r3, [sp, #12]
2463:C:/StellarStudio-7.0/SDKS/StellarESDK-1.7.0/Modules/Drivers/Timers/HRTIM/src\hrtim.c ****         hdp->hrtim->sTimerxRegs[timer].TIMxICR = isr;
 14270              		.loc 1 2463 19
 14271 005a 019B     		ldr	r3, [sp, #4]
 14272 005c 1A68     		ldr	r2, [r3]
2463:C:/StellarStudio-7.0/SDKS/StellarESDK-1.7.0/Modules/Drivers/Timers/HRTIM/src\hrtim.c ****         hdp->hrtim->sTimerxRegs[timer].TIMxICR = isr;
 14273              		.loc 1 2463 46
 14274 005e 9DF80330 		ldrb	r3, [sp, #3]	@ zero_extendqisi2
 14275 0062 0133     		adds	r3, r3, #1
 14276 0064 DB01     		lsls	r3, r3, #7
 14277 0066 1344     		add	r3, r3, r2
 14278 0068 0433     		adds	r3, r3, #4
 14279 006a 1B68     		ldr	r3, [r3]
2463:C:/StellarStudio-7.0/SDKS/StellarESDK-1.7.0/Modules/Drivers/Timers/HRTIM/src\hrtim.c ****         hdp->hrtim->sTimerxRegs[timer].TIMxICR = isr;
 14280              		.loc 1 2463 13
 14281 006c 039A     		ldr	r2, [sp, #12]
 14282 006e 1340     		ands	r3, r3, r2
 14283 0070 0293     		str	r3, [sp, #8]
2464:C:/StellarStudio-7.0/SDKS/StellarESDK-1.7.0/Modules/Drivers/Timers/HRTIM/src\hrtim.c **** 
 14284              		.loc 1 2464 12
 14285 0072 019B     		ldr	r3, [sp, #4]
 14286 0074 1A68     		ldr	r2, [r3]
2464:C:/StellarStudio-7.0/SDKS/StellarESDK-1.7.0/Modules/Drivers/Timers/HRTIM/src\hrtim.c **** 
 14287              		.loc 1 2464 39
 14288 0076 9DF80330 		ldrb	r3, [sp, #3]	@ zero_extendqisi2
2464:C:/StellarStudio-7.0/SDKS/StellarESDK-1.7.0/Modules/Drivers/Timers/HRTIM/src\hrtim.c **** 
 14289              		.loc 1 2464 48
 14290 007a DB01     		lsls	r3, r3, #7
 14291 007c 1344     		add	r3, r3, r2
 14292 007e 8833     		adds	r3, r3, #136
 14293 0080 029A     		ldr	r2, [sp, #8]
 14294 0082 1A60     		str	r2, [r3]
2466:C:/StellarStudio-7.0/SDKS/StellarESDK-1.7.0/Modules/Drivers/Timers/HRTIM/src\hrtim.c ****             hdp->cb[timer](hdp, isr);
 14295              		.loc 1 2466 20
 14296 0084 9DF80330 		ldrb	r3, [sp, #3]	@ zero_extendqisi2
 14297 0088 019A     		ldr	r2, [sp, #4]
 14298 008a AE33     		adds	r3, r3, #174
 14299 008c 9B00     		lsls	r3, r3, #2
 14300 008e 1344     		add	r3, r3, r2
 14301 0090 5B68     		ldr	r3, [r3, #4]
2466:C:/StellarStudio-7.0/SDKS/StellarESDK-1.7.0/Modules/Drivers/Timers/HRTIM/src\hrtim.c ****             hdp->cb[timer](hdp, isr);
 14302              		.loc 1 2466 12
 14303 0092 002B     		cmp	r3, #0
 14304 0094 09D0     		beq	.L479
2467:C:/StellarStudio-7.0/SDKS/StellarESDK-1.7.0/Modules/Drivers/Timers/HRTIM/src\hrtim.c ****         }
 14305              		.loc 1 2467 20
 14306 0096 9DF80330 		ldrb	r3, [sp, #3]	@ zero_extendqisi2
 14307 009a 019A     		ldr	r2, [sp, #4]
 14308 009c AE33     		adds	r3, r3, #174
 14309 009e 9B00     		lsls	r3, r3, #2
 14310 00a0 1344     		add	r3, r3, r2
 14311 00a2 5B68     		ldr	r3, [r3, #4]
2467:C:/StellarStudio-7.0/SDKS/StellarESDK-1.7.0/Modules/Drivers/Timers/HRTIM/src\hrtim.c ****         }
 14312              		.loc 1 2467 13
 14313 00a4 0299     		ldr	r1, [sp, #8]
 14314 00a6 0198     		ldr	r0, [sp, #4]
 14315 00a8 9847     		blx	r3
 14316              	.LVL2:
 14317              	.L479:
 14318              		.loc 1 2470 1
 14319 00aa 00BF     		nop
 14320 00ac 05B0     		add	sp, sp, #20
 14321              		.cfi_def_cfa_offset 4
 14322              		@ sp needed
 14323 00ae 5DF804FB 		ldr	pc, [sp], #4
 14324              		.cfi_endproc
 14325              	.LFE228:
 14327 00b2 00BF     		.text
 14328              	.Letext0:
 14329              		.file 2 "c:\\stellarstudio-7.0\\sdks\\tools-1.4.0\\toolchain\\arm\\mingw64_nt\\10.3-2021.10\\arm-n
 14330              		.file 3 "c:\\stellarstudio-7.0\\sdks\\tools-1.4.0\\toolchain\\arm\\mingw64_nt\\10.3-2021.10\\arm-n
 14331              		.file 4 "C:/StellarStudio-7.0/SDKS/StellarESDK-1.7.0/Modules/Drivers/Timers/HRTIM/include/hrtim.h"
 14332              		.file 5 "C:/StellarStudio-7.0/SDKS/StellarESDK-1.7.0/Modules/Drivers/Timers/HRTIM/include/hrtim_pr
 14333              		.file 6 "C:/StellarStudio-7.0/SDKS/StellarESDK-1.7.0/Modules/Platform/MCU/include/sr5e1/SR5E1_HRTI
DEFINED SYMBOLS
                            *ABS*:00000000 hrtim.c
C:\Users\EVERYO~1\AppData\Local\Temp\ccBE1q3V.s:19     .text.hrtim_reset_paramters:00000000 $t
C:\Users\EVERYO~1\AppData\Local\Temp\ccBE1q3V.s:25     .text.hrtim_reset_paramters:00000000 hrtim_reset_paramters
C:\Users\EVERYO~1\AppData\Local\Temp\ccBE1q3V.s:893    .text.hrtim_init:00000000 $t
C:\Users\EVERYO~1\AppData\Local\Temp\ccBE1q3V.s:900    .text.hrtim_init:00000000 hrtim_init
C:\Users\EVERYO~1\AppData\Local\Temp\ccBE1q3V.s:939    .text.hrtim_set_prio:00000000 $t
C:\Users\EVERYO~1\AppData\Local\Temp\ccBE1q3V.s:946    .text.hrtim_set_prio:00000000 hrtim_set_prio
C:\Users\EVERYO~1\AppData\Local\Temp\ccBE1q3V.s:977    .text.hrtim_set_timer_mode:00000000 $t
C:\Users\EVERYO~1\AppData\Local\Temp\ccBE1q3V.s:984    .text.hrtim_set_timer_mode:00000000 hrtim_set_timer_mode
C:\Users\EVERYO~1\AppData\Local\Temp\ccBE1q3V.s:1039   .text.hrtim_timer_set_prescaler:00000000 $t
C:\Users\EVERYO~1\AppData\Local\Temp\ccBE1q3V.s:1046   .text.hrtim_timer_set_prescaler:00000000 hrtim_timer_set_prescaler
C:\Users\EVERYO~1\AppData\Local\Temp\ccBE1q3V.s:1150   .text.hrtim_timer_get_prescaler:00000000 $t
C:\Users\EVERYO~1\AppData\Local\Temp\ccBE1q3V.s:1157   .text.hrtim_timer_get_prescaler:00000000 hrtim_timer_get_prescaler
C:\Users\EVERYO~1\AppData\Local\Temp\ccBE1q3V.s:1194   .text.hrtim_timer_set_period:00000000 $t
C:\Users\EVERYO~1\AppData\Local\Temp\ccBE1q3V.s:1201   .text.hrtim_timer_set_period:00000000 hrtim_timer_set_period
C:\Users\EVERYO~1\AppData\Local\Temp\ccBE1q3V.s:1292   .text.hrtim_timer_get_period:00000000 $t
C:\Users\EVERYO~1\AppData\Local\Temp\ccBE1q3V.s:1299   .text.hrtim_timer_get_period:00000000 hrtim_timer_get_period
C:\Users\EVERYO~1\AppData\Local\Temp\ccBE1q3V.s:1338   .text.hrtim_timer_set_cmp:00000000 $t
C:\Users\EVERYO~1\AppData\Local\Temp\ccBE1q3V.s:1345   .text.hrtim_timer_set_cmp:00000000 hrtim_timer_set_cmp
C:\Users\EVERYO~1\AppData\Local\Temp\ccBE1q3V.s:1379   .text.hrtim_timer_set_cmp:0000003c $d
C:\Users\EVERYO~1\AppData\Local\Temp\ccBE1q3V.s:1383   .text.hrtim_timer_set_cmp:0000004c $t
C:\Users\EVERYO~1\AppData\Local\Temp\ccBE1q3V.s:1437   .text.hrtim_timer_set_cmp:000000a4 $d
C:\Users\EVERYO~1\AppData\Local\Temp\ccBE1q3V.s:1441   .text.hrtim_timer_set_cmp:000000b4 $t
C:\Users\EVERYO~1\AppData\Local\Temp\ccBE1q3V.s:1542   .text.hrtim_timer_set_cmp:00000160 $d
C:\Users\EVERYO~1\AppData\Local\Temp\ccBE1q3V.s:1546   .text.hrtim_timer_set_cmp:00000170 $t
C:\Users\EVERYO~1\AppData\Local\Temp\ccBE1q3V.s:1596   .text.hrtim_timer_set_cmp:000001b0 $d
C:\Users\EVERYO~1\AppData\Local\Temp\ccBE1q3V.s:1600   .text.hrtim_timer_set_cmp:000001c0 $t
C:\Users\EVERYO~1\AppData\Local\Temp\ccBE1q3V.s:1685   .text.hrtim_timer_get_cmp:00000000 $t
C:\Users\EVERYO~1\AppData\Local\Temp\ccBE1q3V.s:1692   .text.hrtim_timer_get_cmp:00000000 hrtim_timer_get_cmp
C:\Users\EVERYO~1\AppData\Local\Temp\ccBE1q3V.s:1718   .text.hrtim_timer_get_cmp:00000028 $d
C:\Users\EVERYO~1\AppData\Local\Temp\ccBE1q3V.s:1722   .text.hrtim_timer_get_cmp:00000038 $t
C:\Users\EVERYO~1\AppData\Local\Temp\ccBE1q3V.s:1756   .text.hrtim_timer_get_cmp:00000064 $d
C:\Users\EVERYO~1\AppData\Local\Temp\ccBE1q3V.s:1760   .text.hrtim_timer_get_cmp:00000074 $t
C:\Users\EVERYO~1\AppData\Local\Temp\ccBE1q3V.s:1806   .text.hrtim_timer_set_autodelay:00000000 $t
C:\Users\EVERYO~1\AppData\Local\Temp\ccBE1q3V.s:1813   .text.hrtim_timer_set_autodelay:00000000 hrtim_timer_set_autodelay
C:\Users\EVERYO~1\AppData\Local\Temp\ccBE1q3V.s:1929   .text.hrtim_timer_set_deadtime:00000000 $t
C:\Users\EVERYO~1\AppData\Local\Temp\ccBE1q3V.s:1936   .text.hrtim_timer_set_deadtime:00000000 hrtim_timer_set_deadtime
C:\Users\EVERYO~1\AppData\Local\Temp\ccBE1q3V.s:2079   .text.hrtim_timer_enable_deadtime:00000000 $t
C:\Users\EVERYO~1\AppData\Local\Temp\ccBE1q3V.s:2086   .text.hrtim_timer_enable_deadtime:00000000 hrtim_timer_enable_deadtime
C:\Users\EVERYO~1\AppData\Local\Temp\ccBE1q3V.s:2138   .text.hrtim_timer_disable_deadtime:00000000 $t
C:\Users\EVERYO~1\AppData\Local\Temp\ccBE1q3V.s:2145   .text.hrtim_timer_disable_deadtime:00000000 hrtim_timer_disable_deadtime
C:\Users\EVERYO~1\AppData\Local\Temp\ccBE1q3V.s:2197   .text.hrtim_timer_set_outputset:00000000 $t
C:\Users\EVERYO~1\AppData\Local\Temp\ccBE1q3V.s:2204   .text.hrtim_timer_set_outputset:00000000 hrtim_timer_set_outputset
C:\Users\EVERYO~1\AppData\Local\Temp\ccBE1q3V.s:2347   .text.hrtim_timer_set_outputrst:00000000 $t
C:\Users\EVERYO~1\AppData\Local\Temp\ccBE1q3V.s:2354   .text.hrtim_timer_set_outputrst:00000000 hrtim_timer_set_outputrst
C:\Users\EVERYO~1\AppData\Local\Temp\ccBE1q3V.s:2497   .text.hrtim_timer_clear_outputset:00000000 $t
C:\Users\EVERYO~1\AppData\Local\Temp\ccBE1q3V.s:2504   .text.hrtim_timer_clear_outputset:00000000 hrtim_timer_clear_outputset
C:\Users\EVERYO~1\AppData\Local\Temp\ccBE1q3V.s:2693   .text.hrtim_timer_clear_outputrst:00000000 $t
C:\Users\EVERYO~1\AppData\Local\Temp\ccBE1q3V.s:2700   .text.hrtim_timer_clear_outputrst:00000000 hrtim_timer_clear_outputrst
C:\Users\EVERYO~1\AppData\Local\Temp\ccBE1q3V.s:2889   .text.hrtim_set_cb:00000000 $t
C:\Users\EVERYO~1\AppData\Local\Temp\ccBE1q3V.s:2896   .text.hrtim_set_cb:00000000 hrtim_set_cb
C:\Users\EVERYO~1\AppData\Local\Temp\ccBE1q3V.s:2968   .text.hrtim_start:00000000 $t
C:\Users\EVERYO~1\AppData\Local\Temp\ccBE1q3V.s:2975   .text.hrtim_start:00000000 hrtim_start
C:\Users\EVERYO~1\AppData\Local\Temp\ccBE1q3V.s:3067   .text.hrtim_start:00000084 $d
C:\Users\EVERYO~1\AppData\Local\Temp\ccBE1q3V.s:3072   .text.hrtim_start:00000098 $t
C:\Users\EVERYO~1\AppData\Local\Temp\ccBE1q3V.s:3190   .text.hrtim_start:00000154 $d
C:\Users\EVERYO~1\AppData\Local\Temp\ccBE1q3V.s:3200   .text.hrtim_start:0000017c $t
C:\Users\EVERYO~1\AppData\Local\Temp\ccBE1q3V.s:4508   .text.hrtim_start:00000abc $d
C:\Users\EVERYO~1\AppData\Local\Temp\ccBE1q3V.s:4511   .text.hrtim_start:00000ac0 $t
C:\Users\EVERYO~1\AppData\Local\Temp\ccBE1q3V.s:4806   .text.hrtim_start:00000cd0 $d
C:\Users\EVERYO~1\AppData\Local\Temp\ccBE1q3V.s:4816   .text.hrtim_start:00000cf8 $t
C:\Users\EVERYO~1\AppData\Local\Temp\ccBE1q3V.s:5127   .text.hrtim_start:00000f18 $d
C:\Users\EVERYO~1\AppData\Local\Temp\ccBE1q3V.s:5131   .text.hrtim_start:00000f20 $t
C:\Users\EVERYO~1\AppData\Local\Temp\ccBE1q3V.s:5604   .text.hrtim_start:00001264 $d
C:\Users\EVERYO~1\AppData\Local\Temp\ccBE1q3V.s:5614   .text.hrtim_start:0000128c $t
C:\Users\EVERYO~1\AppData\Local\Temp\ccBE1q3V.s:6844   .text.hrtim_start:00001afc $d
C:\Users\EVERYO~1\AppData\Local\Temp\ccBE1q3V.s:6850   .text.hrtim_start:00001b14 $t
C:\Users\EVERYO~1\AppData\Local\Temp\ccBE1q3V.s:8144   .text.hrtim_start:000023b4 $d
C:\Users\EVERYO~1\AppData\Local\Temp\ccBE1q3V.s:8149   .text.hrtim_start:000023c8 $t
C:\Users\EVERYO~1\AppData\Local\Temp\ccBE1q3V.s:8363   .text.hrtim_start:00002500 $d
C:\Users\EVERYO~1\AppData\Local\Temp\ccBE1q3V.s:8368   .text.hrtim_enable_cb:00000000 $t
C:\Users\EVERYO~1\AppData\Local\Temp\ccBE1q3V.s:8375   .text.hrtim_enable_cb:00000000 hrtim_enable_cb
C:\Users\EVERYO~1\AppData\Local\Temp\ccBE1q3V.s:8531   .text.hrtim_disable_cb:00000000 $t
C:\Users\EVERYO~1\AppData\Local\Temp\ccBE1q3V.s:8538   .text.hrtim_disable_cb:00000000 hrtim_disable_cb
C:\Users\EVERYO~1\AppData\Local\Temp\ccBE1q3V.s:8700   .text.hrtim_timer_enable_output:00000000 $t
C:\Users\EVERYO~1\AppData\Local\Temp\ccBE1q3V.s:8707   .text.hrtim_timer_enable_output:00000000 hrtim_timer_enable_output
C:\Users\EVERYO~1\AppData\Local\Temp\ccBE1q3V.s:8738   .text.hrtim_timer_disable_output:00000000 $t
C:\Users\EVERYO~1\AppData\Local\Temp\ccBE1q3V.s:8745   .text.hrtim_timer_disable_output:00000000 hrtim_timer_disable_output
C:\Users\EVERYO~1\AppData\Local\Temp\ccBE1q3V.s:8776   .text.hrtim_timer_enable:00000000 $t
C:\Users\EVERYO~1\AppData\Local\Temp\ccBE1q3V.s:8783   .text.hrtim_timer_enable:00000000 hrtim_timer_enable
C:\Users\EVERYO~1\AppData\Local\Temp\ccBE1q3V.s:8827   .text.hrtim_timer_disable:00000000 $t
C:\Users\EVERYO~1\AppData\Local\Temp\ccBE1q3V.s:8834   .text.hrtim_timer_disable:00000000 hrtim_timer_disable
C:\Users\EVERYO~1\AppData\Local\Temp\ccBE1q3V.s:8880   .text.hrtim_timer_set_counter:00000000 $t
C:\Users\EVERYO~1\AppData\Local\Temp\ccBE1q3V.s:8887   .text.hrtim_timer_set_counter:00000000 hrtim_timer_set_counter
C:\Users\EVERYO~1\AppData\Local\Temp\ccBE1q3V.s:8944   .text.hrtim_timer_get_counter:00000000 $t
C:\Users\EVERYO~1\AppData\Local\Temp\ccBE1q3V.s:8951   .text.hrtim_timer_get_counter:00000000 hrtim_timer_get_counter
C:\Users\EVERYO~1\AppData\Local\Temp\ccBE1q3V.s:9008   .text.hrtim_timer_set_repetition:00000000 $t
C:\Users\EVERYO~1\AppData\Local\Temp\ccBE1q3V.s:9015   .text.hrtim_timer_set_repetition:00000000 hrtim_timer_set_repetition
C:\Users\EVERYO~1\AppData\Local\Temp\ccBE1q3V.s:9072   .text.hrtim_timer_get_repetition:00000000 $t
C:\Users\EVERYO~1\AppData\Local\Temp\ccBE1q3V.s:9079   .text.hrtim_timer_get_repetition:00000000 hrtim_timer_get_repetition
C:\Users\EVERYO~1\AppData\Local\Temp\ccBE1q3V.s:9136   .text.hrtim_timer_get_cpt:00000000 $t
C:\Users\EVERYO~1\AppData\Local\Temp\ccBE1q3V.s:9143   .text.hrtim_timer_get_cpt:00000000 hrtim_timer_get_cpt
C:\Users\EVERYO~1\AppData\Local\Temp\ccBE1q3V.s:9227   .text.hrtim_timer_set_counter_reset_event:00000000 $t
C:\Users\EVERYO~1\AppData\Local\Temp\ccBE1q3V.s:9234   .text.hrtim_timer_set_counter_reset_event:00000000 hrtim_timer_set_counter_reset_event
C:\Users\EVERYO~1\AppData\Local\Temp\ccBE1q3V.s:9299   .text.hrtim_timer_clear_counter_reset_event:00000000 $t
C:\Users\EVERYO~1\AppData\Local\Temp\ccBE1q3V.s:9306   .text.hrtim_timer_clear_counter_reset_event:00000000 hrtim_timer_clear_counter_reset_event
C:\Users\EVERYO~1\AppData\Local\Temp\ccBE1q3V.s:9391   .text.hrtim_timer_set_preload_update:00000000 $t
C:\Users\EVERYO~1\AppData\Local\Temp\ccBE1q3V.s:9398   .text.hrtim_timer_set_preload_update:00000000 hrtim_timer_set_preload_update
C:\Users\EVERYO~1\AppData\Local\Temp\ccBE1q3V.s:9545   .text.hrtim_timer_clear_preload_update:00000000 $t
C:\Users\EVERYO~1\AppData\Local\Temp\ccBE1q3V.s:9552   .text.hrtim_timer_clear_preload_update:00000000 hrtim_timer_clear_preload_update
C:\Users\EVERYO~1\AppData\Local\Temp\ccBE1q3V.s:9725   .text.hrtim_timer_set_half_intlvd_mode:00000000 $t
C:\Users\EVERYO~1\AppData\Local\Temp\ccBE1q3V.s:9732   .text.hrtim_timer_set_half_intlvd_mode:00000000 hrtim_timer_set_half_intlvd_mode
C:\Users\EVERYO~1\AppData\Local\Temp\ccBE1q3V.s:9787   .text.hrtim_timer_set_up_down_mode:00000000 $t
C:\Users\EVERYO~1\AppData\Local\Temp\ccBE1q3V.s:9794   .text.hrtim_timer_set_up_down_mode:00000000 hrtim_timer_set_up_down_mode
C:\Users\EVERYO~1\AppData\Local\Temp\ccBE1q3V.s:9848   .text.hrtim_timer_set_sw_update:00000000 $t
C:\Users\EVERYO~1\AppData\Local\Temp\ccBE1q3V.s:9855   .text.hrtim_timer_set_sw_update:00000000 hrtim_timer_set_sw_update
C:\Users\EVERYO~1\AppData\Local\Temp\ccBE1q3V.s:9918   .text.hrtim_timer_enable_update:00000000 $t
C:\Users\EVERYO~1\AppData\Local\Temp\ccBE1q3V.s:9925   .text.hrtim_timer_enable_update:00000000 hrtim_timer_enable_update
C:\Users\EVERYO~1\AppData\Local\Temp\ccBE1q3V.s:9969   .text.hrtim_timer_disable_update:00000000 $t
C:\Users\EVERYO~1\AppData\Local\Temp\ccBE1q3V.s:9976   .text.hrtim_timer_disable_update:00000000 hrtim_timer_disable_update
C:\Users\EVERYO~1\AppData\Local\Temp\ccBE1q3V.s:10018  .text.hrtim_timer_set_adc_trigger:00000000 $t
C:\Users\EVERYO~1\AppData\Local\Temp\ccBE1q3V.s:10025  .text.hrtim_timer_set_adc_trigger:00000000 hrtim_timer_set_adc_trigger
C:\Users\EVERYO~1\AppData\Local\Temp\ccBE1q3V.s:10093  .text.hrtim_timer_set_adc_trigger:00000074 $d
C:\Users\EVERYO~1\AppData\Local\Temp\ccBE1q3V.s:10103  .text.hrtim_timer_set_adc_trigger:0000009c $t
C:\Users\EVERYO~1\AppData\Local\Temp\ccBE1q3V.s:10614  .text.hrtim_timer_set_adc_post_scaler:00000000 $t
C:\Users\EVERYO~1\AppData\Local\Temp\ccBE1q3V.s:10621  .text.hrtim_timer_set_adc_post_scaler:00000000 hrtim_timer_set_adc_post_scaler
C:\Users\EVERYO~1\AppData\Local\Temp\ccBE1q3V.s:10666  .text.hrtim_timer_set_adc_post_scaler:0000004c $d
C:\Users\EVERYO~1\AppData\Local\Temp\ccBE1q3V.s:10676  .text.hrtim_timer_set_adc_post_scaler:00000074 $t
C:\Users\EVERYO~1\AppData\Local\Temp\ccBE1q3V.s:10993  .text.hrtim_set_ex_event:00000000 $t
C:\Users\EVERYO~1\AppData\Local\Temp\ccBE1q3V.s:11000  .text.hrtim_set_ex_event:00000000 hrtim_set_ex_event
C:\Users\EVERYO~1\AppData\Local\Temp\ccBE1q3V.s:11116  .text.hrtim_set_ex_event:000000d0 $d
C:\Users\EVERYO~1\AppData\Local\Temp\ccBE1q3V.s:11127  .text.hrtim_set_ex_event:000000fc $t
C:\Users\EVERYO~1\AppData\Local\Temp\ccBE1q3V.s:11842  .text.hrtim_set_event_prescaler:00000000 $t
C:\Users\EVERYO~1\AppData\Local\Temp\ccBE1q3V.s:11849  .text.hrtim_set_event_prescaler:00000000 hrtim_set_event_prescaler
C:\Users\EVERYO~1\AppData\Local\Temp\ccBE1q3V.s:11881  .text.hrtim_timer_set_eev_filtering:00000000 $t
C:\Users\EVERYO~1\AppData\Local\Temp\ccBE1q3V.s:11888  .text.hrtim_timer_set_eev_filtering:00000000 hrtim_timer_set_eev_filtering
C:\Users\EVERYO~1\AppData\Local\Temp\ccBE1q3V.s:11945  .text.hrtim_ext_even_counter_cfg:00000000 $t
C:\Users\EVERYO~1\AppData\Local\Temp\ccBE1q3V.s:11952  .text.hrtim_ext_even_counter_cfg:00000000 hrtim_ext_even_counter_cfg
C:\Users\EVERYO~1\AppData\Local\Temp\ccBE1q3V.s:12040  .text.hrtim_timer_eev_counter_enable:00000000 $t
C:\Users\EVERYO~1\AppData\Local\Temp\ccBE1q3V.s:12047  .text.hrtim_timer_eev_counter_enable:00000000 hrtim_timer_eev_counter_enable
C:\Users\EVERYO~1\AppData\Local\Temp\ccBE1q3V.s:12095  .text.hrtim_timer_eev_counter_disable:00000000 $t
C:\Users\EVERYO~1\AppData\Local\Temp\ccBE1q3V.s:12102  .text.hrtim_timer_eev_counter_disable:00000000 hrtim_timer_eev_counter_disable
C:\Users\EVERYO~1\AppData\Local\Temp\ccBE1q3V.s:12150  .text.hrtim_timer_eev_counter_reset:00000000 $t
C:\Users\EVERYO~1\AppData\Local\Temp\ccBE1q3V.s:12157  .text.hrtim_timer_eev_counter_reset:00000000 hrtim_timer_eev_counter_reset
C:\Users\EVERYO~1\AppData\Local\Temp\ccBE1q3V.s:12197  .text.hrtim_timer_set_dacsync_trigger:00000000 $t
C:\Users\EVERYO~1\AppData\Local\Temp\ccBE1q3V.s:12204  .text.hrtim_timer_set_dacsync_trigger:00000000 hrtim_timer_set_dacsync_trigger
C:\Users\EVERYO~1\AppData\Local\Temp\ccBE1q3V.s:12280  .text.hrtim_timer_enable_dualdac_trigger:00000000 $t
C:\Users\EVERYO~1\AppData\Local\Temp\ccBE1q3V.s:12287  .text.hrtim_timer_enable_dualdac_trigger:00000000 hrtim_timer_enable_dualdac_trigger
C:\Users\EVERYO~1\AppData\Local\Temp\ccBE1q3V.s:12316  .text.hrtim_timer_set_dualdac_trigger:00000000 $t
C:\Users\EVERYO~1\AppData\Local\Temp\ccBE1q3V.s:12323  .text.hrtim_timer_set_dualdac_trigger:00000000 hrtim_timer_set_dualdac_trigger
C:\Users\EVERYO~1\AppData\Local\Temp\ccBE1q3V.s:12385  .text.hrtim_timer_set_adc_rollover:00000000 $t
C:\Users\EVERYO~1\AppData\Local\Temp\ccBE1q3V.s:12392  .text.hrtim_timer_set_adc_rollover:00000000 hrtim_timer_set_adc_rollover
C:\Users\EVERYO~1\AppData\Local\Temp\ccBE1q3V.s:12442  .text.hrtim_timer_set_fault_event_rollover:00000000 $t
C:\Users\EVERYO~1\AppData\Local\Temp\ccBE1q3V.s:12449  .text.hrtim_timer_set_fault_event_rollover:00000000 hrtim_timer_set_fault_event_rollover
C:\Users\EVERYO~1\AppData\Local\Temp\ccBE1q3V.s:12499  .text.hrtim_timer_set_out_rollover:00000000 $t
C:\Users\EVERYO~1\AppData\Local\Temp\ccBE1q3V.s:12506  .text.hrtim_timer_set_out_rollover:00000000 hrtim_timer_set_out_rollover
C:\Users\EVERYO~1\AppData\Local\Temp\ccBE1q3V.s:12556  .text.hrtim_timer_set_burstmode_rollover:00000000 $t
C:\Users\EVERYO~1\AppData\Local\Temp\ccBE1q3V.s:12563  .text.hrtim_timer_set_burstmode_rollover:00000000 hrtim_timer_set_burstmode_rollover
C:\Users\EVERYO~1\AppData\Local\Temp\ccBE1q3V.s:12613  .text.hrtim_timer_set_rollover:00000000 $t
C:\Users\EVERYO~1\AppData\Local\Temp\ccBE1q3V.s:12620  .text.hrtim_timer_set_rollover:00000000 hrtim_timer_set_rollover
C:\Users\EVERYO~1\AppData\Local\Temp\ccBE1q3V.s:12670  .text.hrtim_set_fault_cfg:00000000 $t
C:\Users\EVERYO~1\AppData\Local\Temp\ccBE1q3V.s:12677  .text.hrtim_set_fault_cfg:00000000 hrtim_set_fault_cfg
C:\Users\EVERYO~1\AppData\Local\Temp\ccBE1q3V.s:12774  .text.hrtim_set_fault_prsc:00000000 $t
C:\Users\EVERYO~1\AppData\Local\Temp\ccBE1q3V.s:12781  .text.hrtim_set_fault_prsc:00000000 hrtim_set_fault_prsc
C:\Users\EVERYO~1\AppData\Local\Temp\ccBE1q3V.s:12813  .text.hrtim_set_fault_counter_cfg:00000000 $t
C:\Users\EVERYO~1\AppData\Local\Temp\ccBE1q3V.s:12820  .text.hrtim_set_fault_counter_cfg:00000000 hrtim_set_fault_counter_cfg
C:\Users\EVERYO~1\AppData\Local\Temp\ccBE1q3V.s:12882  .text.hrtim_timer_set_output_faultstate:00000000 $t
C:\Users\EVERYO~1\AppData\Local\Temp\ccBE1q3V.s:12889  .text.hrtim_timer_set_output_faultstate:00000000 hrtim_timer_set_output_faultstate
C:\Users\EVERYO~1\AppData\Local\Temp\ccBE1q3V.s:12942  .text.hrtim_timer_set_output_idlestate:00000000 $t
C:\Users\EVERYO~1\AppData\Local\Temp\ccBE1q3V.s:12949  .text.hrtim_timer_set_output_idlestate:00000000 hrtim_timer_set_output_idlestate
C:\Users\EVERYO~1\AppData\Local\Temp\ccBE1q3V.s:13002  .text.hrtim_timer_set_output_polarity:00000000 $t
C:\Users\EVERYO~1\AppData\Local\Temp\ccBE1q3V.s:13009  .text.hrtim_timer_set_output_polarity:00000000 hrtim_timer_set_output_polarity
C:\Users\EVERYO~1\AppData\Local\Temp\ccBE1q3V.s:13062  .text.hrtim_timer_get_output_state:00000000 $t
C:\Users\EVERYO~1\AppData\Local\Temp\ccBE1q3V.s:13069  .text.hrtim_timer_get_output_state:00000000 hrtim_timer_get_output_state
C:\Users\EVERYO~1\AppData\Local\Temp\ccBE1q3V.s:13138  .text.hrtim_timer_set_capture_unit:00000000 $t
C:\Users\EVERYO~1\AppData\Local\Temp\ccBE1q3V.s:13145  .text.hrtim_timer_set_capture_unit:00000000 hrtim_timer_set_capture_unit
C:\Users\EVERYO~1\AppData\Local\Temp\ccBE1q3V.s:13190  .text.hrtim_timer_fault_enable:00000000 $t
C:\Users\EVERYO~1\AppData\Local\Temp\ccBE1q3V.s:13197  .text.hrtim_timer_fault_enable:00000000 hrtim_timer_fault_enable
C:\Users\EVERYO~1\AppData\Local\Temp\ccBE1q3V.s:13273  .text.hrtim_set_sync_in:00000000 $t
C:\Users\EVERYO~1\AppData\Local\Temp\ccBE1q3V.s:13280  .text.hrtim_set_sync_in:00000000 hrtim_set_sync_in
C:\Users\EVERYO~1\AppData\Local\Temp\ccBE1q3V.s:13312  .text.hrtim_set_sync_out:00000000 $t
C:\Users\EVERYO~1\AppData\Local\Temp\ccBE1q3V.s:13319  .text.hrtim_set_sync_out:00000000 hrtim_set_sync_out
C:\Users\EVERYO~1\AppData\Local\Temp\ccBE1q3V.s:13351  .text.hrtim_set_sync_src:00000000 $t
C:\Users\EVERYO~1\AppData\Local\Temp\ccBE1q3V.s:13358  .text.hrtim_set_sync_src:00000000 hrtim_set_sync_src
C:\Users\EVERYO~1\AppData\Local\Temp\ccBE1q3V.s:13390  .text.hrtim_enable_sync_start:00000000 $t
C:\Users\EVERYO~1\AppData\Local\Temp\ccBE1q3V.s:13397  .text.hrtim_enable_sync_start:00000000 hrtim_enable_sync_start
C:\Users\EVERYO~1\AppData\Local\Temp\ccBE1q3V.s:13452  .text.hrtim_enable_sync_reset:00000000 $t
C:\Users\EVERYO~1\AppData\Local\Temp\ccBE1q3V.s:13459  .text.hrtim_enable_sync_reset:00000000 hrtim_enable_sync_reset
C:\Users\EVERYO~1\AppData\Local\Temp\ccBE1q3V.s:13514  .text.hrtim_stop:00000000 $t
C:\Users\EVERYO~1\AppData\Local\Temp\ccBE1q3V.s:13521  .text.hrtim_stop:00000000 hrtim_stop
C:\Users\EVERYO~1\AppData\Local\Temp\ccBE1q3V.s:14091  .text.hrtim_deinit:00000000 $t
C:\Users\EVERYO~1\AppData\Local\Temp\ccBE1q3V.s:14098  .text.hrtim_deinit:00000000 hrtim_deinit
C:\Users\EVERYO~1\AppData\Local\Temp\ccBE1q3V.s:14131  .text.__hrtim_serve_flt_interrupt:00000000 $t
C:\Users\EVERYO~1\AppData\Local\Temp\ccBE1q3V.s:14138  .text.__hrtim_serve_flt_interrupt:00000000 __hrtim_serve_flt_interrupt
C:\Users\EVERYO~1\AppData\Local\Temp\ccBE1q3V.s:14196  .text.__hrtim_serve_timer_interrupt:00000000 $t
C:\Users\EVERYO~1\AppData\Local\Temp\ccBE1q3V.s:14203  .text.__hrtim_serve_timer_interrupt:00000000 __hrtim_serve_timer_interrupt
                           .group:00000000 wm4.0.1ea29c7543256e0887205fa7f8c557c8
                           .group:00000000 wm4.stdbool.h.29.07dce69c3b78884144b7f7bd19483461
                           .group:00000000 wm4.stddef.h.39.27677723d43e5b5a7afdf8d798429f1d
                           .group:00000000 wm4._newlib_version.h.4.bfdf54b0af045d4a71376ae00f63a22c
                           .group:00000000 wm4.features.h.33.5bd1eea2d80518b50f7af0b5ce6750e0
                           .group:00000000 wm4._default_types.h.15.247e5cd201eca3442cbf5404108c4935
                           .group:00000000 wm4._intsup.h.10.48bafbb683905c4daa4565a85aeeb264
                           .group:00000000 wm4._stdint.h.10.c24fa3af3bc1706662bb5593a907e841
                           .group:00000000 wm4.stdint.h.23.d53047a68f4a85177f80b422d52785ed
                           .group:00000000 wm4.typedefs.h.36.07fe3956b4e751037cfee70edcd0b397
                           .group:00000000 wm4.hrtim.h.37.f27c9c9748a470e36d41b6add4995cd2
                           .group:00000000 wm4.sr5e1xx.h.22.e5c808533cc52ed19fb0830cd7d98924
                           .group:00000000 wm4.cmsis_version.h.32.0f826810625204eca22a19868bdc7586
                           .group:00000000 wm4.core_cm7.h.66.8ab2de36917d6fcae18019067fda13e0
                           .group:00000000 wm4.cmsis_gcc.h.26.498d0ad17a45fc9ef20fdc01caf02259
                           .group:00000000 wm4.core_cm7.h.174.43edb295ecdaadad738f48ba6011ffad
                           .group:00000000 wm4.mpu_armv7.h.32.83326921a797fa9d6f70449916b4b839
                           .group:00000000 wm4.cachel1_armv7.h.32.abd77761a989e008b0c60891114a33c7
                           .group:00000000 wm4.SR5E1_ADC.h.14.21608e6aff125ba995dd767d6d8dc311
                           .group:00000000 wm4.SR5E1_CEM.h.14.01fe5742c8f1ae35b1f3af05932f702e
                           .group:00000000 wm4.SR5E1_CMU.h.14.2617b38b159abe38028862394531e06d
                           .group:00000000 wm4.SR5E1_COMP.h.14.4b6fdfe4f5f7fd9bedf3a99b98bdf4cd
                           .group:00000000 wm4.SR5E1_CORDIC.h.14.354fbf7c9eaf6963d38eaa25cf28ffe8
                           .group:00000000 wm4.SR5E1_CRC.h.14.c64d0f7767671ddb92e9ead0a1162100
                           .group:00000000 wm4.SR5E1_DAC.h.14.8c26a0ff04b0cfeb55306cc3f22187b8
                           .group:00000000 wm4.SR5E1_DBGMCU.h.14.427df893d53a8044654f017ba01c25ed
                           .group:00000000 wm4.SR5E1_DMA.h.14.a7f9a92f844b40a86965798c2e64240b
                           .group:00000000 wm4.SR5E1_DMAMUX.h.14.471b3b4dfd4d41515f1df49493698866
                           .group:00000000 wm4.SR5E1_EXTI.h.14.a325ea3fe89cd84894660551c33241ea
                           .group:00000000 wm4.SR5E1_FCCU.h.14.0ebf0f0f36e079d28613ad2c80e17e23
                           .group:00000000 wm4.SR5E1_FDCAN.h.14.ac57101fad5dbc798bfb93f34c899de7
                           .group:00000000 wm4.SR5E1_FLASH_REG_ITF.h.14.d23d1d44923f9b20b8c8fdb51d66aefd
                           .group:00000000 wm4.SR5E1_GPIO.h.14.1c84071e130d7c64b62470ab0e18a1f1
                           .group:00000000 wm4.SR5E1_HRTIM.h.24.03932387d2522e6bd5c772a4edaf2f5d
                           .group:00000000 wm4.SR5E1_HSEM.h.14.cbe70eee519f01b16452c3f8c99d8df1
                           .group:00000000 wm4.SR5E1_I2C.h.14.350ba3e0f4fd57828457efa80135c36c
                           .group:00000000 wm4.SR5E1_IMA.h.14.62b7088985ab2b7ce9b030a02daa1f7d
                           .group:00000000 wm4.SR5E1_IWDG.h.14.20b7c5f05cf7ae94464c360d7af3660d
                           .group:00000000 wm4.SR5E1_MEMU.h.14.04bad7ae4c52ce334a4fc900aad2ae5b
                           .group:00000000 wm4.SR5E1_NVM_CTRL.h.14.5f442617f0628d4f16258f211c614ef9
                           .group:00000000 wm4.SR5E1_PLLDIG.h.14.bd87a8e6917eee17dae2f312c8e5fa53
                           .group:00000000 wm4.SR5E1_PMC_DIG.h.14.54173b566c6656344766ec4ef46c9281
                           .group:00000000 wm4.SR5E1_RCC.h.14.56734803c71534de286e793a53649740
                           .group:00000000 wm4.SR5E1_RTC.h.14.47037cbc7d8175dbf2be1dc0bb955e3f
                           .group:00000000 wm4.SR5E1_SD_ADC.h.14.552b97d0b8f3c1fd4df6d8964b2f1a80
                           .group:00000000 wm4.SR5E1_SMPU.h.14.8ce5bb6d5d7c579cd725f492f46e9085
                           .group:00000000 wm4.SR5E1_SPI.h.14.42d52112e540f85ade4d9135f8b87d72
                           .group:00000000 wm4.SR5E1_SSCM.h.14.8e6a2ad0ce5fca422fc3d69939b6125b
                           .group:00000000 wm4.SR5E1_SYSCFG.h.14.02b969490118ce4069914b5e94f7ca65
                           .group:00000000 wm4.SR5E1_TDM.h.14.a40ed7928cad243a57fd233fccf01ad2
                           .group:00000000 wm4.SR5E1_TIM.h.14.f17572f4c16f3f152b8164ad25c34f5b
                           .group:00000000 wm4.SR5E1_UART.h.14.eec3ab82b02b3bdb3de500483675b83f
                           .group:00000000 wm4.SR5E1_WWDG.h.14.59b45efc70e442cc6ef03702aad4ad88
                           .group:00000000 wm4.irq_numbers.h.38.6294b95aed1bf7b3a2cda0eed8ce8f57
                           .group:00000000 wm4.regs.h.23.2ac145b4f57126d16daed5fbd86d99c6
                           .group:00000000 wm4.irq.h.37.78714f25754c8b09d1428599101f6cc7

UNDEFINED SYMBOLS
hrtim_dev_get_reg_ptr
hrtim_dev_get_clock
hrtim_dev_clock_enable
hrtim_dev_enable_irq
hrtim_dev_calib_procedure
hrtim_dev_disable_irq
hrtim_dev_clock_disable
